 PhysXCommon_64

 Timestamp is 64024325 (Fri Mar  3 10:57:41 2023)

 Preferred load address is 0000000180000000

 Start         Length     Name                   Class
 0001:00000000 000029e0H .text$di                CODE
 0001:000029e0 0019a0e0H .text$mn                CODE
 0001:0019cac0 00000040H .text$mn$00             CODE
 0001:0019cb00 00000a80H .text$x                 CODE
 0002:00000000 000002f8H .idata$5                DATA
 0002:000002f8 00000038H .00cfg                  DATA
 0002:00000330 00000008H .CRT$XCA                DATA
 0002:00000338 00001428H .CRT$XCU                DATA
 0002:00001760 00000008H .CRT$XCZ                DATA
 0002:00001768 00000008H .CRT$XIA                DATA
 0002:00001770 00000018H .CRT$XIC                DATA
 0002:00001788 00000008H .CRT$XIZ                DATA
 0002:00001790 00000008H .CRT$XPA                DATA
 0002:00001798 00000010H .CRT$XPX                DATA
 0002:000017a8 00000008H .CRT$XPXA               DATA
 0002:000017b0 00000008H .CRT$XPZ                DATA
 0002:000017b8 00000008H .CRT$XTA                DATA
 0002:000017c0 00000010H .CRT$XTZ                DATA
 0002:000017c8 00000000H .gehcont$y              DATA
 0002:000017c8 00000000H .gfids$y                DATA
 0002:000017d0 0000f4b0H .rdata                  DATA
 0002:00010c80 00000080H .rdata$CastGuardVftablesA DATA
 0002:00010d00 00000080H .rdata$CastGuardVftablesC DATA
 0002:00010d80 00000464H .rdata$r                DATA
 0002:000111e4 000007a0H .rdata$voltmd           DATA
 0002:00011984 00000484H .rdata$zzzdbg           DATA
 0002:00011e08 00000008H .rtc$IAA                DATA
 0002:00011e10 00000008H .rtc$IZZ                DATA
 0002:00011e18 00000008H .rtc$TAA                DATA
 0002:00011e20 00000008H .rtc$TZZ                DATA
 0002:00011e28 00013b30H .xdata                  DATA
 0002:00025958 00000084H .xdata$x                DATA
 0002:000259dc 00000020H .didat$2                DATA
 0002:000259fc 00000024H .didat$3                DATA
 0002:00025a20 00000088H .didat$4                DATA
 0002:00025aa8 00000308H .didat$6                DATA
 0002:00025db0 00000090H .didat$7                DATA
 0002:00025e40 0000a180H .edata                  DATA
 0002:0002ffc0 00000014H .idata$2                DATA
 0002:0002ffd4 00000014H .idata$3                DATA
 0002:0002ffe8 000002f8H .idata$4                DATA
 0002:000302e0 000006d6H .idata$6                DATA
 0003:00000000 000014a0H .data                   DATA
 0003:000014a0 000005f0H .data$r                 DATA
 0003:00001a90 000000f0H .data$rs                DATA
 0003:00001b80 00000090H .didat$5                DATA
 0003:00001c10 00004370H .bss                    DATA
 0004:00000000 0000abd8H .pdata                  DATA
 0005:00000000 0000236cH _RDATA                  DATA
 0006:00000000 000000a0H .rsrc$01                DATA
 0006:000000a0 000004b0H .rsrc$02                DATA

  Address         Publics by Value              Rva+Base               Lib:Object

 0000:00000000       __AbsoluteZero             0000000000000000     <absolute>
 0000:00000000       ___safe_se_handler_count   0000000000000000     <absolute>
 0000:00000000       ___safe_se_handler_table   0000000000000000     <absolute>
 0000:00000000       __arm64x_extra_rfe_table   0000000000000000     <absolute>
 0000:00000000       __arm64x_extra_rfe_table_size 0000000000000000     <absolute>
 0000:00000000       __arm64x_native_entrypoint 0000000000000000     <absolute>
 0000:00000000       __arm64x_redirection_metadata 0000000000000000     <absolute>
 0000:00000000       __arm64x_redirection_metadata_count 0000000000000000     <absolute>
 0000:00000000       __dynamic_value_reloc_table 0000000000000000     <absolute>
 0000:00000000       __enclave_config           0000000000000000     <absolute>
 0000:00000000       __guard_check_icall_a64n_fptr 0000000000000000     <absolute>
 0000:00000000       __guard_eh_cont_count      0000000000000000     <absolute>
 0000:00000000       __guard_eh_cont_table      0000000000000000     <absolute>
 0000:00000000       __guard_fids_count         0000000000000000     <absolute>
 0000:00000000       __guard_fids_table         0000000000000000     <absolute>
 0000:00000000       __guard_iat_count          0000000000000000     <absolute>
 0000:00000000       __guard_iat_table          0000000000000000     <absolute>
 0000:00000000       __guard_longjmp_count      0000000000000000     <absolute>
 0000:00000000       __guard_longjmp_table      0000000000000000     <absolute>
 0000:00000000       __hybrid_auxiliary_iat     0000000000000000     <absolute>
 0000:00000000       __hybrid_auxiliary_iat_copy 0000000000000000     <absolute>
 0000:00000000       __hybrid_code_map          0000000000000000     <absolute>
 0000:00000000       __hybrid_code_map_count    0000000000000000     <absolute>
 0000:00000000       __x64_code_ranges_to_entry_points 0000000000000000     <absolute>
 0000:00000000       __x64_code_ranges_to_entry_points_count 0000000000000000     <absolute>
 0000:00000100       __guard_flags              0000000000000100     <absolute>
 0000:00000000       __ImageBase                0000000180000000     <linker-defined>
 0001:000029e0       ?PxCreateCollection@@YAPEAVPxCollection@physx@@XZ 00000001800039e0 f   CmCollection.obj
 0001:00002ae0       ?add@Collection@Cm@physx@@UEAAXAEAVPxBase@3@_K@Z 0000000180003ae0 f   CmCollection.obj
 0001:00002be0       ?remove@Collection@Cm@physx@@UEAAXAEAVPxBase@3@@Z 0000000180003be0 f   CmCollection.obj
 0001:00002cd0       ?contains@Collection@Cm@physx@@UEBA_NAEAVPxBase@3@@Z 0000000180003cd0 f   CmCollection.obj
 0001:00002d80       ?addId@Collection@Cm@physx@@UEAAXAEAVPxBase@3@_K@Z 0000000180003d80 f   CmCollection.obj
 0001:00002eb0       ?removeId@Collection@Cm@physx@@UEAAX_K@Z 0000000180003eb0 f   CmCollection.obj
 0001:00002f30       ?find@Collection@Cm@physx@@UEBAPEAVPxBase@3@_K@Z 0000000180003f30 f   CmCollection.obj
 0001:00002f60       ?add@Collection@Cm@physx@@UEAAXAEAVPxCollection@3@@Z 0000000180003f60 f   CmCollection.obj
 0001:00003100       ?remove@Collection@Cm@physx@@UEAAXAEAVPxCollection@3@@Z 0000000180004100 f   CmCollection.obj
 0001:00003220       ?getNbObjects@Collection@Cm@physx@@UEBAIXZ 0000000180004220 f   CmCollection.obj
 0001:00003230       ?getObject@Collection@Cm@physx@@UEBAAEAVPxBase@3@I@Z 0000000180004230 f   CmCollection.obj
 0001:00003250       ?getObjects@Collection@Cm@physx@@UEBAIPEAPEAVPxBase@3@II@Z 0000000180004250 f   CmCollection.obj
 0001:00003290       ?getNbIds@Collection@Cm@physx@@UEBAIXZ 0000000180004290 f   CmCollection.obj
 0001:000032a0       ?getId@Collection@Cm@physx@@UEBA_KAEBVPxBase@3@@Z 00000001800042a0 f   CmCollection.obj
 0001:00003350       ?getIds@Collection@Cm@physx@@UEBAIPEA_KII@Z 0000000180004350 f   CmCollection.obj
 0001:00003420       ??1PxCollection@physx@@MEAA@XZ 0000000180004420 f i CmCollection.obj
 0001:00003430       ??_ECollection@Cm@physx@@UEAAPEAXI@Z 0000000180004430 f i CmCollection.obj
 0001:00003430       ??_GCollection@Cm@physx@@UEAAPEAXI@Z 0000000180004430 f i CmCollection.obj
 0001:000034e0       ??_EPxCollection@physx@@MEAAPEAXI@Z 00000001800044e0 f i CmCollection.obj
 0001:000034e0       ??_GPxCollection@physx@@MEAAPEAXI@Z 00000001800044e0 f i CmCollection.obj
 0001:00003510       ?__empty_global_delete@@YAXPEAX@Z 0000000180004510 f i CmCollection.obj
 0001:00003520       ?__empty_global_delete@@YAXPEAX_K@Z 0000000180004520 f i CmCollection.obj
 0001:00003530       ?create@?$HashBase@V?$Pair@$$CB_KPEAVPxBase@physx@@@shdfnd@physx@@_KU?$Hash@_K@23@UGetKey@?$HashMapBase@_KPEAVPxBase@physx@@U?$Hash@_K@shdfnd@2@VNonTrackingAllocator@42@@internal@23@VNonTrackingAllocator@23@$00@internal@shdfnd@physx@@QEAAPEAV?$Pair@$$CB_KPEAVPxBase@physx@@@34@AEB_KAEA_N@Z 0000000180004530 f i CmCollection.obj
 0001:000036c0       ?create@?$HashBase@V?$Pair@QEAVPxBase@physx@@_K@shdfnd@physx@@PEAVPxBase@3@U?$Hash@PEAVPxBase@physx@@@23@UGetKey@?$HashMapBase@PEAVPxBase@physx@@_KU?$Hash@PEAVPxBase@physx@@@shdfnd@2@VNonTrackingAllocator@42@@internal@23@VNonTrackingAllocator@23@$00@internal@shdfnd@physx@@QEAAPEAV?$Pair@QEAVPxBase@physx@@_K@34@AEBQEAVPxBase@4@AEA_N@Z 00000001800046c0 f i CmCollection.obj
 0001:00003850       ?erase@?$HashBase@V?$Pair@$$CB_KPEAVPxBase@physx@@@shdfnd@physx@@_KU?$Hash@_K@23@UGetKey@?$HashMapBase@_KPEAVPxBase@physx@@U?$Hash@_K@shdfnd@2@VNonTrackingAllocator@42@@internal@23@VNonTrackingAllocator@23@$00@internal@shdfnd@physx@@QEAA_NAEB_K@Z 0000000180004850 f i CmCollection.obj
 0001:00003a00       ?erase@?$HashBase@V?$Pair@QEAVPxBase@physx@@_K@shdfnd@physx@@PEAVPxBase@3@U?$Hash@PEAVPxBase@physx@@@23@UGetKey@?$HashMapBase@PEAVPxBase@physx@@_KU?$Hash@PEAVPxBase@physx@@@shdfnd@2@VNonTrackingAllocator@42@@internal@23@VNonTrackingAllocator@23@$00@internal@shdfnd@physx@@QEAA_NAEBQEAVPxBase@4@@Z 0000000180004a00 f i CmCollection.obj
 0001:00003bb0       ?find@?$HashMapBase@_KPEAVPxBase@physx@@U?$Hash@_K@shdfnd@2@VNonTrackingAllocator@42@@internal@shdfnd@physx@@QEBAPEBV?$Pair@$$CB_KPEAVPxBase@physx@@@34@AEB_K@Z 0000000180004bb0 f i CmCollection.obj
 0001:00003c50       ?release@Collection@Cm@physx@@UEAAXXZ 0000000180004c50 f i CmCollection.obj
 0001:00003c70       ?reserveInternal@?$HashBase@V?$Pair@$$CB_KPEAVPxBase@physx@@@shdfnd@physx@@_KU?$Hash@_K@23@UGetKey@?$HashMapBase@_KPEAVPxBase@physx@@U?$Hash@_K@shdfnd@2@VNonTrackingAllocator@42@@internal@23@VNonTrackingAllocator@23@$00@internal@shdfnd@physx@@AEAAXI@Z 0000000180004c70 f i CmCollection.obj
 0001:00003e50       ?reserveInternal@?$HashBase@V?$Pair@QEAVPxBase@physx@@_K@shdfnd@physx@@PEAVPxBase@3@U?$Hash@PEAVPxBase@physx@@@23@UGetKey@?$HashMapBase@PEAVPxBase@physx@@_KU?$Hash@PEAVPxBase@physx@@@shdfnd@2@VNonTrackingAllocator@42@@internal@23@VNonTrackingAllocator@23@$00@internal@shdfnd@physx@@AEAAXI@Z 0000000180004e50 f i CmCollection.obj
 0001:00004030       ?PxTransformFromPlaneEquation@physx@@YA?AVPxTransform@1@AEBVPxPlane@1@@Z 0000000180005030 f   CmMathUtils.obj
 0001:00004210       ?PxTransformFromSegment@physx@@YA?AVPxTransform@1@AEBVPxVec3@1@0PEAM@Z 0000000180005210 f   CmMathUtils.obj
 0001:00004380       ??0PtrTable@Cm@physx@@QEAA@XZ 0000000180005380 f   CmPtrTable.obj
 0001:000043a0       ??1PtrTable@Cm@physx@@QEAA@XZ 00000001800053a0 f   CmPtrTable.obj
 0001:000043b0       ?add@PtrTable@Cm@physx@@QEAAXPEAXAEAVPtrTableStorageManager@23@@Z 00000001800053b0 f   CmPtrTable.obj
 0001:00004480       ?replaceWithLast@PtrTable@Cm@physx@@QEAAXIAEAVPtrTableStorageManager@23@@Z 0000000180005480 f   CmPtrTable.obj
 0001:00004580       ?clear@PtrTable@Cm@physx@@QEAAXAEAVPtrTableStorageManager@23@@Z 0000000180005580 f   CmPtrTable.obj
 0001:00004600       ?find@PtrTable@Cm@physx@@QEBAIPEBX@Z 0000000180005600 f   CmPtrTable.obj
 0001:00004640       ?exportExtraData@PtrTable@Cm@physx@@QEAAXAEAVPxSerializationContext@3@@Z 0000000180005640 f   CmPtrTable.obj
 0001:00004690       ?importExtraData@PtrTable@Cm@physx@@QEAAXAEAVPxDeserializationContext@3@@Z 0000000180005690 f   CmPtrTable.obj
 0001:000046c0       ?getBinaryMetaData@PtrTable@Cm@physx@@SAXAEAVPxOutputStream@3@@Z 00000001800056c0 f   CmPtrTable.obj
 0001:00004880       ?realloc@PtrTable@Cm@physx@@AEAAXIIAEAVPtrTableStorageManager@23@@Z 0000000180005880 f   CmPtrTable.obj
 0001:00004910       ??0PtrTable@Cm@physx@@QEAA@W4PxEMPTY@2@@Z 0000000180005910 f i CmPtrTable.obj
 0001:00004930       ??4PtrTable@Cm@physx@@QEAAAEAU012@AEBU012@@Z 0000000180005930 f i CmPtrTable.obj
 0001:00004940       ?getCount@PtrTable@Cm@physx@@QEBAIXZ 0000000180005940 f i CmPtrTable.obj
 0001:00004950       ?getPtrs@PtrTable@Cm@physx@@QEAAPEAPEAXXZ 0000000180005950 f i CmPtrTable.obj
 0001:00004960       ?getPtrs@PtrTable@Cm@physx@@QEBAPEBQEAXXZ 0000000180005960 f i CmPtrTable.obj
 0001:00004970       ??0RadixSort@Cm@physx@@QEAA@XZ 0000000180005970 f   CmRadixSort.obj
 0001:000049b0       ??1RadixSort@Cm@physx@@UEAA@XZ 00000001800059b0 f   CmRadixSort.obj
 0001:000049d0       ?Sort@RadixSort@Cm@physx@@QEAAAEAV123@PEBIIW4RadixHint@23@@Z 00000001800059d0 f   CmRadixSort.obj
 0001:00005080       ?Sort@RadixSort@Cm@physx@@QEAAAEAV123@PEBMI@Z 0000000180006080 f   CmRadixSort.obj
 0001:00005820       ?SetBuffers@RadixSort@Cm@physx@@QEAA_NPEAI00PEAPEAI@Z 0000000180006820 f   CmRadixSort.obj
 0001:00005860       ??_ERadixSort@Cm@physx@@UEAAPEAXI@Z 0000000180006860 f i CmRadixSort.obj
 0001:000058f0       ??_GRadixSort@Cm@physx@@UEAAPEAXI@Z 00000001800068f0 f i CmRadixSort.obj
 0001:00005920       ??_I@YAXPEAX_K1P6AX0@Z@Z   0000000180006920 f i CmRadixSort.obj
 0001:00005980       ?GetNbHits@RadixSort@Cm@physx@@QEBAIXZ 0000000180006980 f i CmRadixSort.obj
 0001:00005990       ?GetNbTotalCalls@RadixSort@Cm@physx@@QEBAIXZ 0000000180006990 f i CmRadixSort.obj
 0001:000059a0       ?GetRanks@RadixSort@Cm@physx@@QEBAPEBIXZ 00000001800069a0 f i CmRadixSort.obj
 0001:000059b0       ?GetRecyclable@RadixSort@Cm@physx@@QEBAPEAIXZ 00000001800069b0 f i CmRadixSort.obj
 0001:000059c0       ?invalidateRanks@RadixSort@Cm@physx@@QEAAXXZ 00000001800069c0 f i CmRadixSort.obj
 0001:000059d0       ??0RadixSortBuffered@Cm@physx@@QEAA@XZ 00000001800069d0 f   CmRadixSortBuffered.obj
 0001:00005a00       ??1RadixSortBuffered@Cm@physx@@UEAA@XZ 0000000180006a00 f   CmRadixSortBuffered.obj
 0001:00005a30       ?reset@RadixSortBuffered@Cm@physx@@QEAAXXZ 0000000180006a30 f   CmRadixSortBuffered.obj
 0001:00005ac0       ?Sort@RadixSortBuffered@Cm@physx@@QEAAAEAV123@PEBIIW4RadixHint@23@@Z 0000000180006ac0 f   CmRadixSortBuffered.obj
 0001:00005b60       ?Sort@RadixSortBuffered@Cm@physx@@QEAAAEAV123@PEBMI@Z 0000000180006b60 f   CmRadixSortBuffered.obj
 0001:00005bf0       ?Resize@RadixSortBuffered@Cm@physx@@AEAA_NI@Z 0000000180006bf0 f   CmRadixSortBuffered.obj
 0001:00005ce0       ??_ERadixSortBuffered@Cm@physx@@UEAAPEAXI@Z 0000000180006ce0 f i CmRadixSortBuffered.obj
 0001:00005db0       ??_GRadixSortBuffered@Cm@physx@@UEAAPEAXI@Z 0000000180006db0 f i CmRadixSortBuffered.obj
 0001:00005e00       ?CheckResize@RadixSortBuffered@Cm@physx@@AEAAXI@Z 0000000180006e00 f i CmRadixSortBuffered.obj
 0001:00005e40       ??6RenderOutput@Cm@physx@@QEAAAEAV012@W4Primitive@012@@Z 0000000180006e40 f   CmRenderOutput.obj
 0001:00005e60       ??6RenderOutput@Cm@physx@@QEAAAEAV012@I@Z 0000000180006e60 f   CmRenderOutput.obj
 0001:00005e70       ??6RenderOutput@Cm@physx@@QEAAAEAV012@AEBVPxMat44@2@@Z 0000000180006e70 f   CmRenderOutput.obj
 0001:00005ee0       ??6RenderOutput@Cm@physx@@QEAAAEAV012@AEBVPxTransform@2@@Z 0000000180006ee0 f   CmRenderOutput.obj
 0001:00006070       ??6RenderOutput@Cm@physx@@QEAAAEAV012@VPxVec3@2@@Z 0000000180007070 f   CmRenderOutput.obj
 0001:000065c0       ??6RenderOutput@Cm@physx@@QEAAAEAV012@AEBUDebugText@12@@Z 00000001800075c0 f   CmRenderOutput.obj
 0001:000067d0       ?outputCapsule@RenderOutput@Cm@physx@@QEAAAEAV123@MMAEBVPxMat44@3@@Z 00000001800077d0 f   CmRenderOutput.obj
 0001:00007290       ??0DebugText@Cm@physx@@QEAA@AEBVPxVec3@2@MPEBDZZ 0000000180008290 f   CmRenderOutput.obj
 0001:000072f0       ??6Cm@physx@@YAAEAVRenderOutput@01@AEAV201@AEBUDebugBox@01@@Z 00000001800082f0 f   CmRenderOutput.obj
 0001:000077f0       ??6Cm@physx@@YAAEAVRenderOutput@01@AEAV201@AEBUDebugArrow@01@@Z 00000001800087f0 f   CmRenderOutput.obj
 0001:00007bf0       ??6Cm@physx@@YAAEAVRenderOutput@01@AEAV201@AEBUDebugBasis@01@@Z 0000000180008bf0 f   CmRenderOutput.obj
 0001:00007cf0       ??6Cm@physx@@YAAEAVRenderOutput@01@AEAV201@AEBUDebugCircle@01@@Z 0000000180008cf0 f   CmRenderOutput.obj
 0001:00007de0       ??6Cm@physx@@YAAEAVRenderOutput@01@AEAV201@AEBUDebugArc@01@@Z 0000000180008de0 f   CmRenderOutput.obj
 0001:00007ee0       ??0DebugText@Cm@physx@@QEAA@$$QEAU012@@Z 0000000180008ee0 f i CmRenderOutput.obj
 0001:00007fc0       ??0DebugText@Cm@physx@@QEAA@AEBU012@@Z 0000000180008fc0 f i CmRenderOutput.obj
 0001:000080a0       ??0RenderOutput@Cm@physx@@QEAA@AEAVRenderBuffer@12@@Z 00000001800090a0 f i CmRenderOutput.obj
 0001:000080f0       ??0RenderOutput@Cm@physx@@QEAA@AEBV012@@Z 00000001800090f0 f i CmRenderOutput.obj
 0001:00008190       ??4DebugText@Cm@physx@@QEAAAEAU012@$$QEAU012@@Z 0000000180009190 f i CmRenderOutput.obj
 0001:000082c0       ??4DebugText@Cm@physx@@QEAAAEAU012@AEBU012@@Z 00000001800092c0 f i CmRenderOutput.obj
 0001:000083f0       ?allocate@?$Array@DV?$ReflectionAllocator@D@shdfnd@physx@@@shdfnd@physx@@IEAAPEADI@Z 00000001800093f0 f i CmRenderOutput.obj
 0001:00008480       ?allocate@?$Array@UPxDebugLine@physx@@V?$ReflectionAllocator@UPxDebugLine@physx@@@shdfnd@2@@shdfnd@physx@@IEAAPEAUPxDebugLine@3@I@Z 0000000180009480 f i CmRenderOutput.obj
 0001:00008520       ?allocate@?$Array@UPxDebugPoint@physx@@V?$ReflectionAllocator@UPxDebugPoint@physx@@@shdfnd@2@@shdfnd@physx@@IEAAPEAUPxDebugPoint@3@I@Z 0000000180009520 f i CmRenderOutput.obj
 0001:000085c0       ?allocate@?$Array@UPxDebugText@physx@@V?$ReflectionAllocator@UPxDebugText@physx@@@shdfnd@2@@shdfnd@physx@@IEAAPEAUPxDebugText@3@I@Z 00000001800095c0 f i CmRenderOutput.obj
 0001:00008660       ?allocate@?$Array@UPxDebugTriangle@physx@@V?$ReflectionAllocator@UPxDebugTriangle@physx@@@shdfnd@2@@shdfnd@physx@@IEAAPEAUPxDebugTriangle@3@I@Z 0000000180009660 f i CmRenderOutput.obj
 0001:00008700       ?copy@?$Array@UPxDebugLine@physx@@V?$ReflectionAllocator@UPxDebugLine@physx@@@shdfnd@2@@shdfnd@physx@@KAXPEAUPxDebugLine@3@0PEBU43@@Z 0000000180009700 f i CmRenderOutput.obj
 0001:000088b0       ?copy@?$Array@UPxDebugPoint@physx@@V?$ReflectionAllocator@UPxDebugPoint@physx@@@shdfnd@2@@shdfnd@physx@@KAXPEAUPxDebugPoint@3@0PEBU43@@Z 00000001800098b0 f i CmRenderOutput.obj
 0001:000089b0       ?copy@?$Array@UPxDebugText@physx@@V?$ReflectionAllocator@UPxDebugText@physx@@@shdfnd@2@@shdfnd@physx@@KAXPEAUPxDebugText@3@0PEBU43@@Z 00000001800099b0 f i CmRenderOutput.obj
 0001:00008b20       ?copy@?$Array@UPxDebugTriangle@physx@@V?$ReflectionAllocator@UPxDebugTriangle@physx@@@shdfnd@2@@shdfnd@physx@@KAXPEAUPxDebugTriangle@3@0PEBU43@@Z 0000000180009b20 f i CmRenderOutput.obj
 0001:00008d20       ?growAndPushBack@?$Array@DV?$ReflectionAllocator@D@shdfnd@physx@@@shdfnd@physx@@IEAAAEADAEBD@Z 0000000180009d20 f i CmRenderOutput.obj
 0001:00008de0       ?growAndPushBack@?$Array@UPxDebugLine@physx@@V?$ReflectionAllocator@UPxDebugLine@physx@@@shdfnd@2@@shdfnd@physx@@IEAAAEAUPxDebugLine@3@AEBU43@@Z 0000000180009de0 f i CmRenderOutput.obj
 0001:00008ec0       ?growAndPushBack@?$Array@UPxDebugPoint@physx@@V?$ReflectionAllocator@UPxDebugPoint@physx@@@shdfnd@2@@shdfnd@physx@@IEAAAEAUPxDebugPoint@3@AEBU43@@Z 0000000180009ec0 f i CmRenderOutput.obj
 0001:00008f80       ?growAndPushBack@?$Array@UPxDebugText@physx@@V?$ReflectionAllocator@UPxDebugText@physx@@@shdfnd@2@@shdfnd@physx@@IEAAAEAUPxDebugText@3@AEBU43@@Z 0000000180009f80 f i CmRenderOutput.obj
 0001:00009050       ?growAndPushBack@?$Array@UPxDebugTriangle@physx@@V?$ReflectionAllocator@UPxDebugTriangle@physx@@@shdfnd@2@@shdfnd@physx@@IEAAAEAUPxDebugTriangle@3@AEBU43@@Z 000000018000a050 f i CmRenderOutput.obj
 0001:00009150       ?outputSegment@RenderOutput@Cm@physx@@QEAAXAEBVPxVec3@3@0@Z 000000018000a150 f i CmRenderOutput.obj
 0001:00009210       ?recreate@?$Array@DV?$ReflectionAllocator@D@shdfnd@physx@@@shdfnd@physx@@IEAAXI@Z 000000018000a210 f i CmRenderOutput.obj
 0001:000092b0       ?recreate@?$Array@UPxDebugLine@physx@@V?$ReflectionAllocator@UPxDebugLine@physx@@@shdfnd@2@@shdfnd@physx@@IEAAXI@Z 000000018000a2b0 f i CmRenderOutput.obj
 0001:00009340       ?reserveSegments@RenderOutput@Cm@physx@@QEAAPEAUPxDebugLine@3@I@Z 000000018000a340 f i CmRenderOutput.obj
 0001:000093a0       ?visualizeJointFrames@Cm@physx@@YAXAEAVRenderOutput@12@MAEBVPxTransform@2@1@Z 000000018000a3a0 f   CmVisualization.obj
 0001:00009470       ?visualizeLinearLimit@Cm@physx@@YAXAEAVRenderOutput@12@MAEBVPxTransform@2@1M_N@Z 000000018000a470 f   CmVisualization.obj
 0001:00009700       ?visualizeAngularLimit@Cm@physx@@YAXAEAVRenderOutput@12@MAEBVPxTransform@2@MM_N@Z 000000018000a700 f   CmVisualization.obj
 0001:000098d0       ?visualizeLimitCone@Cm@physx@@YAXAEAVRenderOutput@12@MAEBVPxTransform@2@MM_N@Z 000000018000a8d0 f   CmVisualization.obj
 0001:00009b60       ?visualizeDoubleCone@Cm@physx@@YAXAEAVRenderOutput@12@MAEBVPxTransform@2@M_N@Z 000000018000ab60 f   CmVisualization.obj
 0001:00009dc0       ??DPxQuat@physx@@QEBA?AV01@AEBV01@@Z 000000018000adc0 f i CmVisualization.obj
 0001:00009f00       ??0CmModuleUpdateLoader@Cm@physx@@QEAA@PEBD@Z 000000018000af00 f   CmWindowsModuleUpdateLoader.obj
 0001:00009f50       ??1CmModuleUpdateLoader@Cm@physx@@QEAA@XZ 000000018000af50 f   CmWindowsModuleUpdateLoader.obj
 0001:00009f80       ?LoadModule@CmModuleUpdateLoader@Cm@physx@@QEAAPEAUHINSTANCE__@@PEBD0@Z 000000018000af80 f   CmWindowsModuleUpdateLoader.obj
 0001:00009fa0       ??4CmModuleUpdateLoader@Cm@physx@@QEAAAEAV012@AEBV012@@Z 000000018000afa0 f i CmWindowsModuleUpdateLoader.obj
 0001:00009fb0       PxSetPhysXCommonDelayLoadHook 000000018000afb0 f   CmWindowsDelayLoadHook.obj
 0001:00009fc0       ?commonDelayHook@@YAP6A_JXZIPEAUDelayLoadInfo@@@Z 000000018000afc0 f   CmWindowsDelayLoadHook.obj
 0001:0000a0a0       ?computeBounds@Gu@physx@@YAXAEAVPxBounds3@2@AEBVPxGeometry@2@AEBVPxTransform@2@MPEIBVCenterExtentsPadded@12@M@Z 000000018000b0a0 f   GuBounds.obj
 0001:0000a980       ?computeBoundsWithCCDThreshold@Gu@physx@@YAMAEAVVec3p@12@0AEBVPxGeometry@2@AEBVPxTransform@2@PEIBVCenterExtentsPadded@12@@Z 000000018000b980 f   GuBounds.obj
 0001:0000ab60       ??0ShapeData@Gu@physx@@QEAA@AEBVPxGeometry@2@AEBVPxTransform@2@M@Z 000000018000bb60 f   GuBounds.obj
 0001:0000b0c0       ??0Box@Gu@physx@@QEAA@AEBV012@@Z 000000018000c0c0 f i GuBounds.obj
 0001:0000b120       ??0Box@Gu@physx@@QEAA@AEBVPxVec3@2@0AEBVPxMat33@2@@Z 000000018000c120 f i GuBounds.obj
 0001:0000b190       ??0Box@Gu@physx@@QEAA@XZ   000000018000c190 f i GuBounds.obj
 0001:0000b1a0       ??0HeightFieldData@Gu@physx@@QEAA@$$QEAU012@@Z 000000018000c1a0 f i GuBounds.obj
 0001:0000b200       ??0HeightFieldData@Gu@physx@@QEAA@AEBU012@@Z 000000018000c200 f i GuBounds.obj
 0001:0000b260       ??0HeightFieldData@Gu@physx@@QEAA@W4PxEMPTY@2@@Z 000000018000c260 f i GuBounds.obj
 0001:0000b270       ??0HeightFieldData@Gu@physx@@QEAA@XZ 000000018000c270 f i GuBounds.obj
 0001:0000b280       ??0PxQuat@physx@@QEAA@AEBVPxMat33@1@@Z 000000018000c280 f i GuBounds.obj
 0001:0000b480       ??0PxVec3@physx@@QEAA@XZ   000000018000c480 f i GuBounds.obj
 0001:0000b490       ??0PxVec4@physx@@QEAA@XZ   000000018000c490 f i GuBounds.obj
 0001:0000b4a0       ??1Box@Gu@physx@@QEAA@XZ   000000018000c4a0 f i GuBounds.obj
 0001:0000b4b0       ??1HeightFieldData@Gu@physx@@QEAA@XZ 000000018000c4b0 f i GuBounds.obj
 0001:0000b4c0       ??1PxBase@physx@@MEAA@XZ   000000018000c4c0 f i GuBounds.obj
 0001:0000b4d0       ??1PxConvexMesh@physx@@MEAA@XZ 000000018000c4d0 f i GuBounds.obj
 0001:0000b4e0       ??1PxHeightField@physx@@MEAA@XZ 000000018000c4e0 f i GuBounds.obj
 0001:0000b4f0       ??4Box@Gu@physx@@QEAAAEBV012@AEBV012@@Z 000000018000c4f0 f i GuBounds.obj
 0001:0000b550       ??4HeightFieldData@Gu@physx@@QEAAAEAU012@$$QEAU012@@Z 000000018000c550 f i GuBounds.obj
 0001:0000b5b0       ??4HeightFieldData@Gu@physx@@QEAAAEAU012@AEBU012@@Z 000000018000c5b0 f i GuBounds.obj
 0001:0000b610       ??_EPxBase@physx@@MEAAPEAXI@Z 000000018000c610 f i GuBounds.obj
 0001:0000b610       ??_GPxBase@physx@@MEAAPEAXI@Z 000000018000c610 f i GuBounds.obj
 0001:0000b640       ??_H@YAXPEAX_K1P6APEAX0@Z@Z 000000018000c640 f i GuBounds.obj
 0001:0000b690       ?computeAABBExtent@Box@Gu@physx@@QEBA?AVPxVec3@3@XZ 000000018000c690 f i GuBounds.obj
 0001:0000b750       ?computeBoxPoints@Box@Gu@physx@@QEBAXPEIAVPxVec3@3@@Z 000000018000c750 f i GuBounds.obj
 0001:0000c710       ?getConcreteTypeName@PxConvexMesh@physx@@UEBAPEBDXZ 000000018000d710 f i GuBounds.obj
 0001:0000c720       ?getConcreteTypeName@PxHeightField@physx@@UEBAPEBDXZ 000000018000d720 f i GuBounds.obj
 0001:0000c730       ?getConvexEdgeThreshold@HeightField@Gu@physx@@UEBAMXZ 000000018000d730 f i GuBounds.obj
 0001:0000c740       ?getFlags@HeightField@Gu@physx@@UEBA?AV?$PxFlags@W4Enum@PxHeightFieldFlag@physx@@G@3@XZ 000000018000d740 f i GuBounds.obj
 0001:0000c750       ?getFormat@HeightField@Gu@physx@@UEBA?AW4Enum@PxHeightFieldFormat@3@XZ 000000018000d750 f i GuBounds.obj
 0001:0000c760       ?getHeight@HeightField@Gu@physx@@UEBAMMM@Z 000000018000d760 f i GuBounds.obj
 0001:0000c7a0       ?getHeightInternal2@HeightField@Gu@physx@@QEBAMIMM@Z 000000018000d7a0 f i GuBounds.obj
 0001:0000c910       ?getIndexBuffer@ConvexMesh@Gu@physx@@UEBAPEBEXZ 000000018000d910 f i GuBounds.obj
 0001:0000c950       ?getNbColumns@HeightField@Gu@physx@@UEBAIXZ 000000018000d950 f i GuBounds.obj
 0001:0000c960       ?getNbPolygons@ConvexMesh@Gu@physx@@UEBAIXZ 000000018000d960 f i GuBounds.obj
 0001:0000c970       ?getNbRows@HeightField@Gu@physx@@UEBAIXZ 000000018000d970 f i GuBounds.obj
 0001:0000c980       ?getNbVertices@ConvexMesh@Gu@physx@@UEBAIXZ 000000018000d980 f i GuBounds.obj
 0001:0000c990       ?getPaddedBounds@HeightFieldData@Gu@physx@@QEBAAEBVCenterExtentsPadded@23@XZ 000000018000d990 f i GuBounds.obj
 0001:0000c9a0       ?getSample@HeightField@Gu@physx@@UEBAAEBUPxHeightFieldSample@3@II@Z 000000018000d9a0 f i GuBounds.obj
 0001:0000c9b0       ?getSampleStride@HeightField@Gu@physx@@UEBAIXZ 000000018000d9b0 f i GuBounds.obj
 0001:0000c9c0       ?getTimestamp@HeightField@Gu@physx@@UEBAIXZ 000000018000d9c0 f i GuBounds.obj
 0001:0000c9d0       ?getTransform@Box@Gu@physx@@QEBA?AVPxTransform@3@XZ 000000018000d9d0 f i GuBounds.obj
 0001:0000ca30       ?getTriangleMaterialIndex@HeightField@Gu@physx@@UEBAGI@Z 000000018000da30 f i GuBounds.obj
 0001:0000ca60       ?getTriangleNormal@HeightField@Gu@physx@@UEBA?AVPxVec3@3@I@Z 000000018000da60 f i GuBounds.obj
 0001:0000ca80       ?getTriangleNormalInternal@HeightField@Gu@physx@@QEBA?AVPxVec3@3@I@Z 000000018000da80 f i GuBounds.obj
 0001:0000cbd0       ?getVertices@ConvexMesh@Gu@physx@@UEBAPEBVPxVec3@3@XZ 000000018000dbd0 f i GuBounds.obj
 0001:0000cbf0       ?isKindOf@PxBase@physx@@MEBA_NPEBD@Z 000000018000dbf0 f i GuBounds.obj
 0001:0000cc20       ?isKindOf@PxConvexMesh@physx@@MEBA_NPEBD@Z 000000018000dc20 f i GuBounds.obj
 0001:0000cc70       ?isKindOf@PxHeightField@physx@@MEBA_NPEBD@Z 000000018000dc70 f i GuBounds.obj
 0001:0000ccc0       ?isReleasable@PxBase@physx@@UEBA_NXZ 000000018000dcc0 f i GuBounds.obj
 0001:0000ccd0       ?isValid@Box@Gu@physx@@QEBA_NXZ 000000018000dcd0 f i GuBounds.obj
 0001:0000ccf0       ?preExportDataReset@ConvexMesh@Gu@physx@@QEAAXXZ 000000018000dcf0 f i GuBounds.obj
 0001:0000cd00       ?preExportDataReset@HeightField@Gu@physx@@QEAAXXZ 000000018000dd00 f i GuBounds.obj
 0001:0000cd10       ?rotate@Box@Gu@physx@@QEBA?AVPxVec3@3@AEBV43@@Z 000000018000dd10 f i GuBounds.obj
 0001:0000cda0       ?rotateInv@Box@Gu@physx@@QEBA?AVPxVec3@3@AEBV43@@Z 000000018000dda0 f i GuBounds.obj
 0001:0000ce30       ?setAxes@Box@Gu@physx@@QEAAXAEBVPxVec3@3@00@Z 000000018000de30 f i GuBounds.obj
 0001:0000ce70       ?setEmpty@Box@Gu@physx@@QEAAXXZ 000000018000de70 f i GuBounds.obj
 0001:0000ceb0       ?transform@Box@Gu@physx@@QEBA?AVPxVec3@3@AEBV43@@Z 000000018000deb0 f i GuBounds.obj
 0001:0000cf50       ?computeOBBPoints@Gu@physx@@YAXPEIAVPxVec3@2@AEBV32@1111@Z 000000018000df50 f   GuBox.obj
 0001:0000d1d0       ?create@Box@Gu@physx@@QEAAXAEBVCapsule@23@@Z 000000018000e1d0 f   GuBox.obj
 0001:0000d410       ?getBoxEdges@Gu@physx@@YAPEBEXZ 000000018000e410 f   GuBox.obj
 0001:0000d420       ?computeBoxAroundCapsule@Gu@physx@@YAXAEBVCapsule@12@AEAVBox@12@@Z 000000018000e420 f   GuCapsule.obj
 0001:0000d570       ?computeBasis@shdfnd@physx@@YAXAEBVPxVec3@2@0AEAV32@11@Z 000000018000e570 f i GuCapsule.obj
 0001:0000d710       ?sweepBoxTriangles_Precise@Gu@physx@@YA_NIPEBVPxTriangle@2@_NAEBVPxBoxGeometry@2@AEBVPxTransform@2@AEBVPxVec3@2@MAEAUPxSweepHit@2@PEBIMV?$PxFlags@W4Enum@PxHitFlag@physx@@G@2@@Z 000000018000e710 f   GuCCTSweepTests.obj
 0001:0000d860       ?sweepCapsule_BoxGeom_Precise@@YA_NAEBVPxGeometry@physx@@AEBVPxTransform@2@AEBVPxCapsuleGeometry@2@1AEBVCapsule@Gu@2@AEBVPxVec3@2@MAEAUPxSweepHit@2@V?$PxFlags@W4Enum@PxHitFlag@physx@@G@2@M@Z 000000018000e860 f   GuCCTSweepTests.obj
 0001:0000ded0       ?sweepBox_SphereGeom_Precise@@YA_NAEBVPxGeometry@physx@@AEBVPxTransform@2@AEBVPxBoxGeometry@2@1AEBVBox@Gu@2@AEBVPxVec3@2@MAEAUPxSweepHit@2@V?$PxFlags@W4Enum@PxHitFlag@physx@@G@2@M@Z 000000018000eed0 f   GuCCTSweepTests.obj
 0001:0000e1b0       ?sweepBox_CapsuleGeom_Precise@@YA_NAEBVPxGeometry@physx@@AEBVPxTransform@2@AEBVPxBoxGeometry@2@1AEBVBox@Gu@2@AEBVPxVec3@2@MAEAUPxSweepHit@2@V?$PxFlags@W4Enum@PxHitFlag@physx@@G@2@M@Z 000000018000f1b0 f   GuCCTSweepTests.obj
 0001:0000e580       ?sweepBox_BoxGeom_Precise@@YA_NAEBVPxGeometry@physx@@AEBVPxTransform@2@AEBVPxBoxGeometry@2@1AEBVBox@Gu@2@AEBVPxVec3@2@MAEAUPxSweepHit@2@V?$PxFlags@W4Enum@PxHitFlag@physx@@G@2@M@Z 000000018000f580 f   GuCCTSweepTests.obj
 0001:0000e740       ?sweepBox_HeightFieldGeom_Precise@@YA_NAEBVPxGeometry@physx@@AEBVPxTransform@2@AEBVPxBoxGeometry@2@1AEBVBox@Gu@2@AEBVPxVec3@2@MAEAUPxSweepHit@2@V?$PxFlags@W4Enum@PxHitFlag@physx@@G@2@M@Z 000000018000f740 f   GuCCTSweepTests.obj
 0001:0000ecf0       ??0HeightFieldTraceUtil@Gu@physx@@QEAA@AEBVPxHeightFieldGeometry@2@@Z 000000018000fcf0 f i GuCCTSweepTests.obj
 0001:0000ed30       ??0HeightFieldUtil@Gu@physx@@QEAA@AEBVPxHeightFieldGeometry@2@@Z 000000018000fd30 f i GuCCTSweepTests.obj
 0001:0000ed70       ??1?$EntityReport@I@Gu@physx@@UEAA@XZ 000000018000fd70 f i GuCCTSweepTests.obj
 0001:0000ed80       ??4HeightFieldTraceUtil@Gu@physx@@QEAAAEAV012@$$QEAV012@@Z 000000018000fd80 f i GuCCTSweepTests.obj
 0001:0000eda0       ??4HeightFieldTraceUtil@Gu@physx@@QEAAAEAV012@AEBV012@@Z 000000018000fda0 f i GuCCTSweepTests.obj
 0001:0000edc0       ??4HeightFieldUtil@Gu@physx@@QEAAAEAV012@$$QEAV012@@Z 000000018000fdc0 f i GuCCTSweepTests.obj
 0001:0000edf0       ??4HeightFieldUtil@Gu@physx@@QEAAAEAV012@AEBV012@@Z 000000018000fdf0 f i GuCCTSweepTests.obj
 0001:0000ee10       ??_E?$EntityReport@I@Gu@physx@@UEAAPEAXI@Z 000000018000fe10 f i GuCCTSweepTests.obj
 0001:0000ee10       ??_G?$EntityReport@I@Gu@physx@@UEAAPEAXI@Z 000000018000fe10 f i GuCCTSweepTests.obj
 0001:0000ee40       ?ceilUp@HeightFieldTraceUtil@Gu@physx@@SAMM@Z 000000018000fe40 f i GuCCTSweepTests.obj
 0001:0000ee80       ?computePointNormal@HeightFieldUtil@Gu@physx@@QEBA?AVPxVec3@3@IAEBV43@AEBVPxTransform@3@MMMMAEAM@Z 000000018000fe80 f i GuCCTSweepTests.obj
 0001:0000f2a0       ?floorDown@HeightFieldTraceUtil@Gu@physx@@SAMM@Z 00000001800102a0 f i GuCCTSweepTests.obj
 0001:0000f2e0       ?getFeatureIndex@HeightFieldUtil@Gu@physx@@SAII@Z 00000001800102e0 f i GuCCTSweepTests.obj
 0001:0000f2f0       ?getFeatureType@HeightFieldUtil@Gu@physx@@SA?AW4Feature@123@I@Z 00000001800102f0 f i GuCCTSweepTests.obj
 0001:0000f300       ?getHeightAtShapePoint@HeightFieldUtil@Gu@physx@@QEBAMMM@Z 0000000180010300 f i GuCCTSweepTests.obj
 0001:0000f360       ?getHeightField@HeightFieldUtil@Gu@physx@@QEBAAEBVHeightField@23@XZ 0000000180010360 f i GuCCTSweepTests.obj
 0001:0000f370       ?getHeightFieldGeometry@HeightFieldUtil@Gu@physx@@QEBAAEBVPxHeightFieldGeometry@3@XZ 0000000180010370 f i GuCCTSweepTests.obj
 0001:0000f380       ?getNormalAtShapePoint@HeightFieldUtil@Gu@physx@@QEBA?AVPxVec3@3@MM@Z 0000000180010380 f i GuCCTSweepTests.obj
 0001:0000f440       ?getNormal_2@HeightField@Gu@physx@@QEBA?AVPxVec3@3@IMMMMM@Z 0000000180010440 f i GuCCTSweepTests.obj
 0001:0000f560       ?getOneOverColumnScale@HeightFieldUtil@Gu@physx@@QEBAMXZ 0000000180010560 f i GuCCTSweepTests.obj
 0001:0000f570       ?getOneOverHeightScale@HeightFieldUtil@Gu@physx@@QEBAMXZ 0000000180010570 f i GuCCTSweepTests.obj
 0001:0000f580       ?getOneOverRowScale@HeightFieldUtil@Gu@physx@@QEBAMXZ 0000000180010580 f i GuCCTSweepTests.obj
 0001:0000f590       ?getVertexNormal@HeightFieldUtil@Gu@physx@@QEBA?AVPxVec3@3@I@Z 0000000180010590 f i GuCCTSweepTests.obj
 0001:0000f5c0       ?hf2shapen@HeightFieldUtil@Gu@physx@@QEBA?AVPxVec3@3@AEBV43@@Z 00000001800105c0 f i GuCCTSweepTests.obj
 0001:0000f600       ?hf2shapep@HeightFieldUtil@Gu@physx@@QEBA?AVPxVec3@3@AEBV43@@Z 0000000180010600 f i GuCCTSweepTests.obj
 0001:0000f640       ?hf2worldn@HeightFieldUtil@Gu@physx@@QEBA?AVPxVec3@3@AEBVPxTransform@3@AEBV43@@Z 0000000180010640 f i GuCCTSweepTests.obj
 0001:0000f7b0       ?hf2worldp@HeightFieldUtil@Gu@physx@@QEBA?AVPxVec3@3@AEBVPxTransform@3@AEBV43@@Z 00000001800107b0 f i GuCCTSweepTests.obj
 0001:0000f930       ?isCollisionVertex@HeightFieldUtil@Gu@physx@@QEBA_NIII@Z 0000000180010930 f i GuCCTSweepTests.obj
 0001:0000f950       ?isQueryVertex@HeightFieldUtil@Gu@physx@@QEBA_NIII@Z 0000000180010950 f i GuCCTSweepTests.obj
 0001:0000fa10       ?isShapePointOnHeightField@HeightFieldUtil@Gu@physx@@QEBA_NMM@Z 0000000180010a10 f i GuCCTSweepTests.obj
 0001:0000fa60       ?makeFeatureCode@HeightFieldUtil@Gu@physx@@SAIIW4Feature@123@@Z 0000000180010a60 f i GuCCTSweepTests.obj
 0001:0000fa70       ?shape2hfp@HeightFieldUtil@Gu@physx@@QEBA?AVPxVec3@3@AEBV43@@Z 0000000180010a70 f i GuCCTSweepTests.obj
 0001:00010720       ?sweep@PxGeometryQuery@physx@@SA_NAEBVPxVec3@2@MAEBVPxGeometry@2@AEBVPxTransform@2@12AEAUPxSweepHit@2@V?$PxFlags@W4Enum@PxHitFlag@physx@@G@2@M@Z 0000000180011720 f   GuGeometryQuery.obj
 0001:00010b20       ?overlap@PxGeometryQuery@physx@@SA_NAEBVPxGeometry@2@AEBVPxTransform@2@01@Z 0000000180011b20 f   GuGeometryQuery.obj
 0001:00010bd0       ?raycast@PxGeometryQuery@physx@@SAIAEBVPxVec3@2@0AEBVPxGeometry@2@AEBVPxTransform@2@MV?$PxFlags@W4Enum@PxHitFlag@physx@@G@2@IPEIAUPxRaycastHit@2@@Z 0000000180011bd0 f   GuGeometryQuery.obj
 0001:00010c70       ?computePenetration@PxGeometryQuery@physx@@SA_NAEAVPxVec3@2@AEAMAEBVPxGeometry@2@AEBVPxTransform@2@23@Z 0000000180011c70 f   GuGeometryQuery.obj
 0001:00010d50       ?pointDistance@PxGeometryQuery@physx@@SAMAEBVPxVec3@2@AEBVPxGeometry@2@AEBVPxTransform@2@PEAV32@@Z 0000000180011d50 f   GuGeometryQuery.obj
 0001:000113e0       ?getWorldBounds@PxGeometryQuery@physx@@SA?AVPxBounds3@2@AEBVPxGeometry@2@AEBVPxTransform@2@M@Z 00000001800123e0 f   GuGeometryQuery.obj
 0001:00011450       ?isValid@PxGeometryQuery@physx@@SA_NAEBVPxGeometry@2@@Z 0000000180012450 f   GuGeometryQuery.obj
 0001:00011640       ?isFinite@PxQuat@physx@@QEBA_NXZ 0000000180012640 f i GuGeometryQuery.obj
 0001:000116b0       ?set@GeometryUnion@Gu@physx@@QEAAXAEBVPxGeometry@3@@Z 00000001800126b0 f   GuGeometryUnion.obj
 0001:00011880       ??0GeometryUnion@Gu@physx@@QEAA@AEBVPxGeometry@2@@Z 0000000180012880 f i GuGeometryUnion.obj
 0001:000118a0       ??0GeometryUnion@Gu@physx@@QEAA@W4PxEMPTY@2@@Z 00000001800128a0 f i GuGeometryUnion.obj
 0001:000118b0       ??0GeometryUnion@Gu@physx@@QEAA@XZ 00000001800128b0 f i GuGeometryUnion.obj
 0001:000118c0       ??0MaterialIndicesStruct@physx@@QEAA@W4PxEMPTY@1@@Z 00000001800128c0 f i GuGeometryUnion.obj
 0001:000118d0       ??0MaterialIndicesStruct@physx@@QEAA@XZ 00000001800128d0 f i GuGeometryUnion.obj
 0001:000118f0       ??1MaterialIndicesStruct@physx@@QEAA@XZ 00000001800128f0 f i GuGeometryUnion.obj
 0001:00011900       ??4GeometryUnion@Gu@physx@@QEAAAEAV012@$$QEAV012@@Z 0000000180012900 f i GuGeometryUnion.obj
 0001:00011930       ??4GeometryUnion@Gu@physx@@QEAAAEAV012@AEBV012@@Z 0000000180012930 f i GuGeometryUnion.obj
 0001:00011960       ??4MaterialIndicesStruct@physx@@QEAAAEAU01@AEBU01@@Z 0000000180012960 f i GuGeometryUnion.obj
 0001:00011970       ?allocate@MaterialIndicesStruct@physx@@QEAAXG@Z 0000000180012970 f i GuGeometryUnion.obj
 0001:000119f0       ?deallocate@MaterialIndicesStruct@physx@@QEAAXXZ 00000001800129f0 f i GuGeometryUnion.obj
 0001:00011a40       ?getGeometry@GeometryUnion@Gu@physx@@QEBAAEBVPxGeometry@3@XZ 0000000180012a40 f i GuGeometryUnion.obj
 0001:00011a50       ?getType@GeometryUnion@Gu@physx@@QEBA?AW4Enum@PxGeometryType@3@XZ 0000000180012a50 f i GuGeometryUnion.obj
 0001:00011a60       ?computeBoxPoints@Gu@physx@@YAXAEBVPxBounds3@2@PEIAVPxVec3@2@@Z 0000000180012a60 f   GuInternal.obj
 0001:00011b00       ?computeBoundsAroundVertices@Gu@physx@@YAXAEAVPxBounds3@2@IPEIBVPxVec3@2@@Z 0000000180012b00 f   GuInternal.obj
 0001:00011bb0       ?getPlane@Gu@physx@@YA?AVPxPlane@2@AEBVPxTransform@2@@Z 0000000180012bb0 f   GuInternal.obj
 0001:00011c60       ?computeSweptBox@Gu@physx@@YAXAEAVBox@12@AEBVPxVec3@2@1AEBVPxMat33@2@1M@Z 0000000180012c60 f   GuInternal.obj
 0001:000121a0       ??0GuMeshFactory@physx@@QEAA@XZ 00000001800131a0 f   GuMeshFactory.obj
 0001:00012340       ??1GuMeshFactory@physx@@MEAA@XZ 0000000180013340 f   GuMeshFactory.obj
 0001:00012440       ?release@GuMeshFactory@physx@@QEAAXXZ 0000000180013440 f   GuMeshFactory.obj
 0001:000124f0       ?addTriangleMesh@GuMeshFactory@physx@@QEAAXPEAVTriangleMesh@Gu@2@_N@Z 00000001800134f0 f   GuMeshFactory.obj
 0001:00012570       ?createTriangleMesh@GuMeshFactory@physx@@QEAAPEAVPxTriangleMesh@2@AEAVPxInputStream@2@@Z 0000000180013570 f   GuMeshFactory.obj
 0001:000125d0       ?createTriangleMesh@GuMeshFactory@physx@@QEAAPEAVPxTriangleMesh@2@PEAX@Z 00000001800135d0 f   GuMeshFactory.obj
 0001:000125e0       ?removeTriangleMesh@GuMeshFactory@physx@@QEAA_NAEAVPxTriangleMesh@2@@Z 00000001800135e0 f   GuMeshFactory.obj
 0001:00012630       ?getNbTriangleMeshes@GuMeshFactory@physx@@QEBAIXZ 0000000180013630 f   GuMeshFactory.obj
 0001:00012670       ?getTriangleMeshes@GuMeshFactory@physx@@QEBAIPEAPEAVPxTriangleMesh@2@II@Z 0000000180013670 f   GuMeshFactory.obj
 0001:00012700       ?addConvexMesh@GuMeshFactory@physx@@QEAAXPEAVConvexMesh@Gu@2@_N@Z 0000000180013700 f   GuMeshFactory.obj
 0001:00012780       ?createConvexMesh@GuMeshFactory@physx@@QEAAPEAVPxConvexMesh@2@AEAVPxInputStream@2@@Z 0000000180013780 f   GuMeshFactory.obj
 0001:000128a0       ?createConvexMesh@GuMeshFactory@physx@@QEAAPEAVPxConvexMesh@2@PEAX@Z 00000001800138a0 f   GuMeshFactory.obj
 0001:000128b0       ?removeConvexMesh@GuMeshFactory@physx@@QEAA_NAEAVPxConvexMesh@2@@Z 00000001800138b0 f   GuMeshFactory.obj
 0001:00012900       ?getNbConvexMeshes@GuMeshFactory@physx@@QEBAIXZ 0000000180013900 f   GuMeshFactory.obj
 0001:00012940       ?getConvexMeshes@GuMeshFactory@physx@@QEBAIPEAPEAVPxConvexMesh@2@II@Z 0000000180013940 f   GuMeshFactory.obj
 0001:000129d0       ?addHeightField@GuMeshFactory@physx@@QEAAXPEAVHeightField@Gu@2@_N@Z 00000001800139d0 f   GuMeshFactory.obj
 0001:00012a50       ?createHeightField@GuMeshFactory@physx@@QEAAPEAVPxHeightField@2@PEAX@Z 0000000180013a50 f   GuMeshFactory.obj
 0001:00012b50       ?createHeightField@GuMeshFactory@physx@@QEAAPEAVPxHeightField@2@AEAVPxInputStream@2@@Z 0000000180013b50 f   GuMeshFactory.obj
 0001:00012c70       ?removeHeightField@GuMeshFactory@physx@@QEAA_NAEAVPxHeightField@2@@Z 0000000180013c70 f   GuMeshFactory.obj
 0001:00012cd0       ?getNbHeightFields@GuMeshFactory@physx@@QEBAIXZ 0000000180013cd0 f   GuMeshFactory.obj
 0001:00012d10       ?getHeightFields@GuMeshFactory@physx@@QEBAIPEAPEAVPxHeightField@2@II@Z 0000000180013d10 f   GuMeshFactory.obj
 0001:00012db0       ?addBVHStructure@GuMeshFactory@physx@@QEAAXPEAVBVHStructure@Gu@2@_N@Z 0000000180013db0 f   GuMeshFactory.obj
 0001:00012e30       ?createBVHStructure@GuMeshFactory@physx@@QEAAPEAVPxBVHStructure@2@AEAVPxInputStream@2@@Z 0000000180013e30 f   GuMeshFactory.obj
 0001:00012f50       ?createBVHStructure@GuMeshFactory@physx@@QEAAPEAVPxBVHStructure@2@PEAX@Z 0000000180013f50 f   GuMeshFactory.obj
 0001:00012f60       ?removeBVHStructure@GuMeshFactory@physx@@QEAA_NAEAVPxBVHStructure@2@@Z 0000000180013f60 f   GuMeshFactory.obj
 0001:00012fc0       ?getNbBVHStructures@GuMeshFactory@physx@@QEBAIXZ 0000000180013fc0 f   GuMeshFactory.obj
 0001:00013000       ?getBVHStructures@GuMeshFactory@physx@@QEBAIPEAPEAVPxBVHStructure@2@II@Z 0000000180014000 f   GuMeshFactory.obj
 0001:000130a0       ?addFactoryListener@GuMeshFactory@physx@@QEAAXAEAVGuMeshFactoryListener@2@@Z 00000001800140a0 f   GuMeshFactory.obj
 0001:00013110       ?removeFactoryListener@GuMeshFactory@physx@@QEAAXAEAVGuMeshFactoryListener@2@@Z 0000000180014110 f   GuMeshFactory.obj
 0001:000131a0       ?notifyFactoryListener@GuMeshFactory@physx@@QEAAXPEBVPxBase@2@G@Z 00000001800141a0 f   GuMeshFactory.obj
 0001:00013220       ?createTriangleMesh@GuMeshFactory@physx@@IEAAPEAVPxTriangleMesh@2@AEAVTriangleMeshData@Gu@2@@Z 0000000180014220 f   GuMeshFactory.obj
 0001:000133b0       ?createConvexMesh@GuMeshFactory@physx@@IEAAPEAVPxConvexMesh@2@AEAUConvexHullInitData@Gu@2@@Z 00000001800143b0 f   GuMeshFactory.obj
 0001:000134b0       ?createBVHStructure@GuMeshFactory@physx@@IEAAPEAVPxBVHStructure@2@AEAUBVHStructureData@Gu@2@@Z 00000001800144b0 f   GuMeshFactory.obj
 0001:000135b0       ??$?_UI@@YAPEAX_KV?$ReflectionAllocator@I@shdfnd@physx@@PEBDH@Z 00000001800145b0 f i GuMeshFactory.obj
 0001:00013650       ??1BV4TriangleData@Gu@physx@@UEAA@XZ 0000000180014650 f i GuMeshFactory.obj
 0001:00013690       ??1MeshDataBase@Gu@physx@@UEAA@XZ 0000000180014690 f i GuMeshFactory.obj
 0001:00013780       ??1RTreeTriangleData@Gu@physx@@UEAA@XZ 0000000180014780 f i GuMeshFactory.obj
 0001:000137f0       ??1TriangleMeshData@Gu@physx@@UEAA@XZ 00000001800147f0 f i GuMeshFactory.obj
 0001:000138c0       ??_EGuMeshFactory@physx@@MEAAPEAXI@Z 00000001800148c0 f i GuMeshFactory.obj
 0001:000139d0       ??_EBV4TriangleData@Gu@physx@@UEAAPEAXI@Z 00000001800149d0 f i GuMeshFactory.obj
 0001:000139d0       ??_GBV4TriangleData@Gu@physx@@UEAAPEAXI@Z 00000001800149d0 f i GuMeshFactory.obj
 0001:00013a60       ??_GGuMeshFactory@physx@@MEAAPEAXI@Z 0000000180014a60 f i GuMeshFactory.obj
 0001:00013ad0       ??_EMeshDataBase@Gu@physx@@UEAAPEAXI@Z 0000000180014ad0 f i GuMeshFactory.obj
 0001:00013ad0       ??_GMeshDataBase@Gu@physx@@UEAAPEAXI@Z 0000000180014ad0 f i GuMeshFactory.obj
 0001:00013b40       ??_ERTreeTriangleData@Gu@physx@@UEAAPEAXI@Z 0000000180014b40 f i GuMeshFactory.obj
 0001:00013b40       ??_GRTreeTriangleData@Gu@physx@@UEAAPEAXI@Z 0000000180014b40 f i GuMeshFactory.obj
 0001:00013bf0       ??_ETriangleMeshData@Gu@physx@@UEAAPEAXI@Z 0000000180014bf0 f i GuMeshFactory.obj
 0001:00013bf0       ??_GTriangleMeshData@Gu@physx@@UEAAPEAXI@Z 0000000180014bf0 f i GuMeshFactory.obj
 0001:00013c60       ?__global_array_delete@@YAXPEAX@Z 0000000180014c60 f i GuMeshFactory.obj
 0001:00013c70       ?__global_array_delete@@YAXPEAX_K@Z 0000000180014c70 f i GuMeshFactory.obj
 0001:00013c80       ?__global_delete@@YAXPEAX@Z 0000000180014c80 f i GuMeshFactory.obj
 0001:00013c90       ?__global_delete@@YAXPEAX_K@Z 0000000180014c90 f i GuMeshFactory.obj
 0001:00013ca0       ?create@?$HashBase@PEAVBVHStructure@Gu@physx@@PEAV123@U?$Hash@PEAVBVHStructure@Gu@physx@@@shdfnd@3@UGetKey@?$HashSetBase@PEAVBVHStructure@Gu@physx@@U?$Hash@PEAVBVHStructure@Gu@physx@@@shdfnd@3@VNonTrackingAllocator@53@$00@internal@53@VNonTrackingAllocator@53@$00@internal@shdfnd@physx@@QEAAPEAPEAVBVHStructure@Gu@4@AEBQEAV564@AEA_N@Z 0000000180014ca0 f i GuMeshFactory.obj
 0001:00013e30       ?create@?$HashBase@PEAVConvexMesh@Gu@physx@@PEAV123@U?$Hash@PEAVConvexMesh@Gu@physx@@@shdfnd@3@UGetKey@?$HashSetBase@PEAVConvexMesh@Gu@physx@@U?$Hash@PEAVConvexMesh@Gu@physx@@@shdfnd@3@VNonTrackingAllocator@53@$00@internal@53@VNonTrackingAllocator@53@$00@internal@shdfnd@physx@@QEAAPEAPEAVConvexMesh@Gu@4@AEBQEAV564@AEA_N@Z 0000000180014e30 f i GuMeshFactory.obj
 0001:00013fc0       ?create@?$HashBase@PEAVHeightField@Gu@physx@@PEAV123@U?$Hash@PEAVHeightField@Gu@physx@@@shdfnd@3@UGetKey@?$HashSetBase@PEAVHeightField@Gu@physx@@U?$Hash@PEAVHeightField@Gu@physx@@@shdfnd@3@VNonTrackingAllocator@53@$00@internal@53@VNonTrackingAllocator@53@$00@internal@shdfnd@physx@@QEAAPEAPEAVHeightField@Gu@4@AEBQEAV564@AEA_N@Z 0000000180014fc0 f i GuMeshFactory.obj
 0001:00014150       ?create@?$HashBase@PEAVTriangleMesh@Gu@physx@@PEAV123@U?$Hash@PEAVTriangleMesh@Gu@physx@@@shdfnd@3@UGetKey@?$HashSetBase@PEAVTriangleMesh@Gu@physx@@U?$Hash@PEAVTriangleMesh@Gu@physx@@@shdfnd@3@VNonTrackingAllocator@53@$00@internal@53@VNonTrackingAllocator@53@$00@internal@shdfnd@physx@@QEAAPEAPEAVTriangleMesh@Gu@4@AEBQEAV564@AEA_N@Z 0000000180015150 f i GuMeshFactory.obj
 0001:000142e0       ?erase@?$HashBase@PEAVBVHStructure@Gu@physx@@PEAV123@U?$Hash@PEAVBVHStructure@Gu@physx@@@shdfnd@3@UGetKey@?$HashSetBase@PEAVBVHStructure@Gu@physx@@U?$Hash@PEAVBVHStructure@Gu@physx@@@shdfnd@3@VNonTrackingAllocator@53@$00@internal@53@VNonTrackingAllocator@53@$00@internal@shdfnd@physx@@QEAA_NAEBQEAVBVHStructure@Gu@4@@Z 00000001800152e0 f i GuMeshFactory.obj
 0001:00014460       ?erase@?$HashBase@PEAVConvexMesh@Gu@physx@@PEAV123@U?$Hash@PEAVConvexMesh@Gu@physx@@@shdfnd@3@UGetKey@?$HashSetBase@PEAVConvexMesh@Gu@physx@@U?$Hash@PEAVConvexMesh@Gu@physx@@@shdfnd@3@VNonTrackingAllocator@53@$00@internal@53@VNonTrackingAllocator@53@$00@internal@shdfnd@physx@@QEAA_NAEBQEAVConvexMesh@Gu@4@@Z 0000000180015460 f i GuMeshFactory.obj
 0001:000145e0       ?erase@?$HashBase@PEAVHeightField@Gu@physx@@PEAV123@U?$Hash@PEAVHeightField@Gu@physx@@@shdfnd@3@UGetKey@?$HashSetBase@PEAVHeightField@Gu@physx@@U?$Hash@PEAVHeightField@Gu@physx@@@shdfnd@3@VNonTrackingAllocator@53@$00@internal@53@VNonTrackingAllocator@53@$00@internal@shdfnd@physx@@QEAA_NAEBQEAVHeightField@Gu@4@@Z 00000001800155e0 f i GuMeshFactory.obj
 0001:00014760       ?erase@?$HashBase@PEAVTriangleMesh@Gu@physx@@PEAV123@U?$Hash@PEAVTriangleMesh@Gu@physx@@@shdfnd@3@UGetKey@?$HashSetBase@PEAVTriangleMesh@Gu@physx@@U?$Hash@PEAVTriangleMesh@Gu@physx@@@shdfnd@3@VNonTrackingAllocator@53@$00@internal@53@VNonTrackingAllocator@53@$00@internal@shdfnd@physx@@QEAA_NAEBQEAVTriangleMesh@Gu@4@@Z 0000000180015760 f i GuMeshFactory.obj
 0001:000148e0       ?growAndPushBack@?$Array@PEAVGuMeshFactoryListener@physx@@V?$ReflectionAllocator@PEAVGuMeshFactoryListener@physx@@@shdfnd@2@@shdfnd@physx@@IEAAAEAPEAVGuMeshFactoryListener@3@AEBQEAV43@@Z 00000001800158e0 f i GuMeshFactory.obj
 0001:00015890       ?reserveInternal@?$HashBase@PEAVBVHStructure@Gu@physx@@PEAV123@U?$Hash@PEAVBVHStructure@Gu@physx@@@shdfnd@3@UGetKey@?$HashSetBase@PEAVBVHStructure@Gu@physx@@U?$Hash@PEAVBVHStructure@Gu@physx@@@shdfnd@3@VNonTrackingAllocator@53@$00@internal@53@VNonTrackingAllocator@53@$00@internal@shdfnd@physx@@AEAAXI@Z 0000000180016890 f i GuMeshFactory.obj
 0001:00015a60       ?reserveInternal@?$HashBase@PEAVConvexMesh@Gu@physx@@PEAV123@U?$Hash@PEAVConvexMesh@Gu@physx@@@shdfnd@3@UGetKey@?$HashSetBase@PEAVConvexMesh@Gu@physx@@U?$Hash@PEAVConvexMesh@Gu@physx@@@shdfnd@3@VNonTrackingAllocator@53@$00@internal@53@VNonTrackingAllocator@53@$00@internal@shdfnd@physx@@AEAAXI@Z 0000000180016a60 f i GuMeshFactory.obj
 0001:00015c30       ?reserveInternal@?$HashBase@PEAVHeightField@Gu@physx@@PEAV123@U?$Hash@PEAVHeightField@Gu@physx@@@shdfnd@3@UGetKey@?$HashSetBase@PEAVHeightField@Gu@physx@@U?$Hash@PEAVHeightField@Gu@physx@@@shdfnd@3@VNonTrackingAllocator@53@$00@internal@53@VNonTrackingAllocator@53@$00@internal@shdfnd@physx@@AEAAXI@Z 0000000180016c30 f i GuMeshFactory.obj
 0001:00015e00       ?reserveInternal@?$HashBase@PEAVTriangleMesh@Gu@physx@@PEAV123@U?$Hash@PEAVTriangleMesh@Gu@physx@@@shdfnd@3@UGetKey@?$HashSetBase@PEAVTriangleMesh@Gu@physx@@U?$Hash@PEAVTriangleMesh@Gu@physx@@@shdfnd@3@VNonTrackingAllocator@53@$00@internal@53@VNonTrackingAllocator@53@$00@internal@shdfnd@physx@@AEAAXI@Z 0000000180016e00 f i GuMeshFactory.obj
 0001:00015fd0       ?getBinaryMetaData@HeightField@Gu@physx@@SAXAEAVPxOutputStream@3@@Z 0000000180016fd0 f   GuMetaData.obj
 0001:00016400       ?getBinaryMetaData@BigConvexData@physx@@SAXAEAVPxOutputStream@2@@Z 0000000180017400 f   GuMetaData.obj
 0001:000166d0       ?getBinaryMetaData@ConvexMesh@Gu@physx@@SAXAEAVPxOutputStream@3@@Z 00000001800176d0 f   GuMetaData.obj
 0001:00016d60       ?getBinaryMetaData@RTree@Gu@physx@@SAXAEAVPxOutputStream@3@@Z 0000000180017d60 f   GuMetaData.obj
 0001:000170a0       ?getBinaryMetaData@SourceMesh@Gu@physx@@SAXAEAVPxOutputStream@3@@Z 00000001800180a0 f   GuMetaData.obj
 0001:00017290       ?getBinaryMetaData@BV4Tree@Gu@physx@@SAXAEAVPxOutputStream@3@@Z 0000000180018290 f   GuMetaData.obj
 0001:00017620       ?getBinaryMetaData@TriangleMesh@Gu@physx@@SAXAEAVPxOutputStream@3@@Z 0000000180018620 f   GuMetaData.obj
 0001:00017e40       ?getBinaryMetaData@BV4TriangleMesh@Gu@physx@@SAXAEAVPxOutputStream@3@@Z 0000000180018e40 f   GuMetaData.obj
 0001:00018120       ?getBinaryMetaData@RTreeTriangleMesh@Gu@physx@@SAXAEAVPxOutputStream@3@@Z 0000000180019120 f   GuMetaData.obj
 0001:00018210       ?getBinaryMetaData@MaterialIndicesStruct@physx@@SAXAEAVPxOutputStream@2@@Z 0000000180019210 f   GuMetaData.obj
 0001:000183c0       ?getBinaryMetaData@GeometryUnion@Gu@physx@@SAXAEAVPxOutputStream@3@@Z 00000001800193c0 f   GuMetaData.obj
 0001:00018a10       ??0BigConvexData@physx@@QEAA@W4PxEMPTY@1@@Z 0000000180019a10 f i GuMetaData.obj
 0001:00018a20       ??4BigConvexData@physx@@QEAAAEAV01@AEBV01@@Z 0000000180019a20 f i GuMetaData.obj
 0001:00018a40       ?GetAdjacentVerts@BigConvexData@physx@@QEBAPEBEXZ 0000000180019a40 f i GuMetaData.obj
 0001:00018a50       ?GetNbNeighbors@BigConvexData@physx@@QEBAGI@Z 0000000180019a50 f i GuMetaData.obj
 0001:00018a60       ?GetNbSamples@BigConvexData@physx@@QEBAIXZ 0000000180019a60 f i GuMetaData.obj
 0001:00018a70       ?GetNbVerts@BigConvexData@physx@@QEBAIXZ 0000000180019a70 f i GuMetaData.obj
 0001:00018a80       ?GetNeighbors@BigConvexData@physx@@QEBAPEBEI@Z 0000000180019a80 f i GuMetaData.obj
 0001:00018a90       ?GetOffset@BigConvexData@physx@@QEBAGI@Z 0000000180019a90 f i GuMetaData.obj
 0001:00018aa0       ?GetSubdiv@BigConvexData@physx@@QEBAIXZ 0000000180019aa0 f i GuMetaData.obj
 0001:00018ab0       ?GetValencies@BigConvexData@physx@@QEBAPEBUValency@Gu@2@XZ 0000000180019ab0 f i GuMetaData.obj
 0001:00018ac0       ?GetValency@BigConvexData@physx@@QEBAGI@Z 0000000180019ac0 f i GuMetaData.obj
 0001:00019ee0       ?doSupport@?$SupportLocalImpl@VBoxV@Gu@physx@@@Gu@physx@@UEBA?AT__m128@@AEBT4@@Z 000000018001aee0 f i GuMTD.obj
 0001:00019f10       ?doSupport@?$SupportLocalImpl@VBoxV@Gu@physx@@@Gu@physx@@UEBAXAEBT__m128@@AEAT4@1@Z 000000018001af10 f i GuMTD.obj
 0001:00019f60       ?populateVerts@?$SupportLocalImpl@VBoxV@Gu@physx@@@Gu@physx@@UEBAXPEBEIPEBVPxVec3@3@PEAT__m128@@@Z 000000018001af60 f i GuMTD.obj
 0001:00019fa0       ??_E?$SupportLocalImpl@VBoxV@Gu@physx@@@Gu@physx@@UEAAPEAXI@Z 000000018001afa0 f i GuMTD.obj
 0001:00019fa0       ??_G?$SupportLocalImpl@VBoxV@Gu@physx@@@Gu@physx@@UEAAPEAXI@Z 000000018001afa0 f i GuMTD.obj
 0001:00019fd0       ??_ESupportLocal@Gu@physx@@UEAAPEAXI@Z 000000018001afd0 f i GuMTD.obj
 0001:00019fd0       ??_GSupportLocal@Gu@physx@@UEAAPEAXI@Z 000000018001afd0 f i GuMTD.obj
 0001:0001a000       ?pointConvexDistance@@YA_NAEAVPxVec3@physx@@0AEAMAEBV12@PEBVConvexMesh@Gu@2@AEBVPxMeshScale@2@AEBVPxTransform@2@@Z 000000018001b000 f   GuMTD.obj
 0001:0001ca10       ?doSupport@?$SupportLocalImpl@VConvexHullV@Gu@physx@@@Gu@physx@@UEBA?AT__m128@@AEBT4@@Z 000000018001da10 f i GuMTD.obj
 0001:0001caf0       ?doSupport@?$SupportLocalImpl@VConvexHullV@Gu@physx@@@Gu@physx@@UEBAXAEBT__m128@@AEAT4@1@Z 000000018001daf0 f i GuMTD.obj
 0001:0001ce50       ?populateVerts@?$SupportLocalImpl@VConvexHullV@Gu@physx@@@Gu@physx@@UEBAXPEBEIPEBVPxVec3@3@PEAT__m128@@@Z 000000018001de50 f i GuMTD.obj
 0001:0001ceb0       ??_E?$SupportLocalImpl@VConvexHullV@Gu@physx@@@Gu@physx@@UEAAPEAXI@Z 000000018001deb0 f i GuMTD.obj
 0001:0001ceb0       ??_G?$SupportLocalImpl@VConvexHullV@Gu@physx@@@Gu@physx@@UEAAPEAXI@Z 000000018001deb0 f i GuMTD.obj
 0001:0001cee0       ?doSupport@?$SupportLocalImpl@VConvexHullNoScaleV@Gu@physx@@@Gu@physx@@UEBA?AT__m128@@AEBT4@@Z 000000018001dee0 f i GuMTD.obj
 0001:0001cf30       ?doSupport@?$SupportLocalImpl@VConvexHullNoScaleV@Gu@physx@@@Gu@physx@@UEBAXAEBT__m128@@AEAT4@1@Z 000000018001df30 f i GuMTD.obj
 0001:0001d0b0       ?populateVerts@?$SupportLocalImpl@VConvexHullNoScaleV@Gu@physx@@@Gu@physx@@UEBAXPEBEIPEBVPxVec3@3@PEAT__m128@@@Z 000000018001e0b0 f i GuMTD.obj
 0001:0001d0f0       ??_E?$SupportLocalImpl@VConvexHullNoScaleV@Gu@physx@@@Gu@physx@@UEAAPEAXI@Z 000000018001e0f0 f i GuMTD.obj
 0001:0001d0f0       ??_G?$SupportLocalImpl@VConvexHullNoScaleV@Gu@physx@@@Gu@physx@@UEAAPEAXI@Z 000000018001e0f0 f i GuMTD.obj
 0001:0001d120       ??$gjk@U?$LocalConvex@VCapsuleV@Gu@physx@@@Gu@physx@@U?$LocalConvex@VConvexHullV@Gu@physx@@@23@@Gu@physx@@YA?AW4GjkStatus@01@AEBU?$LocalConvex@VCapsuleV@Gu@physx@@@01@AEBU?$LocalConvex@VConvexHullV@Gu@physx@@@01@AEBT__m128@@2AEAT5@333@Z 000000018001e120 f i GuMTD.obj
 0001:0001de90       ??0ContactPoint@Gu@physx@@QEAA@XZ 000000018001ee90 f i GuMTD.obj
 0001:0001dea0       ??0HullPolygonData@Gu@physx@@QEAA@AEBU012@@Z 000000018001eea0 f i GuMTD.obj
 0001:0001ded0       ??0MeshPersistentContact@Gu@physx@@QEAA@XZ 000000018001eed0 f i GuMTD.obj
 0001:0001dee0       ??0MultiplePersistentContactManifold@Gu@physx@@QEAA@XZ 000000018001eee0 f i GuMTD.obj
 0001:0001df30       ??0PersistentContact@Gu@physx@@QEAA@XZ 000000018001ef30 f i GuMTD.obj
 0001:0001df40       ??0PolygonalBox@Gu@physx@@QEAA@AEBV012@@Z 000000018001ef40 f i GuMTD.obj
 0001:0001e1c0       ??0PxVec3@physx@@QEAA@AEBV01@@Z 000000018001f1c0 f i GuMTD.obj
 0001:0001e1e0       ??0SeparatingAxes@Gu@physx@@QEAA@$$QEAV012@@Z 000000018001f1e0 f i GuMTD.obj
 0001:0001e2f0       ??0SeparatingAxes@Gu@physx@@QEAA@AEBV012@@Z 000000018001f2f0 f i GuMTD.obj
 0001:0001e400       ??0SeparatingAxes@Gu@physx@@QEAA@XZ 000000018001f400 f i GuMTD.obj
 0001:0001e410       ??0SinglePersistentContactManifold@Gu@physx@@QEAA@XZ 000000018001f410 f i GuMTD.obj
 0001:0001e420       ??1GjkConvexBase@Gu@physx@@UEAA@XZ 000000018001f420 f i GuMTD.obj
 0001:0001e430       ??1SupportLocal@Gu@physx@@UEAA@XZ 000000018001f430 f i GuMTD.obj
 0001:0001e440       ??4MultiplePersistentContactManifold@Gu@physx@@QEAAAEAV012@$$QEAV012@@Z 000000018001f440 f i GuMTD.obj
 0001:0001e750       ??4MultiplePersistentContactManifold@Gu@physx@@QEAAAEAV012@AEBV012@@Z 000000018001f750 f i GuMTD.obj
 0001:0001e770       ??4SeparatingAxes@Gu@physx@@QEAAAEAV012@$$QEAV012@@Z 000000018001f770 f i GuMTD.obj
 0001:0001e880       ??4SeparatingAxes@Gu@physx@@QEAAAEAV012@AEBV012@@Z 000000018001f880 f i GuMTD.obj
 0001:0001e990       ??_E?$LocalConvex@VCapsuleV@Gu@physx@@@Gu@physx@@UEAAPEAXI@Z 000000018001f990 f i GuMTD.obj
 0001:0001e990       ??_G?$LocalConvex@VCapsuleV@Gu@physx@@@Gu@physx@@UEAAPEAXI@Z 000000018001f990 f i GuMTD.obj
 0001:0001e9c0       ??_E?$LocalConvex@VConvexHullV@Gu@physx@@@Gu@physx@@UEAAPEAXI@Z 000000018001f9c0 f i GuMTD.obj
 0001:0001e9c0       ??_G?$LocalConvex@VConvexHullV@Gu@physx@@@Gu@physx@@UEAAPEAXI@Z 000000018001f9c0 f i GuMTD.obj
 0001:0001e9f0       ??_EGjkConvex@Gu@physx@@UEAAPEAXI@Z 000000018001f9f0 f i GuMTD.obj
 0001:0001e9f0       ??_GGjkConvex@Gu@physx@@UEAAPEAXI@Z 000000018001f9f0 f i GuMTD.obj
 0001:0001ea20       ??_EGjkConvexBase@Gu@physx@@UEAAPEAXI@Z 000000018001fa20 f i GuMTD.obj
 0001:0001ea20       ??_GGjkConvexBase@Gu@physx@@UEAAPEAXI@Z 000000018001fa20 f i GuMTD.obj
 0001:0001ea50       ??__G@YAXPEAX0_K1P6APEAX00@Z@Z 000000018001fa50 f i GuMTD.obj
 0001:0001f200       ?clearManifold@MultiplePersistentContactManifold@Gu@physx@@QEAAXXZ 0000000180020200 f i GuMTD.obj
 0001:00022b30       ?getAxes@SeparatingAxes@Gu@physx@@QEBAPEBVPxVec3@3@XZ 0000000180023b30 f i GuMTD.obj
 0001:00022b40       ?getCenter@?$LocalConvex@VCapsuleV@Gu@physx@@@Gu@physx@@UEBA?AT__m128@@XZ 0000000180023b40 f i GuMTD.obj
 0001:00022b50       ?getCenter@?$LocalConvex@VConvexHullV@Gu@physx@@@Gu@physx@@UEBA?AT__m128@@XZ 0000000180023b50 f i GuMTD.obj
 0001:00022b60       ?getEmptyManifold@MultiplePersistentContactManifold@Gu@physx@@QEAAPEAVSinglePersistentContactManifold@23@XZ 0000000180023b60 f i GuMTD.obj
 0001:00022b80       ?getManifold@MultiplePersistentContactManifold@Gu@physx@@QEAAPEAVSinglePersistentContactManifold@23@I@Z 0000000180023b80 f i GuMTD.obj
 0001:00022ba0       ?getNumAxes@SeparatingAxes@Gu@physx@@QEBAIXZ 0000000180023ba0 f i GuMTD.obj
 0001:00022bb0       ?getSweepMargin@?$LocalConvex@VCapsuleV@Gu@physx@@@Gu@physx@@UEBA?AT__m128@@XZ 0000000180023bb0 f i GuMTD.obj
 0001:00022bc0       ?getSweepMargin@?$LocalConvex@VConvexHullV@Gu@physx@@@Gu@physx@@UEBA?AT__m128@@XZ 0000000180023bc0 f i GuMTD.obj
 0001:00022be0       ?getSweepMargin@GjkConvex@Gu@physx@@UEBA?AT__m128@@XZ 0000000180023be0 f i GuMTD.obj
 0001:00022c00       ?hillClimbing@ConvexHullV@Gu@physx@@QEBAIAEBT__m128@@@Z 0000000180023c00 f i GuMTD.obj
 0001:00022e30       ?initialize@MultiplePersistentContactManifold@Gu@physx@@QEAAXXZ 0000000180023e30 f i GuMTD.obj
 0001:00022e90       ?invalidate@MultiplePersistentContactManifold@Gu@physx@@QEAAIAEBVPsTransformV@aos@shdfnd@3@AEBT__m128@@1@Z 0000000180023e90 f i GuMTD.obj
 0001:00022f10       ?invalidate@MultiplePersistentContactManifold@Gu@physx@@QEAAIAEBVPsTransformV@aos@shdfnd@3@AEBT__m128@@@Z 0000000180023f10 f i GuMTD.obj
 0001:00022f90       ?maxTransformPositionDelta@MultiplePersistentContactManifold@Gu@physx@@QEAA?AT__m128@@AEBT4@@Z 0000000180023f90 f i GuMTD.obj
 0001:00022fd0       ?maxTransformQuatDelta@MultiplePersistentContactManifold@Gu@physx@@QEAA?AT__m128@@AEBT4@@Z 0000000180023fd0 f i GuMTD.obj
 0001:000233a0       ?reduceManifoldContactsInDifferentPatches@MultiplePersistentContactManifold@Gu@physx@@QEAAIPEAPEAUPCMContactPatch@23@IPEAVMeshPersistentContact@23@IAEBT__m128@@@Z 00000001800243a0 f i GuMTD.obj
 0001:00023510       ?refineContactPatchConnective@MultiplePersistentContactManifold@Gu@physx@@QEAAXPEAPEAUPCMContactPatch@23@IPEAVMeshPersistentContact@23@AEBT__m128@@@Z 0000000180024510 f i GuMTD.obj
 0001:00023600       ?refreshManifold@MultiplePersistentContactManifold@Gu@physx@@QEAAXAEBVPsMatTransformV@aos@shdfnd@3@AEBT__m128@@1@Z 0000000180024600 f i GuMTD.obj
 0001:00023700       ?reset@SeparatingAxes@Gu@physx@@QEAAXXZ 0000000180024700 f i GuMTD.obj
 0001:00023710       ?setRelativeTransform@MultiplePersistentContactManifold@Gu@physx@@QEAAXAEBVPsTransformV@aos@shdfnd@3@@Z 0000000180024710 f i GuMTD.obj
 0001:00023720       ?support@?$LocalConvex@VCapsuleV@Gu@physx@@@Gu@physx@@UEBA?AT__m128@@AEBT4@@Z 0000000180024720 f i GuMTD.obj
 0001:00023780       ?support@?$LocalConvex@VCapsuleV@Gu@physx@@@Gu@physx@@UEBA?AT__m128@@AEBT4@AEAH@Z 0000000180024780 f i GuMTD.obj
 0001:000237f0       ?support@?$LocalConvex@VConvexHullV@Gu@physx@@@Gu@physx@@UEBA?AT__m128@@AEBT4@@Z 00000001800247f0 f i GuMTD.obj
 0001:000238d0       ?support@?$LocalConvex@VConvexHullV@Gu@physx@@@Gu@physx@@UEBA?AT__m128@@AEBT4@AEAH@Z 00000001800248d0 f i GuMTD.obj
 0001:000239a0       ?support@GjkConvex@Gu@physx@@UEBA?AT__m128@@AEBT4@@Z 00000001800249a0 f i GuMTD.obj
 0001:000239c0       ?support@GjkConvex@Gu@physx@@UEBA?AT__m128@@AEBT4@AEAH@Z 00000001800249c0 f i GuMTD.obj
 0001:000239e0       ?supportPoint@?$LocalConvex@VCapsuleV@Gu@physx@@@Gu@physx@@UEBA?AT__m128@@H@Z 00000001800249e0 f i GuMTD.obj
 0001:00023a10       ?supportPoint@?$LocalConvex@VConvexHullV@Gu@physx@@@Gu@physx@@UEBA?AT__m128@@H@Z 0000000180024a10 f i GuMTD.obj
 0001:00023a60       ?supportPoint@GjkConvex@Gu@physx@@UEBA?AT__m128@@H@Z 0000000180024a60 f i GuMTD.obj
 0001:00023a80       ?supportVertexIndex@ConvexHullV@Gu@physx@@QEBAIAEBT__m128@@@Z 0000000180024a80 f i GuMTD.obj
 0001:00023d00       ?toBuffer@MultiplePersistentContactManifold@Gu@physx@@QEAAXPEIAE@Z 0000000180024d00 f i GuMTD.obj
 0001:00023de0       ?supportPoint@?$RelativeConvex@VBoxV@Gu@physx@@@Gu@physx@@UEBA?AT__m128@@H@Z 0000000180024de0 f i GuOverlapTests.obj
 0001:00023e50       ?support@?$RelativeConvex@VBoxV@Gu@physx@@@Gu@physx@@UEBA?AT__m128@@AEBT4@@Z 0000000180024e50 f i GuOverlapTests.obj
 0001:00023ed0       ?support@?$RelativeConvex@VBoxV@Gu@physx@@@Gu@physx@@UEBA?AT__m128@@AEBT4@AEAH@Z 0000000180024ed0 f i GuOverlapTests.obj
 0001:00023f60       ?getCenter@?$RelativeConvex@VBoxV@Gu@physx@@@Gu@physx@@UEBA?AT__m128@@XZ 0000000180024f60 f i GuOverlapTests.obj
 0001:00023fa0       ?getSweepMargin@?$RelativeConvex@VBoxV@Gu@physx@@@Gu@physx@@UEBA?AT__m128@@XZ 0000000180024fa0 f i GuOverlapTests.obj
 0001:00023fc0       ??_E?$RelativeConvex@VBoxV@Gu@physx@@@Gu@physx@@UEAAPEAXI@Z 0000000180024fc0 f i GuOverlapTests.obj
 0001:00023fc0       ??_G?$RelativeConvex@VBoxV@Gu@physx@@@Gu@physx@@UEAAPEAXI@Z 0000000180024fc0 f i GuOverlapTests.obj
 0001:00023ff0       ?getOverlapFuncTable@Gu@physx@@YAPEAY06Q6A_NAEBVPxGeometry@2@AEBVPxTransform@2@01PEAUTriggerCache@12@@ZXZ 0000000180024ff0 f   GuOverlapTests.obj
 0001:00024000       ?registerHeightFields@Gu@physx@@YAXXZ 0000000180025000 f   GuOverlapTests.obj
 0001:00026270       ?supportPoint@?$RelativeConvex@VConvexHullV@Gu@physx@@@Gu@physx@@UEBA?AT__m128@@H@Z 0000000180027270 f i GuOverlapTests.obj
 0001:000262f0       ?support@?$RelativeConvex@VConvexHullV@Gu@physx@@@Gu@physx@@UEBA?AT__m128@@AEBT4@@Z 00000001800272f0 f i GuOverlapTests.obj
 0001:00026420       ?support@?$RelativeConvex@VConvexHullV@Gu@physx@@@Gu@physx@@UEBA?AT__m128@@AEBT4@AEAH@Z 0000000180027420 f i GuOverlapTests.obj
 0001:00026540       ?getCenter@?$RelativeConvex@VConvexHullV@Gu@physx@@@Gu@physx@@UEBA?AT__m128@@XZ 0000000180027540 f i GuOverlapTests.obj
 0001:00026580       ?getSweepMargin@?$RelativeConvex@VConvexHullV@Gu@physx@@@Gu@physx@@UEBA?AT__m128@@XZ 0000000180027580 f i GuOverlapTests.obj
 0001:000265a0       ??_E?$RelativeConvex@VConvexHullV@Gu@physx@@@Gu@physx@@UEAAPEAXI@Z 00000001800275a0 f i GuOverlapTests.obj
 0001:000265a0       ??_G?$RelativeConvex@VConvexHullV@Gu@physx@@@Gu@physx@@UEAAPEAXI@Z 00000001800275a0 f i GuOverlapTests.obj
 0001:000265d0       ??$gjk@U?$RelativeConvex@VBoxV@Gu@physx@@@Gu@physx@@U?$LocalConvex@VConvexHullV@Gu@physx@@@23@@Gu@physx@@YA?AW4GjkStatus@01@AEBU?$RelativeConvex@VBoxV@Gu@physx@@@01@AEBU?$LocalConvex@VConvexHullV@Gu@physx@@@01@AEBT__m128@@2AEAT5@333@Z 00000001800275d0 f i GuOverlapTests.obj
 0001:00027390       ??$gjk@U?$RelativeConvex@VConvexHullV@Gu@physx@@@Gu@physx@@U?$LocalConvex@VConvexHullV@Gu@physx@@@23@@Gu@physx@@YA?AW4GjkStatus@01@AEBU?$RelativeConvex@VConvexHullV@Gu@physx@@@01@AEBU?$LocalConvex@VConvexHullV@Gu@physx@@@01@AEBT__m128@@2AEAT5@333@Z 0000000180028390 f i GuOverlapTests.obj
 0001:00028220       ?ComputeCubemapNearestOffset@physx@@YAIAEBVPxVec3@1@I@Z 0000000180029220 f i GuOverlapTests.obj
 0001:00029df0       ?getRaycastFuncTable@Gu@physx@@YAAEAY06Q6AIAEBVPxGeometry@2@AEBVPxTransform@2@AEBVPxVec3@2@2MV?$PxFlags@W4Enum@PxHitFlag@physx@@G@2@IPEIAUPxRaycastHit@2@@ZXZ 000000018002adf0 f   GuRaycastTests.obj
 0001:00029e00       ?raycast_box@@YAIAEBVPxGeometry@physx@@AEBVPxTransform@2@AEBVPxVec3@2@2MV?$PxFlags@W4Enum@PxHitFlag@physx@@G@2@IPEIAUPxRaycastHit@2@@Z 000000018002ae00 f   GuRaycastTests.obj
 0001:0002a440       ?raycast_sphere@@YAIAEBVPxGeometry@physx@@AEBVPxTransform@2@AEBVPxVec3@2@2MV?$PxFlags@W4Enum@PxHitFlag@physx@@G@2@IPEIAUPxRaycastHit@2@@Z 000000018002b440 f   GuRaycastTests.obj
 0001:0002a5d0       ?raycast_capsule@@YAIAEBVPxGeometry@physx@@AEBVPxTransform@2@AEBVPxVec3@2@2MV?$PxFlags@W4Enum@PxHitFlag@physx@@G@2@IPEIAUPxRaycastHit@2@@Z 000000018002b5d0 f   GuRaycastTests.obj
 0001:0002ab30       ?raycast_plane@@YAIAEBVPxGeometry@physx@@AEBVPxTransform@2@AEBVPxVec3@2@2MV?$PxFlags@W4Enum@PxHitFlag@physx@@G@2@IPEIAUPxRaycastHit@2@@Z 000000018002bb30 f   GuRaycastTests.obj
 0001:0002acb0       ?raycast_convexMesh@@YAIAEBVPxGeometry@physx@@AEBVPxTransform@2@AEBVPxVec3@2@2MV?$PxFlags@W4Enum@PxHitFlag@physx@@G@2@IPEIAUPxRaycastHit@2@@Z 000000018002bcb0 f   GuRaycastTests.obj
 0001:0002b7f0       ?raycast_triangleMesh@@YAIAEBVPxGeometry@physx@@AEBVPxTransform@2@AEBVPxVec3@2@2MV?$PxFlags@W4Enum@PxHitFlag@physx@@G@2@IPEIAUPxRaycastHit@2@@Z 000000018002c7f0 f   GuRaycastTests.obj
 0001:0002b880       ?raycast_heightField@@YAIAEBVPxGeometry@physx@@AEBVPxTransform@2@AEBVPxVec3@2@2MV?$PxFlags@W4Enum@PxHitFlag@physx@@G@2@IPEIAUPxRaycastHit@2@@Z 000000018002c880 f   GuRaycastTests.obj
 0001:0002c000       ?registerHeightFields_Raycasts@@YAXXZ 000000018002d000 f   GuRaycastTests.obj
 0001:0002d270       ??Dphysx@@YA?AVMatrix34@Cm@0@AEBVPxMeshScale@0@AEBVPxTransform@0@@Z 000000018002e270 f i GuRaycastTests.obj
 0001:0002deb0       ?readChunk@physx@@YAXAEAC000AEAVPxInputStream@1@@Z 000000018002eeb0 f   GuSerialize.obj
 0001:0002df40       ?readWord@physx@@YAG_NAEAVPxInputStream@1@@Z 000000018002ef40 f   GuSerialize.obj
 0001:0002df90       ?readDword@physx@@YAI_NAEAVPxInputStream@1@@Z 000000018002ef90 f   GuSerialize.obj
 0001:0002dff0       ?readFloat@physx@@YAM_NAEAVPxInputStream@1@@Z 000000018002eff0 f   GuSerialize.obj
 0001:0002e050       ?writeWord@physx@@YAXG_NAEAVPxOutputStream@1@@Z 000000018002f050 f   GuSerialize.obj
 0001:0002e090       ?writeDword@physx@@YAXI_NAEAVPxOutputStream@1@@Z 000000018002f090 f   GuSerialize.obj
 0001:0002e0e0       ?writeFloat@physx@@YAXM_NAEAVPxOutputStream@1@@Z 000000018002f0e0 f   GuSerialize.obj
 0001:0002e140       ?readFloatBuffer@physx@@YA_NPEAMI_NAEAVPxInputStream@1@@Z 000000018002f140 f   GuSerialize.obj
 0001:0002e1c0       ?writeFloatBuffer@physx@@YAXPEBMI_NAEAVPxOutputStream@1@@Z 000000018002f1c0 f   GuSerialize.obj
 0001:0002e270       ?writeWordBuffer@physx@@YAXPEBGI_NAEAVPxOutputStream@1@@Z 000000018002f270 f   GuSerialize.obj
 0001:0002e300       ?readWordBuffer@physx@@YAXPEAGI_NAEAVPxInputStream@1@@Z 000000018002f300 f   GuSerialize.obj
 0001:0002e370       ?writeHeader@physx@@YA_NCCCCI_NAEAVPxOutputStream@1@@Z 000000018002f370 f   GuSerialize.obj
 0001:0002e4a0       ?readHeader@physx@@YA_NCCCCAEAIAEA_NAEAVPxInputStream@1@@Z 000000018002f4a0 f   GuSerialize.obj
 0001:0002e600       ?computeMaxIndex@physx@@YAIPEBII@Z 000000018002f600 f   GuSerialize.obj
 0001:0002e630       ?computeMaxIndex@physx@@YAGPEBGI@Z 000000018002f630 f   GuSerialize.obj
 0001:0002e670       ?storeIndices@physx@@YAXIIPEBIAEAVPxOutputStream@1@_N@Z 000000018002f670 f   GuSerialize.obj
 0001:0002e790       ?readIndices@physx@@YAXIIPEAIAEAVPxInputStream@1@_N@Z 000000018002f790 f   GuSerialize.obj
 0001:0002e8c0       ?WriteHeader@Gu@physx@@YA_NEEEEI_NAEAVPxOutputStream@2@@Z 000000018002f8c0 f   GuSerialize.obj
 0001:0002e9f0       ?ReadHeader@Gu@physx@@YA_NEEEEAEAIAEA_NAEAVPxInputStream@2@@Z 000000018002f9f0 f   GuSerialize.obj
 0001:0002eb60       ?StoreIndices@Gu@physx@@YAXIIPEBIAEAVPxOutputStream@2@_N@Z 000000018002fb60 f   GuSerialize.obj
 0001:0002ecf0       ?ReadIndices@Gu@physx@@YAXIIPEAIAEAVPxInputStream@2@_N@Z 000000018002fcf0 f   GuSerialize.obj
 0001:0002ef60       ?StoreIndices@Gu@physx@@YAXGIPEBGAEAVPxOutputStream@2@_N@Z 000000018002ff60 f   GuSerialize.obj
 0001:0002f050       ?ReadIndices@Gu@physx@@YAXGIPEAGAEAVPxInputStream@2@_N@Z 0000000180030050 f   GuSerialize.obj
 0001:0002f1a0       ?computeCapsule_TriangleMeshMTD@Gu@physx@@YA_NAEBVPxTriangleMeshGeometry@2@AEBVPxTransform@2@AEAVCapsuleV@12@M_NAEAUPxSweepHit@2@@Z 00000001800301a0 f   GuSweepMTD.obj
 0001:0002fa30       ?computeCapsule_HeightFieldMTD@Gu@physx@@YA_NAEBVPxHeightFieldGeometry@2@AEBVPxTransform@2@AEAVCapsuleV@12@M_NIAEAUPxSweepHit@2@@Z 0000000180030a30 f   GuSweepMTD.obj
 0001:00030260       ?computeBox_TriangleMeshMTD@Gu@physx@@YA_NAEBVPxTriangleMeshGeometry@2@AEBVPxTransform@2@AEBVBox@12@1M_NAEAUPxSweepHit@2@@Z 0000000180031260 f   GuSweepMTD.obj
 0001:00030eb0       ?computeBox_HeightFieldMTD@Gu@physx@@YA_NAEBVPxHeightFieldGeometry@2@AEBVPxTransform@2@AEBVBox@12@1M_NIAEAUPxSweepHit@2@@Z 0000000180031eb0 f   GuSweepMTD.obj
 0001:00031d20       ?computeConvex_TriangleMeshMTD@Gu@physx@@YA_NAEBVPxTriangleMeshGeometry@2@AEBVPxTransform@2@AEBVPxConvexMeshGeometry@2@1M_NAEAUPxSweepHit@2@@Z 0000000180032d20 f   GuSweepMTD.obj
 0001:00032fa0       ?computeConvex_HeightFieldMTD@Gu@physx@@YA_NAEBVPxHeightFieldGeometry@2@AEBVPxTransform@2@AEBVPxConvexMeshGeometry@2@1M_NIAEAUPxSweepHit@2@@Z 0000000180033fa0 f   GuSweepMTD.obj
 0001:00034330       ?computeSphere_SphereMTD@Gu@physx@@YA_NAEBVSphere@12@0AEAUPxSweepHit@2@@Z 0000000180035330 f   GuSweepMTD.obj
 0001:00034420       ?computeSphere_CapsuleMTD@Gu@physx@@YA_NAEBVSphere@12@AEBVCapsule@12@AEAUPxSweepHit@2@@Z 0000000180035420 f   GuSweepMTD.obj
 0001:000345d0       ?computeCapsule_CapsuleMTD@Gu@physx@@YA_NAEBVCapsule@12@0AEAUPxSweepHit@2@@Z 00000001800355d0 f   GuSweepMTD.obj
 0001:00034810       ?computePlane_CapsuleMTD@Gu@physx@@YA_NAEBVPxPlane@2@AEBVCapsule@12@AEAUPxSweepHit@2@@Z 0000000180035810 f   GuSweepMTD.obj
 0001:00034930       ?computePlane_BoxMTD@Gu@physx@@YA_NAEBVPxPlane@2@AEBVBox@12@AEAUPxSweepHit@2@@Z 0000000180035930 f   GuSweepMTD.obj
 0001:00034bd0       ?computePlane_ConvexMTD@Gu@physx@@YA_NAEBVPxPlane@2@AEBVPxConvexMeshGeometry@2@AEBVPxTransform@2@AEAUPxSweepHit@2@@Z 0000000180035bd0 f   GuSweepMTD.obj
 0001:00035790       ??0MTDTriangle@@QEAA@XZ    0000000180036790 f i GuSweepMTD.obj
 0001:000357a0       ??1?$MeshHitCallback@UPxRaycastHit@physx@@@Gu@physx@@UEAA@XZ 00000001800367a0 f i GuSweepMTD.obj
 0001:000357b0       ??1MTDTriangle@@QEAA@XZ    00000001800367b0 f i GuSweepMTD.obj
 0001:000357c0       ??Dphysx@@YA?AVMatrix34@Cm@0@AEBVPxTransform@0@AEBVPxMeshScale@0@@Z 00000001800367c0 f i GuSweepMTD.obj
 0001:00035e10       ??_E?$MeshHitCallback@UPxRaycastHit@physx@@@Gu@physx@@UEAAPEAXI@Z 0000000180036e10 f i GuSweepMTD.obj
 0001:00035e10       ??_G?$MeshHitCallback@UPxRaycastHit@physx@@@Gu@physx@@UEAAPEAXI@Z 0000000180036e10 f i GuSweepMTD.obj
 0001:00035e40       ??_EMeshMTDGenerationCallback@@UEAAPEAXI@Z 0000000180036e40 f i GuSweepMTD.obj
 0001:00035e40       ??_GMeshMTDGenerationCallback@@UEAAPEAXI@Z 0000000180036e40 f i GuSweepMTD.obj
 0001:00035e70       ??_EMidPhaseQueryLocalReport@@UEAAPEAXI@Z 0000000180036e70 f i GuSweepMTD.obj
 0001:00035e70       ??_GMidPhaseQueryLocalReport@@UEAAPEAXI@Z 0000000180036e70 f i GuSweepMTD.obj
 0001:00035ea0       ?allocate@?$ReflectionAllocator@I@shdfnd@physx@@QEAAPEAX_KPEBDH@Z 0000000180036ea0 f i GuSweepMTD.obj
 0001:00035f40       ?getInverse@PxMat33@physx@@QEBA?BV12@XZ 0000000180036f40 f i GuSweepMTD.obj
 0001:00036190       ?growAndPushBack@?$Array@IV?$ReflectionAllocator@I@shdfnd@physx@@@shdfnd@physx@@IEAAAEAIAEBI@Z 0000000180037190 f i GuSweepMTD.obj
 0001:00036260       ?init@FastVertex2ShapeScaling@Cm@physx@@QEAAXAEBVPxVec3@3@AEBVPxQuat@3@@Z 0000000180037260 f i GuSweepMTD.obj
 0001:00036650       ?onEvent@MidPhaseQueryLocalReport@@UEAA_NIPEAI@Z 0000000180037650 f i GuSweepMTD.obj
 0001:000366c0       ?processHit@MeshMTDGenerationCallback@@UEAA_NAEBUPxRaycastHit@physx@@AEBVPxVec3@3@11AEAMPEBI@Z 00000001800376c0 f i GuSweepMTD.obj
 0001:00036710       ?recreate@?$Array@IV?$ReflectionAllocator@I@shdfnd@physx@@@shdfnd@physx@@IEAAXI@Z 0000000180037710 f i GuSweepMTD.obj
 0001:000367d0       ?sweepCapsuleTriangles@Gu@physx@@YA_NIPEBVPxTriangle@2@_NAEBVPxCapsuleGeometry@2@AEBVPxTransform@2@AEBVPxVec3@2@MAEAUPxSweepHit@2@PEBIMV?$PxFlags@W4Enum@PxHitFlag@physx@@G@2@@Z 00000001800377d0 f   GuSweepSharedTests.obj
 0001:000369c0       ?sweepCapsule_SphereGeom@@YA_NAEBVPxGeometry@physx@@AEBVPxTransform@2@AEBVPxCapsuleGeometry@2@1AEBVCapsule@Gu@2@AEBVPxVec3@2@MAEAUPxSweepHit@2@V?$PxFlags@W4Enum@PxHitFlag@physx@@G@2@M@Z 00000001800379c0 f   GuSweepSharedTests.obj
 0001:00036b60       ?sweepCapsule_PlaneGeom@@YA_NAEBVPxGeometry@physx@@AEBVPxTransform@2@AEBVPxCapsuleGeometry@2@1AEBVCapsule@Gu@2@AEBVPxVec3@2@MAEAUPxSweepHit@2@V?$PxFlags@W4Enum@PxHitFlag@physx@@G@2@M@Z 0000000180037b60 f   GuSweepSharedTests.obj
 0001:00036e50       ?sweepCapsule_CapsuleGeom@@YA_NAEBVPxGeometry@physx@@AEBVPxTransform@2@AEBVPxCapsuleGeometry@2@1AEBVCapsule@Gu@2@AEBVPxVec3@2@MAEAUPxSweepHit@2@V?$PxFlags@W4Enum@PxHitFlag@physx@@G@2@M@Z 0000000180037e50 f   GuSweepSharedTests.obj
 0001:00037030       ?sweepCapsule_ConvexGeom@@YA_NAEBVPxGeometry@physx@@AEBVPxTransform@2@AEBVPxCapsuleGeometry@2@1AEBVCapsule@Gu@2@AEBVPxVec3@2@MAEAUPxSweepHit@2@V?$PxFlags@W4Enum@PxHitFlag@physx@@G@2@M@Z 0000000180038030 f   GuSweepSharedTests.obj
 0001:00037d80       ?sweepBox_PlaneGeom@@YA_NAEBVPxGeometry@physx@@AEBVPxTransform@2@AEBVPxBoxGeometry@2@1AEBVBox@Gu@2@AEBVPxVec3@2@MAEAUPxSweepHit@2@V?$PxFlags@W4Enum@PxHitFlag@physx@@G@2@M@Z 0000000180038d80 f   GuSweepSharedTests.obj
 0001:00038170       ?sweepBox_ConvexGeom@@YA_NAEBVPxGeometry@physx@@AEBVPxTransform@2@AEBVPxBoxGeometry@2@1AEBVBox@Gu@2@AEBVPxVec3@2@MAEAUPxSweepHit@2@V?$PxFlags@W4Enum@PxHitFlag@physx@@G@2@M@Z 0000000180039170 f   GuSweepSharedTests.obj
 0001:00038fa0       ?sweepConvex_SphereGeom@@YA_NAEBVPxGeometry@physx@@AEBVPxTransform@2@AEBVPxConvexMeshGeometry@2@1AEBVPxVec3@2@MAEAUPxSweepHit@2@V?$PxFlags@W4Enum@PxHitFlag@physx@@G@2@M@Z 0000000180039fa0 f   GuSweepSharedTests.obj
 0001:00039be0       ?sweepConvex_PlaneGeom@@YA_NAEBVPxGeometry@physx@@AEBVPxTransform@2@AEBVPxConvexMeshGeometry@2@1AEBVPxVec3@2@MAEAUPxSweepHit@2@V?$PxFlags@W4Enum@PxHitFlag@physx@@G@2@M@Z 000000018003abe0 f   GuSweepSharedTests.obj
 0001:0003a030       ?sweepConvex_CapsuleGeom@@YA_NAEBVPxGeometry@physx@@AEBVPxTransform@2@AEBVPxConvexMeshGeometry@2@1AEBVPxVec3@2@MAEAUPxSweepHit@2@V?$PxFlags@W4Enum@PxHitFlag@physx@@G@2@M@Z 000000018003b030 f   GuSweepSharedTests.obj
 0001:0003a260       ?sweepConvex_BoxGeom@@YA_NAEBVPxGeometry@physx@@AEBVPxTransform@2@AEBVPxConvexMeshGeometry@2@1AEBVPxVec3@2@MAEAUPxSweepHit@2@V?$PxFlags@W4Enum@PxHitFlag@physx@@G@2@M@Z 000000018003b260 f   GuSweepSharedTests.obj
 0001:0003a480       ?sweepConvex_ConvexGeom@@YA_NAEBVPxGeometry@physx@@AEBVPxTransform@2@AEBVPxConvexMeshGeometry@2@1AEBVPxVec3@2@MAEAUPxSweepHit@2@V?$PxFlags@W4Enum@PxHitFlag@physx@@G@2@M@Z 000000018003b480 f   GuSweepSharedTests.obj
 0001:0003b480       ??$gjkPenetration@U?$LocalConvex@VCapsuleV@Gu@physx@@@Gu@physx@@U?$LocalConvex@VConvexHullV@Gu@physx@@@23@@Gu@physx@@YA?AW4GjkStatus@01@AEBU?$LocalConvex@VCapsuleV@Gu@physx@@@01@AEBU?$LocalConvex@VConvexHullV@Gu@physx@@@01@AEBT__m128@@2_NPEIAE4AEAEAEAUGjkOutput@01@@Z 000000018003c480 f i GuSweepSharedTests.obj
 0001:0003ca90       ??$gjkPenetration@U?$RelativeConvex@VBoxV@Gu@physx@@@Gu@physx@@U?$LocalConvex@VConvexHullV@Gu@physx@@@23@@Gu@physx@@YA?AW4GjkStatus@01@AEBU?$RelativeConvex@VBoxV@Gu@physx@@@01@AEBU?$LocalConvex@VConvexHullV@Gu@physx@@@01@AEBT__m128@@2_NPEIAE4AEAEAEAUGjkOutput@01@@Z 000000018003da90 f i GuSweepSharedTests.obj
 0001:0003e110       ??$gjkPenetration@U?$RelativeConvex@VConvexHullV@Gu@physx@@@Gu@physx@@U?$LocalConvex@VConvexHullV@Gu@physx@@@23@@Gu@physx@@YA?AW4GjkStatus@01@AEBU?$RelativeConvex@VConvexHullV@Gu@physx@@@01@AEBU?$LocalConvex@VConvexHullV@Gu@physx@@@01@AEBT__m128@@2_NPEIAE4AEAEAEAUGjkOutput@01@@Z 000000018003f110 f i GuSweepSharedTests.obj
 0001:0003f7e0       ??$gjkRaycast@U?$LocalConvex@VCapsuleV@Gu@physx@@@Gu@physx@@U?$LocalConvex@VConvexHullV@Gu@physx@@@23@@Gu@physx@@YA_NAEBU?$LocalConvex@VCapsuleV@Gu@physx@@@01@AEBU?$LocalConvex@VConvexHullV@Gu@physx@@@01@AEBT__m128@@222AEAT4@33M@Z 00000001800407e0 f i GuSweepSharedTests.obj
 0001:00040540       ??$gjkRaycast@U?$RelativeConvex@VBoxV@Gu@physx@@@Gu@physx@@U?$LocalConvex@VConvexHullV@Gu@physx@@@23@@Gu@physx@@YA_NAEBU?$RelativeConvex@VBoxV@Gu@physx@@@01@AEBU?$LocalConvex@VConvexHullV@Gu@physx@@@01@AEBT__m128@@222AEAT4@33M@Z 0000000180041540 f i GuSweepSharedTests.obj
 0001:00041340       ??$gjkRaycast@U?$RelativeConvex@VConvexHullV@Gu@physx@@@Gu@physx@@U?$LocalConvex@VConvexHullV@Gu@physx@@@23@@Gu@physx@@YA_NAEBU?$RelativeConvex@VConvexHullV@Gu@physx@@@01@AEBU?$LocalConvex@VConvexHullV@Gu@physx@@@01@AEBT__m128@@222AEAT4@33M@Z 0000000180042340 f i GuSweepSharedTests.obj
 0001:00042130       ??$gjkRaycastPenetration@U?$LocalConvex@VCapsuleV@Gu@physx@@@Gu@physx@@U?$LocalConvex@VConvexHullV@Gu@physx@@@23@@Gu@physx@@YA_NAEBU?$LocalConvex@VCapsuleV@Gu@physx@@@01@AEBU?$LocalConvex@VConvexHullV@Gu@physx@@@01@AEBT__m128@@222AEAT4@33M_N@Z 0000000180043130 f i GuSweepSharedTests.obj
 0001:00042360       ??$gjkRaycastPenetration@U?$RelativeConvex@VBoxV@Gu@physx@@@Gu@physx@@U?$LocalConvex@VConvexHullV@Gu@physx@@@23@@Gu@physx@@YA_NAEBU?$RelativeConvex@VBoxV@Gu@physx@@@01@AEBU?$LocalConvex@VConvexHullV@Gu@physx@@@01@AEBT__m128@@222AEAT4@33M_N@Z 0000000180043360 f i GuSweepSharedTests.obj
 0001:000425e0       ??$gjkRaycastPenetration@U?$RelativeConvex@VConvexHullV@Gu@physx@@@Gu@physx@@U?$LocalConvex@VConvexHullV@Gu@physx@@@23@@Gu@physx@@YA_NAEBU?$RelativeConvex@VConvexHullV@Gu@physx@@@01@AEBU?$LocalConvex@VConvexHullV@Gu@physx@@@01@AEBT__m128@@222AEAT4@33M_N@Z 00000001800435e0 f i GuSweepSharedTests.obj
 0001:000431b0       ?getSweepFuncTable@Gu@physx@@YAAEBUGeomSweepFuncs@12@XZ 00000001800441b0 f   GuSweepTests.obj
 0001:000431c0       ?sweepBoxTriangles@Gu@physx@@YA_NIPEBVPxTriangle@2@_NAEBVPxBoxGeometry@2@AEBVPxTransform@2@AEBVPxVec3@2@MAEAUPxSweepHit@2@PEBIMV?$PxFlags@W4Enum@PxHitFlag@physx@@G@2@@Z 00000001800441c0 f   GuSweepTests.obj
 0001:00043c60       ?sweepCapsule_BoxGeom@@YA_NAEBVPxGeometry@physx@@AEBVPxTransform@2@AEBVPxCapsuleGeometry@2@1AEBVCapsule@Gu@2@AEBVPxVec3@2@MAEAUPxSweepHit@2@V?$PxFlags@W4Enum@PxHitFlag@physx@@G@2@M@Z 0000000180044c60 f   GuSweepTests.obj
 0001:00044550       ?sweepBox_SphereGeom@@YA_NAEBVPxGeometry@physx@@AEBVPxTransform@2@AEBVPxBoxGeometry@2@1AEBVBox@Gu@2@AEBVPxVec3@2@MAEAUPxSweepHit@2@V?$PxFlags@W4Enum@PxHitFlag@physx@@G@2@M@Z 0000000180045550 f   GuSweepTests.obj
 0001:00044c20       ?sweepBox_CapsuleGeom@@YA_NAEBVPxGeometry@physx@@AEBVPxTransform@2@AEBVPxBoxGeometry@2@1AEBVBox@Gu@2@AEBVPxVec3@2@MAEAUPxSweepHit@2@V?$PxFlags@W4Enum@PxHitFlag@physx@@G@2@M@Z 0000000180045c20 f   GuSweepTests.obj
 0001:00045530       ?sweepBox_BoxGeom@@YA_NAEBVPxGeometry@physx@@AEBVPxTransform@2@AEBVPxBoxGeometry@2@1AEBVBox@Gu@2@AEBVPxVec3@2@MAEAUPxSweepHit@2@V?$PxFlags@W4Enum@PxHitFlag@physx@@G@2@M@Z 0000000180046530 f   GuSweepTests.obj
 0001:00045ec0       ?registerHeightFields_Sweeps@@YAXXZ 0000000180046ec0 f   GuSweepTests.obj
 0001:00045f00       ??$gjkPenetration@U?$LocalConvex@VCapsuleV@Gu@physx@@@Gu@physx@@U?$LocalConvex@VBoxV@Gu@physx@@@23@@Gu@physx@@YA?AW4GjkStatus@01@AEBU?$LocalConvex@VCapsuleV@Gu@physx@@@01@AEBU?$LocalConvex@VBoxV@Gu@physx@@@01@AEBT__m128@@2_NPEIAE4AEAEAEAUGjkOutput@01@@Z 0000000180046f00 f i GuSweepTests.obj
 0001:00047470       ??$gjkPenetration@U?$LocalConvex@VTriangleV@Gu@physx@@@Gu@physx@@U?$LocalConvex@VBoxV@Gu@physx@@@23@@Gu@physx@@YA?AW4GjkStatus@01@AEBU?$LocalConvex@VTriangleV@Gu@physx@@@01@AEBU?$LocalConvex@VBoxV@Gu@physx@@@01@AEBT__m128@@2_NPEIAE4AEAEAEAUGjkOutput@01@@Z 0000000180048470 f i GuSweepTests.obj
 0001:00048a00       ??$gjkPenetration@U?$RelativeConvex@VBoxV@Gu@physx@@@Gu@physx@@U?$LocalConvex@VBoxV@Gu@physx@@@23@@Gu@physx@@YA?AW4GjkStatus@01@AEBU?$RelativeConvex@VBoxV@Gu@physx@@@01@AEBU?$LocalConvex@VBoxV@Gu@physx@@@01@AEBT__m128@@2_NPEIAE4AEAEAEAUGjkOutput@01@@Z 0000000180049a00 f i GuSweepTests.obj
 0001:00049fc0       ??$gjkRaycast@U?$LocalConvex@VCapsuleV@Gu@physx@@@Gu@physx@@U?$LocalConvex@VBoxV@Gu@physx@@@23@@Gu@physx@@YA_NAEBU?$LocalConvex@VCapsuleV@Gu@physx@@@01@AEBU?$LocalConvex@VBoxV@Gu@physx@@@01@AEBT__m128@@222AEAT4@33M@Z 000000018004afc0 f i GuSweepTests.obj
 0001:0004aba0       ??$gjkRaycast@U?$LocalConvex@VTriangleV@Gu@physx@@@Gu@physx@@U?$LocalConvex@VBoxV@Gu@physx@@@23@@Gu@physx@@YA_NAEBU?$LocalConvex@VTriangleV@Gu@physx@@@01@AEBU?$LocalConvex@VBoxV@Gu@physx@@@01@AEBT__m128@@222AEAT4@33M@Z 000000018004bba0 f i GuSweepTests.obj
 0001:0004b800       ??$gjkRaycast@U?$RelativeConvex@VBoxV@Gu@physx@@@Gu@physx@@U?$LocalConvex@VBoxV@Gu@physx@@@23@@Gu@physx@@YA_NAEBU?$RelativeConvex@VBoxV@Gu@physx@@@01@AEBU?$LocalConvex@VBoxV@Gu@physx@@@01@AEBT__m128@@222AEAT4@33M@Z 000000018004c800 f i GuSweepTests.obj
 0001:0004c440       ??$gjkRaycastPenetration@U?$LocalConvex@VCapsuleV@Gu@physx@@@Gu@physx@@U?$LocalConvex@VBoxV@Gu@physx@@@23@@Gu@physx@@YA_NAEBU?$LocalConvex@VCapsuleV@Gu@physx@@@01@AEBU?$LocalConvex@VBoxV@Gu@physx@@@01@AEBT__m128@@222AEAT4@33M_N@Z 000000018004d440 f i GuSweepTests.obj
 0001:0004c670       ??$gjkRaycastPenetration@U?$LocalConvex@VTriangleV@Gu@physx@@@Gu@physx@@U?$LocalConvex@VBoxV@Gu@physx@@@23@@Gu@physx@@YA_NAEBU?$LocalConvex@VTriangleV@Gu@physx@@@01@AEBU?$LocalConvex@VBoxV@Gu@physx@@@01@AEBT__m128@@222AEAT4@33M_N@Z 000000018004d670 f i GuSweepTests.obj
 0001:0004c8a0       ??$gjkRaycastPenetration@U?$RelativeConvex@VBoxV@Gu@physx@@@Gu@physx@@U?$LocalConvex@VBoxV@Gu@physx@@@23@@Gu@physx@@YA_NAEBU?$RelativeConvex@VBoxV@Gu@physx@@@01@AEBU?$LocalConvex@VBoxV@Gu@physx@@@01@AEBT__m128@@222AEAT4@33M_N@Z 000000018004d8a0 f i GuSweepTests.obj
 0001:0004cb20       ??_E?$LocalConvex@VBoxV@Gu@physx@@@Gu@physx@@UEAAPEAXI@Z 000000018004db20 f i GuSweepTests.obj
 0001:0004cb20       ??_G?$LocalConvex@VBoxV@Gu@physx@@@Gu@physx@@UEAAPEAXI@Z 000000018004db20 f i GuSweepTests.obj
 0001:0004cb50       ??_E?$LocalConvex@VTriangleV@Gu@physx@@@Gu@physx@@UEAAPEAXI@Z 000000018004db50 f i GuSweepTests.obj
 0001:0004cb50       ??_G?$LocalConvex@VTriangleV@Gu@physx@@@Gu@physx@@UEAAPEAXI@Z 000000018004db50 f i GuSweepTests.obj
 0001:0004cb80       ?getCenter@?$LocalConvex@VBoxV@Gu@physx@@@Gu@physx@@UEBA?AT__m128@@XZ 000000018004db80 f i GuSweepTests.obj
 0001:0004cb90       ?getCenter@?$LocalConvex@VTriangleV@Gu@physx@@@Gu@physx@@UEBA?AT__m128@@XZ 000000018004db90 f i GuSweepTests.obj
 0001:0004cba0       ?getSweepMargin@?$LocalConvex@VBoxV@Gu@physx@@@Gu@physx@@UEBA?AT__m128@@XZ 000000018004dba0 f i GuSweepTests.obj
 0001:0004cbc0       ?getSweepMargin@?$LocalConvex@VTriangleV@Gu@physx@@@Gu@physx@@UEBA?AT__m128@@XZ 000000018004dbc0 f i GuSweepTests.obj
 0001:0004cbd0       ?support@?$LocalConvex@VBoxV@Gu@physx@@@Gu@physx@@UEBA?AT__m128@@AEBT4@@Z 000000018004dbd0 f i GuSweepTests.obj
 0001:0004cc00       ?support@?$LocalConvex@VBoxV@Gu@physx@@@Gu@physx@@UEBA?AT__m128@@AEBT4@AEAH@Z 000000018004dc00 f i GuSweepTests.obj
 0001:0004cc40       ?support@?$LocalConvex@VTriangleV@Gu@physx@@@Gu@physx@@UEBA?AT__m128@@AEBT4@@Z 000000018004dc40 f i GuSweepTests.obj
 0001:0004ccd0       ?support@?$LocalConvex@VTriangleV@Gu@physx@@@Gu@physx@@UEBA?AT__m128@@AEBT4@AEAH@Z 000000018004dcd0 f i GuSweepTests.obj
 0001:0004cdb0       ?supportPoint@?$LocalConvex@VBoxV@Gu@physx@@@Gu@physx@@UEBA?AT__m128@@H@Z 000000018004ddb0 f i GuSweepTests.obj
 0001:0004cdf0       ?supportPoint@?$LocalConvex@VTriangleV@Gu@physx@@@Gu@physx@@UEBA?AT__m128@@H@Z 000000018004ddf0 f i GuSweepTests.obj
 0001:0004ce10       ?subdivide@AABBTreeBuildNode@Gu@physx@@QEAAXAEBVAABBTreeBuildParams@23@AEAUBuildStats@23@AEAVNodeAllocator@23@QEAI@Z 000000018004de10 f   GuAABBTreeBuild.obj
 0001:0004d000       ?_buildHierarchy@AABBTreeBuildNode@Gu@physx@@QEAAXAEAVAABBTreeBuildParams@23@AEAUBuildStats@23@AEAVNodeAllocator@23@QEAI@Z 000000018004e000 f   GuAABBTreeBuild.obj
 0001:0004d090       ??0NodeAllocator@Gu@physx@@QEAA@XZ 000000018004e090 f   GuAABBTreeBuild.obj
 0001:0004d0b0       ??1NodeAllocator@Gu@physx@@QEAA@XZ 000000018004e0b0 f   GuAABBTreeBuild.obj
 0001:0004d100       ?release@NodeAllocator@Gu@physx@@QEAAXXZ 000000018004e100 f   GuAABBTreeBuild.obj
 0001:0004d1b0       ?init@NodeAllocator@Gu@physx@@QEAAXII@Z 000000018004e1b0 f   GuAABBTreeBuild.obj
 0001:0004d2c0       ?getBiNode@NodeAllocator@Gu@physx@@QEAAPEAVAABBTreeBuildNode@23@XZ 000000018004e2c0 f   GuAABBTreeBuild.obj
 0001:0004d400       ?initAABBTreeBuild@Gu@physx@@YA_NAEAVAABBTreeBuildParams@12@AEAVNodeAllocator@12@AEAUBuildStats@12@AEAPEAI@Z 000000018004e400 f   GuAABBTreeBuild.obj
 0001:0004d610       ?buildAABBTree@Gu@physx@@YA_NAEAVAABBTreeBuildParams@12@AEAVNodeAllocator@12@AEAUBuildStats@12@AEAPEAI@Z 000000018004e610 f   GuAABBTreeBuild.obj
 0001:0004d670       ??$?_UV?$ReflectionAllocator@VAABBTreeBuildNode@Gu@physx@@@shdfnd@physx@@@UserAllocated@shdfnd@physx@@SAPEAX_KV?$ReflectionAllocator@VAABBTreeBuildNode@Gu@physx@@@12@PEBDH@Z 000000018004e670 f i GuAABBTreeBuild.obj
 0001:0004d710       ??$copy@V?$ReflectionAllocator@USlab@NodeAllocator@Gu@physx@@@shdfnd@physx@@@?$Array@USlab@NodeAllocator@Gu@physx@@V?$ReflectionAllocator@USlab@NodeAllocator@Gu@physx@@@shdfnd@4@@shdfnd@physx@@IEAAXAEBV012@@Z 000000018004e710 f i GuAABBTreeBuild.obj
 0001:0004d790       ??0AABBTreeBuildNode@Gu@physx@@QEAA@AEBV012@@Z 000000018004e790 f i GuAABBTreeBuild.obj
 0001:0004d7d0       ??0AABBTreeBuildNode@Gu@physx@@QEAA@XZ 000000018004e7d0 f i GuAABBTreeBuild.obj
 0001:0004d7e0       ??0AABBTreeBuildParams@Gu@physx@@QEAA@IIPEBVPxBounds3@2@@Z 000000018004e7e0 f i GuAABBTreeBuild.obj
 0001:0004d800       ??0BuildStats@Gu@physx@@QEAA@XZ 000000018004e800 f i GuAABBTreeBuild.obj
 0001:0004d810       ??0NodeAllocator@Gu@physx@@QEAA@AEBV012@@Z 000000018004e810 f i GuAABBTreeBuild.obj
 0001:0004d850       ??1AABBTreeBuildNode@Gu@physx@@QEAA@XZ 000000018004e850 f i GuAABBTreeBuild.obj
 0001:0004d860       ??1AABBTreeBuildParams@Gu@physx@@QEAA@XZ 000000018004e860 f i GuAABBTreeBuild.obj
 0001:0004d8c0       ??4AABBTreeBuildNode@Gu@physx@@QEAAAEAV012@AEBV012@@Z 000000018004e8c0 f i GuAABBTreeBuild.obj
 0001:0004d900       ??4AABBTreeBuildParams@Gu@physx@@QEAAAEAV012@AEBV012@@Z 000000018004e900 f i GuAABBTreeBuild.obj
 0001:0004d920       ??4BuildStats@Gu@physx@@QEAAAEAU012@$$QEAU012@@Z 000000018004e920 f i GuAABBTreeBuild.obj
 0001:0004d930       ??4BuildStats@Gu@physx@@QEAAAEAU012@AEBU012@@Z 000000018004e930 f i GuAABBTreeBuild.obj
 0001:0004d940       ??4NodeAllocator@Gu@physx@@QEAAAEAV012@AEBV012@@Z 000000018004e940 f i GuAABBTreeBuild.obj
 0001:0004d9f0       ??_EAABBTreeBuildNode@Gu@physx@@QEAAPEAXI@Z 000000018004e9f0 f i GuAABBTreeBuild.obj
 0001:0004da70       ??_FAABBTreeBuildParams@Gu@physx@@QEAAXXZ 000000018004ea70 f i GuAABBTreeBuild.obj
 0001:0004da90       ?allocate@?$Array@USlab@NodeAllocator@Gu@physx@@V?$ReflectionAllocator@USlab@NodeAllocator@Gu@physx@@@shdfnd@4@@shdfnd@physx@@IEAAPEAUSlab@NodeAllocator@Gu@3@I@Z 000000018004ea90 f i GuAABBTreeBuild.obj
 0001:0004db30       ?getAABB@AABBTreeBuildNode@Gu@physx@@QEBAAEBVPxBounds3@3@XZ 000000018004eb30 f i GuAABBTreeBuild.obj
 0001:0004db40       ?getCount@BuildStats@Gu@physx@@QEBAIXZ 000000018004eb40 f i GuAABBTreeBuild.obj
 0001:0004db50       ?getNbPrimitives@AABBTreeBuildNode@Gu@physx@@QEBAIXZ 000000018004eb50 f i GuAABBTreeBuild.obj
 0001:0004db60       ?getNbRuntimePrimitives@AABBTreeBuildNode@Gu@physx@@QEBAIXZ 000000018004eb60 f i GuAABBTreeBuild.obj
 0001:0004db70       ?getNeg@AABBTreeBuildNode@Gu@physx@@QEBAPEBV123@XZ 000000018004eb70 f i GuAABBTreeBuild.obj
 0001:0004db90       ?getPos@AABBTreeBuildNode@Gu@physx@@QEBAPEBV123@XZ 000000018004eb90 f i GuAABBTreeBuild.obj
 0001:0004dba0       ?getPrimitives@AABBTreeBuildNode@Gu@physx@@QEAAPEAIPEAI@Z 000000018004eba0 f i GuAABBTreeBuild.obj
 0001:0004dbb0       ?getPrimitives@AABBTreeBuildNode@Gu@physx@@QEBAPEBIPEBI@Z 000000018004ebb0 f i GuAABBTreeBuild.obj
 0001:0004dbc0       ?growAndPushBack@?$Array@USlab@NodeAllocator@Gu@physx@@V?$ReflectionAllocator@USlab@NodeAllocator@Gu@physx@@@shdfnd@4@@shdfnd@physx@@IEAAAEAUSlab@NodeAllocator@Gu@3@AEBU4563@@Z 000000018004ebc0 f i GuAABBTreeBuild.obj
 0001:0004dc80       ?increaseCount@BuildStats@Gu@physx@@QEAAXI@Z 000000018004ec80 f i GuAABBTreeBuild.obj
 0001:0004dc90       ?isLeaf@AABBTreeBuildNode@Gu@physx@@QEBA_NXZ 000000018004ec90 f i GuAABBTreeBuild.obj
 0001:0004dca0       ?recreate@?$Array@USlab@NodeAllocator@Gu@physx@@V?$ReflectionAllocator@USlab@NodeAllocator@Gu@physx@@@shdfnd@4@@shdfnd@physx@@IEAAXI@Z 000000018004eca0 f i GuAABBTreeBuild.obj
 0001:0004dd50       ?reset@AABBTreeBuildParams@Gu@physx@@QEAAXXZ 000000018004ed50 f i GuAABBTreeBuild.obj
 0001:0004ddb0       ?reset@BuildStats@Gu@physx@@QEAAXXZ 000000018004edb0 f i GuAABBTreeBuild.obj
 0001:0004ddc0       ?resize@?$Array@USlab@NodeAllocator@Gu@physx@@V?$ReflectionAllocator@USlab@NodeAllocator@Gu@physx@@@shdfnd@4@@shdfnd@physx@@QEAAXIAEBUSlab@NodeAllocator@Gu@3@@Z 000000018004edc0 f i GuAABBTreeBuild.obj
 0001:0004de40       ?setCount@BuildStats@Gu@physx@@QEAAXI@Z 000000018004ee40 f i GuAABBTreeBuild.obj
 0001:0004de50       ?setNbRunTimePrimitives@AABBTreeBuildNode@Gu@physx@@QEAAXI@Z 000000018004ee50 f i GuAABBTreeBuild.obj
 0001:0004dfc0       ??0BVHStructure@Gu@physx@@QEAA@PEAVGuMeshFactory@2@@Z 000000018004efc0 f   GuBVHStructure.obj
 0001:0004e020       ??0BVHStructure@Gu@physx@@QEAA@PEAVGuMeshFactory@2@AEAUBVHStructureData@12@@Z 000000018004f020 f   GuBVHStructure.obj
 0001:0004e0a0       ??1BVHStructure@Gu@physx@@UEAA@XZ 000000018004f0a0 f   GuBVHStructure.obj
 0001:0004e0c0       ?load@BVHStructure@Gu@physx@@QEAA_NAEAVPxInputStream@3@@Z 000000018004f0c0 f   GuBVHStructure.obj
 0001:0004e280       ?release@BVHStructure@Gu@physx@@UEAAXXZ 000000018004f280 f   GuBVHStructure.obj
 0001:0004e2c0       ?raycast@BVHStructure@Gu@physx@@UEBAIAEBVPxVec3@3@0MIPEIAI@Z 000000018004f2c0 f   GuBVHStructure.obj
 0001:0004e390       ?sweep@BVHStructure@Gu@physx@@UEBAIAEBVPxBounds3@3@AEBVPxVec3@3@MIPEIAI@Z 000000018004f390 f   GuBVHStructure.obj
 0001:0004e500       ?overlap@BVHStructure@Gu@physx@@UEBAIAEBVPxBounds3@3@IPEIAI@Z 000000018004f500 f   GuBVHStructure.obj
 0001:0004e650       ?onRefCountZero@BVHStructure@Gu@physx@@UEAAXXZ 000000018004f650 f   GuBVHStructure.obj
 0001:0004e780       ?createVolumes@BVHStructure@Gu@physx@@AEBAXXZ 000000018004f780 f   GuBVHStructure.obj
 0001:0004e810       ??1PxBVHStructure@physx@@MEAA@XZ 000000018004f810 f i GuBVHStructure.obj
 0001:0004e820       ??1RefCountable@Cm@physx@@UEAA@XZ 000000018004f820 f i GuBVHStructure.obj
 0001:0004e830       ??R?$AABBTreeOverlap@UAABBAABBTest@Gu@physx@@UBVHTree@23@UBVHNode@23@IUBVHCallback@23@@Gu@physx@@QEAA_NPEBIPEBVPxBounds3@2@AEBUBVHTree@12@AEBUAABBAABBTest@12@AEAUBVHCallback@12@@Z 000000018004f830 f i GuBVHStructure.obj
 0001:0004eac0       ??R?$AABBTreeRaycast@$00UBVHTree@Gu@physx@@UBVHNode@23@IUBVHCallback@23@@Gu@physx@@QEAA_NPEBIPEBVPxBounds3@2@AEBUBVHTree@12@AEBVPxVec3@2@3AEAM3AEAUBVHCallback@12@@Z 000000018004fac0 f i GuBVHStructure.obj
 0001:0004f180       ??R?$AABBTreeRaycast@$0A@UBVHTree@Gu@physx@@UBVHNode@23@IUBVHCallback@23@@Gu@physx@@QEAA_NPEBIPEBVPxBounds3@2@AEBUBVHTree@12@AEBVPxVec3@2@3AEAM3AEAUBVHCallback@12@@Z 0000000180050180 f i GuBVHStructure.obj
 0001:0004f7c8       ??_EBVHStructure@Gu@physx@@WBA@EAAPEAXI@Z 00000001800507c8 f i GuBVHStructure.obj
 0001:0004f7e0       ??_EBVHStructure@Gu@physx@@UEAAPEAXI@Z 00000001800507e0 f i GuBVHStructure.obj
 0001:0004f7e0       ??_GBVHStructure@Gu@physx@@UEAAPEAXI@Z 00000001800507e0 f i GuBVHStructure.obj
 0001:0004f840       ??_EPxBVHStructure@physx@@MEAAPEAXI@Z 0000000180050840 f i GuBVHStructure.obj
 0001:0004f840       ??_GPxBVHStructure@physx@@MEAAPEAXI@Z 0000000180050840 f i GuBVHStructure.obj
 0001:0004f870       ??_ERefCountable@Cm@physx@@UEAAPEAXI@Z 0000000180050870 f i GuBVHStructure.obj
 0001:0004f870       ??_GRefCountable@Cm@physx@@UEAAPEAXI@Z 0000000180050870 f i GuBVHStructure.obj
 0001:0004f8a0       ?allocate@?$Array@PEBUBVHNode@Gu@physx@@V?$InlineAllocator@$0IAA@V?$ReflectionAllocator@PEBUBVHNode@Gu@physx@@@shdfnd@physx@@@shdfnd@3@@shdfnd@physx@@IEAAPEAPEBUBVHNode@Gu@3@I@Z 00000001800508a0 f i GuBVHStructure.obj
 0001:0004f960       ?getBounds@BVHStructure@Gu@physx@@UEBAPEBVPxBounds3@3@XZ 0000000180050960 f i GuBVHStructure.obj
 0001:0004f970       ?getConcreteTypeName@PxBVHStructure@physx@@UEBAPEBDXZ 0000000180050970 f i GuBVHStructure.obj
 0001:0004f980       ?getNbBounds@BVHStructure@Gu@physx@@UEBAIXZ 0000000180050980 f i GuBVHStructure.obj
 0001:0004f990       ?isKindOf@PxBVHStructure@physx@@MEBA_NPEBD@Z 0000000180050990 f i GuBVHStructure.obj
 0001:0004f9e0       ?onRefCountZero@RefCountable@Cm@physx@@UEAAXXZ 00000001800509e0 f i GuBVHStructure.obj
 0001:0004fa00       ?recreate@?$Array@PEBUBVHNode@Gu@physx@@V?$InlineAllocator@$0IAA@V?$ReflectionAllocator@PEBUBVHNode@Gu@physx@@@shdfnd@physx@@@shdfnd@3@@shdfnd@physx@@IEAAXI@Z 0000000180050a00 f i GuBVHStructure.obj
 0001:0004fab0       ?resizeUninitialized@?$Array@PEBUBVHNode@Gu@physx@@V?$InlineAllocator@$0IAA@V?$ReflectionAllocator@PEBUBVHNode@Gu@physx@@@shdfnd@physx@@@shdfnd@3@@shdfnd@physx@@QEAAXI@Z 0000000180050ab0 f i GuBVHStructure.obj
 0001:0004fb00       ?SweepEstimateAnyShapeHeightfield@Gu@physx@@YAMAEBUCCDShape@12@0AEBVPxTransform@2@111MM@Z 0000000180050b00 f   GuCCDSweepConvexMesh.obj
 0001:00050370       ?SweepEstimateAnyShapeMesh@Gu@physx@@YAMAEBUCCDShape@12@0AEBVPxTransform@2@111MM@Z 0000000180051370 f   GuCCDSweepConvexMesh.obj
 0001:000507b0       ?SweepAnyShapeHeightfield@Gu@physx@@YAMAEBUCCDShape@12@0AEBVPxTransform@2@111MAEAVPxVec3@2@2MAEAIM@Z 00000001800517b0 f   GuCCDSweepConvexMesh.obj
 0001:000518e0       ?SweepAnyShapeMesh@Gu@physx@@YAMAEBUCCDShape@12@0AEBVPxTransform@2@111MAEAVPxVec3@2@2MAEAIM@Z 00000001800528e0 f   GuCCDSweepConvexMesh.obj
 0001:000540a0       ?growAndPushBack@?$Array@IV?$InlineAllocator@$0BAA@V?$ReflectionAllocator@I@shdfnd@physx@@@shdfnd@physx@@@shdfnd@physx@@IEAAAEAIAEBI@Z 00000001800550a0 f i GuCCDSweepConvexMesh.obj
 0001:000541c0       ?recreate@?$Array@IV?$InlineAllocator@$0BAA@V?$ReflectionAllocator@I@shdfnd@physx@@@shdfnd@physx@@@shdfnd@physx@@IEAAXI@Z 00000001800551c0 f i GuCCDSweepConvexMesh.obj
 0001:000542a0       ?resize@?$Array@IV?$InlineAllocator@$0BAA@V?$ReflectionAllocator@I@shdfnd@physx@@@shdfnd@physx@@@shdfnd@physx@@QEAAXIAEBI@Z 00000001800552a0 f i GuCCDSweepConvexMesh.obj
 0001:00054370       ?resize@?$Array@IV?$ReflectionAllocator@I@shdfnd@physx@@@shdfnd@physx@@QEAAXIAEBI@Z 0000000180055370 f i GuCCDSweepConvexMesh.obj
 0001:00054430       ?transformBoxOrthonormal@physx@@YA?AVBox@Gu@1@AEBV231@AEBVPxTransform@1@@Z 0000000180055430 f i GuCCDSweepConvexMesh.obj
 0001:000548c0       ?SweepShapeShape@Gu@physx@@YAMAEBUCCDShape@12@0AEBVPxTransform@2@111MAEAVPxVec3@2@2MAEAIM@Z 00000001800558c0 f   GuCCDSweepPrimitives.obj
 0001:000548f0       ?UnimplementedSweep@Gu@physx@@YAMAEBUCCDShape@12@0AEBVPxTransform@2@111MAEAVPxVec3@2@2MAEAIM@Z 00000001800558f0 f   GuCCDSweepPrimitives.obj
 0001:00054900       ?UnimplementedTriangleSweep@Gu@physx@@YAMAEBVGeometryUnion@12@0AEBVPxTransform@2@111MAEAVPxVec3@2@2AEBVFastVertex2ShapeScaling@Cm@2@AEAVTriangleV@12@M@Z 0000000180055900 f   GuCCDSweepPrimitives.obj
 0001:00054910       ?SweepShapeTriangle@Gu@physx@@YAMAEBVGeometryUnion@12@0AEBVPxTransform@2@111MAEAVPxVec3@2@2AEBVFastVertex2ShapeScaling@Cm@2@AEAVTriangleV@12@M@Z 0000000180055910 f   GuCCDSweepPrimitives.obj
 0001:00054930       ??$SweepGeomGeom@VCapsuleV@Gu@physx@@V123@@Gu@physx@@YAMAEBUCCDShape@01@0AEBVPxTransform@1@111MAEAVPxVec3@1@2MAEAIM@Z 0000000180055930 f i GuCCDSweepPrimitives.obj
 0001:00054a60       ??$SweepGeomGeom@VCapsuleV@Gu@physx@@VBoxV@23@@Gu@physx@@YAMAEBUCCDShape@01@0AEBVPxTransform@1@111MAEAVPxVec3@1@2MAEAIM@Z 0000000180055a60 f i GuCCDSweepPrimitives.obj
 0001:00054bc0       ??$SweepGeomGeom@VCapsuleV@Gu@physx@@VConvexHullV@23@@Gu@physx@@YAMAEBUCCDShape@01@0AEBVPxTransform@1@111MAEAVPxVec3@1@2MAEAIM@Z 0000000180055bc0 f i GuCCDSweepPrimitives.obj
 0001:00055120       ??$SweepGeomGeom@VBoxV@Gu@physx@@V123@@Gu@physx@@YAMAEBUCCDShape@01@0AEBVPxTransform@1@111MAEAVPxVec3@1@2MAEAIM@Z 0000000180056120 f i GuCCDSweepPrimitives.obj
 0001:000552b0       ??$SweepGeomGeom@VBoxV@Gu@physx@@VConvexHullV@23@@Gu@physx@@YAMAEBUCCDShape@01@0AEBVPxTransform@1@111MAEAVPxVec3@1@2MAEAIM@Z 00000001800562b0 f i GuCCDSweepPrimitives.obj
 0001:00055830       ??$SweepGeomGeom@VConvexHullV@Gu@physx@@V123@@Gu@physx@@YAMAEBUCCDShape@01@0AEBVPxTransform@1@111MAEAVPxVec3@1@2MAEAIM@Z 0000000180056830 f i GuCCDSweepPrimitives.obj
 0001:00056150       ??$SweepGeomTriangles@VCapsuleV@Gu@physx@@@Gu@physx@@YAMAEBVGeometryUnion@01@0AEBVPxTransform@1@111MAEAVPxVec3@1@2AEBVFastVertex2ShapeScaling@Cm@1@AEAVTriangleV@01@M@Z 0000000180057150 f i GuCCDSweepPrimitives.obj
 0001:00056220       ??$SweepGeomTriangles@VBoxV@Gu@physx@@@Gu@physx@@YAMAEBVGeometryUnion@01@0AEBVPxTransform@1@111MAEAVPxVec3@1@2AEBVFastVertex2ShapeScaling@Cm@1@AEAVTriangleV@01@M@Z 0000000180057220 f i GuCCDSweepPrimitives.obj
 0001:00056320       ??$SweepGeomTriangles@VConvexHullV@Gu@physx@@@Gu@physx@@YAMAEBVGeometryUnion@01@0AEBVPxTransform@1@111MAEAVPxVec3@1@2AEBVFastVertex2ShapeScaling@Cm@1@AEAVTriangleV@01@M@Z 0000000180057320 f i GuCCDSweepPrimitives.obj
 0001:00056830       ?supportPoint@?$RelativeConvex@VCapsuleV@Gu@physx@@@Gu@physx@@UEBA?AT__m128@@H@Z 0000000180057830 f i GuCCDSweepPrimitives.obj
 0001:00056890       ?support@?$RelativeConvex@VCapsuleV@Gu@physx@@@Gu@physx@@UEBA?AT__m128@@AEBT4@@Z 0000000180057890 f i GuCCDSweepPrimitives.obj
 0001:00056940       ?support@?$RelativeConvex@VCapsuleV@Gu@physx@@@Gu@physx@@UEBA?AT__m128@@AEBT4@AEAH@Z 0000000180057940 f i GuCCDSweepPrimitives.obj
 0001:00056a00       ?getCenter@?$RelativeConvex@VCapsuleV@Gu@physx@@@Gu@physx@@UEBA?AT__m128@@XZ 0000000180057a00 f i GuCCDSweepPrimitives.obj
 0001:00056a40       ?getSweepMargin@?$RelativeConvex@VCapsuleV@Gu@physx@@@Gu@physx@@UEBA?AT__m128@@XZ 0000000180057a40 f i GuCCDSweepPrimitives.obj
 0001:00056a50       ??_E?$RelativeConvex@VCapsuleV@Gu@physx@@@Gu@physx@@UEAAPEAXI@Z 0000000180057a50 f i GuCCDSweepPrimitives.obj
 0001:00056a50       ??_G?$RelativeConvex@VCapsuleV@Gu@physx@@@Gu@physx@@UEAAPEAXI@Z 0000000180057a50 f i GuCCDSweepPrimitives.obj
 0001:00056a80       ?supportPoint@?$RelativeConvex@VTriangleV@Gu@physx@@@Gu@physx@@UEBA?AT__m128@@H@Z 0000000180057a80 f i GuCCDSweepPrimitives.obj
 0001:00056ad0       ?support@?$RelativeConvex@VTriangleV@Gu@physx@@@Gu@physx@@UEBA?AT__m128@@AEBT4@@Z 0000000180057ad0 f i GuCCDSweepPrimitives.obj
 0001:00056bd0       ?support@?$RelativeConvex@VTriangleV@Gu@physx@@@Gu@physx@@UEBA?AT__m128@@AEBT4@AEAH@Z 0000000180057bd0 f i GuCCDSweepPrimitives.obj
 0001:00056d10       ?getCenter@?$RelativeConvex@VTriangleV@Gu@physx@@@Gu@physx@@UEBA?AT__m128@@XZ 0000000180057d10 f i GuCCDSweepPrimitives.obj
 0001:00056d50       ?getSweepMargin@?$RelativeConvex@VTriangleV@Gu@physx@@@Gu@physx@@UEBA?AT__m128@@XZ 0000000180057d50 f i GuCCDSweepPrimitives.obj
 0001:00056d60       ??_E?$RelativeConvex@VTriangleV@Gu@physx@@@Gu@physx@@UEAAPEAXI@Z 0000000180057d60 f i GuCCDSweepPrimitives.obj
 0001:00056d60       ??_G?$RelativeConvex@VTriangleV@Gu@physx@@@Gu@physx@@UEAAPEAXI@Z 0000000180057d60 f i GuCCDSweepPrimitives.obj
 0001:0005ab70       ??$gjkPenetration@U?$RelativeConvex@VCapsuleV@Gu@physx@@@Gu@physx@@U?$LocalConvex@VBoxV@Gu@physx@@@23@@Gu@physx@@YA?AW4GjkStatus@01@AEBU?$RelativeConvex@VCapsuleV@Gu@physx@@@01@AEBU?$LocalConvex@VBoxV@Gu@physx@@@01@AEBT__m128@@2_NPEIAE4AEAEAEAUGjkOutput@01@@Z 000000018005bb70 f i GuCCDSweepPrimitives.obj
 0001:0005c160       ??$gjkPenetration@U?$RelativeConvex@VCapsuleV@Gu@physx@@@Gu@physx@@U?$LocalConvex@VCapsuleV@Gu@physx@@@23@@Gu@physx@@YA?AW4GjkStatus@01@AEBU?$RelativeConvex@VCapsuleV@Gu@physx@@@01@AEBU?$LocalConvex@VCapsuleV@Gu@physx@@@01@AEBT__m128@@2_NPEIAE4AEAEAEAUGjkOutput@01@@Z 000000018005d160 f i GuCCDSweepPrimitives.obj
 0001:0005d780       ??$gjkPenetration@U?$RelativeConvex@VCapsuleV@Gu@physx@@@Gu@physx@@U?$LocalConvex@VConvexHullV@Gu@physx@@@23@@Gu@physx@@YA?AW4GjkStatus@01@AEBU?$RelativeConvex@VCapsuleV@Gu@physx@@@01@AEBU?$LocalConvex@VConvexHullV@Gu@physx@@@01@AEBT__m128@@2_NPEIAE4AEAEAEAUGjkOutput@01@@Z 000000018005e780 f i GuCCDSweepPrimitives.obj
 0001:0005ee10       ??$gjkPenetration@U?$RelativeConvex@VTriangleV@Gu@physx@@@Gu@physx@@U?$LocalConvex@VBoxV@Gu@physx@@@23@@Gu@physx@@YA?AW4GjkStatus@01@AEBU?$RelativeConvex@VTriangleV@Gu@physx@@@01@AEBU?$LocalConvex@VBoxV@Gu@physx@@@01@AEBT__m128@@2_NPEIAE4AEAEAEAUGjkOutput@01@@Z 000000018005fe10 f i GuCCDSweepPrimitives.obj
 0001:00060440       ??$gjkPenetration@U?$RelativeConvex@VTriangleV@Gu@physx@@@Gu@physx@@U?$LocalConvex@VCapsuleV@Gu@physx@@@23@@Gu@physx@@YA?AW4GjkStatus@01@AEBU?$RelativeConvex@VTriangleV@Gu@physx@@@01@AEBU?$LocalConvex@VCapsuleV@Gu@physx@@@01@AEBT__m128@@2_NPEIAE4AEAEAEAUGjkOutput@01@@Z 0000000180061440 f i GuCCDSweepPrimitives.obj
 0001:00061a40       ??$gjkPenetration@U?$RelativeConvex@VTriangleV@Gu@physx@@@Gu@physx@@U?$LocalConvex@VConvexHullV@Gu@physx@@@23@@Gu@physx@@YA?AW4GjkStatus@01@AEBU?$RelativeConvex@VTriangleV@Gu@physx@@@01@AEBU?$LocalConvex@VConvexHullV@Gu@physx@@@01@AEBT__m128@@2_NPEIAE4AEAEAEAUGjkOutput@01@@Z 0000000180062a40 f i GuCCDSweepPrimitives.obj
 0001:000630d0       ??$gjkRaycast@U?$RelativeConvex@VCapsuleV@Gu@physx@@@Gu@physx@@U?$LocalConvex@VBoxV@Gu@physx@@@23@@Gu@physx@@YA_NAEBU?$RelativeConvex@VCapsuleV@Gu@physx@@@01@AEBU?$LocalConvex@VBoxV@Gu@physx@@@01@AEBT__m128@@222AEAT4@33M@Z 00000001800640d0 f i GuCCDSweepPrimitives.obj
 0001:00063d60       ??$gjkRaycast@U?$RelativeConvex@VCapsuleV@Gu@physx@@@Gu@physx@@U?$LocalConvex@VCapsuleV@Gu@physx@@@23@@Gu@physx@@YA_NAEBU?$RelativeConvex@VCapsuleV@Gu@physx@@@01@AEBU?$LocalConvex@VCapsuleV@Gu@physx@@@01@AEBT__m128@@222AEAT4@33M@Z 0000000180064d60 f i GuCCDSweepPrimitives.obj
 0001:00064a70       ??$gjkRaycast@U?$RelativeConvex@VCapsuleV@Gu@physx@@@Gu@physx@@U?$LocalConvex@VConvexHullV@Gu@physx@@@23@@Gu@physx@@YA_NAEBU?$RelativeConvex@VCapsuleV@Gu@physx@@@01@AEBU?$LocalConvex@VConvexHullV@Gu@physx@@@01@AEBT__m128@@222AEAT4@33M@Z 0000000180065a70 f i GuCCDSweepPrimitives.obj
 0001:000658a0       ??$gjkRaycast@U?$RelativeConvex@VTriangleV@Gu@physx@@@Gu@physx@@U?$LocalConvex@VBoxV@Gu@physx@@@23@@Gu@physx@@YA_NAEBU?$RelativeConvex@VTriangleV@Gu@physx@@@01@AEBU?$LocalConvex@VBoxV@Gu@physx@@@01@AEBT__m128@@222AEAT4@33M@Z 00000001800668a0 f i GuCCDSweepPrimitives.obj
 0001:000665f0       ??$gjkRaycast@U?$RelativeConvex@VTriangleV@Gu@physx@@@Gu@physx@@U?$LocalConvex@VCapsuleV@Gu@physx@@@23@@Gu@physx@@YA_NAEBU?$RelativeConvex@VTriangleV@Gu@physx@@@01@AEBU?$LocalConvex@VCapsuleV@Gu@physx@@@01@AEBT__m128@@222AEAT4@33M@Z 00000001800675f0 f i GuCCDSweepPrimitives.obj
 0001:00067380       ??$gjkRaycast@U?$RelativeConvex@VTriangleV@Gu@physx@@@Gu@physx@@U?$LocalConvex@VConvexHullV@Gu@physx@@@23@@Gu@physx@@YA_NAEBU?$RelativeConvex@VTriangleV@Gu@physx@@@01@AEBU?$LocalConvex@VConvexHullV@Gu@physx@@@01@AEBT__m128@@222AEAT4@33M@Z 0000000180068380 f i GuCCDSweepPrimitives.obj
 0001:00068250       ??$gjkRaycastPenetration@U?$RelativeConvex@VCapsuleV@Gu@physx@@@Gu@physx@@U?$LocalConvex@VBoxV@Gu@physx@@@23@@Gu@physx@@YA_NAEBU?$RelativeConvex@VCapsuleV@Gu@physx@@@01@AEBU?$LocalConvex@VBoxV@Gu@physx@@@01@AEBT__m128@@222AEAT4@33M_N@Z 0000000180069250 f i GuCCDSweepPrimitives.obj
 0001:000684d0       ??$gjkRaycastPenetration@U?$RelativeConvex@VCapsuleV@Gu@physx@@@Gu@physx@@U?$LocalConvex@VCapsuleV@Gu@physx@@@23@@Gu@physx@@YA_NAEBU?$RelativeConvex@VCapsuleV@Gu@physx@@@01@AEBU?$LocalConvex@VCapsuleV@Gu@physx@@@01@AEBT__m128@@222AEAT4@33M_N@Z 00000001800694d0 f i GuCCDSweepPrimitives.obj
 0001:00068750       ??$gjkRaycastPenetration@U?$RelativeConvex@VCapsuleV@Gu@physx@@@Gu@physx@@U?$LocalConvex@VConvexHullV@Gu@physx@@@23@@Gu@physx@@YA_NAEBU?$RelativeConvex@VCapsuleV@Gu@physx@@@01@AEBU?$LocalConvex@VConvexHullV@Gu@physx@@@01@AEBT__m128@@222AEAT4@33M_N@Z 0000000180069750 f i GuCCDSweepPrimitives.obj
 0001:000689d0       ??$gjkRaycastPenetration@U?$RelativeConvex@VTriangleV@Gu@physx@@@Gu@physx@@U?$LocalConvex@VBoxV@Gu@physx@@@23@@Gu@physx@@YA_NAEBU?$RelativeConvex@VTriangleV@Gu@physx@@@01@AEBU?$LocalConvex@VBoxV@Gu@physx@@@01@AEBT__m128@@222AEAT4@33M_N@Z 00000001800699d0 f i GuCCDSweepPrimitives.obj
 0001:00068c50       ??$gjkRaycastPenetration@U?$RelativeConvex@VTriangleV@Gu@physx@@@Gu@physx@@U?$LocalConvex@VCapsuleV@Gu@physx@@@23@@Gu@physx@@YA_NAEBU?$RelativeConvex@VTriangleV@Gu@physx@@@01@AEBU?$LocalConvex@VCapsuleV@Gu@physx@@@01@AEBT__m128@@222AEAT4@33M_N@Z 0000000180069c50 f i GuCCDSweepPrimitives.obj
 0001:00068ed0       ??$gjkRaycastPenetration@U?$RelativeConvex@VTriangleV@Gu@physx@@@Gu@physx@@U?$LocalConvex@VConvexHullV@Gu@physx@@@23@@Gu@physx@@YA_NAEBU?$RelativeConvex@VTriangleV@Gu@physx@@@01@AEBU?$LocalConvex@VConvexHullV@Gu@physx@@@01@AEBT__m128@@222AEAT4@33M_N@Z 0000000180069ed0 f i GuCCDSweepPrimitives.obj
 0001:00069150       ?barycentricCoordinates@Gu@physx@@YAXAEBT__m128@@00AEAT3@@Z 000000018006a150 f   GuBarycentricCoordinates.obj
 0001:000691c0       ?barycentricCoordinates@Gu@physx@@YAXAEBT__m128@@000AEAT3@1@Z 000000018006a1c0 f   GuBarycentricCoordinates.obj
 0001:00069310       ?barycentricCoordinates@Gu@physx@@YAXAEBT__m128@@00AEAT3@1@Z 000000018006a310 f   GuBarycentricCoordinates.obj
 0001:00069400       ?addAxis@SeparatingAxes@Gu@physx@@QEAA_NAEBVPxVec3@3@@Z 000000018006a400 f   GuSeparatingAxes.obj
 0001:000694c0       ?contactBoxBox@Gu@physx@@YA_NAEBVGeometryUnion@12@0AEBVPxTransform@2@1AEBUNarrowPhaseParams@12@AEAUCache@12@AEAVContactBuffer@12@PEAVRenderOutput@Cm@2@@Z 000000018006a4c0 f   GuContactBoxBox.obj
 0001:000697b0       ??0VertexInfo@@QEAA@XZ     000000018006a7b0 f i GuContactBoxBox.obj
 0001:0006c110       ?contactCapsuleBox@Gu@physx@@YA_NAEBVGeometryUnion@12@0AEBVPxTransform@2@1AEBUNarrowPhaseParams@12@AEAUCache@12@AEAVContactBuffer@12@PEAVRenderOutput@Cm@2@@Z 000000018006d110 f   GuContactCapsuleBox.obj
 0001:0006dd80       ?contactCapsuleCapsule@Gu@physx@@YA_NAEBVGeometryUnion@12@0AEBVPxTransform@2@1AEBUNarrowPhaseParams@12@AEAUCache@12@AEAVContactBuffer@12@PEAVRenderOutput@Cm@2@@Z 000000018006ed80 f   GuContactCapsuleCapsule.obj
 0001:0006e780       ??0Segment@Gu@physx@@QEAA@XZ 000000018006f780 f i GuContactCapsuleCapsule.obj
 0001:0006e790       ??1Segment@Gu@physx@@QEAA@XZ 000000018006f790 f i GuContactCapsuleCapsule.obj
 0001:0006e7a0       ?contactCapsuleConvex@Gu@physx@@YA_NAEBVGeometryUnion@12@0AEBVPxTransform@2@1AEBUNarrowPhaseParams@12@AEAUCache@12@AEAVContactBuffer@12@PEAVRenderOutput@Cm@2@@Z 000000018006f7a0 f   GuContactCapsuleConvex.obj
 0001:0006f650       ??0ConvexEdge@Gu@physx@@QEAA@XZ 0000000180070650 f i GuContactCapsuleConvex.obj
 0001:00071680       ?contactCapsuleMesh@Gu@physx@@YA_NAEBVGeometryUnion@12@0AEBVPxTransform@2@1AEBUNarrowPhaseParams@12@AEAUCache@12@AEAVContactBuffer@12@PEAVRenderOutput@Cm@2@@Z 0000000180072680 f   GuContactCapsuleMesh.obj
 0001:00071bc0       ?contactCapsuleHeightfield@Gu@physx@@YA_NAEBVGeometryUnion@12@0AEBVPxTransform@2@1AEBUNarrowPhaseParams@12@AEAUCache@12@AEAVContactBuffer@12@PEAVRenderOutput@Cm@2@@Z 0000000180072bc0 f   GuContactCapsuleMesh.obj
 0001:00074470       ?transformFast@PxBounds3@physx@@SA?AV12@AEBVPxTransform@2@AEBV12@@Z 0000000180075470 f i GuContactCapsuleMesh.obj
 0001:00074850       ?transformQueryBounds@FastVertex2ShapeScaling@Cm@physx@@QEBAXAEAVPxVec3@3@0AEAVPxMat33@3@@Z 0000000180075850 f i GuContactCapsuleMesh.obj
 0001:00074a90       ?contactBoxConvex@Gu@physx@@YA_NAEBVGeometryUnion@12@0AEBVPxTransform@2@1AEBUNarrowPhaseParams@12@AEAUCache@12@AEAVContactBuffer@12@PEAVRenderOutput@Cm@2@@Z 0000000180075a90 f   GuContactConvexConvex.obj
 0001:00074c30       ?contactConvexConvex@Gu@physx@@YA_NAEBVGeometryUnion@12@0AEBVPxTransform@2@1AEBUNarrowPhaseParams@12@AEAUCache@12@AEAVContactBuffer@12@PEAVRenderOutput@Cm@2@@Z 0000000180075c30 f   GuContactConvexConvex.obj
 0001:00079360       ?transformPlaneToShapeSpace@FastVertex2ShapeScaling@Cm@physx@@QEBAXAEBVPxVec3@3@MAEAV43@AEAM@Z 000000018007a360 f i GuContactConvexConvex.obj
 0001:00079450       ?contactBoxMesh@Gu@physx@@YA_NAEBVGeometryUnion@12@0AEBVPxTransform@2@1AEBUNarrowPhaseParams@12@AEAUCache@12@AEAVContactBuffer@12@PEAVRenderOutput@Cm@2@@Z 000000018007a450 f   GuContactConvexMesh.obj
 0001:00079610       ?contactConvexMesh@Gu@physx@@YA_NAEBVGeometryUnion@12@0AEBVPxTransform@2@1AEBUNarrowPhaseParams@12@AEAUCache@12@AEAVContactBuffer@12@PEAVRenderOutput@Cm@2@@Z 000000018007a610 f   GuContactConvexMesh.obj
 0001:000797c0       ?contactBoxHeightfield@Gu@physx@@YA_NAEBVGeometryUnion@12@0AEBVPxTransform@2@1AEBUNarrowPhaseParams@12@AEAUCache@12@AEAVContactBuffer@12@PEAVRenderOutput@Cm@2@@Z 000000018007a7c0 f   GuContactConvexMesh.obj
 0001:00079920       ?contactConvexHeightfield@Gu@physx@@YA_NAEBVGeometryUnion@12@0AEBVPxTransform@2@1AEBUNarrowPhaseParams@12@AEAUCache@12@AEAVContactBuffer@12@PEAVRenderOutput@Cm@2@@Z 000000018007a920 f   GuContactConvexMesh.obj
 0001:00079ec0       ??0?$CacheMap@UCachedEdge@Gu@physx@@$0IA@@Gu@physx@@QEAA@XZ 000000018007aec0 f i GuContactConvexMesh.obj
 0001:00079f80       ??0?$CacheMap@UCachedVertex@Gu@physx@@$0IA@@Gu@physx@@QEAA@XZ 000000018007af80 f i GuContactConvexMesh.obj
 0001:0007a040       ??0CachedEdge@Gu@physx@@QEAA@XZ 000000018007b040 f i GuContactConvexMesh.obj
 0001:0007a050       ??0CachedVertex@Gu@physx@@QEAA@XZ 000000018007b050 f i GuContactConvexMesh.obj
 0001:0007a570       ??_EConvexMeshContactGenerationCallback@@UEAAPEAXI@Z 000000018007b570 f i GuContactConvexMesh.obj
 0001:0007a570       ??_GConvexMeshContactGenerationCallback@@UEAAPEAXI@Z 000000018007b570 f i GuContactConvexMesh.obj
 0001:0007a5a0       ?addData@?$CacheMap@UCachedEdge@Gu@physx@@$0IA@@Gu@physx@@QEAA_NAEBUCachedEdge@23@@Z 000000018007b5a0 f i GuContactConvexMesh.obj
 0001:0007a680       ?addData@?$CacheMap@UCachedVertex@Gu@physx@@$0IA@@Gu@physx@@QEAA_NAEBUCachedVertex@23@@Z 000000018007b680 f i GuContactConvexMesh.obj
 0001:0007db60       ?processHit@ConvexMeshContactGenerationCallback@@UEAA_NAEBUPxRaycastHit@physx@@AEBVPxVec3@3@11AEAMPEBI@Z 000000018007eb60 f i GuContactConvexMesh.obj
 0001:0007e490       ?recreate@?$Array@IV?$InlineAllocator@$0BBAA@V?$ReflectionAllocator@I@shdfnd@physx@@@shdfnd@physx@@@shdfnd@physx@@IEAAXI@Z 000000018007f490 f i GuContactConvexMesh.obj
 0001:0007f520       ?contactPlaneBox@Gu@physx@@YA_NAEBVGeometryUnion@12@0AEBVPxTransform@2@1AEBUNarrowPhaseParams@12@AEAUCache@12@AEAVContactBuffer@12@PEAVRenderOutput@Cm@2@@Z 0000000180080520 f   GuContactPlaneBox.obj
 0001:00080150       ?contactPlaneCapsule@Gu@physx@@YA_NAEBVGeometryUnion@12@0AEBVPxTransform@2@1AEBUNarrowPhaseParams@12@AEAUCache@12@AEAVContactBuffer@12@PEAVRenderOutput@Cm@2@@Z 0000000180081150 f   GuContactPlaneCapsule.obj
 0001:00080770       ?contactPlaneConvex@Gu@physx@@YA_NAEBVGeometryUnion@12@0AEBVPxTransform@2@1AEBUNarrowPhaseParams@12@AEAUCache@12@AEAVContactBuffer@12@PEAVRenderOutput@Cm@2@@Z 0000000180081770 f   GuContactPlaneConvex.obj
 0001:00081030       ?findRotationMatrixFromZ@Gu@physx@@YA?AVPxMat33@2@AEBVPxVec3@2@@Z 0000000180082030 f   GuContactPolygonPolygon.obj
 0001:00081270       ?contactPolygonPolygonExt@Gu@physx@@YA_NIPEBVPxVec3@2@PEBEAEBVMatrix34@Cm@2@AEBVPxPlane@2@AEBVPxMat33@2@I01234AEBV32@22IIAEAVContactBuffer@12@_N5M@Z 0000000180082270 f   GuContactPolygonPolygon.obj
 0001:00084620       ?contactSphereBox@Gu@physx@@YA_NAEBVGeometryUnion@12@0AEBVPxTransform@2@1AEBUNarrowPhaseParams@12@AEAUCache@12@AEAVContactBuffer@12@PEAVRenderOutput@Cm@2@@Z 0000000180085620 f   GuContactSphereBox.obj
 0001:00084be0       ?contactSphereCapsule@Gu@physx@@YA_NAEBVGeometryUnion@12@0AEBVPxTransform@2@1AEBUNarrowPhaseParams@12@AEAUCache@12@AEAVContactBuffer@12@PEAVRenderOutput@Cm@2@@Z 0000000180085be0 f   GuContactSphereCapsule.obj
 0001:00084f80       ?contactSphereMesh@Gu@physx@@YA_NAEBVGeometryUnion@12@0AEBVPxTransform@2@1AEBUNarrowPhaseParams@12@AEAUCache@12@AEAVContactBuffer@12@PEAVRenderOutput@Cm@2@@Z 0000000180085f80 f   GuContactSphereMesh.obj
 0001:00086140       ?contactSphereHeightfield@Gu@physx@@YA_NAEBVGeometryUnion@12@0AEBVPxTransform@2@1AEBUNarrowPhaseParams@12@AEAUCache@12@AEAVContactBuffer@12@PEAVRenderOutput@Cm@2@@Z 0000000180087140 f   GuContactSphereMesh.obj
 0001:00087420       ??0TriangleData@@QEAA@XZ   0000000180088420 f i GuContactSphereMesh.obj
 0001:00088780       ?contactSpherePlane@Gu@physx@@YA_NAEBVGeometryUnion@12@0AEBVPxTransform@2@1AEBUNarrowPhaseParams@12@AEAUCache@12@AEAVContactBuffer@12@PEAVRenderOutput@Cm@2@@Z 0000000180089780 f   GuContactSpherePlane.obj
 0001:00088980       ?contactSphereSphere@Gu@physx@@YA_NAEBVGeometryUnion@12@0AEBVPxTransform@2@1AEBUNarrowPhaseParams@12@AEAUCache@12@AEAVContactBuffer@12@PEAVRenderOutput@Cm@2@@Z 0000000180089980 f   GuContactSphereSphere.obj
 0001:00088af0       ?selectNormal@Gu@physx@@YA_NEMM@Z 0000000180089af0 f   GuFeatureCode.obj
 0001:00088b70       ??0BigConvexData@physx@@QEAA@XZ 0000000180089b70 f   GuBigConvexData.obj
 0001:00088ba0       ??1BigConvexData@physx@@QEAA@XZ 0000000180089ba0 f   GuBigConvexData.obj
 0001:00088c30       ?Load@BigConvexData@physx@@QEAA_NAEAVPxInputStream@2@@Z 0000000180089c30 f   GuBigConvexData.obj
 0001:00088d50       ?ComputeOffset@BigConvexData@physx@@QEBAIAEBVPxVec3@2@@Z 0000000180089d50 f   GuBigConvexData.obj
 0001:00088e50       ?ComputeNearestOffset@BigConvexData@physx@@QEBAIAEBVPxVec3@2@@Z 0000000180089e50 f   GuBigConvexData.obj
 0001:00088f60       ?exportExtraData@BigConvexData@physx@@QEAAXAEAVPxSerializationContext@2@@Z 0000000180089f60 f   GuBigConvexData.obj
 0001:00088fe0       ?importExtraData@BigConvexData@physx@@QEAAXAEAVPxDeserializationContext@2@@Z 0000000180089fe0 f   GuBigConvexData.obj
 0001:00089050       ?CreateOffsets@BigConvexData@physx@@IEAAXXZ 000000018008a050 f   GuBigConvexData.obj
 0001:000890a0       ?VLoad@BigConvexData@physx@@IEAA_NAEAVPxInputStream@2@@Z 000000018008a0a0 f   GuBigConvexData.obj
 0001:00089240       ?getScaledConvex@Gu@physx@@YAXAEAPEAVPxVec3@2@AEAPEAEPEAV32@PEAE_NPEBV32@PEBEIAEBVFastVertex2ShapeScaling@Cm@2@@Z 000000018008a240 f   GuConvexHelper.obj
 0001:00089380       ?getConvexData@Gu@physx@@YA_NAEBVGeometryUnion@12@AEAVFastVertex2ShapeScaling@Cm@2@AEAVPxBounds3@2@AEAUPolygonalData@12@@Z 000000018008a380 f   GuConvexHelper.obj
 0001:00089610       ?findUniqueConvexEdges@Gu@physx@@YAIIPEIAUConvexEdge@12@IPEIBUHullPolygonData@12@PEIBE@Z 000000018008a610 f   GuConvexHelper.obj
 0001:00089750       ?exportExtraData@ConvexMesh@Gu@physx@@UEAAXAEAVPxSerializationContext@3@@Z 000000018008a750 f   GuConvexMesh.obj
 0001:00089820       ?importExtraData@ConvexMesh@Gu@physx@@QEAAXAEAVPxDeserializationContext@3@@Z 000000018008a820 f   GuConvexMesh.obj
 0001:000898e0       ?onRefCountZero@ConvexMesh@Gu@physx@@UEAAXXZ 000000018008a8e0 f   GuConvexMesh.obj
 0001:000899e0       ?createObject@ConvexMesh@Gu@physx@@SAPEAV123@AEAPEAEAEAVPxDeserializationContext@3@@Z 000000018008a9e0 f   GuConvexMesh.obj
 0001:00089a40       ??0ConvexMesh@Gu@physx@@QEAA@XZ 000000018008aa40 f   GuConvexMesh.obj
 0001:00089af0       ??0ConvexMesh@Gu@physx@@QEAA@AEAVGuMeshFactory@2@AEAUConvexHullInitData@12@@Z 000000018008aaf0 f   GuConvexMesh.obj
 0001:00089c20       ?load@ConvexMesh@Gu@physx@@QEAA_NAEAVPxInputStream@3@@Z 000000018008ac20 f   GuConvexMesh.obj
 0001:00089ed0       ?release@ConvexMesh@Gu@physx@@UEAAXXZ 000000018008aed0 f   GuConvexMesh.obj
 0001:00089f10       ?getPolygonData@ConvexMesh@Gu@physx@@UEBA_NIAEAUPxHullPolygon@3@@Z 000000018008af10 f   GuConvexMesh.obj
 0001:00089f60       ?isGpuCompatible@ConvexMesh@Gu@physx@@UEBA_NXZ 000000018008af60 f   GuConvexMesh.obj
 0001:00089f90       ?getReferenceCount@ConvexMesh@Gu@physx@@UEBAIXZ 000000018008af90 f   GuConvexMesh.obj
 0001:00089fa0       ?acquireReference@ConvexMesh@Gu@physx@@UEAAXXZ 000000018008afa0 f   GuConvexMesh.obj
 0001:00089fc0       ?getMassInformation@ConvexMesh@Gu@physx@@UEBAXAEAMAEAVPxMat33@3@AEAVPxVec3@3@@Z 000000018008afc0 f   GuConvexMesh.obj
 0001:0008a040       ?getLocalBounds@ConvexMesh@Gu@physx@@UEBA?AVPxBounds3@3@XZ 000000018008b040 f   GuConvexMesh.obj
 0001:0008a0d0       ??1ConvexMesh@Gu@physx@@UEAA@XZ 000000018008b0d0 f   GuConvexMesh.obj
 0001:0008a170       ??_EConvexMesh@Gu@physx@@UEAAPEAXI@Z 000000018008b170 f i GuConvexMesh.obj
 0001:0008a280       ??_EConvexMesh@Gu@physx@@WBA@EAAPEAXI@Z 000000018008b280 f i GuConvexMesh.obj
 0001:0008a290       ??_EPxConvexMesh@physx@@MEAAPEAXI@Z 000000018008b290 f i GuConvexMesh.obj
 0001:0008a7e0       ?requiresObjects@ConvexMesh@Gu@physx@@UEAAXAEAVPxProcessPxBaseCallback@3@@Z 000000018008b7e0 f i GuConvexMesh.obj
 0001:0008a7f0       ?computeHullOBB@Gu@physx@@YAXAEAVBox@12@AEBVPxBounds3@2@MAEBVMatrix34@Cm@2@2AEBVFastVertex2ShapeScaling@62@_N@Z 000000018008b7f0 f   GuConvexUtilsInternal.obj
 0001:0008acb0       ?computeVertexSpaceOBB@Gu@physx@@YAXAEAVBox@12@AEBV312@AEBVPxTransform@2@AEBVPxMeshScale@2@@Z 000000018008bcb0 f   GuConvexUtilsInternal.obj
 0001:0008b070       ?computeOBBAroundConvex@Gu@physx@@YAXAEAVBox@12@AEBVPxConvexMeshGeometry@2@PEBVPxConvexMesh@2@AEBVPxTransform@2@@Z 000000018008c070 f   GuConvexUtilsInternal.obj
 0001:0008b980       ??Dphysx@@YA?AVMatrix34@Cm@0@AEBVPxMeshScale@0@AEBV120@@Z 000000018008c980 f i GuConvexUtilsInternal.obj
 0001:0008bf50       ?transform@physx@@YA?AVBox@Gu@1@AEBVMatrix34@Cm@1@AEBV231@@Z 000000018008cf50 f i GuConvexUtilsInternal.obj
 0001:0008c1a0       ?localSearch@physx@@YAXAEAIAEBVPxVec3@1@PEBV21@PEBUBigConvexRawData@Gu@1@@Z 000000018008d1a0 f   GuHillClimbing.obj
 0001:0008c2d0       ??0PolygonalBox@Gu@physx@@QEAA@AEBVPxVec3@2@@Z 000000018008d2d0 f   GuShapeConvex.obj
 0001:0008c4a0       ?getPolygonalData@PolygonalBox@Gu@physx@@QEBAXPEIAUPolygonalData@23@@Z 000000018008d4a0 f   GuShapeConvex.obj
 0001:0008c510       ?getPolygonalData_Convex@Gu@physx@@YAXPEIAUPolygonalData@12@PEIBUConvexHullData@12@AEBVFastVertex2ShapeScaling@Cm@2@@Z 000000018008d510 f   GuShapeConvex.obj
 0001:0008d990       ??0HullPolygonData@Gu@physx@@QEAA@XZ 000000018008e990 f i GuShapeConvex.obj
 0001:0008d9a0       ?distancePointBoxSquared@Gu@physx@@YAMAEBVPxVec3@2@00AEBVPxMat33@2@PEAV32@@Z 000000018008e9a0 f   GuDistancePointBox.obj
 0001:0008daf0       ?closestPtPointTriangle@Gu@physx@@YA?AVPxVec3@2@AEBV32@000AEAM1@Z 000000018008eaf0 f   GuDistancePointTriangle.obj
 0001:0008e010       ?distancePointTriangleSquared@Gu@physx@@YA?AT__m128@@AEBT3@000AEAT3@11@Z 000000018008f010 f   GuDistancePointTriangle.obj
 0001:0008e410       ?distanceSegmentBoxSquared@Gu@physx@@YAMAEBVPxVec3@2@000AEBVPxMat33@2@PEAMPEAV32@@Z 000000018008f410 f   GuDistanceSegmentBox.obj
 0001:0008f5e0       ?distanceSegmentSegmentSquared@Gu@physx@@YAMAEBVPxVec3@2@0M00MPEAM1@Z 00000001800905e0 f   GuDistanceSegmentSegment.obj
 0001:0008fd30       ?distanceSegmentSegmentSquared@Gu@physx@@YAMAEBVPxVec3@2@000PEAM1@Z 0000000180090d30 f   GuDistanceSegmentSegment.obj
 0001:0008ffd0       ?distanceSegmentSegmentSquared@Gu@physx@@YA?AT__m128@@AEBT3@000AEAT3@1@Z 0000000180090fd0 f   GuDistanceSegmentSegment.obj
 0001:000901a0       ?distanceSegmentSegmentSquared4@Gu@physx@@YA?AT__m128@@AEBT3@000000000AEAT3@1@Z 00000001800911a0 f   GuDistanceSegmentSegment.obj
 0001:000904b0       ?distanceSegmentTriangleSquared@Gu@physx@@YAMAEBVPxVec3@2@0000PEAM11@Z 00000001800914b0 f   GuDistanceSegmentTriangle.obj
 0001:00091b30       ?distanceSegmentTriangleSquared@Gu@physx@@YA?AT__m128@@AEBT3@0000AEAT3@1@Z 0000000180092b30 f   GuDistanceSegmentTriangle.obj
 0001:00092270       ?epaPenetration@Gu@physx@@YA?AW4GjkStatus@12@AEBUGjkConvex@12@0PEIBE1E_NT__m128@@AEAUGjkOutput@12@@Z 0000000180093270 f   GuEPA.obj
 0001:000923e0       ?isValid2@Facet@Gu@physx@@QEAA?AT__m128@@IIIPEIBT4@0AEBT4@@Z 00000001800933e0 f   GuEPA.obj
 0001:000924d0       ?silhouette@Facet@Gu@physx@@QEAAXAEBT__m128@@PEIBT4@1AEAVEdgeBuffer@23@AEAV?$InlineDeferredIDPool@$0EA@@Cm@3@@Z 00000001800934d0 f   GuEPA.obj
 0001:000926a0       ?PenetrationDepth@EPA@Gu@physx@@QEAA?AW4GjkStatus@23@AEBUGjkConvex@23@0PEIBT__m128@@1E_NT6@AEAUGjkOutput@23@@Z 00000001800936a0 f   GuEPA.obj
 0001:000931e0       ?expandPoint@EPA@Gu@physx@@QEAA_NAEBUGjkConvex@23@0AEAHAEBT__m128@@@Z 00000001800941e0 f   GuEPA.obj
 0001:000932d0       ?expandSegment@EPA@Gu@physx@@QEAA_NAEBUGjkConvex@23@0AEAHAEBT__m128@@@Z 00000001800942d0 f   GuEPA.obj
 0001:00093460       ?expandTriangle@EPA@Gu@physx@@QEAA_NAEAHAEBT__m128@@@Z 0000000180094460 f   GuEPA.obj
 0001:00093510       ?addFacet@EPA@Gu@physx@@QEAAPEAVFacet@23@IIIAEBT__m128@@@Z 0000000180094510 f   GuEPA.obj
 0001:000936e0       ??0Edge@Gu@physx@@QEAA@XZ  00000001800946e0 f i GuEPA.obj
 0001:000936f0       ??0Facet@Gu@physx@@QEAA@XZ 00000001800946f0 f i GuEPA.obj
 0001:00093970       ?closestPtPointTetrahedron@Gu@physx@@YA?AT__m128@@PEIAT3@00AEAI@Z 0000000180094970 f   GuGJKSimplex.obj
 0001:000940f0       ?closestPtPointTetrahedron@Gu@physx@@YA?AT__m128@@PEIAT3@00PEIAH1AEAI@Z 00000001800950f0 f   GuGJKSimplex.obj
 0001:00095ba0       ?testGjk@Gu@physx@@YA?AW4GjkStatus@12@AEAUGjkConvex@12@0AEBT__m128@@1AEAT5@222@Z 0000000180096ba0 f   GuGJKTest.obj
 0001:00095bb0       ?testGjkPenetration@Gu@physx@@YA?AW4GjkStatus@12@AEAUGjkConvex@12@0AEBT__m128@@1PEAE2AEAEAEAUGjkOutput@12@@Z 0000000180096bb0 f   GuGJKTest.obj
 0001:00095c00       ?testEpaPenetration@Gu@physx@@YA?AW4GjkStatus@12@AEAUGjkConvex@12@0PEBE1EAEAUGjkOutput@12@@Z 0000000180096c00 f   GuGJKTest.obj
 0001:00095c50       ?testGjkRaycast@Gu@physx@@YA_NAEAUGjkConvex@12@0AEBT__m128@@111AEAT4@22M@Z 0000000180096c50 f   GuGJKTest.obj
 0001:00095c60       ??$gjk@UGjkConvex@Gu@physx@@U123@@Gu@physx@@YA?AW4GjkStatus@01@AEBUGjkConvex@01@0AEBT__m128@@1AEAT4@222@Z 0000000180096c60 f i GuGJKTest.obj
 0001:00096880       ??$gjkPenetration@UGjkConvex@Gu@physx@@U123@@Gu@physx@@YA?AW4GjkStatus@01@AEBUGjkConvex@01@0AEBT__m128@@1_NPEIAE3AEAEAEAUGjkOutput@01@@Z 0000000180097880 f i GuGJKTest.obj
 0001:00097d70       ??$gjkRaycast@UGjkConvex@Gu@physx@@U123@@Gu@physx@@YA_NAEBUGjkConvex@01@0AEBT__m128@@111AEAT3@22M@Z 0000000180098d70 f i GuGJKTest.obj
 0001:00098900       ?exportExtraData@HeightField@Gu@physx@@UEAAXAEAVPxSerializationContext@3@@Z 0000000180099900 f   GuHeightField.obj
 0001:00098960       ?importExtraData@HeightField@Gu@physx@@QEAAXAEAVPxDeserializationContext@3@@Z 0000000180099960 f   GuHeightField.obj
 0001:00098990       ?createObject@HeightField@Gu@physx@@SAPEAV123@AEAPEAEAEAVPxDeserializationContext@3@@Z 0000000180099990 f   GuHeightField.obj
 0001:000989f0       ??0HeightField@Gu@physx@@QEAA@PEAVGuMeshFactory@2@@Z 00000001800999f0 f   GuHeightField.obj
 0001:00098a60       ??0HeightField@Gu@physx@@QEAA@AEAVGuMeshFactory@2@AEAUHeightFieldData@12@@Z 0000000180099a60 f   GuHeightField.obj
 0001:00098b30       ?release@HeightField@Gu@physx@@UEAAXXZ 0000000180099b30 f   GuHeightField.obj
 0001:00098b70       ?saveCells@HeightField@Gu@physx@@UEBAIPEAXI@Z 0000000180099b70 f   GuHeightField.obj
 0001:00098bb0       ?modifySamples@HeightField@Gu@physx@@UEAA_NHHAEBVPxHeightFieldDesc@3@_N@Z 0000000180099bb0 f   GuHeightField.obj
 0001:00098f30       ?acquireReference@HeightField@Gu@physx@@UEAAXXZ 0000000180099f30 f   GuHeightField.obj
 0001:00098f50       ?getReferenceCount@HeightField@Gu@physx@@UEBAIXZ 0000000180099f50 f   GuHeightField.obj
 0001:00098f60       ?onRefCountZero@HeightField@Gu@physx@@UEAAXXZ 0000000180099f60 f   GuHeightField.obj
 0001:00099000       ?loadFromDesc@HeightField@Gu@physx@@QEAA_NAEBVPxHeightFieldDesc@3@@Z 000000018009a000 f   GuHeightField.obj
 0001:00099240       ?load@HeightField@Gu@physx@@QEAA_NAEAVPxInputStream@3@@Z 000000018009a240 f   GuHeightField.obj
 0001:000995d0       ?computeCellCoordinates@HeightField@Gu@physx@@QEBAIMMAEAM0@Z 000000018009a5d0 f   GuHeightField.obj
 0001:000996e0       ?isSolidVertex@HeightField@Gu@physx@@QEBA_NIIIGAEA_N@Z 000000018009a6e0 f   GuHeightField.obj
 0001:00099870       ?isCollisionVertexPreca@HeightField@Gu@physx@@QEBA_NIIIG@Z 000000018009a870 f   GuHeightField.obj
 0001:00099910       ?parseTrianglesForCollisionVertices@HeightField@Gu@physx@@QEAAXG@Z 000000018009a910 f   GuHeightField.obj
 0001:00099e20       ?releaseMemory@HeightField@Gu@physx@@QEAAXXZ 000000018009ae20 f   GuHeightField.obj
 0001:00099e70       ??1HeightField@Gu@physx@@UEAA@XZ 000000018009ae70 f   GuHeightField.obj
 0001:00099ef0       ?getVertexEdgeIndices@physx@@YAIAEBVHeightField@Gu@1@IIIQEAUEdgeData@1@@Z 000000018009aef0 f   GuHeightField.obj
 0001:0009a0e0       ?getEdgeTriangleIndices@physx@@YAIAEBVHeightField@Gu@1@AEBUEdgeData@1@PEIAI@Z 000000018009b0e0 f   GuHeightField.obj
 0001:0009a210       ??0?$BitMapBase@VNonTrackingAllocator@shdfnd@physx@@@Cm@physx@@QEAA@XZ 000000018009b210 f i GuHeightField.obj
 0001:0009a220       ??1?$BitMapBase@VNonTrackingAllocator@shdfnd@physx@@@Cm@physx@@QEAA@XZ 000000018009b220 f i GuHeightField.obj
 0001:0009a280       ??_EHeightField@Gu@physx@@UEAAPEAXI@Z 000000018009b280 f i GuHeightField.obj
 0001:0009a438       ??_EHeightField@Gu@physx@@WBA@EAAPEAXI@Z 000000018009b438 f i GuHeightField.obj
 0001:0009a450       ??_EPxHeightField@physx@@MEAAPEAXI@Z 000000018009b450 f i GuHeightField.obj
 0001:0009a4e0       ?isConvexVertex@HeightField@Gu@physx@@QEBA_NIII@Z 000000018009b4e0 f i GuHeightField.obj
 0001:0009a5b0       ?requiresObjects@HeightField@Gu@physx@@UEAAXAEAVPxProcessPxBaseCallback@3@@Z 000000018009b5b0 f i GuHeightField.obj
 0001:0009a5c0       ?resizeAndClear@?$BitMapBase@VNonTrackingAllocator@shdfnd@physx@@@Cm@physx@@QEAAXI@Z 000000018009b5c0 f i GuHeightField.obj
 0001:0009a670       ?computeLocalBounds@HeightFieldUtil@Gu@physx@@QEBAXAEAVPxBounds3@3@@Z 000000018009b670 f   GuHeightFieldUtil.obj
 0001:0009a740       ?getFaceIndexAtShapePoint@HeightFieldUtil@Gu@physx@@QEBAIMM@Z 000000018009b740 f   GuHeightFieldUtil.obj
 0001:0009a850       ?getVertexNormal@HeightFieldUtil@Gu@physx@@QEBA?AVPxVec3@3@III@Z 000000018009b850 f   GuHeightFieldUtil.obj
 0001:0009abb0       ?getVertexFaceIndex@HeightFieldUtil@Gu@physx@@QEBAIIII@Z 000000018009bbb0 f   GuHeightFieldUtil.obj
 0001:0009ae10       ?getEdge@HeightFieldUtil@Gu@physx@@QEBAXIIIIAEAVPxVec3@3@0@Z 000000018009be10 f   GuHeightFieldUtil.obj
 0001:0009b060       ?getEdgeFaceIndex@HeightFieldUtil@Gu@physx@@QEBAII@Z 000000018009c060 f   GuHeightFieldUtil.obj
 0001:0009b240       ?getEdgeFaceIndex@HeightFieldUtil@Gu@physx@@QEBAIIIII@Z 000000018009c240 f   GuHeightFieldUtil.obj
 0001:0009b3e0       ?getEdgeFaceIndex@HeightFieldUtil@Gu@physx@@QEBAIIIPEIBI@Z 000000018009c3e0 f   GuHeightFieldUtil.obj
 0001:0009b490       ?findClosestPointsOnCell@HeightFieldUtil@Gu@physx@@QEBAIIIVPxVec3@3@PEIAV43@PEIAI_N33@Z 000000018009c490 f   GuHeightFieldUtil.obj
 0001:0009bc20       ?findProjectionOnTriangle@HeightFieldUtil@Gu@physx@@QEBA_NIIIAEBVPxVec3@3@AEAV43@@Z 000000018009cc20 f   GuHeightFieldUtil.obj
 0001:0009bed0       ?findClosestPointOnEdge@HeightFieldUtil@Gu@physx@@QEBAMIIIIAEBVPxVec3@3@AEAV43@@Z 000000018009ced0 f   GuHeightFieldUtil.obj
 0001:0009c1d0       ?getTriangle@HeightFieldUtil@Gu@physx@@QEBAIAEBVPxTransform@3@AEAVPxTriangle@3@PEAI2I_N3@Z 000000018009d1d0 f   GuHeightFieldUtil.obj
 0001:0009ccd0       ?overlapAABBTriangles@HeightFieldUtil@Gu@physx@@QEBA_NAEBVPxTransform@3@AEBVPxBounds3@3@IPEAV?$EntityReport@I@23@@Z 000000018009dcd0 f   GuHeightFieldUtil.obj
 0001:0009d310       ?getTriangleAdjacencyIndices@HeightField@Gu@physx@@QEBAXIIIIAEAI00@Z 000000018009e310 f i GuHeightFieldUtil.obj
 0001:0009d4c0       ?getTriangleVertexIndices@HeightField@Gu@physx@@QEBAXIAEAI00@Z 000000018009e4c0 f i GuHeightFieldUtil.obj
 0001:0009d580       ?checkOverlapAABB_heightFieldGeom@Gu@physx@@YA_NAEBVPxGeometry@2@AEBVPxTransform@2@AEBVPxBounds3@2@@Z 000000018009e580 f   GuOverlapTestsHF.obj
 0001:0009da00       ?GeomOverlapCallback_SphereHeightfield@@YA_NAEBVPxGeometry@physx@@AEBVPxTransform@2@01PEAUTriggerCache@Gu@2@@Z 000000018009ea00 f   GuOverlapTestsHF.obj
 0001:0009dbe0       ?GeomOverlapCallback_CapsuleHeightfield@@YA_NAEBVPxGeometry@physx@@AEBVPxTransform@2@01PEAUTriggerCache@Gu@2@@Z 000000018009ebe0 f   GuOverlapTestsHF.obj
 0001:0009de20       ?GeomOverlapCallback_BoxHeightfield@@YA_NAEBVPxGeometry@physx@@AEBVPxTransform@2@01PEAUTriggerCache@Gu@2@@Z 000000018009ee20 f   GuOverlapTestsHF.obj
 0001:0009e190       ?GeomOverlapCallback_ConvexHeightfield@@YA_NAEBVPxGeometry@physx@@AEBVPxTransform@2@01PEAUTriggerCache@Gu@2@@Z 000000018009f190 f   GuOverlapTestsHF.obj
 0001:0009e200       ??$traceSegment@UTriggerTraceSegmentCallback@Gu@physx@@$0A@$0A@@HeightFieldTraceUtil@Gu@physx@@QEBAXAEBVPxVec3@2@0MPEAUTriggerTraceSegmentCallback@12@AEBVPxBounds3@2@_NPEBV32@@Z 000000018009f200 f i GuOverlapTestsHF.obj
 0001:000a2060       ?sweepCapsule_HeightFieldGeom@@YA_NAEBVPxGeometry@physx@@AEBVPxTransform@2@AEBVPxCapsuleGeometry@2@1AEBVCapsule@Gu@2@AEBVPxVec3@2@MAEAUPxSweepHit@2@V?$PxFlags@W4Enum@PxHitFlag@physx@@G@2@M@Z 00000001800a3060 f   GuSweepsHF.obj
 0001:000a29c0       ?sweepConvex_HeightFieldGeom@@YA_NAEBVPxGeometry@physx@@AEBVPxTransform@2@AEBVPxConvexMeshGeometry@2@1AEBVPxVec3@2@MAEAUPxSweepHit@2@V?$PxFlags@W4Enum@PxHitFlag@physx@@G@2@M@Z 00000001800a39c0 f   GuSweepsHF.obj
 0001:000a33b0       ?sweepBox_HeightFieldGeom@@YA_NAEBVPxGeometry@physx@@AEBVPxTransform@2@AEBVPxBoxGeometry@2@1AEBVBox@Gu@2@AEBVPxVec3@2@MAEAUPxSweepHit@2@V?$PxFlags@W4Enum@PxHitFlag@physx@@G@2@M@Z 00000001800a43b0 f   GuSweepsHF.obj
 0001:000a4210       ??$gjkPenetration@U?$LocalConvex@VTriangleV@Gu@physx@@@Gu@physx@@U?$LocalConvex@VConvexHullV@Gu@physx@@@23@@Gu@physx@@YA?AW4GjkStatus@01@AEBU?$LocalConvex@VTriangleV@Gu@physx@@@01@AEBU?$LocalConvex@VConvexHullV@Gu@physx@@@01@AEBT__m128@@2_NPEIAE4AEAEAEAUGjkOutput@01@@Z 00000001800a5210 f i GuSweepsHF.obj
 0001:000a5810       ??$gjkRaycast@U?$LocalConvex@VTriangleV@Gu@physx@@@Gu@physx@@U?$LocalConvex@VConvexHullV@Gu@physx@@@23@@Gu@physx@@YA_NAEBU?$LocalConvex@VTriangleV@Gu@physx@@@01@AEBU?$LocalConvex@VConvexHullV@Gu@physx@@@01@AEBT__m128@@222AEAT4@33M@Z 00000001800a6810 f i GuSweepsHF.obj
 0001:000a6610       ??$gjkRaycastPenetration@U?$LocalConvex@VTriangleV@Gu@physx@@@Gu@physx@@U?$LocalConvex@VConvexHullV@Gu@physx@@@23@@Gu@physx@@YA_NAEBU?$LocalConvex@VTriangleV@Gu@physx@@@01@AEBU?$LocalConvex@VConvexHullV@Gu@physx@@@01@AEBT__m128@@222AEAT4@33M_N@Z 00000001800a7610 f i GuSweepsHF.obj
 0001:000a6840       ??$traceSegment@VBoxTraceSegmentReport@@$0A@$00@HeightFieldTraceUtil@Gu@physx@@QEBAXAEBVPxVec3@2@0MPEAVBoxTraceSegmentReport@@AEBVPxBounds3@2@_NPEBV32@@Z 00000001800a7840 f i GuSweepsHF.obj
 0001:000a7060       ??$traceSegment@VCapsuleTraceSegmentReport@@$0A@$00@HeightFieldTraceUtil@Gu@physx@@QEBAXAEBVPxVec3@2@0MPEAVCapsuleTraceSegmentReport@@AEBVPxBounds3@2@_NPEBV32@@Z 00000001800a8060 f i GuSweepsHF.obj
 0001:000a7880       ??$traceSegment@VConvexTraceSegmentReport@@$0A@$00@HeightFieldTraceUtil@Gu@physx@@QEBAXAEBVPxVec3@2@0MPEAVConvexTraceSegmentReport@@AEBVPxBounds3@2@_NPEBV32@@Z 00000001800a8880 f i GuSweepsHF.obj
 0001:000a80a0       ??0ConvexTraceSegmentReport@@QEAA@AEBVHeightFieldUtil@Gu@physx@@AEBUConvexHullData@23@AEBVPxMeshScale@3@AEBVPxTransform@3@3AEBVPxVec3@3@MV?$PxFlags@W4Enum@PxHitFlag@physx@@G@3@M@Z 00000001800a90a0 f i GuSweepsHF.obj
 0001:000a8a40       ??_EBoxTraceSegmentReport@@UEAAPEAXI@Z 00000001800a9a40 f i GuSweepsHF.obj
 0001:000a8a40       ??_GBoxTraceSegmentReport@@UEAAPEAXI@Z 00000001800a9a40 f i GuSweepsHF.obj
 0001:000a8a70       ??_ECapsuleTraceSegmentReport@@UEAAPEAXI@Z 00000001800a9a70 f i GuSweepsHF.obj
 0001:000a8a70       ??_GCapsuleTraceSegmentReport@@UEAAPEAXI@Z 00000001800a9a70 f i GuSweepsHF.obj
 0001:000a8aa0       ??_EConvexTraceSegmentReport@@UEAAPEAXI@Z 00000001800a9aa0 f i GuSweepsHF.obj
 0001:000a8aa0       ??_GConvexTraceSegmentReport@@UEAAPEAXI@Z 00000001800a9aa0 f i GuSweepsHF.obj
 0001:000a8ad0       ??_EHeightFieldTraceSegmentReport@@UEAAPEAXI@Z 00000001800a9ad0 f i GuSweepsHF.obj
 0001:000a8ad0       ??_GHeightFieldTraceSegmentReport@@UEAAPEAXI@Z 00000001800a9ad0 f i GuSweepsHF.obj
 0001:000a8b00       ?finalizeHit@ConvexTraceSegmentReport@@QEAA_NAEAUPxSweepHit@physx@@AEBVPxHeightFieldGeometry@3@AEBVPxTransform@3@AEBVPxConvexMeshGeometry@3@2AEBVPxVec3@3@M@Z 00000001800a9b00 f i GuSweepsHF.obj
 0001:000a8d50       ?onEvent@BoxTraceSegmentReport@@UEAA_NIPEAI@Z 00000001800a9d50 f i GuSweepsHF.obj
 0001:000a91c0       ?onEvent@CapsuleTraceSegmentReport@@UEAA_NIPEAI@Z 00000001800aa1c0 f i GuSweepsHF.obj
 0001:000a9410       ?onEvent@ConvexTraceSegmentReport@@UEAA_NIPEAI@Z 00000001800aa410 f i GuSweepsHF.obj
 0001:000a99d0       ?prepare@?$OverlapTraceSegment@VBoxTraceSegmentReport@@@HeightFieldTraceUtil@Gu@physx@@QEAAXAEBVPxVec3@4@00AEAM1@Z 00000001800aa9d0 f i GuSweepsHF.obj
 0001:000a9c90       ?prepare@?$OverlapTraceSegment@VCapsuleTraceSegmentReport@@@HeightFieldTraceUtil@Gu@physx@@QEAAXAEBVPxVec3@4@00AEAM1@Z 00000001800aac90 f i GuSweepsHF.obj
 0001:000a9f50       ?prepare@?$OverlapTraceSegment@VConvexTraceSegmentReport@@@HeightFieldTraceUtil@Gu@physx@@QEAAXAEBVPxVec3@4@00AEAM1@Z 00000001800aaf50 f i GuSweepsHF.obj
 0001:000aa210       ?testVertexIndex@?$OverlapTraceSegment@VBoxTraceSegmentReport@@@HeightFieldTraceUtil@Gu@physx@@QEAA_NI@Z 00000001800ab210 f i GuSweepsHF.obj
 0001:000aa370       ?testVertexIndex@?$OverlapTraceSegment@VCapsuleTraceSegmentReport@@@HeightFieldTraceUtil@Gu@physx@@QEAA_NI@Z 00000001800ab370 f i GuSweepsHF.obj
 0001:000aa4d0       ?testVertexIndex@?$OverlapTraceSegment@VConvexTraceSegmentReport@@@HeightFieldTraceUtil@Gu@physx@@QEAA_NI@Z 00000001800ab4d0 f i GuSweepsHF.obj
 0001:000aa630       ?visitCells@?$OverlapTraceSegment@VBoxTraceSegmentReport@@@HeightFieldTraceUtil@Gu@physx@@QEAA_NAEBUOverlapRectangle@1234@@Z 00000001800ab630 f i GuSweepsHF.obj
 0001:000aa820       ?visitCells@?$OverlapTraceSegment@VCapsuleTraceSegmentReport@@@HeightFieldTraceUtil@Gu@physx@@QEAA_NAEBUOverlapRectangle@1234@@Z 00000001800ab820 f i GuSweepsHF.obj
 0001:000aaa10       ?visitCells@?$OverlapTraceSegment@VConvexTraceSegmentReport@@@HeightFieldTraceUtil@Gu@physx@@QEAA_NAEBUOverlapRectangle@1234@@Z 00000001800aba10 f i GuSweepsHF.obj
 0001:000aac00       ?intersectOBBOBB@Gu@physx@@YA_NAEBVPxVec3@2@0AEBVPxMat33@2@001_N@Z 00000001800abc00 f   GuIntersectionBoxBox.obj
 0001:000ab250       ?intersectCapsuleTriangle@Gu@physx@@YA_NAEBVPxVec3@2@000AEBVCapsule@12@AEBUCapsuleTriangleOverlapData@12@@Z 00000001800ac250 f   GuIntersectionCapsuleTriangle.obj
 0001:000abe40       ?intersectEdgeEdge@Gu@physx@@YA_NAEBVPxVec3@2@0000AEAMAEAV32@@Z 00000001800ace40 f   GuIntersectionEdgeEdge.obj
 0001:000ac160       ?rayAABBIntersect@Gu@physx@@YA_NAEBVPxVec3@2@000AEAV32@@Z 00000001800ad160 f   GuIntersectionRayBox.obj
 0001:000ac360       ?rayAABBIntersect2@Gu@physx@@YAIAEBVPxVec3@2@000AEAV32@AEAM@Z 00000001800ad360 f   GuIntersectionRayBox.obj
 0001:000ac570       ?intersectRayAABB@Gu@physx@@YAHAEBVPxVec3@2@000AEAM1@Z 00000001800ad570 f   GuIntersectionRayBox.obj
 0001:000ac690       ?intersectRayAABB@Gu@physx@@YAHAEBVPxVec3@2@0000AEAM1@Z 00000001800ad690 f   GuIntersectionRayBox.obj
 0001:000ac880       ?intersectRayAABB2@Gu@physx@@YA_NAEBVPxVec3@2@000MAEAM1@Z 00000001800ad880 f   GuIntersectionRayBox.obj
 0001:000aca30       ?intersectRayAABB2@Gu@physx@@YA_NAEBT__m128@@0000AEAT3@1@Z 00000001800ada30 f   GuIntersectionRayBox.obj
 0001:000acaf0       ?intersectRayCapsuleInternal@Gu@physx@@YAIAEBVPxVec3@2@000MQEAM@Z 00000001800adaf0 f   GuIntersectionRayCapsule.obj
 0001:000ad370       ?intersectRaySphereBasic@Gu@physx@@YA_NAEBVPxVec3@2@0M0MAEAMPEAV32@@Z 00000001800ae370 f   GuIntersectionRaySphere.obj
 0001:000ad4d0       ?intersectRaySphere@Gu@physx@@YA_NAEBVPxVec3@2@0M0MAEAMPEAV32@@Z 00000001800ae4d0 f   GuIntersectionRaySphere.obj
 0001:000ad5c0       ?intersectSphereBox@Gu@physx@@YA_NAEBVSphere@12@AEBVBox@12@@Z 00000001800ae5c0 f   GuIntersectionSphereBox.obj
 0001:000ad7f0       ?intersectTriangleBox_ReferenceCode@Gu@physx@@YAHAEBVPxVec3@2@0000@Z 00000001800ae7f0 f   GuIntersectionTriangleBox.obj
 0001:000adfd0       ?intersectTriangleBox_Unsafe@Gu@physx@@YAHAEBVPxVec3@2@0000@Z 00000001800aefd0 f   GuIntersectionTriangleBox.obj
 0001:000ae3b0       ?intersectTriangleBox@Gu@physx@@YAHAEBVBoxPadded@12@AEBVPxVec3@2@11@Z 00000001800af3b0 f   GuIntersectionTriangleBox.obj
 0001:000ae990       ?intersectTriangleBoxBV4@@YAHAEBVPxVec3@physx@@00AEBVPxMat33@2@00@Z 00000001800af990 f   GuIntersectionTriangleBox.obj
 0001:000aedd0       ??0SourceMeshBase@Gu@physx@@QEAA@XZ 00000001800afdd0 f   GuBV4.obj
 0001:000aedf0       ??1SourceMeshBase@Gu@physx@@QEAA@XZ 00000001800afdf0 f   GuBV4.obj
 0001:000aee50       ??0SourceMesh@Gu@physx@@QEAA@XZ 00000001800afe50 f   GuBV4.obj
 0001:000aee80       ??1SourceMesh@Gu@physx@@QEAA@XZ 00000001800afe80 f   GuBV4.obj
 0001:000aeee0       ?reset@SourceMesh@Gu@physx@@QEAAXXZ 00000001800afee0 f   GuBV4.obj
 0001:000aef00       ??4SourceMesh@Gu@physx@@QEAAXAEAV012@@Z 00000001800aff00 f   GuBV4.obj
 0001:000aef50       ?remapTopology@SourceMesh@Gu@physx@@QEAAXPEBI@Z 00000001800aff50 f   GuBV4.obj
 0001:000af220       ?isValid@SourceMesh@Gu@physx@@QEBA_NXZ 00000001800b0220 f   GuBV4.obj
 0001:000af250       ??0BV4Tree@Gu@physx@@QEAA@W4PxEMPTY@2@@Z 00000001800b0250 f   GuBV4.obj
 0001:000af260       ?exportExtraData@BV4Tree@Gu@physx@@QEAAXAEAVPxSerializationContext@3@@Z 00000001800b0260 f   GuBV4.obj
 0001:000af2b0       ?importExtraData@BV4Tree@Gu@physx@@QEAAXAEAVPxDeserializationContext@3@@Z 00000001800b02b0 f   GuBV4.obj
 0001:000af2e0       ??0BV4Tree@Gu@physx@@QEAA@XZ 00000001800b02e0 f   GuBV4.obj
 0001:000af320       ??0BV4Tree@Gu@physx@@QEAA@PEAVSourceMesh@12@AEBVPxBounds3@2@@Z 00000001800b0320 f   GuBV4.obj
 0001:000af3f0       ??1BV4Tree@Gu@physx@@QEAA@XZ 00000001800b03f0 f   GuBV4.obj
 0001:000af450       ?load@BV4Tree@Gu@physx@@QEAA_NAEAVPxInputStream@3@_N@Z 00000001800b0450 f   GuBV4.obj
 0001:000af670       ?reset@BV4Tree@Gu@physx@@QEAAXXZ 00000001800b0670 f   GuBV4.obj
 0001:000af6a0       ??4BV4Tree@Gu@physx@@QEAAXAEAV012@@Z 00000001800b06a0 f   GuBV4.obj
 0001:000af730       ?init@BV4Tree@Gu@physx@@QEAA_NPEAVSourceMesh@23@AEBVPxBounds3@3@@Z 00000001800b0730 f   GuBV4.obj
 0001:000af7d0       ?release@BV4Tree@Gu@physx@@QEAAXXZ 00000001800b07d0 f   GuBV4.obj
 0001:000af830       ?refit@BV4Tree@Gu@physx@@QEAAXM@Z 00000001800b0830 f   GuBV4.obj
 0001:000af840       ??0IndTri16@Gu@physx@@QEAA@XZ 00000001800b0840 f i GuBV4.obj
 0001:000af850       ??0IndTri32@Gu@physx@@QEAA@XZ 00000001800b0850 f i GuBV4.obj
 0001:000af860       ??1IndTri16@Gu@physx@@QEAA@XZ 00000001800b0860 f i GuBV4.obj
 0001:000af870       ??1IndTri32@Gu@physx@@QEAA@XZ 00000001800b0870 f i GuBV4.obj
 0001:000af880       ??_EIndTri16@Gu@physx@@QEAAPEAXI@Z 00000001800b0880 f i GuBV4.obj
 0001:000af900       ??_EIndTri32@Gu@physx@@QEAAPEAXI@Z 00000001800b0900 f i GuBV4.obj
 0001:000af980       ??0AABBTree@Gu@physx@@QEAA@XZ 00000001800b0980 f   GuBV4Build.obj
 0001:000af9a0       ??1AABBTree@Gu@physx@@QEAA@XZ 00000001800b09a0 f   GuBV4Build.obj
 0001:000af9b0       ?buildFromMesh@AABBTree@Gu@physx@@QEAA_NAEAVSourceMesh@23@I@Z 00000001800b09b0 f   GuBV4Build.obj
 0001:000afde0       ?release@AABBTree@Gu@physx@@QEAAXXZ 00000001800b0de0 f   GuBV4Build.obj
 0001:000afe90       ?walk@AABBTree@Gu@physx@@QEBAIP6A_NPEBVAABBTreeNode@23@IPEAX@Z1@Z 00000001800b0e90 f   GuBV4Build.obj
 0001:000aff50       ?BuildBV4Ex@Gu@physx@@YA_NAEAVBV4Tree@12@AEAVSourceMesh@12@MI@Z 00000001800b0f50 f   GuBV4Build.obj
 0001:000b02c0       ??0BVData@@QEAA@XZ         00000001800b12c0 f   GuBV4Build.obj
 0001:000b0300       ??1BV4BuildParams@@QEAA@XZ 00000001800b1300 f   GuBV4Build.obj
 0001:000b0310       ?allocateNode@BV4BuildParams@@QEAAPEAUBV4Node@@XZ 00000001800b1310 f   GuBV4Build.obj
 0001:000b0430       ?releaseNodes@BV4BuildParams@@QEAAXXZ 00000001800b1430 f   GuBV4Build.obj
 0001:000b04f0       ??0AABBTreeNode@Gu@physx@@QEAA@XZ 00000001800b14f0 f i GuBV4Build.obj
 0001:000b0510       ??0BV4Node@@QEAA@XZ        00000001800b1510 f i GuBV4Build.obj
 0001:000b05c0       ??1AABBTreeNode@Gu@physx@@QEAA@XZ 00000001800b15c0 f i GuBV4Build.obj
 0001:000b05d0       ??1BV4Node@@QEAA@XZ        00000001800b15d0 f i GuBV4Build.obj
 0001:000b05e0       ??1BVData@@QEAA@XZ         00000001800b15e0 f i GuBV4Build.obj
 0001:000b05f0       ??_EAABBTreeNode@Gu@physx@@QEAAPEAXI@Z 00000001800b15f0 f i GuBV4Build.obj
 0001:000b2210       ?Sweep_AABB_BV4@@YAHAEBVBox@Gu@physx@@AEBVPxVec3@3@MAEBVBV4Tree@23@PEIAVSweepHit@23@I@Z 00000001800b3210 f   GuBV4_AABBSweep.obj
 0001:000b2750       ?Sweep_AABB_BV4_CB@@YAXAEBVBox@Gu@physx@@AEBVPxVec3@3@MAEBVBV4Tree@23@PEIBVPxMat44@3@P6A_NPEAXAEBVSweepHit@23@@Z4I_N@Z 00000001800b3750 f   GuBV4_AABBSweep.obj
 0001:000b28f0       ?GenericSweep_AABB_CB@@YAXAEBVBox@Gu@physx@@AEBVPxVec3@3@MAEBVBV4Tree@23@P6A_NPEAX111IAEAM@Z3I@Z 00000001800b38f0 f   GuBV4_AABBSweep.obj
 0001:000b9760       ?transform@PxMat44@physx@@QEBA?BVPxVec4@2@AEBV32@@Z 00000001800ba760 f i GuBV4_AABBSweep.obj
 0001:000ba4a0       ?BV4_OverlapBoxAny@@YAHAEBVBox@Gu@physx@@AEBVBV4Tree@23@PEIBVPxMat44@3@@Z 00000001800bb4a0 f   GuBV4_BoxOverlap.obj
 0001:000bac80       ?BV4_OverlapBoxAll@@YAIAEBVBox@Gu@physx@@AEBVBV4Tree@23@PEIBVPxMat44@3@PEAIIAEA_N@Z 00000001800bbc80 f   GuBV4_BoxOverlap.obj
 0001:000bb4b0       ?BV4_OverlapBoxCB@@YAXAEBVBox@Gu@physx@@AEBVBV4Tree@23@P6A_NPEAXAEBVPxVec3@3@33IPEBI@Z2@Z 00000001800bc4b0 f   GuBV4_BoxOverlap.obj
 0001:000bb970       ?BV4_OverlapCapsuleAny@@YAHAEBVCapsule@Gu@physx@@AEBVBV4Tree@23@PEIBVPxMat44@3@@Z 00000001800bc970 f   GuBV4_BoxOverlap.obj
 0001:000bc020       ?BV4_OverlapCapsuleAll@@YAIAEBVCapsule@Gu@physx@@AEBVBV4Tree@23@PEIBVPxMat44@3@PEAIIAEA_N@Z 00000001800bd020 f   GuBV4_BoxOverlap.obj
 0001:000bc730       ?BV4_OverlapCapsuleCB@@YAXAEBVCapsule@Gu@physx@@AEBVBV4Tree@23@PEIBVPxMat44@3@P6A_NPEAXAEBVPxVec3@3@44IPEBI@Z3@Z 00000001800bd730 f   GuBV4_BoxOverlap.obj
 0001:000c0e90       ?BV4_CapsuleSweepSingle@@YAHAEBVCapsule@Gu@physx@@AEBVPxVec3@3@MAEBVBV4Tree@23@PEIAVSweepHit@23@I@Z 00000001800c1e90 f   GuBV4_CapsuleSweep.obj
 0001:000c14d0       ?BV4_CapsuleSweepCB@@YAXAEBVCapsule@Gu@physx@@AEBVPxVec3@3@MAEBVBV4Tree@23@PEIBVPxMat44@3@P6A_NPEAXAEBVSweepHit@23@@Z4I_N@Z 00000001800c24d0 f   GuBV4_CapsuleSweep.obj
 0001:000c85c0       ?transform@PxMat44@physx@@QEBA?BVPxVec3@2@AEBV32@@Z 00000001800c95c0 f i GuBV4_CapsuleSweep.obj
 0001:000c93d0       ?BV4_CapsuleSweepSingleAA@@YAHAEBVCapsule@Gu@physx@@AEBVPxVec3@3@MAEBVBV4Tree@23@PEIAVSweepHit@23@I@Z 00000001800ca3d0 f   GuBV4_CapsuleSweepAA.obj
 0001:000cc440       ?Sweep_OBB_BV4@@YAHAEBVBox@Gu@physx@@AEBVPxVec3@3@MAEBVBV4Tree@23@PEIAVSweepHit@23@I@Z 00000001800cd440 f   GuBV4_OBBSweep.obj
 0001:000cc970       ?Sweep_OBB_BV4_CB@@YAXAEBVBox@Gu@physx@@AEBVPxVec3@3@MAEBVBV4Tree@23@PEIBVPxMat44@3@P6A_NPEAXAEBVSweepHit@23@@Z4I_N@Z 00000001800cd970 f   GuBV4_OBBSweep.obj
 0001:000ccb00       ?GenericSweep_OBB_CB@@YAXAEBVBox@Gu@physx@@AEBVPxVec3@3@MAEBVBV4Tree@23@P6A_NPEAX111IAEAM@Z3I@Z 00000001800cdb00 f   GuBV4_OBBSweep.obj
 0001:000ccc10       ?BV4_BoxSweepSingle@@YAHAEBVBox@Gu@physx@@AEBVPxVec3@3@MAEBVBV4Tree@23@PEIBVPxMat44@3@PEIAVSweepHit@23@I@Z 00000001800cdc10 f   GuBV4_OBBSweep.obj
 0001:000cd340       ?BV4_BoxSweepCB@@YAXAEBVBox@Gu@physx@@AEBVPxVec3@3@MAEBVBV4Tree@23@PEIBVPxMat44@3@P6A_NPEAXAEBVSweepHit@23@@Z4I_N@Z 00000001800ce340 f   GuBV4_OBBSweep.obj
 0001:000cdbe0       ?BV4_GenericSweepCB@@YAXAEBVBox@Gu@physx@@AEBVPxVec3@3@MAEBVBV4Tree@23@P6A_NPEAX111IAEAM@Z3_N@Z 00000001800cebe0 f   GuBV4_OBBSweep.obj
 0001:000d5050       ??DPxMat33@physx@@QEBA?BVPxVec3@1@AEBV21@@Z 00000001800d6050 f i GuBV4_OBBSweep.obj
 0001:000d6910       ?BV4_RaycastSingle@@YAHAEBVPxVec3@physx@@0AEBVBV4Tree@Gu@2@PEIBVPxMat44@2@PEIAUPxRaycastHit@2@MMIV?$PxFlags@W4Enum@PxHitFlag@physx@@G@2@@Z 00000001800d7910 f   GuBV4_Raycast.obj
 0001:000d6e90       ?BV4_RaycastCB@@YAXAEBVPxVec3@physx@@0AEBVBV4Tree@Gu@2@PEIBVPxMat44@2@MMIP6A?AW4HitCode@42@PEAX000IMMM@Z3@Z 00000001800d7e90 f   GuBV4_Raycast.obj
 0001:000d72c0       ?BV4_RaycastAll@@YAIAEBVPxVec3@physx@@0AEBVBV4Tree@Gu@2@PEIBVPxMat44@2@PEIAUPxRaycastHit@2@IMMIV?$PxFlags@W4Enum@PxHitFlag@physx@@G@2@@Z 00000001800d82c0 f   GuBV4_Raycast.obj
 0001:000d9c20       ?BV4_OverlapSphereAny@@YAHAEBVSphere@Gu@physx@@AEBVBV4Tree@23@PEIBVPxMat44@3@@Z 00000001800dac20 f   GuBV4_SphereOverlap.obj
 0001:000d9ee0       ?BV4_OverlapSphereAll@@YAIAEBVSphere@Gu@physx@@AEBVBV4Tree@23@PEIBVPxMat44@3@PEAIIAEA_N@Z 00000001800daee0 f   GuBV4_SphereOverlap.obj
 0001:000da200       ?BV4_OverlapSphereCB@@YAXAEBVSphere@Gu@physx@@AEBVBV4Tree@23@PEIBVPxMat44@3@P6A_NPEAXAEBVPxVec3@3@44IPEBI@Z3@Z 00000001800db200 f   GuBV4_SphereOverlap.obj
 0001:000dd2e0       ?BV4_SphereSweepSingle@@YAHAEBVSphere@Gu@physx@@AEBVPxVec3@3@MAEBVBV4Tree@23@PEIBVPxMat44@3@PEIAVSweepHit@23@I@Z 00000001800de2e0 f   GuBV4_SphereSweep.obj
 0001:000dd9c0       ?BV4_SphereSweepCB@@YAXAEBVSphere@Gu@physx@@AEBVPxVec3@3@MAEBVBV4Tree@23@PEIBVPxMat44@3@P6A_NPEAXAEBVSweepHit@23@@Z4I_N@Z 00000001800de9c0 f   GuBV4_SphereSweep.obj
 0001:000ddda0       ?BV4_GenericSweepCB_Old@@YAXAEBVPxVec3@physx@@00MAEBVBV4Tree@Gu@2@PEIBVPxMat44@2@P6A_NPEAX000IAEAM@Z3@Z 00000001800deda0 f   GuBV4_SphereSweep.obj
 0001:000e2a80       ?raycast_triangleMesh_BV4@Gu@physx@@YAIPEBVTriangleMesh@12@AEBVPxTriangleMeshGeometry@2@AEBVPxTransform@2@AEBVPxVec3@2@3MV?$PxFlags@W4Enum@PxHitFlag@physx@@G@2@IPEIAUPxRaycastHit@2@@Z 00000001800e3a80 f   GuMidphaseBV4.obj
 0001:000e3870       ?intersectSphereVsMesh_BV4@Gu@physx@@YA_NAEBVSphere@12@AEBVTriangleMesh@12@AEBVPxTransform@2@AEBVPxMeshScale@2@PEAULimitedResults@12@@Z 00000001800e4870 f   GuMidphaseBV4.obj
 0001:000e3fb0       ?intersectBoxVsMesh_BV4@Gu@physx@@YA_NAEBVBox@12@AEBVTriangleMesh@12@AEBVPxTransform@2@AEBVPxMeshScale@2@PEAULimitedResults@12@@Z 00000001800e4fb0 f   GuMidphaseBV4.obj
 0001:000e4aa0       ?intersectCapsuleVsMesh_BV4@Gu@physx@@YA_NAEBVCapsule@12@AEBVTriangleMesh@12@AEBVPxTransform@2@AEBVPxMeshScale@2@PEAULimitedResults@12@@Z 00000001800e5aa0 f   GuMidphaseBV4.obj
 0001:000e52e0       ?intersectOBB_BV4@Gu@physx@@YAXPEBVTriangleMesh@12@AEBVBox@12@AEAU?$MeshHitCallback@UPxRaycastHit@physx@@@12@_N3@Z 00000001800e62e0 f   GuMidphaseBV4.obj
 0001:000e5310       ?sweepCapsule_MeshGeom_BV4@Gu@physx@@YA_NPEBVTriangleMesh@12@AEBVPxTriangleMeshGeometry@2@AEBVPxTransform@2@AEBVCapsule@12@AEBVPxVec3@2@MAEAUPxSweepHit@2@V?$PxFlags@W4Enum@PxHitFlag@physx@@G@2@M@Z 00000001800e6310 f   GuMidphaseBV4.obj
 0001:000e5e20       ?sweepBox_MeshGeom_BV4@Gu@physx@@YA_NPEBVTriangleMesh@12@AEBVPxTriangleMeshGeometry@2@AEBVPxTransform@2@AEBVBox@12@AEBVPxVec3@2@MAEAUPxSweepHit@2@V?$PxFlags@W4Enum@PxHitFlag@physx@@G@2@M@Z 00000001800e6e20 f   GuMidphaseBV4.obj
 0001:000e7510       ?sweepConvex_MeshGeom_BV4@Gu@physx@@YAXPEBVTriangleMesh@12@AEBVBox@12@AEBVPxVec3@2@MAEAUSweepConvexMeshHitCallback@12@_N@Z 00000001800e8510 f   GuMidphaseBV4.obj
 0001:000e8680       ??1SweepBoxMeshHitCallback@Gu@physx@@UEAA@XZ 00000001800e9680 f i GuMidphaseBV4.obj
 0001:000e8e90       ?computeSweepData@physx@@YAMAEBVPxTriangleMeshGeometry@1@AEAVPxVec3@1@11M@Z 00000001800e9e90 f i GuMidphaseBV4.obj
 0001:000e9220       ?transform@PxMeshScale@physx@@QEBA?AVPxVec3@2@AEBV32@@Z 00000001800ea220 f i GuMidphaseBV4.obj
 0001:000e9460       ?getTriangle@PxMeshQuery@physx@@SAXAEBVPxTriangleMeshGeometry@2@AEBVPxTransform@2@IAEAVPxTriangle@2@PEAI3@Z 00000001800ea460 f   GuMeshQuery.obj
 0001:000e9820       ?getTriangle@PxMeshQuery@physx@@SAXAEBVPxHeightFieldGeometry@2@AEBVPxTransform@2@IAEAVPxTriangle@2@PEAI3@Z 00000001800ea820 f   GuMeshQuery.obj
 0001:000e98a0       ?findOverlapTriangleMesh@PxMeshQuery@physx@@SAIAEBVPxGeometry@2@AEBVPxTransform@2@AEBVPxTriangleMeshGeometry@2@1PEAIIIAEA_N@Z 00000001800ea8a0 f   GuMeshQuery.obj
 0001:000e9b90       ?findOverlapHeightField@PxMeshQuery@physx@@SAIAEBVPxGeometry@2@AEBVPxTransform@2@AEBVPxHeightFieldGeometry@2@1PEAIIIAEA_N@Z 00000001800eab90 f   GuMeshQuery.obj
 0001:000ea250       ?sweep@PxMeshQuery@physx@@SA_NAEBVPxVec3@2@MAEBVPxGeometry@2@AEBVPxTransform@2@IPEBVPxTriangle@2@AEAUPxSweepHit@2@V?$PxFlags@W4Enum@PxHitFlag@physx@@G@2@PEBIM_N@Z 00000001800eb250 f   GuMeshQuery.obj
 0001:000ea640       ?raycast_triangleMesh_RTREE@Gu@physx@@YAIPEBVTriangleMesh@12@AEBVPxTriangleMeshGeometry@2@AEBVPxTransform@2@AEBVPxVec3@2@3MV?$PxFlags@W4Enum@PxHitFlag@physx@@G@2@IPEIAUPxRaycastHit@2@@Z 00000001800eb640 f   GuMidphaseRTree.obj
 0001:000eade0       ?intersectSphereVsMesh_RTREE@Gu@physx@@YA_NAEBVSphere@12@AEBVTriangleMesh@12@AEBVPxTransform@2@AEBVPxMeshScale@2@PEAULimitedResults@12@@Z 00000001800ebde0 f   GuMidphaseRTree.obj
 0001:000eae10       ?intersectBoxVsMesh_RTREE@Gu@physx@@YA_NAEBVBox@12@AEBVTriangleMesh@12@AEBVPxTransform@2@AEBVPxMeshScale@2@PEAULimitedResults@12@@Z 00000001800ebe10 f   GuMidphaseRTree.obj
 0001:000eae90       ?intersectCapsuleVsMesh_RTREE@Gu@physx@@YA_NAEBVCapsule@12@AEBVTriangleMesh@12@AEBVPxTransform@2@AEBVPxMeshScale@2@PEAULimitedResults@12@@Z 00000001800ebe90 f   GuMidphaseRTree.obj
 0001:000eaf10       ?intersectOBB_RTREE@Gu@physx@@YAXPEBVTriangleMesh@12@AEBVBox@12@AEAU?$MeshHitCallback@UPxRaycastHit@physx@@@12@_N3@Z 00000001800ebf10 f   GuMidphaseRTree.obj
 0001:000eaf40       ?sweepCapsule_MeshGeom_RTREE@Gu@physx@@YA_NPEBVTriangleMesh@12@AEBVPxTriangleMeshGeometry@2@AEBVPxTransform@2@AEBVCapsule@12@AEBVPxVec3@2@MAEAUPxSweepHit@2@V?$PxFlags@W4Enum@PxHitFlag@physx@@G@2@M@Z 00000001800ebf40 f   GuMidphaseRTree.obj
 0001:000eb740       ?sweepBox_MeshGeom_RTREE@Gu@physx@@YA_NPEBVTriangleMesh@12@AEBVPxTriangleMeshGeometry@2@AEBVPxTransform@2@AEBVBox@12@AEBVPxVec3@2@MAEAUPxSweepHit@2@V?$PxFlags@W4Enum@PxHitFlag@physx@@G@2@M@Z 00000001800ec740 f   GuMidphaseRTree.obj
 0001:000ecc10       ?sweepConvex_MeshGeom_RTREE@Gu@physx@@YAXPEBVTriangleMesh@12@AEBVBox@12@AEBVPxVec3@2@MAEAUSweepConvexMeshHitCallback@12@_N@Z 00000001800edc10 f   GuMidphaseRTree.obj
 0001:000ecc70       ?collideOBB@MeshRayCollider@@SAXAEBVBox@Gu@physx@@_NPEBVRTreeTriangleMesh@34@AEAU?$MeshHitCallback@UPxRaycastHit@physx@@@34@1@Z 00000001800edc70 f   GuMidphaseRTree.obj
 0001:000ee010       ??$collide@$00$00@MeshRayCollider@@SAXAEBVPxVec3@physx@@0M_NPEBVRTreeTriangleMesh@Gu@2@AEAU?$MeshHitCallback@UPxRaycastHit@physx@@@42@PEBV12@@Z 00000001800ef010 f i GuMidphaseRTree.obj
 0001:000ee390       ??$collide@$00$0A@@MeshRayCollider@@SAXAEBVPxVec3@physx@@0M_NPEBVRTreeTriangleMesh@Gu@2@AEAU?$MeshHitCallback@UPxRaycastHit@physx@@@42@PEBV12@@Z 00000001800ef390 f i GuMidphaseRTree.obj
 0001:000ee5d0       ??$collide@$0A@$00@MeshRayCollider@@SAXAEBVPxVec3@physx@@0M_NPEBVRTreeTriangleMesh@Gu@2@AEAU?$MeshHitCallback@UPxRaycastHit@physx@@@42@PEBV12@@Z 00000001800ef5d0 f i GuMidphaseRTree.obj
 0001:000ee960       ??$collide@$0A@$0A@@MeshRayCollider@@SAXAEBVPxVec3@physx@@0M_NPEBVRTreeTriangleMesh@Gu@2@AEAU?$MeshHitCallback@UPxRaycastHit@physx@@@42@PEBV12@@Z 00000001800ef960 f i GuMidphaseRTree.obj
 0001:000f0d30       ??0?$RayRTreeCallback@$00$0A@@@QEAA@MAEAU?$MeshHitCallback@UPxRaycastHit@physx@@@Gu@physx@@HPEBXPEBVPxVec3@3@AEBV43@3M_N2@Z 00000001800f1d30 f i GuMidphaseRTree.obj
 0001:000f0e60       ??1?$RayRTreeCallback@$00$00@@UEAA@XZ 00000001800f1e60 f i GuMidphaseRTree.obj
 0001:000f0ef0       ??1?$RayRTreeCallback@$00$0A@@@UEAA@XZ 00000001800f1ef0 f i GuMidphaseRTree.obj
 0001:000f0f80       ??1?$RayRTreeCallback@$0A@$00@@UEAA@XZ 00000001800f1f80 f i GuMidphaseRTree.obj
 0001:000f1010       ??1?$RayRTreeCallback@$0A@$0A@@@UEAA@XZ 00000001800f2010 f i GuMidphaseRTree.obj
 0001:000f10a0       ??1Callback@RTree@Gu@physx@@UEAA@XZ 00000001800f20a0 f i GuMidphaseRTree.obj
 0001:000f10b0       ??1CallbackRaycast@RTree@Gu@physx@@UEAA@XZ 00000001800f20b0 f i GuMidphaseRTree.obj
 0001:000f10bc       ??_E?$RayRTreeCallback@$00$00@@W7EAAPEAXI@Z 00000001800f20bc f i GuMidphaseRTree.obj
 0001:000f10c8       ??_E?$RayRTreeCallback@$00$0A@@@W7EAAPEAXI@Z 00000001800f20c8 f i GuMidphaseRTree.obj
 0001:000f10d4       ??_E?$RayRTreeCallback@$0A@$00@@W7EAAPEAXI@Z 00000001800f20d4 f i GuMidphaseRTree.obj
 0001:000f10e0       ??_E?$RayRTreeCallback@$0A@$0A@@@W7EAAPEAXI@Z 00000001800f20e0 f i GuMidphaseRTree.obj
 0001:000f10f0       ??_E?$RayRTreeCallback@$00$00@@UEAAPEAXI@Z 00000001800f20f0 f i GuMidphaseRTree.obj
 0001:000f10f0       ??_G?$RayRTreeCallback@$00$00@@UEAAPEAXI@Z 00000001800f20f0 f i GuMidphaseRTree.obj
 0001:000f1130       ??_E?$RayRTreeCallback@$00$0A@@@UEAAPEAXI@Z 00000001800f2130 f i GuMidphaseRTree.obj
 0001:000f1130       ??_G?$RayRTreeCallback@$00$0A@@@UEAAPEAXI@Z 00000001800f2130 f i GuMidphaseRTree.obj
 0001:000f1170       ??_E?$RayRTreeCallback@$0A@$00@@UEAAPEAXI@Z 00000001800f2170 f i GuMidphaseRTree.obj
 0001:000f1170       ??_G?$RayRTreeCallback@$0A@$00@@UEAAPEAXI@Z 00000001800f2170 f i GuMidphaseRTree.obj
 0001:000f11b0       ??_E?$RayRTreeCallback@$0A@$0A@@@UEAAPEAXI@Z 00000001800f21b0 f i GuMidphaseRTree.obj
 0001:000f11b0       ??_G?$RayRTreeCallback@$0A@$0A@@@UEAAPEAXI@Z 00000001800f21b0 f i GuMidphaseRTree.obj
 0001:000f11f0       ??_ECallback@RTree@Gu@physx@@UEAAPEAXI@Z 00000001800f21f0 f i GuMidphaseRTree.obj
 0001:000f11f0       ??_GCallback@RTree@Gu@physx@@UEAAPEAXI@Z 00000001800f21f0 f i GuMidphaseRTree.obj
 0001:000f1220       ??_ECallbackRaycast@RTree@Gu@physx@@UEAAPEAXI@Z 00000001800f2220 f i GuMidphaseRTree.obj
 0001:000f1220       ??_GCallbackRaycast@RTree@Gu@physx@@UEAAPEAXI@Z 00000001800f2220 f i GuMidphaseRTree.obj
 0001:000f1250       ??_ERayMeshColliderCallback@@UEAAPEAXI@Z 00000001800f2250 f i GuMidphaseRTree.obj
 0001:000f1250       ??_GRayMeshColliderCallback@@UEAAPEAXI@Z 00000001800f2250 f i GuMidphaseRTree.obj
 0001:000f1480       ?processHit@RayMeshColliderCallback@@UEAA_NAEBUPxRaycastHit@physx@@AEBVPxVec3@3@11AEAMPEBI@Z 00000001800f2480 f i GuMidphaseRTree.obj
 0001:000f1c00       ?processResults@?$RayRTreeCallback@$00$00@@UEAA_NIPEAI@Z 00000001800f2c00 f i GuMidphaseRTree.obj
 0001:000f1fb0       ?processResults@?$RayRTreeCallback@$00$00@@UEAA_NIPEAIAEAM@Z 00000001800f2fb0 f i GuMidphaseRTree.obj
 0001:000f2350       ?processResults@?$RayRTreeCallback@$00$0A@@@UEAA_NIPEAI@Z 00000001800f3350 f i GuMidphaseRTree.obj
 0001:000f25e0       ?processResults@?$RayRTreeCallback@$00$0A@@@UEAA_NIPEAIAEAM@Z 00000001800f35e0 f i GuMidphaseRTree.obj
 0001:000f28a0       ?processResults@?$RayRTreeCallback@$0A@$00@@UEAA_NIPEAI@Z 00000001800f38a0 f i GuMidphaseRTree.obj
 0001:000f2f10       ?processResults@?$RayRTreeCallback@$0A@$00@@UEAA_NIPEAIAEAM@Z 00000001800f3f10 f i GuMidphaseRTree.obj
 0001:000f3590       ?processResults@?$RayRTreeCallback@$0A@$0A@@@UEAA_NIPEAI@Z 00000001800f4590 f i GuMidphaseRTree.obj
 0001:000f3820       ?processResults@?$RayRTreeCallback@$0A@$0A@@@UEAA_NIPEAIAEAM@Z 00000001800f4820 f i GuMidphaseRTree.obj
 0001:000f3ae0       ?profile@Callback@RTree@Gu@physx@@UEAAXXZ 00000001800f4ae0 f i GuMidphaseRTree.obj
 0001:000f3af0       ?checkOverlapAABB_triangleGeom@Gu@physx@@YA_NAEBVPxGeometry@2@AEBVPxTransform@2@AEBVPxBounds3@2@@Z 00000001800f4af0 f   GuOverlapTestsMesh.obj
 0001:000f3c00       ?GeomOverlapCallback_SphereMesh@@YA_NAEBVPxGeometry@physx@@AEBVPxTransform@2@01PEAUTriggerCache@Gu@2@@Z 00000001800f4c00 f   GuOverlapTestsMesh.obj
 0001:000f3c70       ?GeomOverlapCallback_CapsuleMesh@@YA_NAEBVPxGeometry@physx@@AEBVPxTransform@2@01PEAUTriggerCache@Gu@2@@Z 00000001800f4c70 f   GuOverlapTestsMesh.obj
 0001:000f3d90       ?GeomOverlapCallback_BoxMesh@@YA_NAEBVPxGeometry@physx@@AEBVPxTransform@2@01PEAUTriggerCache@Gu@2@@Z 00000001800f4d90 f   GuOverlapTestsMesh.obj
 0001:000f3ea0       ?GeomOverlapCallback_ConvexMesh@@YA_NAEBVPxGeometry@physx@@AEBVPxTransform@2@01PEAUTriggerCache@Gu@2@@Z 00000001800f4ea0 f   GuOverlapTestsMesh.obj
 0001:000f4490       ??$gjk@U?$RelativeConvex@VTriangleV@Gu@physx@@@Gu@physx@@U?$LocalConvex@VConvexHullV@Gu@physx@@@23@@Gu@physx@@YA?AW4GjkStatus@01@AEBU?$RelativeConvex@VTriangleV@Gu@physx@@@01@AEBU?$LocalConvex@VConvexHullV@Gu@physx@@@01@AEBT__m128@@2AEAT5@333@Z 00000001800f5490 f i GuOverlapTestsMesh.obj
 0001:000f5320       ??0ConvexVsMeshOverlapCallback@@QEAA@AEBVConvexMesh@Gu@physx@@AEBVPxMeshScale@3@AEBVFastVertex2ShapeScaling@Cm@3@AEBVPxTransform@3@3_NAEBVBox@23@@Z 00000001800f6320 f i GuOverlapTestsMesh.obj
 0001:000f5bc0       ??1ConvexVsMeshOverlapCallback@@UEAA@XZ 00000001800f6bc0 f i GuOverlapTestsMesh.obj
 0001:000f5bd0       ??_EConvexVsMeshOverlapCallback@@UEAAPEAXI@Z 00000001800f6bd0 f i GuOverlapTestsMesh.obj
 0001:000f5bd0       ??_GConvexVsMeshOverlapCallback@@UEAAPEAXI@Z 00000001800f6bd0 f i GuOverlapTestsMesh.obj
 0001:000f5c00       ?processHit@ConvexVsMeshOverlapCallback@@UEAA_NAEBUPxRaycastHit@physx@@AEBVPxVec3@3@11AEAMPEBI@Z 00000001800f6c00 f i GuOverlapTestsMesh.obj
 0001:000f5f80       ??0RTree@Gu@physx@@QEAA@W4PxEMPTY@2@@Z 00000001800f6f80 f   GuRTree.obj
 0001:000f5f90       ?exportExtraData@RTree@Gu@physx@@QEAAXAEAVPxSerializationContext@3@@Z 00000001800f6f90 f   GuRTree.obj
 0001:000f5fe0       ?importExtraData@RTree@Gu@physx@@QEAAXAEAVPxDeserializationContext@3@@Z 00000001800f6fe0 f   GuRTree.obj
 0001:000f6010       ?load@RTree@Gu@physx@@QEAA_NAEAVPxInputStream@3@I_N@Z 00000001800f7010 f   GuRTree.obj
 0001:000f6310       ?refitAllStaticTree@RTree@Gu@physx@@QEAAXAEAUCallbackRefit@123@PEAVPxBounds3@3@@Z 00000001800f7310 f   GuRTree.obj
 0001:000f6870       ?validate@RTree@Gu@physx@@QEAAXPEAUCallbackRefit@123@@Z 00000001800f7870 f   GuRTree.obj
 0001:000f6ab0       ?computeBottomLevelCount@RTree@Gu@physx@@QEBAII@Z 00000001800f7ab0 f   GuRTree.obj
 0001:000f6ba0       ?validateRecursive@RTree@Gu@physx@@IEAAXIURTreeNodeQ@23@PEAURTreePage@23@PEAUCallbackRefit@123@@Z 00000001800f7ba0 f   GuRTree.obj
 0001:000f6d60       ?traverseAABB@RTree@Gu@physx@@QEBAXAEBVPxVec3@3@0IPEAIPEAUCallback@123@@Z 00000001800f7d60 f   GuRTreeQueries.obj
 0001:000f6f20       ?traverseOBB@RTree@Gu@physx@@QEBAXAEBVBox@23@IPEAIPEAUCallback@123@@Z 00000001800f7f20 f   GuRTreeQueries.obj
 0001:000f7800       ??$traverseRay@$00@RTree@Gu@physx@@QEBAXAEBVPxVec3@2@0IPEAIPEAUCallbackRaycast@012@PEBV32@M@Z 00000001800f8800 f i GuRTreeQueries.obj
 0001:000f7ba0       ??$traverseRay@$0A@@RTree@Gu@physx@@QEBAXAEBVPxVec3@2@0IPEAIPEAUCallbackRaycast@012@PEBV32@M@Z 00000001800f8ba0 f i GuRTreeQueries.obj
 0001:000f7ef0       ??0SweepShapeMeshHitCallback@Gu@physx@@QEAA@W4Enum@CallbackMode@12@AEBV?$PxFlags@W4Enum@PxHitFlag@physx@@G@2@_NM@Z 00000001800f8ef0 f   GuSweepsMesh.obj
 0001:000f7f30       ??0SweepCapsuleMeshHitCallback@Gu@physx@@QEAA@AEAUPxSweepHit@2@AEBVMatrix34@Cm@2@M_NAEBVCapsule@12@AEBVPxVec3@2@AEBV?$PxFlags@W4Enum@PxHitFlag@physx@@G@2@2M@Z 00000001800f8f30 f   GuSweepsMesh.obj
 0001:000f8000       ?processHit@SweepCapsuleMeshHitCallback@Gu@physx@@UEAA_NAEBUPxRaycastHit@3@AEBVPxVec3@3@11AEAMPEBI@Z 00000001800f9000 f   GuSweepsMesh.obj
 0001:000f8540       ?finalizeHit@SweepCapsuleMeshHitCallback@Gu@physx@@QEBA_NAEAUPxSweepHit@3@AEBVCapsule@23@AEBVPxTriangleMeshGeometry@3@AEBVPxTransform@3@_N@Z 00000001800f9540 f   GuSweepsMesh.obj
 0001:000f86e0       ??0SweepBoxMeshHitCallback@Gu@physx@@QEAA@W4Enum@CallbackMode@12@AEBVMatrix34Padded@12@M_NAEBVBox@12@AEBVPxVec3@2@44AEBV?$PxFlags@W4Enum@PxHitFlag@physx@@G@2@M2M@Z 00000001800f96e0 f   GuSweepsMesh.obj
 0001:000f87f0       ?processHit@SweepBoxMeshHitCallback@Gu@physx@@UEAA_NAEBUPxRaycastHit@3@AEBVPxVec3@3@11AEAMPEBI@Z 00000001800f97f0 f   GuSweepsMesh.obj
 0001:000f8ff0       ?finalizeHit@SweepBoxMeshHitCallback@Gu@physx@@QEBA_NAEAUPxSweepHit@3@AEBVPxTriangleMeshGeometry@3@AEBVPxTransform@3@2AEBVPxVec3@3@_N4@Z 00000001800f9ff0 f   GuSweepsMesh.obj
 0001:000f96c0       ??0SweepConvexMeshHitCallback@Gu@physx@@QEAA@AEBUConvexHullData@12@AEBVPxMeshScale@2@AEBVFastVertex2ShapeScaling@Cm@2@AEBVPxTransform@2@3AEBVPxVec3@2@MV?$PxFlags@W4Enum@PxHitFlag@physx@@G@2@_NM6M@Z 00000001800fa6c0 f   GuSweepsMesh.obj
 0001:000fa040       ?processHit@SweepConvexMeshHitCallback@Gu@physx@@UEAA_NAEBUPxRaycastHit@3@AEBVPxVec3@3@11AEAMPEBI@Z 00000001800fb040 f   GuSweepsMesh.obj
 0001:000fa7b0       ?finalizeHit@SweepConvexMeshHitCallback@Gu@physx@@QEAA_NAEAUPxSweepHit@3@AEBVPxTriangleMeshGeometry@3@AEBVPxTransform@3@AEBVPxConvexMeshGeometry@3@2AEBVPxVec3@3@M_N555@Z 00000001800fb7b0 f   GuSweepsMesh.obj
 0001:000fac90       ?sweepCapsule_MeshGeom@@YA_NAEBVPxGeometry@physx@@AEBVPxTransform@2@AEBVPxCapsuleGeometry@2@1AEBVCapsule@Gu@2@AEBVPxVec3@2@MAEAUPxSweepHit@2@V?$PxFlags@W4Enum@PxHitFlag@physx@@G@2@M@Z 00000001800fbc90 f   GuSweepsMesh.obj
 0001:000fad30       ?sweepBox_MeshGeom@@YA_NAEBVPxGeometry@physx@@AEBVPxTransform@2@AEBVPxBoxGeometry@2@1AEBVBox@Gu@2@AEBVPxVec3@2@MAEAUPxSweepHit@2@V?$PxFlags@W4Enum@PxHitFlag@physx@@G@2@M@Z 00000001800fbd30 f   GuSweepsMesh.obj
 0001:000fadd0       ?sweepConvex_MeshGeom@@YA_NAEBVPxGeometry@physx@@AEBVPxTransform@2@AEBVPxConvexMeshGeometry@2@1AEBVPxVec3@2@MAEAUPxSweepHit@2@V?$PxFlags@W4Enum@PxHitFlag@physx@@G@2@M@Z 00000001800fbdd0 f   GuSweepsMesh.obj
 0001:000fb730       ??1SweepConvexMeshHitCallback@Gu@physx@@UEAA@XZ 00000001800fc730 f i GuSweepsMesh.obj
 0001:000fb740       ??_ESweepBoxMeshHitCallback@Gu@physx@@UEAAPEAXI@Z 00000001800fc740 f i GuSweepsMesh.obj
 0001:000fb740       ??_GSweepBoxMeshHitCallback@Gu@physx@@UEAAPEAXI@Z 00000001800fc740 f i GuSweepsMesh.obj
 0001:000fb770       ??_ESweepCapsuleMeshHitCallback@Gu@physx@@UEAAPEAXI@Z 00000001800fc770 f i GuSweepsMesh.obj
 0001:000fb770       ??_GSweepCapsuleMeshHitCallback@Gu@physx@@UEAAPEAXI@Z 00000001800fc770 f i GuSweepsMesh.obj
 0001:000fb7a0       ??_ESweepConvexMeshHitCallback@Gu@physx@@UEAAPEAXI@Z 00000001800fc7a0 f i GuSweepsMesh.obj
 0001:000fb7a0       ??_GSweepConvexMeshHitCallback@Gu@physx@@UEAAPEAXI@Z 00000001800fc7a0 f i GuSweepsMesh.obj
 0001:000fb7d0       ??_ESweepShapeMeshHitCallback@Gu@physx@@UEAAPEAXI@Z 00000001800fc7d0 f i GuSweepsMesh.obj
 0001:000fb7d0       ??_GSweepShapeMeshHitCallback@Gu@physx@@UEAAPEAXI@Z 00000001800fc7d0 f i GuSweepsMesh.obj
 0001:000fbae0       ?exportExtraData@TriangleMesh@Gu@physx@@UEAAXAEAVPxSerializationContext@3@@Z 00000001800fcae0 f   GuTriangleMesh.obj
 0001:000fbc20       ?importExtraData@TriangleMesh@Gu@physx@@QEAAXAEAVPxDeserializationContext@3@@Z 00000001800fcc20 f   GuTriangleMesh.obj
 0001:000fbd30       ?release@TriangleMesh@Gu@physx@@UEAAXXZ 00000001800fcd30 f   GuTriangleMesh.obj
 0001:000fbd70       ?onRefCountZero@TriangleMesh@Gu@physx@@UEAAXXZ 00000001800fcd70 f   GuTriangleMesh.obj
 0001:000fbe20       ??0TriangleMesh@Gu@physx@@QEAA@AEAVGuMeshFactory@2@AEAVTriangleMeshData@12@@Z 00000001800fce20 f   GuTriangleMesh.obj
 0001:000fbfc0       ??1TriangleMesh@Gu@physx@@UEAA@XZ 00000001800fcfc0 f   GuTriangleMesh.obj
 0001:000fc180       ?getVerticesForModification@TriangleMesh@Gu@physx@@UEAAPEAVPxVec3@3@XZ 00000001800fd180 f   GuTriangleMesh.obj
 0001:000fc1c0       ?refitBVH@TriangleMesh@Gu@physx@@UEAA?AVPxBounds3@3@XZ 00000001800fd1c0 f   GuTriangleMesh.obj
 0001:000fc290       ??1PxTriangleMesh@physx@@MEAA@XZ 00000001800fd290 f i GuTriangleMesh.obj
 0001:000fc29c       ??_ETriangleMesh@Gu@physx@@WBA@EAAPEAXI@Z 00000001800fd29c f i GuTriangleMesh.obj
 0001:000fc2b0       ??_EPxTriangleMesh@physx@@MEAAPEAXI@Z 00000001800fd2b0 f i GuTriangleMesh.obj
 0001:000fc2b0       ??_GPxTriangleMesh@physx@@MEAAPEAXI@Z 00000001800fd2b0 f i GuTriangleMesh.obj
 0001:000fc2e0       ??_ETriangleMesh@Gu@physx@@UEAAPEAXI@Z 00000001800fd2e0 f i GuTriangleMesh.obj
 0001:000fc2e0       ??_GTriangleMesh@Gu@physx@@UEAAPEAXI@Z 00000001800fd2e0 f i GuTriangleMesh.obj
 0001:000fc350       ?acquireReference@TriangleMesh@Gu@physx@@UEAAXXZ 00000001800fd350 f i GuTriangleMesh.obj
 0001:000fc360       ?getLocalBounds@TriangleMesh@Gu@physx@@UEBA?AVPxBounds3@3@XZ 00000001800fd360 f i GuTriangleMesh.obj
 0001:000fc3f0       ?getNbTriangles@TriangleMesh@Gu@physx@@UEBAIXZ 00000001800fd3f0 f i GuTriangleMesh.obj
 0001:000fc400       ?getNbVertices@TriangleMesh@Gu@physx@@UEBAIXZ 00000001800fd400 f i GuTriangleMesh.obj
 0001:000fc410       ?getReferenceCount@TriangleMesh@Gu@physx@@UEBAIXZ 00000001800fd410 f i GuTriangleMesh.obj
 0001:000fc420       ?getTriangleMaterialIndex@TriangleMesh@Gu@physx@@UEBAGI@Z 00000001800fd420 f i GuTriangleMesh.obj
 0001:000fc440       ?getTriangleMeshFlags@TriangleMesh@Gu@physx@@UEBA?AV?$PxFlags@W4Enum@PxTriangleMeshFlag@physx@@E@3@XZ 00000001800fd440 f i GuTriangleMesh.obj
 0001:000fc450       ?getTriangles@TriangleMesh@Gu@physx@@UEBAPEBXXZ 00000001800fd450 f i GuTriangleMesh.obj
 0001:000fc460       ?getTrianglesRemap@TriangleMesh@Gu@physx@@UEBAPEBIXZ 00000001800fd460 f i GuTriangleMesh.obj
 0001:000fc470       ?getVertices@TriangleMesh@Gu@physx@@UEBAPEBVPxVec3@3@XZ 00000001800fd470 f i GuTriangleMesh.obj
 0001:000fc480       ?isKindOf@PxTriangleMesh@physx@@MEBA_NPEBD@Z 00000001800fd480 f i GuTriangleMesh.obj
 0001:000fc4d0       ?requiresObjects@TriangleMesh@Gu@physx@@UEAAXAEAVPxProcessPxBaseCallback@3@@Z 00000001800fd4d0 f i GuTriangleMesh.obj
 0001:000fc4e0       ?exportExtraData@BV4TriangleMesh@Gu@physx@@UEAAXAEAVPxSerializationContext@3@@Z 00000001800fd4e0 f   GuTriangleMeshBV4.obj
 0001:000fc520       ?importExtraData@BV4TriangleMesh@Gu@physx@@QEAAXAEAVPxDeserializationContext@3@@Z 00000001800fd520 f   GuTriangleMeshBV4.obj
 0001:000fc5a0       ?createObject@BV4TriangleMesh@Gu@physx@@SAPEAVTriangleMesh@23@AEAPEAEAEAVPxDeserializationContext@3@@Z 00000001800fd5a0 f   GuTriangleMeshBV4.obj
 0001:000fc670       ??0BV4TriangleMesh@Gu@physx@@QEAA@AEAVGuMeshFactory@2@AEAVTriangleMeshData@12@@Z 00000001800fd670 f   GuTriangleMeshBV4.obj
 0001:000fc710       ??1BV4TriangleMesh@Gu@physx@@UEAA@XZ 00000001800fd710 f i GuTriangleMeshBV4.obj
 0001:000fc754       ??_EBV4TriangleMesh@Gu@physx@@WBA@EAAPEAXI@Z 00000001800fd754 f i GuTriangleMeshBV4.obj
 0001:000fc760       ??_EBV4TriangleMesh@Gu@physx@@UEAAPEAXI@Z 00000001800fd760 f i GuTriangleMeshBV4.obj
 0001:000fc760       ??_GBV4TriangleMesh@Gu@physx@@UEAAPEAXI@Z 00000001800fd760 f i GuTriangleMeshBV4.obj
 0001:000fc7f0       ?getConcreteTypeName@BV4TriangleMesh@Gu@physx@@UEBAPEBDXZ 00000001800fd7f0 f i GuTriangleMeshBV4.obj
 0001:000fc800       ?getMidphaseID@BV4TriangleMesh@Gu@physx@@UEBA?AW4Enum@PxMeshMidPhase@3@XZ 00000001800fd800 f i GuTriangleMeshBV4.obj
 0001:000fc810       ?exportExtraData@RTreeTriangleMesh@Gu@physx@@UEAAXAEAVPxSerializationContext@3@@Z 00000001800fd810 f   GuTriangleMeshRTree.obj
 0001:000fc850       ?importExtraData@RTreeTriangleMesh@Gu@physx@@QEAAXAEAVPxDeserializationContext@3@@Z 00000001800fd850 f   GuTriangleMeshRTree.obj
 0001:000fc890       ?createObject@RTreeTriangleMesh@Gu@physx@@SAPEAVTriangleMesh@23@AEAPEAEAEAVPxDeserializationContext@3@@Z 00000001800fd890 f   GuTriangleMeshRTree.obj
 0001:000fc920       ??0RTreeTriangleMesh@Gu@physx@@QEAA@AEAVGuMeshFactory@2@AEAVTriangleMeshData@12@@Z 00000001800fd920 f   GuTriangleMeshRTree.obj
 0001:000fcaa0       ?getVerticesForModification@RTreeTriangleMesh@Gu@physx@@UEAAPEAVPxVec3@3@XZ 00000001800fdaa0 f   GuTriangleMeshRTree.obj
 0001:000fcab0       ?refitBVH@RTreeTriangleMesh@Gu@physx@@UEAA?AVPxBounds3@3@XZ 00000001800fdab0 f   GuTriangleMeshRTree.obj
 0001:000fccd0       ??1CallbackRefit@RTree@Gu@physx@@UEAA@XZ 00000001800fdcd0 f i GuTriangleMeshRTree.obj
 0001:000fcce0       ??1RTreeTriangleMesh@Gu@physx@@UEAA@XZ 00000001800fdce0 f i GuTriangleMeshRTree.obj
 0001:000fcd50       ??_ERTreeTriangleMesh@Gu@physx@@WBA@EAAPEAXI@Z 00000001800fdd50 f i GuTriangleMeshRTree.obj
 0001:000fcd60       ??_E?$RefitCallback@G@physx@@UEAAPEAXI@Z 00000001800fdd60 f i GuTriangleMeshRTree.obj
 0001:000fcd60       ??_G?$RefitCallback@G@physx@@UEAAPEAXI@Z 00000001800fdd60 f i GuTriangleMeshRTree.obj
 0001:000fcd90       ??_E?$RefitCallback@I@physx@@UEAAPEAXI@Z 00000001800fdd90 f i GuTriangleMeshRTree.obj
 0001:000fcd90       ??_G?$RefitCallback@I@physx@@UEAAPEAXI@Z 00000001800fdd90 f i GuTriangleMeshRTree.obj
 0001:000fcdc0       ??_ECallbackRefit@RTree@Gu@physx@@UEAAPEAXI@Z 00000001800fddc0 f i GuTriangleMeshRTree.obj
 0001:000fcdc0       ??_GCallbackRefit@RTree@Gu@physx@@UEAAPEAXI@Z 00000001800fddc0 f i GuTriangleMeshRTree.obj
 0001:000fcdf0       ??_ERTreeTriangleMesh@Gu@physx@@UEAAPEAXI@Z 00000001800fddf0 f i GuTriangleMeshRTree.obj
 0001:000fcdf0       ??_GRTreeTriangleMesh@Gu@physx@@UEAAPEAXI@Z 00000001800fddf0 f i GuTriangleMeshRTree.obj
 0001:000fceb0       ?getConcreteTypeName@RTreeTriangleMesh@Gu@physx@@UEBAPEBDXZ 00000001800fdeb0 f i GuTriangleMeshRTree.obj
 0001:000fcec0       ?getMidphaseID@RTreeTriangleMesh@Gu@physx@@UEBA?AW4Enum@PxMeshMidPhase@3@XZ 00000001800fdec0 f i GuTriangleMeshRTree.obj
 0001:000fced0       ?recomputeBounds@?$RefitCallback@G@physx@@UEAAXIAEAT__m128@@0@Z 00000001800fded0 f i GuTriangleMeshRTree.obj
 0001:000fd200       ?recomputeBounds@?$RefitCallback@I@physx@@UEAAXIAEAT__m128@@0@Z 00000001800fe200 f i GuTriangleMeshRTree.obj
 0001:000fd520       ??0BV32Tree@Gu@physx@@QEAA@W4PxEMPTY@2@@Z 00000001800fe520 f   GuBV32.obj
 0001:000fd540       ?exportExtraData@BV32Tree@Gu@physx@@QEAAXAEAVPxSerializationContext@3@@Z 00000001800fe540 f   GuBV32.obj
 0001:000fd590       ?importExtraData@BV32Tree@Gu@physx@@QEAAXAEAVPxDeserializationContext@3@@Z 00000001800fe590 f   GuBV32.obj
 0001:000fd5c0       ??0BV32Tree@Gu@physx@@QEAA@XZ 00000001800fe5c0 f   GuBV32.obj
 0001:000fd5f0       ??0BV32Tree@Gu@physx@@QEAA@PEAVSourceMesh@12@AEBVPxBounds3@2@@Z 00000001800fe5f0 f   GuBV32.obj
 0001:000fd6b0       ??1BV32Tree@Gu@physx@@QEAA@XZ 00000001800fe6b0 f   GuBV32.obj
 0001:000fd6c0       ?load@BV32Tree@Gu@physx@@QEAA_NAEAVPxInputStream@3@_N@Z 00000001800fe6c0 f   GuBV32.obj
 0001:000fd8e0       ?calculateLeafNode@BV32Tree@Gu@physx@@QEAAXAEAUBV32Data@23@@Z 00000001800fe8e0 f   GuBV32.obj
 0001:000fdb30       ?createSOAformatNode@BV32Tree@Gu@physx@@QEAAXAEAUBV32DataPacked@23@AEBUBV32Data@23@IAEAI2@Z 00000001800feb30 f   GuBV32.obj
 0001:000fdf80       ?reset@BV32Tree@Gu@physx@@QEAAXXZ 00000001800fef80 f   GuBV32.obj
 0001:000fdfa0       ??4BV32Tree@Gu@physx@@QEAAXAEAV012@@Z 00000001800fefa0 f   GuBV32.obj
 0001:000fe000       ?init@BV32Tree@Gu@physx@@QEAA_NPEAVSourceMesh@23@AEBVPxBounds3@3@@Z 00000001800ff000 f   GuBV32.obj
 0001:000fe0a0       ?release@BV32Tree@Gu@physx@@QEAAXXZ 00000001800ff0a0 f   GuBV32.obj
 0001:000fe130       ?BuildBV32Ex@Gu@physx@@YA_NAEAVBV32Tree@12@AEAVSourceMesh@12@MI@Z 00000001800ff130 f   GuBV32Build.obj
 0001:000fe2f0       ??0BV32Data@Gu@physx@@QEAA@XZ 00000001800ff2f0 f i GuBV32Build.obj
 0001:000fe320       ??0BV32Node@@QEAA@XZ       00000001800ff320 f i GuBV32Build.obj
 0001:000ff3b0       ?pcmContactBoxBox@Gu@physx@@YA_NAEBVGeometryUnion@12@0AEBVPxTransform@2@1AEBUNarrowPhaseParams@12@AEAUCache@12@AEAVContactBuffer@12@PEAVRenderOutput@Cm@2@@Z 00000001801003b0 f   GuPCMContactBoxBox.obj
 0001:00102bd0       ?pcmContactBoxConvex@Gu@physx@@YA_NAEBVGeometryUnion@12@0AEBVPxTransform@2@1AEBUNarrowPhaseParams@12@AEAUCache@12@AEAVContactBuffer@12@PEAVRenderOutput@Cm@2@@Z 0000000180103bd0 f   GuPCMContactBoxConvex.obj
 0001:001039f0       ??$gjkPenetration@U?$RelativeConvex@VBoxV@Gu@physx@@@Gu@physx@@U?$LocalConvex@VConvexHullNoScaleV@Gu@physx@@@23@@Gu@physx@@YA?AW4GjkStatus@01@AEBU?$RelativeConvex@VBoxV@Gu@physx@@@01@AEBU?$LocalConvex@VConvexHullNoScaleV@Gu@physx@@@01@AEBT__m128@@2_NPEIAE4AEAEAEAUGjkOutput@01@@Z 00000001801049f0 f i GuPCMContactBoxConvex.obj
 0001:00104fd0       ??_E?$LocalConvex@VConvexHullNoScaleV@Gu@physx@@@Gu@physx@@UEAAPEAXI@Z 0000000180105fd0 f i GuPCMContactBoxConvex.obj
 0001:00104fd0       ??_G?$LocalConvex@VConvexHullNoScaleV@Gu@physx@@@Gu@physx@@UEAAPEAXI@Z 0000000180105fd0 f i GuPCMContactBoxConvex.obj
 0001:00105670       ?getCenter@?$LocalConvex@VConvexHullNoScaleV@Gu@physx@@@Gu@physx@@UEBA?AT__m128@@XZ 0000000180106670 f i GuPCMContactBoxConvex.obj
 0001:00105680       ?getSweepMargin@?$LocalConvex@VConvexHullNoScaleV@Gu@physx@@@Gu@physx@@UEBA?AT__m128@@XZ 0000000180106680 f i GuPCMContactBoxConvex.obj
 0001:001056a0       ?support@?$LocalConvex@VConvexHullNoScaleV@Gu@physx@@@Gu@physx@@UEBA?AT__m128@@AEBT4@@Z 00000001801066a0 f i GuPCMContactBoxConvex.obj
 0001:001056f0       ?support@?$LocalConvex@VConvexHullNoScaleV@Gu@physx@@@Gu@physx@@UEBA?AT__m128@@AEBT4@AEAH@Z 00000001801066f0 f i GuPCMContactBoxConvex.obj
 0001:00105750       ?supportPoint@?$LocalConvex@VConvexHullNoScaleV@Gu@physx@@@Gu@physx@@UEBA?AT__m128@@H@Z 0000000180106750 f i GuPCMContactBoxConvex.obj
 0001:00105780       ?pcmContactCapsuleBox@Gu@physx@@YA_NAEBVGeometryUnion@12@0AEBVPxTransform@2@1AEBUNarrowPhaseParams@12@AEAUCache@12@AEAVContactBuffer@12@PEAVRenderOutput@Cm@2@@Z 0000000180106780 f   GuPCMContactCapsuleBox.obj
 0001:001065f0       ?pcmContactCapsuleCapsule@Gu@physx@@YA_NAEBVGeometryUnion@12@0AEBVPxTransform@2@1AEBUNarrowPhaseParams@12@AEAUCache@12@AEAVContactBuffer@12@PEAVRenderOutput@Cm@2@@Z 00000001801075f0 f   GuPCMContactCapsuleCapsule.obj
 0001:00106e70       ?pcmContactCapsuleConvex@Gu@physx@@YA_NAEBVGeometryUnion@12@0AEBVPxTransform@2@1AEBUNarrowPhaseParams@12@AEAUCache@12@AEAVContactBuffer@12@PEAVRenderOutput@Cm@2@@Z 0000000180107e70 f   GuPCMContactCapsuleConvex.obj
 0001:00108080       ??$gjkPenetration@U?$LocalConvex@VCapsuleV@Gu@physx@@@Gu@physx@@U?$LocalConvex@VConvexHullNoScaleV@Gu@physx@@@23@@Gu@physx@@YA?AW4GjkStatus@01@AEBU?$LocalConvex@VCapsuleV@Gu@physx@@@01@AEBU?$LocalConvex@VConvexHullNoScaleV@Gu@physx@@@01@AEBT__m128@@2_NPEIAE4AEAEAEAUGjkOutput@01@@Z 0000000180109080 f i GuPCMContactCapsuleConvex.obj
 0001:00109850       ?pcmContactCapsuleHeightField@Gu@physx@@YA_NAEBVGeometryUnion@12@0AEBVPxTransform@2@1AEBUNarrowPhaseParams@12@AEAUCache@12@AEAVContactBuffer@12@PEAVRenderOutput@Cm@2@@Z 000000018010a850 f   GuPCMContactCapsuleHeightField.obj
 0001:0010a580       ??0PCMContactPatch@Gu@physx@@QEAA@XZ 000000018010b580 f i GuPCMContactCapsuleHeightField.obj
 0001:0010a5a0       ??0PCMMeshContactGeneration@Gu@physx@@QEAA@AEBT__m128@@0AEBVPsTransformV@aos@shdfnd@2@1AEAVMultiplePersistentContactManifold@12@AEAVContactBuffer@12@PEAV?$InlineArray@I$0EEA@V?$ReflectionAllocator@I@shdfnd@physx@@@62@PEAVRenderOutput@Cm@2@@Z 000000018010b5a0 f i GuPCMContactCapsuleHeightField.obj
 0001:0010aeb0       ??_E?$PCMHeightfieldContactGenerationCallback@UPCMCapsuleVsHeightfieldContactGenerationCallback@physx@@@Gu@physx@@UEAAPEAXI@Z 000000018010beb0 f i GuPCMContactCapsuleHeightField.obj
 0001:0010aeb0       ??_G?$PCMHeightfieldContactGenerationCallback@UPCMCapsuleVsHeightfieldContactGenerationCallback@physx@@@Gu@physx@@UEAAPEAXI@Z 000000018010beb0 f i GuPCMContactCapsuleHeightField.obj
 0001:0010aee0       ??_EPCMCapsuleVsHeightfieldContactGenerationCallback@physx@@UEAAPEAXI@Z 000000018010bee0 f i GuPCMContactCapsuleHeightField.obj
 0001:0010aee0       ??_GPCMCapsuleVsHeightfieldContactGenerationCallback@physx@@UEAAPEAXI@Z 000000018010bee0 f i GuPCMContactCapsuleHeightField.obj
 0001:0010af10       ?onEvent@?$PCMHeightfieldContactGenerationCallback@UPCMCapsuleVsHeightfieldContactGenerationCallback@physx@@@Gu@physx@@UEAA_NIPEAI@Z 000000018010bf10 f i GuPCMContactCapsuleHeightField.obj
 0001:0010b4c0       ?pcmContactCapsuleMesh@Gu@physx@@YA_NAEBVGeometryUnion@12@0AEBVPxTransform@2@1AEBUNarrowPhaseParams@12@AEAUCache@12@AEAVContactBuffer@12@PEAVRenderOutput@Cm@2@@Z 000000018010c4c0 f   GuPCMContactCapsuleMesh.obj
 0001:0010c3f0       ??$processTriangleCache@$0BA@@PCMCapsuleVsMeshContactGenerationCallback@physx@@QEAAXAEAU?$TriangleCache@$0BA@@Gu@1@@Z 000000018010d3f0 f i GuPCMContactCapsuleMesh.obj
 0001:0010c480       ??_E?$PCMMeshContactGenerationCallback@UPCMCapsuleVsMeshContactGenerationCallback@physx@@@Gu@physx@@UEAAPEAXI@Z 000000018010d480 f i GuPCMContactCapsuleMesh.obj
 0001:0010c480       ??_G?$PCMMeshContactGenerationCallback@UPCMCapsuleVsMeshContactGenerationCallback@physx@@@Gu@physx@@UEAAPEAXI@Z 000000018010d480 f i GuPCMContactCapsuleMesh.obj
 0001:0010c4b0       ??_EPCMCapsuleVsMeshContactGenerationCallback@physx@@UEAAPEAXI@Z 000000018010d4b0 f i GuPCMContactCapsuleMesh.obj
 0001:0010c4b0       ??_GPCMCapsuleVsMeshContactGenerationCallback@physx@@UEAAPEAXI@Z 000000018010d4b0 f i GuPCMContactCapsuleMesh.obj
 0001:0010c4e0       ?processHit@?$PCMMeshContactGenerationCallback@UPCMCapsuleVsMeshContactGenerationCallback@physx@@@Gu@physx@@UEAA_NAEBUPxRaycastHit@3@AEBVPxVec3@3@11AEAMPEBI@Z 000000018010d4e0 f i GuPCMContactCapsuleMesh.obj
 0001:0010c8b0       ?generateLastContacts@PCMConvexVsMeshContactGeneration@Gu@physx@@QEAAXXZ 000000018010d8b0 f   GuPCMContactConvexCommon.obj
 0001:0010ce10       ?addContactsToPatch@PCMConvexVsMeshContactGeneration@Gu@physx@@QEAAXAEBT__m128@@I@Z 000000018010de10 f   GuPCMContactConvexCommon.obj
 0001:0010d750       ?processTriangle@PCMConvexVsMeshContactGeneration@Gu@physx@@QEAA_NPEBVPxVec3@3@IEPEBI@Z 000000018010e750 f   GuPCMContactConvexCommon.obj
 0001:0010dcb0       ?processTriangle@PCMConvexVsMeshContactGeneration@Gu@physx@@SA_NAEBUPolygonalData@23@PEAVSupportLocal@23@PEBVPxVec3@3@IEAEBT__m128@@_NAEBVPsTransformV@aos@shdfnd@3@AEBVPsMatTransformV@9shdfnd@3@PEAVMeshPersistentContact@23@AEAI@Z 000000018010ecb0 f   GuPCMContactConvexCommon.obj
 0001:0010df30       ?processTriangle@PCMSphereVsMeshContactGeneration@Gu@physx@@QEAA_NPEBVPxVec3@3@IEPEBI@Z 000000018010ef30 f   GuPCMContactConvexCommon.obj
 0001:0010e350       ?generateLastContacts@PCMSphereVsMeshContactGeneration@Gu@physx@@QEAAXXZ 000000018010f350 f   GuPCMContactConvexCommon.obj
 0001:0010e750       ?addToPatch@PCMSphereVsMeshContactGeneration@Gu@physx@@QEAAXAEBT__m128@@0T4@I@Z 000000018010f750 f   GuPCMContactConvexCommon.obj
 0001:0010ee20       ?generateEEContacts@PCMCapsuleVsMeshContactGeneration@Gu@physx@@QEAAXAEBT__m128@@000I000PEAVMeshPersistentContact@23@AEAI@Z 000000018010fe20 f   GuPCMContactConvexCommon.obj
 0001:0010ef50       ?generateEE@PCMCapsuleVsMeshContactGeneration@Gu@physx@@QEAAXAEBT__m128@@000I00PEAVMeshPersistentContact@23@AEAI@Z 000000018010ff50 f   GuPCMContactConvexCommon.obj
 0001:0010f1e0       ?generateContacts@PCMCapsuleVsMeshContactGeneration@Gu@physx@@SA_NAEBT__m128@@0000I000PEAVMeshPersistentContact@23@AEAI@Z 00000001801101e0 f   GuPCMContactConvexCommon.obj
 0001:0010f620       ?generateEEContactsMTD@PCMCapsuleVsMeshContactGeneration@Gu@physx@@SAXAEBT__m128@@000I000PEAVMeshPersistentContact@23@AEAI@Z 0000000180110620 f   GuPCMContactConvexCommon.obj
 0001:0010f740       ?generateEEMTD@PCMCapsuleVsMeshContactGeneration@Gu@physx@@SAXAEBT__m128@@000I00PEAVMeshPersistentContact@23@AEAI@Z 0000000180110740 f   GuPCMContactConvexCommon.obj
 0001:0010f990       ?processTriangle@PCMCapsuleVsMeshContactGeneration@Gu@physx@@QEAA_NPEBVPxVec3@3@IEPEBI@Z 0000000180110990 f   GuPCMContactConvexCommon.obj
 0001:00110580       ?processTriangle@PCMCapsuleVsMeshContactGeneration@Gu@physx@@SA_NAEBVTriangleV@23@IAEBVCapsuleV@23@AEBT__m128@@EPEAVMeshPersistentContact@23@AEAI@Z 0000000180111580 f   GuPCMContactConvexCommon.obj
 0001:001108c0       ?pcmDistanceSegmentTriangleSquared@Gu@physx@@YA?AT__m128@@AEBT3@0000AEAT3@11@Z 00000001801118c0 f   GuPCMContactConvexCommon.obj
 0001:00111200       ??$sort@USortedTriangle@Gu@physx@@U?$Less@USortedTriangle@Gu@physx@@@shdfnd@3@@shdfnd@physx@@YAXPEAUSortedTriangle@Gu@1@IAEBU?$Less@USortedTriangle@Gu@physx@@@01@@Z 0000000180112200 f i GuPCMContactConvexCommon.obj
 0001:00111220       ??$sort@USortedTriangle@Gu@physx@@U?$Less@USortedTriangle@Gu@physx@@@shdfnd@3@V?$ReflectionAllocator@USortedTriangle@Gu@physx@@@53@@shdfnd@physx@@YAXPEAUSortedTriangle@Gu@1@IAEBU?$Less@USortedTriangle@Gu@physx@@@01@AEBV?$ReflectionAllocator@USortedTriangle@Gu@physx@@@01@I@Z 0000000180112220 f i GuPCMContactConvexCommon.obj
 0001:001116b0       ??_E?$SupportLocalImpl@VTriangleV@Gu@physx@@@Gu@physx@@UEAAPEAXI@Z 00000001801126b0 f i GuPCMContactConvexCommon.obj
 0001:001116b0       ??_G?$SupportLocalImpl@VTriangleV@Gu@physx@@@Gu@physx@@UEAAPEAXI@Z 00000001801126b0 f i GuPCMContactConvexCommon.obj
 0001:001116e0       ?allocate@?$ReflectionAllocator@USortedTriangle@Gu@physx@@@shdfnd@physx@@QEAAPEAX_KPEBDH@Z 00000001801126e0 f i GuPCMContactConvexCommon.obj
 0001:00111780       ?doSupport@?$SupportLocalImpl@VTriangleV@Gu@physx@@@Gu@physx@@UEBA?AT__m128@@AEBT4@@Z 0000000180112780 f i GuPCMContactConvexCommon.obj
 0001:00111810       ?doSupport@?$SupportLocalImpl@VTriangleV@Gu@physx@@@Gu@physx@@UEBAXAEBT__m128@@AEAT4@1@Z 0000000180112810 f i GuPCMContactConvexCommon.obj
 0001:00111880       ?growAndPushBack@?$Array@USortedTriangle@Gu@physx@@V?$InlineAllocator@$0IAA@V?$ReflectionAllocator@USortedTriangle@Gu@physx@@@shdfnd@physx@@@shdfnd@3@@shdfnd@physx@@IEAAAEAUSortedTriangle@Gu@3@AEBU453@@Z 0000000180112880 f i GuPCMContactConvexCommon.obj
 0001:00111f00       ?populateVerts@?$SupportLocalImpl@VTriangleV@Gu@physx@@@Gu@physx@@UEBAXPEBEIPEBVPxVec3@3@PEAT__m128@@@Z 0000000180112f00 f i GuPCMContactConvexCommon.obj
 0001:00112040       ?pcmContactConvexConvex@Gu@physx@@YA_NAEBVGeometryUnion@12@0AEBVPxTransform@2@1AEBUNarrowPhaseParams@12@AEAUCache@12@AEAVContactBuffer@12@PEAVRenderOutput@Cm@2@@Z 0000000180113040 f   GuPCMContactConvexConvex.obj
 0001:001131a0       ??$gjkPenetration@U?$RelativeConvex@VConvexHullNoScaleV@Gu@physx@@@Gu@physx@@U?$LocalConvex@VConvexHullNoScaleV@Gu@physx@@@23@@Gu@physx@@YA?AW4GjkStatus@01@AEBU?$RelativeConvex@VConvexHullNoScaleV@Gu@physx@@@01@AEBU?$LocalConvex@VConvexHullNoScaleV@Gu@physx@@@01@AEBT__m128@@2_NPEIAE4AEAEAEAUGjkOutput@01@@Z 00000001801141a0 f i GuPCMContactConvexConvex.obj
 0001:00114760       ??$gjkPenetration@U?$RelativeConvex@VConvexHullNoScaleV@Gu@physx@@@Gu@physx@@U?$LocalConvex@VConvexHullV@Gu@physx@@@23@@Gu@physx@@YA?AW4GjkStatus@01@AEBU?$RelativeConvex@VConvexHullNoScaleV@Gu@physx@@@01@AEBU?$LocalConvex@VConvexHullV@Gu@physx@@@01@AEBT__m128@@2_NPEIAE4AEAEAEAUGjkOutput@01@@Z 0000000180115760 f i GuPCMContactConvexConvex.obj
 0001:00115dd0       ??$gjkPenetration@U?$RelativeConvex@VConvexHullV@Gu@physx@@@Gu@physx@@U?$LocalConvex@VConvexHullNoScaleV@Gu@physx@@@23@@Gu@physx@@YA?AW4GjkStatus@01@AEBU?$RelativeConvex@VConvexHullV@Gu@physx@@@01@AEBU?$LocalConvex@VConvexHullNoScaleV@Gu@physx@@@01@AEBT__m128@@2_NPEIAE4AEAEAEAUGjkOutput@01@@Z 0000000180116dd0 f i GuPCMContactConvexConvex.obj
 0001:00117430       ??_E?$RelativeConvex@VConvexHullNoScaleV@Gu@physx@@@Gu@physx@@UEAAPEAXI@Z 0000000180118430 f i GuPCMContactConvexConvex.obj
 0001:00117430       ??_G?$RelativeConvex@VConvexHullNoScaleV@Gu@physx@@@Gu@physx@@UEAAPEAXI@Z 0000000180118430 f i GuPCMContactConvexConvex.obj
 0001:00117e60       ?getCenter@?$RelativeConvex@VConvexHullNoScaleV@Gu@physx@@@Gu@physx@@UEBA?AT__m128@@XZ 0000000180118e60 f i GuPCMContactConvexConvex.obj
 0001:00117ea0       ?getSweepMargin@?$RelativeConvex@VConvexHullNoScaleV@Gu@physx@@@Gu@physx@@UEBA?AT__m128@@XZ 0000000180118ea0 f i GuPCMContactConvexConvex.obj
 0001:00117ec0       ?support@?$RelativeConvex@VConvexHullNoScaleV@Gu@physx@@@Gu@physx@@UEBA?AT__m128@@AEBT4@@Z 0000000180118ec0 f i GuPCMContactConvexConvex.obj
 0001:00117f70       ?support@?$RelativeConvex@VConvexHullNoScaleV@Gu@physx@@@Gu@physx@@UEBA?AT__m128@@AEBT4@AEAH@Z 0000000180118f70 f i GuPCMContactConvexConvex.obj
 0001:00118030       ?supportPoint@?$RelativeConvex@VConvexHullNoScaleV@Gu@physx@@@Gu@physx@@UEBA?AT__m128@@H@Z 0000000180119030 f i GuPCMContactConvexConvex.obj
 0001:00118090       ?pcmContactBoxHeightField@Gu@physx@@YA_NAEBVGeometryUnion@12@0AEBVPxTransform@2@1AEBUNarrowPhaseParams@12@AEAUCache@12@AEAVContactBuffer@12@PEAVRenderOutput@Cm@2@@Z 0000000180119090 f   GuPCMContactConvexHeightField.obj
 0001:00118310       ?pcmContactConvexHeightField@Gu@physx@@YA_NAEBVGeometryUnion@12@0AEBVPxTransform@2@1AEBUNarrowPhaseParams@12@AEAUCache@12@AEAVContactBuffer@12@PEAVRenderOutput@Cm@2@@Z 0000000180119310 f   GuPCMContactConvexHeightField.obj
 0001:001189c0       ?PCMContactConvexHeightfield@Gu@physx@@YA_NAEBUPolygonalData@12@PEAVSupportLocal@12@AEBT__m128@@AEBVPxBounds3@2@AEBVPxHeightFieldGeometry@2@AEBVPxTransform@2@5MAEAVContactBuffer@12@AEBVFastVertex2ShapeScaling@Cm@2@_NAEAVMultiplePersistentContactManifold@12@PEAVRenderOutput@Cm@2@@Z 00000001801199c0 f   GuPCMContactConvexHeightField.obj
 0001:00119490       ??_E?$PCMHeightfieldContactGenerationCallback@UPCMConvexVsHeightfieldContactGenerationCallback@physx@@@Gu@physx@@UEAAPEAXI@Z 000000018011a490 f i GuPCMContactConvexHeightField.obj
 0001:00119490       ??_G?$PCMHeightfieldContactGenerationCallback@UPCMConvexVsHeightfieldContactGenerationCallback@physx@@@Gu@physx@@UEAAPEAXI@Z 000000018011a490 f i GuPCMContactConvexHeightField.obj
 0001:001194c0       ??_EPCMConvexVsHeightfieldContactGenerationCallback@physx@@UEAAPEAXI@Z 000000018011a4c0 f i GuPCMContactConvexHeightField.obj
 0001:001194c0       ??_GPCMConvexVsHeightfieldContactGenerationCallback@physx@@UEAAPEAXI@Z 000000018011a4c0 f i GuPCMContactConvexHeightField.obj
 0001:001194f0       ?onEvent@?$PCMHeightfieldContactGenerationCallback@UPCMConvexVsHeightfieldContactGenerationCallback@physx@@@Gu@physx@@UEAA_NIPEAI@Z 000000018011a4f0 f i GuPCMContactConvexHeightField.obj
 0001:00119aa0       ?pcmContactBoxMesh@Gu@physx@@YA_NAEBVGeometryUnion@12@0AEBVPxTransform@2@1AEBUNarrowPhaseParams@12@AEAUCache@12@AEAVContactBuffer@12@PEAVRenderOutput@Cm@2@@Z 000000018011aaa0 f   GuPCMContactConvexMesh.obj
 0001:00119dc0       ?pcmContactConvexMesh@Gu@physx@@YA_NAEBVGeometryUnion@12@0AEBVPxTransform@2@1AEBUNarrowPhaseParams@12@AEAUCache@12@AEAVContactBuffer@12@PEAVRenderOutput@Cm@2@@Z 000000018011adc0 f   GuPCMContactConvexMesh.obj
 0001:0011a570       ?PCMContactConvexMesh@Gu@physx@@YA_NAEBUPolygonalData@12@PEAVSupportLocal@12@AEBT__m128@@AEBVPxBounds3@2@AEBUPxTriangleMeshGeometryLL@2@AEBVPxTransform@2@5MAEAVContactBuffer@12@AEBVFastVertex2ShapeScaling@Cm@2@7_N8AEAVMultiplePersistentContactManifold@12@PEAVRenderOutput@Cm@2@@Z 000000018011b570 f   GuPCMContactConvexMesh.obj
 0001:0011b140       ??$processTriangleCache@$0BA@@PCMConvexVsMeshContactGenerationCallback@physx@@QEAAXAEAU?$TriangleCache@$0BA@@Gu@1@@Z 000000018011c140 f i GuPCMContactConvexMesh.obj
 0001:0011b1d0       ??_E?$PCMMeshContactGenerationCallback@UPCMConvexVsMeshContactGenerationCallback@physx@@@Gu@physx@@UEAAPEAXI@Z 000000018011c1d0 f i GuPCMContactConvexMesh.obj
 0001:0011b1d0       ??_G?$PCMMeshContactGenerationCallback@UPCMConvexVsMeshContactGenerationCallback@physx@@@Gu@physx@@UEAAPEAXI@Z 000000018011c1d0 f i GuPCMContactConvexMesh.obj
 0001:0011b200       ??_EPCMConvexVsMeshContactGenerationCallback@physx@@UEAAPEAXI@Z 000000018011c200 f i GuPCMContactConvexMesh.obj
 0001:0011b200       ??_GPCMConvexVsMeshContactGenerationCallback@physx@@UEAAPEAXI@Z 000000018011c200 f i GuPCMContactConvexMesh.obj
 0001:0011b230       ?processHit@?$PCMMeshContactGenerationCallback@UPCMConvexVsMeshContactGenerationCallback@physx@@@Gu@physx@@UEAA_NAEBUPxRaycastHit@3@AEBVPxVec3@3@11AEAMPEBI@Z 000000018011c230 f i GuPCMContactConvexMesh.obj
 0001:0011b660       ?generateFullContactManifold@Gu@physx@@YA_NAEAUPolygonalData@12@0PEAVSupportLocal@12@1PEAVPersistentContact@12@AEAIAEBT__m128@@444MM_NPEAVRenderOutput@Cm@2@M@Z 000000018011c660 f   GuPCMContactGenBoxConvex.obj
 0001:0011cf00       ?addGJKEPAContacts@Gu@physx@@YA_NPEBUGjkConvex@12@0AEBVPsMatTransformV@aos@shdfnd@2@W4GjkStatus@12@PEAVPersistentContact@12@T__m128@@4AEAUGjkOutput@12@AEAVPersistentContactManifold@12@@Z 000000018011df00 f   GuPCMContactGenBoxConvex.obj
 0001:0011d110       ?computeMTD@Gu@physx@@YA_NAEAUPolygonalData@12@0PEAVSupportLocal@12@1AEAT__m128@@2@Z 000000018011e110 f   GuPCMContactGenBoxConvex.obj
 0001:0011d770       ?buildPartialHull@Gu@physx@@YAXAEBUPolygonalData@12@PEAVSupportLocal@12@AEAVSeparatingAxes@12@AEBT__m128@@3@Z 000000018011e770 f   GuPCMContactGenBoxConvex.obj
 0001:0011da50       ?generatedContacts@Gu@physx@@YAXAEAUPolygonalData@12@0AEBUHullPolygonData@12@1PEAVSupportLocal@12@2AEBVPsMatTransformV@aos@shdfnd@2@PEAVPersistentContact@12@AEAIAEBT__m128@@PEAVRenderOutput@Cm@2@@Z 000000018011ea50 f   GuPCMContactGenBoxConvex.obj
 0001:0011f130       ?generateFullContactManifold@Gu@physx@@YA_NAEBVCapsuleV@12@AEAUPolygonalData@12@PEAVSupportLocal@12@AEBVPsMatTransformV@aos@shdfnd@2@PEAVPersistentContact@12@AEAIAEBT__m128@@AEAT__m128@@6M_NM@Z 0000000180120130 f   GuPCMContactGenSphereCapsule.obj
 0001:0011fa40       ?generateCapsuleBoxFullContactManifold@Gu@physx@@YA_NAEBVCapsuleV@12@AEAUPolygonalData@12@PEAVSupportLocal@12@AEBVPsMatTransformV@aos@shdfnd@2@PEAVPersistentContact@12@AEAIAEBT__m128@@AEAT__m128@@6M_NMPEAVRenderOutput@Cm@2@@Z 0000000180120a40 f   GuPCMContactGenSphereCapsule.obj
 0001:001202c0       ?computeMTD@Gu@physx@@YA_NAEBVCapsuleV@12@AEAUPolygonalData@12@PEAVSupportLocal@12@AEAT__m128@@3@Z 00000001801212c0 f   GuPCMContactGenSphereCapsule.obj
 0001:001203b0       ?generateSphereFullContactManifold@Gu@physx@@YA_NAEBVCapsuleV@12@AEAUPolygonalData@12@PEAVSupportLocal@12@PEAVPersistentContact@12@AEAIAEBT__m128@@AEAT7@_N@Z 00000001801213b0 f   GuPCMContactGenSphereCapsule.obj
 0001:001207e0       ?generatedCapsuleBoxFaceContacts@Gu@physx@@YAXAEBVCapsuleV@12@AEAUPolygonalData@12@AEBUHullPolygonData@12@PEAVSupportLocal@12@AEBVPsMatTransformV@aos@shdfnd@2@PEAVPersistentContact@12@AEAIAEBT__m128@@7@Z 00000001801217e0 f   GuPCMContactGenSphereCapsule.obj
 0001:00120f90       ?generatedContactsEEContacts@Gu@physx@@YAXAEBVCapsuleV@12@AEAUPolygonalData@12@AEBUHullPolygonData@12@PEAVSupportLocal@12@AEBVPsMatTransformV@aos@shdfnd@2@PEAVPersistentContact@12@AEAIAEBT__m128@@7@Z 0000000180121f90 f   GuPCMContactGenSphereCapsule.obj
 0001:00121c20       ?pcmContactPlaneBox@Gu@physx@@YA_NAEBVGeometryUnion@12@0AEBVPxTransform@2@1AEBUNarrowPhaseParams@12@AEAUCache@12@AEAVContactBuffer@12@PEAVRenderOutput@Cm@2@@Z 0000000180122c20 f   GuPCMContactPlaneBox.obj
 0001:00122810       ?pcmContactPlaneCapsule@Gu@physx@@YA_NAEBVGeometryUnion@12@0AEBVPxTransform@2@1AEBUNarrowPhaseParams@12@AEAUCache@12@AEAVContactBuffer@12@PEAVRenderOutput@Cm@2@@Z 0000000180123810 f   GuPCMContactPlaneCapsule.obj
 0001:00122fb0       ?pcmContactPlaneConvex@Gu@physx@@YA_NAEBVGeometryUnion@12@0AEBVPxTransform@2@1AEBUNarrowPhaseParams@12@AEAUCache@12@AEAVContactBuffer@12@PEAVRenderOutput@Cm@2@@Z 0000000180123fb0 f   GuPCMContactPlaneConvex.obj
 0001:00123920       ?pcmContactSphereBox@Gu@physx@@YA_NAEBVGeometryUnion@12@0AEBVPxTransform@2@1AEBUNarrowPhaseParams@12@AEAUCache@12@AEAVContactBuffer@12@PEAVRenderOutput@Cm@2@@Z 0000000180124920 f   GuPCMContactSphereBox.obj
 0001:00123d90       ?pcmContactSphereCapsule@Gu@physx@@YA_NAEBVGeometryUnion@12@0AEBVPxTransform@2@1AEBUNarrowPhaseParams@12@AEAUCache@12@AEAVContactBuffer@12@PEAVRenderOutput@Cm@2@@Z 0000000180124d90 f   GuPCMContactSphereCapsule.obj
 0001:00123fd0       ?pcmContactSphereConvex@Gu@physx@@YA_NAEBVGeometryUnion@12@0AEBVPxTransform@2@1AEBUNarrowPhaseParams@12@AEAUCache@12@AEAVContactBuffer@12@PEAVRenderOutput@Cm@2@@Z 0000000180124fd0 f   GuPCMContactSphereConvex.obj
 0001:00124ec0       ?pcmContactSphereHeightField@Gu@physx@@YA_NAEBVGeometryUnion@12@0AEBVPxTransform@2@1AEBUNarrowPhaseParams@12@AEAUCache@12@AEAVContactBuffer@12@PEAVRenderOutput@Cm@2@@Z 0000000180125ec0 f   GuPCMContactSphereHeightField.obj
 0001:00125980       ??1?$Array@USortedTriangle@Gu@physx@@V?$InlineAllocator@$0IAA@V?$ReflectionAllocator@USortedTriangle@Gu@physx@@@shdfnd@physx@@@shdfnd@3@@shdfnd@physx@@QEAA@XZ 0000000180126980 f i GuPCMContactSphereHeightField.obj
 0001:001259f0       ??_E?$PCMHeightfieldContactGenerationCallback@UPCMSphereVsHeightfieldContactGenerationCallback@physx@@@Gu@physx@@UEAAPEAXI@Z 00000001801269f0 f i GuPCMContactSphereHeightField.obj
 0001:001259f0       ??_G?$PCMHeightfieldContactGenerationCallback@UPCMSphereVsHeightfieldContactGenerationCallback@physx@@@Gu@physx@@UEAAPEAXI@Z 00000001801269f0 f i GuPCMContactSphereHeightField.obj
 0001:00125a20       ??_EPCMSphereVsHeightfieldContactGenerationCallback@physx@@UEAAPEAXI@Z 0000000180126a20 f i GuPCMContactSphereHeightField.obj
 0001:00125a20       ??_GPCMSphereVsHeightfieldContactGenerationCallback@physx@@UEAAPEAXI@Z 0000000180126a20 f i GuPCMContactSphereHeightField.obj
 0001:00125a70       ?onEvent@?$PCMHeightfieldContactGenerationCallback@UPCMSphereVsHeightfieldContactGenerationCallback@physx@@@Gu@physx@@UEAA_NIPEAI@Z 0000000180126a70 f i GuPCMContactSphereHeightField.obj
 0001:00126020       ?pcmContactSphereMesh@Gu@physx@@YA_NAEBVGeometryUnion@12@0AEBVPxTransform@2@1AEBUNarrowPhaseParams@12@AEAUCache@12@AEAVContactBuffer@12@PEAVRenderOutput@Cm@2@@Z 0000000180127020 f   GuPCMContactSphereMesh.obj
 0001:00126c30       ??$processTriangleCache@$0BA@@PCMSphereVsMeshContactGenerationCallback@physx@@QEAAXAEAU?$TriangleCache@$0BA@@Gu@1@@Z 0000000180127c30 f i GuPCMContactSphereMesh.obj
 0001:00126cc0       ??_E?$PCMMeshContactGenerationCallback@UPCMSphereVsMeshContactGenerationCallback@physx@@@Gu@physx@@UEAAPEAXI@Z 0000000180127cc0 f i GuPCMContactSphereMesh.obj
 0001:00126cc0       ??_G?$PCMMeshContactGenerationCallback@UPCMSphereVsMeshContactGenerationCallback@physx@@@Gu@physx@@UEAAPEAXI@Z 0000000180127cc0 f i GuPCMContactSphereMesh.obj
 0001:00126cf0       ??_EPCMSphereVsMeshContactGenerationCallback@physx@@UEAAPEAXI@Z 0000000180127cf0 f i GuPCMContactSphereMesh.obj
 0001:00126cf0       ??_GPCMSphereVsMeshContactGenerationCallback@physx@@UEAAPEAXI@Z 0000000180127cf0 f i GuPCMContactSphereMesh.obj
 0001:00126d40       ?processHit@?$PCMMeshContactGenerationCallback@UPCMSphereVsMeshContactGenerationCallback@physx@@@Gu@physx@@UEAA_NAEBUPxRaycastHit@3@AEBVPxVec3@3@11AEAMPEBI@Z 0000000180127d40 f i GuPCMContactSphereMesh.obj
 0001:00127110       ?pcmContactSpherePlane@Gu@physx@@YA_NAEBVGeometryUnion@12@0AEBVPxTransform@2@1AEBUNarrowPhaseParams@12@AEAUCache@12@AEAVContactBuffer@12@PEAVRenderOutput@Cm@2@@Z 0000000180128110 f   GuPCMContactSpherePlane.obj
 0001:001272a0       ?pcmContactSphereSphere@Gu@physx@@YA_NAEBVGeometryUnion@12@0AEBVPxTransform@2@1AEBUNarrowPhaseParams@12@AEAUCache@12@AEAVContactBuffer@12@PEAVRenderOutput@Cm@2@@Z 00000001801282a0 f   GuPCMContactSphereSphere.obj
 0001:00127380       ??0PCMPolygonalBox@Gu@physx@@QEAA@AEBVPxVec3@2@@Z 0000000180128380 f   GuPCMShapeConvex.obj
 0001:00127550       ?getPolygonalData@PCMPolygonalBox@Gu@physx@@QEBAXPEIAUPolygonalData@23@@Z 0000000180128550 f   GuPCMShapeConvex.obj
 0001:001275a0       ?getPCMConvexData@Gu@physx@@YAXAEBVConvexHullV@12@_NAEAUPolygonalData@12@@Z 00000001801285a0 f   GuPCMShapeConvex.obj
 0001:00127700       ?getPCMConvexData@Gu@physx@@YA_NAEBVGeometryUnion@12@AEAVFastVertex2ShapeScaling@Cm@2@AEAVPxBounds3@2@AEAUPolygonalData@12@@Z 0000000180128700 f   GuPCMShapeConvex.obj
 0001:00127ac0       ?generateTriangleFullContactManifold@PCMConvexVsMeshContactGeneration@Gu@physx@@QEAA_NAEAVTriangleV@23@IPEBIEAEBUPolygonalData@23@PEAV?$SupportLocalImpl@VTriangleV@Gu@physx@@@23@PEAVSupportLocal@23@PEAVMeshPersistentContact@23@AEAIAEBT__m128@@AEAT9@@Z 0000000180128ac0 f   GuPCMTriangleContactGen.obj
 0001:001283c0       ?generatePolyDataContactManifold@PCMConvexVsMeshContactGeneration@Gu@physx@@QEAA_NAEAVTriangleV@23@IIEPEAVMeshPersistentContact@23@AEAIAEBT__m128@@AEAT6@@Z 00000001801293c0 f   GuPCMTriangleContactGen.obj
 0001:001284f0       ?generateTriangleFullContactManifold@PCMConvexVsMeshContactGeneration@Gu@physx@@SA_NAEAVTriangleV@23@IEAEBUPolygonalData@23@PEAV?$SupportLocalImpl@VTriangleV@Gu@physx@@@23@PEAVSupportLocal@23@PEAVMeshPersistentContact@23@AEAIAEBT__m128@@AEAT9@PEAVRenderOutput@Cm@3@@Z 00000001801294f0 f   GuPCMTriangleContactGen.obj
 0001:0012ac40       ?findRotationMatrixFromZAxis@Gu@physx@@YA?AUMat33V@aos@shdfnd@2@AEBT__m128@@@Z 000000018012bc40 f   GuPersistentContactManifold.obj
 0001:0012aed0       ?replaceManifoldPoint@PersistentContactManifold@Gu@physx@@QEAA_NAEBT__m128@@000@Z 000000018012bed0 f   GuPersistentContactManifold.obj
 0001:0012afa0       ?addManifoldPoint@PersistentContactManifold@Gu@physx@@QEAAIAEBT__m128@@000@Z 000000018012bfa0 f   GuPersistentContactManifold.obj
 0001:0012b070       ?addManifoldPoint2@PersistentContactManifold@Gu@physx@@QEAAIAEBT__m128@@000@Z 000000018012c070 f   GuPersistentContactManifold.obj
 0001:0012b1b0       ?addBatchManifoldContactsCluster@PersistentContactManifold@Gu@physx@@QEAAXPEBVPersistentContact@23@I@Z 000000018012c1b0 f   GuPersistentContactManifold.obj
 0001:0012b230       ?addBatchManifoldContacts2@PersistentContactManifold@Gu@physx@@QEAAXPEBVPersistentContact@23@I@Z 000000018012c230 f   GuPersistentContactManifold.obj
 0001:0012b2b0       ?addBatchManifoldContacts@PersistentContactManifold@Gu@physx@@QEAAXPEBVPersistentContact@23@IM@Z 000000018012c2b0 f   GuPersistentContactManifold.obj
 0001:0012b330       ?reduceBatchContactsCluster@PersistentContactManifold@Gu@physx@@QEAAXPEBVPersistentContact@23@I@Z 000000018012c330 f   GuPersistentContactManifold.obj
 0001:0012b7d0       ?reduceBatchContacts2@PersistentContactManifold@Gu@physx@@QEAAXPEBVPersistentContact@23@I@Z 000000018012c7d0 f   GuPersistentContactManifold.obj
 0001:0012b9d0       ?reduceBatchContacts@PersistentContactManifold@Gu@physx@@QEAAXPEBVPersistentContact@23@IM@Z 000000018012c9d0 f   GuPersistentContactManifold.obj
 0001:0012bea0       ?reduceContactsForPCM@PersistentContactManifold@Gu@physx@@QEAAIAEBT__m128@@00@Z 000000018012cea0 f   GuPersistentContactManifold.obj
 0001:0012c450       ?reduceContactSegment@PersistentContactManifold@Gu@physx@@QEAAIAEBT__m128@@00@Z 000000018012d450 f   GuPersistentContactManifold.obj
 0001:0012c4f0       ?addManifoldContactsToContactBuffer@PersistentContactManifold@Gu@physx@@QEAAXAEAVContactBuffer@23@AEBT__m128@@AEBVPsMatTransformV@aos@shdfnd@3@@Z 000000018012d4f0 f   GuPersistentContactManifold.obj
 0001:0012c5a0       ?addManifoldContactsToContactBuffer@PersistentContactManifold@Gu@physx@@QEAAXAEAVContactBuffer@23@AEBT__m128@@AEBVPsTransformV@aos@shdfnd@3@1@Z 000000018012d5a0 f   GuPersistentContactManifold.obj
 0001:0012c700       ?addManifoldContactsToContactBuffer@PersistentContactManifold@Gu@physx@@QEAAXAEAVContactBuffer@23@AEBT__m128@@1AEBVPsTransformV@aos@shdfnd@3@11@Z 000000018012d700 f   GuPersistentContactManifold.obj
 0001:0012c8a0       ?recordWarmStart@PersistentContactManifold@Gu@physx@@QEAAXPEAE0AEAE@Z 000000018012d8a0 f   GuPersistentContactManifold.obj
 0001:0012c8f0       ?setWarmStart@PersistentContactManifold@Gu@physx@@QEAAXPEBE0E@Z 000000018012d8f0 f   GuPersistentContactManifold.obj
 0001:0012c940       ?drawManifold@PersistentContactManifold@Gu@physx@@QEAAXAEAVRenderOutput@Cm@3@AEBVPsTransformV@aos@shdfnd@3@1@Z 000000018012d940 f   GuPersistentContactManifold.obj
 0001:0012c9c0       ?drawManifold@PersistentContactManifold@Gu@physx@@QEAAXAEAVRenderOutput@Cm@3@AEBVPsTransformV@aos@shdfnd@3@1AEBT__m128@@@Z 000000018012d9c0 f   GuPersistentContactManifold.obj
 0001:0012ca60       ?drawManifold@PersistentContactManifold@Gu@physx@@QEAAXAEBVPersistentContact@23@AEAVRenderOutput@Cm@3@AEBVPsTransformV@aos@shdfnd@3@2@Z 000000018012da60 f   GuPersistentContactManifold.obj
 0001:0012ca90       ?drawPoint@PersistentContactManifold@Gu@physx@@SAXAEAVRenderOutput@Cm@3@AEBT__m128@@MI@Z 000000018012da90 f   GuPersistentContactManifold.obj
 0001:0012cc70       ?drawLine@PersistentContactManifold@Gu@physx@@SAXAEAVRenderOutput@Cm@3@AEBT__m128@@1I@Z 000000018012dc70 f   GuPersistentContactManifold.obj
 0001:0012cd30       ?drawTriangle@PersistentContactManifold@Gu@physx@@SAXAEAVRenderOutput@Cm@3@AEBT__m128@@11I@Z 000000018012dd30 f   GuPersistentContactManifold.obj
 0001:0012ce20       ?drawPolygon@PersistentContactManifold@Gu@physx@@SAXAEAVRenderOutput@Cm@3@AEBVPsTransformV@aos@shdfnd@3@PEAT__m128@@II@Z 000000018012de20 f   GuPersistentContactManifold.obj
 0001:0012d0a0       ?drawPolygon@PersistentContactManifold@Gu@physx@@SAXAEAVRenderOutput@Cm@3@AEBVPsMatTransformV@aos@shdfnd@3@PEAT__m128@@II@Z 000000018012e0a0 f   GuPersistentContactManifold.obj
 0001:0012d260       ?reduceBatchContactsConvex@SinglePersistentContactManifold@Gu@physx@@QEAA?AT__m128@@PEBVMeshPersistentContact@23@IAEAUPCMContactPatch@23@@Z 000000018012e260 f   GuPersistentContactManifold.obj
 0001:0012d860       ?reduceBatchContactsSphere@SinglePersistentContactManifold@Gu@physx@@QEAA?AT__m128@@PEBVMeshPersistentContact@23@IAEAUPCMContactPatch@23@@Z 000000018012e860 f   GuPersistentContactManifold.obj
 0001:0012d920       ?reduceBatchContactsCapsule@SinglePersistentContactManifold@Gu@physx@@QEAA?AT__m128@@PEBVMeshPersistentContact@23@IAEAUPCMContactPatch@23@@Z 000000018012e920 f   GuPersistentContactManifold.obj
 0001:0012dbb0       ?addBatchManifoldContactsConvex@SinglePersistentContactManifold@Gu@physx@@QEAA?AT__m128@@PEBVMeshPersistentContact@23@IAEAUPCMContactPatch@23@AEBT4@@Z 000000018012ebb0 f   GuPersistentContactManifold.obj
 0001:0012dc80       ?addBatchManifoldContactsSphere@SinglePersistentContactManifold@Gu@physx@@QEAA?AT__m128@@PEBVMeshPersistentContact@23@IAEAUPCMContactPatch@23@AEBT4@@Z 000000018012ec80 f   GuPersistentContactManifold.obj
 0001:0012dd50       ?addBatchManifoldContactsCapsule@SinglePersistentContactManifold@Gu@physx@@QEAA?AT__m128@@PEBVMeshPersistentContact@23@IAEAUPCMContactPatch@23@AEBT4@@Z 000000018012ed50 f   GuPersistentContactManifold.obj
 0001:0012de20       ?reduceContacts@SinglePersistentContactManifold@Gu@physx@@SAIPEAVMeshPersistentContact@23@I@Z 000000018012ee20 f   GuPersistentContactManifold.obj
 0001:0012e330       ?refreshContactPoints@SinglePersistentContactManifold@Gu@physx@@QEAA?AT__m128@@AEBVPsMatTransformV@aos@shdfnd@3@AEBT4@1@Z 000000018012f330 f   GuPersistentContactManifold.obj
 0001:0012e490       ?drawManifold@SinglePersistentContactManifold@Gu@physx@@QEAAXAEAVRenderOutput@Cm@3@AEBVPsTransformV@aos@shdfnd@3@1@Z 000000018012f490 f   GuPersistentContactManifold.obj
 0001:0012e520       ?addManifoldContactPoints@MultiplePersistentContactManifold@Gu@physx@@QEAAXPEAVMeshPersistentContact@23@IPEAPEAUPCMContactPatch@23@IAEBT__m128@@2E@Z 000000018012f520 f   GuPersistentContactManifold.obj
 0001:0012e910       ?addManifoldContactsToContactBuffer@MultiplePersistentContactManifold@Gu@physx@@QEAA_NAEAVContactBuffer@23@AEBVPsTransformV@aos@shdfnd@3@@Z 000000018012f910 f   GuPersistentContactManifold.obj
 0001:0012eba0       ?addManifoldContactsToContactBuffer@MultiplePersistentContactManifold@Gu@physx@@QEAA_NAEAVContactBuffer@23@AEBVPsTransformV@aos@shdfnd@3@1AEBT__m128@@@Z 000000018012fba0 f   GuPersistentContactManifold.obj
 0001:0012ee60       ?drawManifold@MultiplePersistentContactManifold@Gu@physx@@QEAAXAEAVRenderOutput@Cm@3@AEBVPsTransformV@aos@shdfnd@3@1@Z 000000018012fe60 f   GuPersistentContactManifold.obj
 0001:0012ef20       ?fromBuffer@MultiplePersistentContactManifold@Gu@physx@@QEAAXPEIAE@Z 000000018012ff20 f   GuPersistentContactManifold.obj
 0001:0012f070       ?drawLine@MultiplePersistentContactManifold@Gu@physx@@SAXAEAVRenderOutput@Cm@3@AEBT__m128@@1I@Z 0000000180130070 f   GuPersistentContactManifold.obj
 0001:0012f130       ?drawLine@MultiplePersistentContactManifold@Gu@physx@@SAXAEAVRenderOutput@Cm@3@VPxVec3@3@1I@Z 0000000180130130 f   GuPersistentContactManifold.obj
 0001:0012f1f0       ?drawPoint@MultiplePersistentContactManifold@Gu@physx@@SAXAEAVRenderOutput@Cm@3@AEBT__m128@@MI@Z 00000001801301f0 f   GuPersistentContactManifold.obj
 0001:0012f3d0       ?drawPolygon@MultiplePersistentContactManifold@Gu@physx@@SAXAEAVRenderOutput@Cm@3@AEBVPsTransformV@aos@shdfnd@3@PEAT__m128@@II@Z 00000001801303d0 f   GuPersistentContactManifold.obj
 0001:0012f650       ?addManifoldPoint@Gu@physx@@YAXPEAVPersistentContact@12@AEAVPersistentContactManifold@12@AEAUGjkOutput@12@AEBVPsMatTransformV@aos@shdfnd@2@T__m128@@@Z 0000000180130650 f   GuPersistentContactManifold.obj
 0001:00130b00       ?sweepBoxBox@Gu@physx@@YA_NAEBVBox@12@0AEBVPxVec3@2@MV?$PxFlags@W4Enum@PxHitFlag@physx@@G@2@AEAUPxSweepHit@2@@Z 0000000180131b00 f   GuSweepBoxBox.obj
 0001:00132140       ?sweepBoxSphere@Gu@physx@@YA_NAEBVBox@12@MAEBVPxVec3@2@1MAEAMAEAV42@V?$PxFlags@W4Enum@PxHitFlag@physx@@G@2@@Z 0000000180133140 f   GuSweepBoxSphere.obj
 0001:00132c50       ?sweepBoxTriangle@Gu@physx@@YA_NAEBVPxTriangle@2@AEBVPxBounds3@2@AEBVPxVec3@2@2AEAV52@3AEAM_N@Z 0000000180133c50 f   GuSweepBoxTriangle_FeatureBased.obj
 0001:00134520       ?triBoxSweepTestBoxSpace@Gu@physx@@YAHAEBVPxTriangle@2@AEBVPxVec3@2@11MAEAM_N@Z 0000000180135520 f   GuSweepBoxTriangle_SAT.obj
 0001:00134e60       ?sweepCapsuleBox@Gu@physx@@YA_NAEBVCapsule@12@AEBVPxTransform@2@AEBVPxVec3@2@2MAEAV52@AEAM3V?$PxFlags@W4Enum@PxHitFlag@physx@@G@2@@Z 0000000180135e60 f   GuSweepCapsuleBox.obj
 0001:001351e0       ??0PxTriangle@physx@@QEAA@XZ 00000001801361e0 f i GuSweepCapsuleBox.obj
 0001:001351f0       ??1PxTriangle@physx@@QEAA@XZ 00000001801361f0 f i GuSweepCapsuleBox.obj
 0001:001361c0       ?sweepCapsuleCapsule@Gu@physx@@YA_NAEBVCapsule@12@0AEBVPxVec3@2@MAEAMAEAV42@3IAEAG@Z 00000001801371c0 f   GuSweepCapsuleCapsule.obj
 0001:00136fd0       ??0Capsule@Gu@physx@@QEAA@XZ 0000000180137fd0 f i GuSweepCapsuleCapsule.obj
 0001:00136fe0       ??1Capsule@Gu@physx@@QEAA@XZ 0000000180137fe0 f i GuSweepCapsuleCapsule.obj
 0001:00136ff0       ?distancePointSegmentSquared@Gu@physx@@YAMAEBVSegment@12@AEBVPxVec3@2@PEAM@Z 0000000180137ff0 f i GuSweepCapsuleCapsule.obj
 0001:00137370       ?sweepCapsuleTriangles_Precise@Gu@physx@@YA_NIPEIBVPxTriangle@2@AEBVCapsule@12@AEBVPxVec3@2@MPEIBIAEAUPxSweepHit@2@AEAV52@V?$PxFlags@W4Enum@PxHitFlag@physx@@G@2@_NPEBVBoxPadded@12@@Z 0000000180138370 f   GuSweepCapsuleTriangle.obj
 0001:001394f0       ?sweepSphereCapsule@Gu@physx@@YA_NAEBVSphere@12@AEBVCapsule@12@AEBVPxVec3@2@MAEAMAEAV52@4V?$PxFlags@W4Enum@PxHitFlag@physx@@G@2@@Z 000000018013a4f0 f   GuSweepSphereCapsule.obj
 0001:00139b90       ?sweepSphereSphere@Gu@physx@@YA_NAEBVPxVec3@2@M0M0AEAMAEAV32@@Z 000000018013ab90 f   GuSweepSphereSphere.obj
 0001:00139e00       ?sweepSphereVSTri@Gu@physx@@YA_NPEIBVPxVec3@2@AEBV32@1M1AEAMAEA_N_N@Z 000000018013ae00 f   GuSweepSphereTriangle.obj
 0001:0013ace0       ?sweepSphereVSQuad@Gu@physx@@YA_NPEIBVPxVec3@2@AEBV32@1M1AEAM@Z 000000018013bce0 f   GuSweepSphereTriangle.obj
 0001:0013c240       ?sweepSphereTriangles@Gu@physx@@YA_NIPEIBVPxTriangle@2@AEBVPxVec3@2@M1MPEIBIAEAUPxSweepHit@2@AEAV42@_N555@Z 000000018013d240 f   GuSweepSphereTriangle.obj
 0001:0013cb10       ?computeSphereTriImpactData@Gu@physx@@YAXAEAVPxVec3@2@0AEBV32@1MAEBVPxTriangle@2@@Z 000000018013db10 f   GuSweepTriangleUtils.obj
 0001:0013cdb0       ?computeBoxTriImpactData@Gu@physx@@YAXAEAVPxVec3@2@0AEBV32@1AEBVPxTriangle@2@M@Z 000000018013ddb0 f   GuSweepTriangleUtils.obj
 0001:0013d040       ?computeEdgeEdgeNormal@Gu@physx@@YAXAEAVPxVec3@2@AEBV32@1111M@Z 000000018013e040 f   GuSweepTriangleUtils.obj
 0001:0013d300       ??$gjk@U?$LocalConvex@VTriangleV@Gu@physx@@@Gu@physx@@U?$LocalConvex@VBoxV@Gu@physx@@@23@@Gu@physx@@YA?AW4GjkStatus@01@AEBU?$LocalConvex@VTriangleV@Gu@physx@@@01@AEBU?$LocalConvex@VBoxV@Gu@physx@@@01@AEBT__m128@@2AEAT5@333@Z 000000018013e300 f i GuSweepTriangleUtils.obj
 0001:0013e22c       __imp_load_PxGetFoundation 000000018013f22c f   PhysXFoundation_64:PhysXFoundation_64.dll
 0001:0013e238       PxGetFoundation            000000018013f238 f   PhysXFoundation_64:PhysXFoundation_64.dll
 0001:0013e23e       __tailMerge_physxfoundation_64_dll 000000018013f23e     PhysXFoundation_64:PhysXFoundation_64.dll
 0001:0013e2b7       __imp_load_?getAllocator@shdfnd@physx@@YAAEAVPxAllocatorCallback@2@XZ 000000018013f2b7 f   PhysXFoundation_64:PhysXFoundation_64.dll
 0001:0013e2c3       ?getAllocator@shdfnd@physx@@YAAEAVPxAllocatorCallback@2@XZ 000000018013f2c3 f   PhysXFoundation_64:PhysXFoundation_64.dll
 0001:0013e2c9       __imp_load_?getInstance@Foundation@shdfnd@physx@@SAAEAV123@XZ 000000018013f2c9 f   PhysXFoundation_64:PhysXFoundation_64.dll
 0001:0013e2d5       ?getInstance@Foundation@shdfnd@physx@@SAAEAV123@XZ 000000018013f2d5 f   PhysXFoundation_64:PhysXFoundation_64.dll
 0001:0013e2db       __imp_load_?error@Foundation@shdfnd@physx@@QEAAXW4Enum@PxErrorCode@3@PEBDH1ZZ 000000018013f2db f   PhysXFoundation_64:PhysXFoundation_64.dll
 0001:0013e2e7       ?error@Foundation@shdfnd@physx@@QEAAXW4Enum@PxErrorCode@3@PEBDH1ZZ 000000018013f2e7 f   PhysXFoundation_64:PhysXFoundation_64.dll
 0001:0013e2ed       __imp_load_?PxShortestRotation@physx@@YA?AVPxQuat@1@AEBVPxVec3@1@0@Z 000000018013f2ed f   PhysXFoundation_64:PhysXFoundation_64.dll
 0001:0013e2f9       ?PxShortestRotation@physx@@YA?AVPxQuat@1@AEBVPxVec3@1@0@Z 000000018013f2f9 f   PhysXFoundation_64:PhysXFoundation_64.dll
 0001:0013e2ff       __imp_load_?vsnprintf@shdfnd@physx@@YAHPEAD_KPEBD0@Z 000000018013f2ff f   PhysXFoundation_64:PhysXFoundation_64.dll
 0001:0013e30b       ?vsnprintf@shdfnd@physx@@YAHPEAD_KPEBD0@Z 000000018013f30b f   PhysXFoundation_64:PhysXFoundation_64.dll
 0001:0013e311       __imp_load_??0MutexImpl@shdfnd@physx@@QEAA@XZ 000000018013f311 f   PhysXFoundation_64:PhysXFoundation_64.dll
 0001:0013e31d       ??0MutexImpl@shdfnd@physx@@QEAA@XZ 000000018013f31d f   PhysXFoundation_64:PhysXFoundation_64.dll
 0001:0013e323       __imp_load_??1MutexImpl@shdfnd@physx@@QEAA@XZ 000000018013f323 f   PhysXFoundation_64:PhysXFoundation_64.dll
 0001:0013e32f       ??1MutexImpl@shdfnd@physx@@QEAA@XZ 000000018013f32f f   PhysXFoundation_64:PhysXFoundation_64.dll
 0001:0013e335       __imp_load_?lock@MutexImpl@shdfnd@physx@@QEAAXXZ 000000018013f335 f   PhysXFoundation_64:PhysXFoundation_64.dll
 0001:0013e341       ?lock@MutexImpl@shdfnd@physx@@QEAAXXZ 000000018013f341 f   PhysXFoundation_64:PhysXFoundation_64.dll
 0001:0013e347       __imp_load_?unlock@MutexImpl@shdfnd@physx@@QEAAXXZ 000000018013f347 f   PhysXFoundation_64:PhysXFoundation_64.dll
 0001:0013e353       ?unlock@MutexImpl@shdfnd@physx@@QEAAXXZ 000000018013f353 f   PhysXFoundation_64:PhysXFoundation_64.dll
 0001:0013e359       __imp_load_?getSize@MutexImpl@shdfnd@physx@@SAIXZ 000000018013f359 f   PhysXFoundation_64:PhysXFoundation_64.dll
 0001:0013e365       ?getSize@MutexImpl@shdfnd@physx@@SAIXZ 000000018013f365 f   PhysXFoundation_64:PhysXFoundation_64.dll
 0001:0013e36b       __imp_load_?atomicDecrement@shdfnd@physx@@YAHPECH@Z 000000018013f36b f   PhysXFoundation_64:PhysXFoundation_64.dll
 0001:0013e377       ?atomicDecrement@shdfnd@physx@@YAHPECH@Z 000000018013f377 f   PhysXFoundation_64:PhysXFoundation_64.dll
 0001:0013e37d       __imp_load_?optimizeBoundingBox@shdfnd@physx@@YA?AVPxVec3@2@AEAVPxMat33@2@@Z 000000018013f37d f   PhysXFoundation_64:PhysXFoundation_64.dll
 0001:0013e389       ?optimizeBoundingBox@shdfnd@physx@@YA?AVPxVec3@2@AEAVPxMat33@2@@Z 000000018013f389 f   PhysXFoundation_64:PhysXFoundation_64.dll
 0001:0013e38f       __imp_load_?allocate@TempAllocator@shdfnd@physx@@QEAAPEAX_KPEBDH@Z 000000018013f38f f   PhysXFoundation_64:PhysXFoundation_64.dll
 0001:0013e39b       ?allocate@TempAllocator@shdfnd@physx@@QEAAPEAX_KPEBDH@Z 000000018013f39b f   PhysXFoundation_64:PhysXFoundation_64.dll
 0001:0013e3a1       __imp_load_?deallocate@TempAllocator@shdfnd@physx@@QEAAXPEAX@Z 000000018013f3a1 f   PhysXFoundation_64:PhysXFoundation_64.dll
 0001:0013e3ad       ?deallocate@TempAllocator@shdfnd@physx@@QEAAXPEAX@Z 000000018013f3ad f   PhysXFoundation_64:PhysXFoundation_64.dll
 0001:0013e3b3       __imp_load_?atomicIncrement@shdfnd@physx@@YAHPECH@Z 000000018013f3b3 f   PhysXFoundation_64:PhysXFoundation_64.dll
 0001:0013e3bf       ?atomicIncrement@shdfnd@physx@@YAHPECH@Z 000000018013f3bf f   PhysXFoundation_64:PhysXFoundation_64.dll
 0001:0013e3c5       FreeLibrary                000000018013f3c5 f   kernel32:KERNEL32.dll
 0001:0013e3cb       GetProcAddress             000000018013f3cb f   kernel32:KERNEL32.dll
 0001:0013e3d1       LoadLibraryA               000000018013f3d1 f   kernel32:KERNEL32.dll
 0001:0013e3d8       ??$PFromRva@PEAP6A_JXZ@@YAPEAP6A_JXZK@Z 000000018013f3d8 f i Delayimp:delayhlp.obj
 0001:0013e3e8       ??$PFromRva@PEAPEAUHINSTANCE__@@@@YAPEAPEAUHINSTANCE__@@K@Z 000000018013f3e8 f i Delayimp:delayhlp.obj
 0001:0013e3f8       ??$PFromRva@PEAU_IMAGE_IMPORT_BY_NAME@@@@YAPEAU_IMAGE_IMPORT_BY_NAME@@K@Z 000000018013f3f8 f i Delayimp:delayhlp.obj
 0001:0013e408       ??$PFromRva@PEAU_IMAGE_THUNK_DATA64@@@@YAPEAU_IMAGE_THUNK_DATA64@@K@Z 000000018013f408 f i Delayimp:delayhlp.obj
 0001:0013e418       ??$PFromRva@PEBD@@YAPEBDK@Z 000000018013f418 f i Delayimp:delayhlp.obj
 0001:0013e428       ??$PFromRva@PEBUImgDelayDescr@@@@YAPEBUImgDelayDescr@@K@Z 000000018013f428 f i Delayimp:delayhlp.obj
 0001:0013e438       ??$PFromRva@PEBU_IMAGE_THUNK_DATA64@@@@YAPEBU_IMAGE_THUNK_DATA64@@K@Z 000000018013f438 f i Delayimp:delayhlp.obj
 0001:0013e448       ?CountOfImports@@YAIPEBU_IMAGE_THUNK_DATA64@@@Z 000000018013f448 f i Delayimp:delayhlp.obj
 0001:0013e45c       ?DloadAcquireSectionWriteAccess@@YAXXZ 000000018013f45c f i Delayimp:delayhlp.obj
 0001:0013e508       ?DloadGetSRWLockFunctionPointers@@YAEXZ 000000018013f508 f i Delayimp:delayhlp.obj
 0001:0013e5a8       ?DloadLock@@YAXXZ          000000018013f5a8 f i Delayimp:delayhlp.obj
 0001:0013e5f0       ?DloadMakePermanentImageCommit@@YAXPEAX_K@Z 000000018013f5f0 f i Delayimp:delayhlp.obj
 0001:0013e688       ?DloadObtainSection@@YAPEAXPEAK0@Z 000000018013f688 f i Delayimp:delayhlp.obj
 0001:0013e724       ?DloadProtectSection@@YAXKPEAK@Z 000000018013f724 f i Delayimp:delayhlp.obj
 0001:0013e7b4       ?DloadReleaseSectionWriteAccess@@YAXXZ 000000018013f7b4 f i Delayimp:delayhlp.obj
 0001:0013e848       ?DloadUnlock@@YAXXZ        000000018013f848 f i Delayimp:delayhlp.obj
 0001:0013e888       ?IndexFromPImgThunkData@@YAIPEBU_IMAGE_THUNK_DATA64@@0@Z 000000018013f888 f i Delayimp:delayhlp.obj
 0001:0013e9d0       HRESULT_FROM_WIN32         000000018013f9d0 f i Delayimp:delayhlp.obj
 0001:0013e9e0       ReadAcquire64              000000018013f9e0 f i Delayimp:delayhlp.obj
 0001:0013e9e4       ReadPointerAcquire         000000018013f9e4 f i Delayimp:delayhlp.obj
 0001:0013e9e8       WritePointerRelease        000000018013f9e8 f i Delayimp:delayhlp.obj
 0001:0013e9ec       WriteRelease64             000000018013f9ec f i Delayimp:delayhlp.obj
 0001:0013e9f0       __FUnloadDelayLoadedDLL2   000000018013f9f0 f   Delayimp:delayhlp.obj
 0001:0013eaac       __HrLoadAllImportsForDll   000000018013faac f   Delayimp:delayhlp.obj
 0001:0013eb20       __delayLoadHelper2         000000018013fb20 f   Delayimp:delayhlp.obj
 0001:0013edf8       ??3@YAXPEAX_K@Z            000000018013fdf8 f   LIBCMT:delete_scalar_size.obj
 0001:0013ee00       ??1type_info@@UEAA@XZ      000000018013fe00 f   LIBCMT:std_type_info_static.obj
 0001:0013ee0c       ??_Etype_info@@UEAAPEAXI@Z 000000018013fe0c f i LIBCMT:std_type_info_static.obj
 0001:0013ee0c       ??_Gtype_info@@UEAAPEAXI@Z 000000018013fe0c f i LIBCMT:std_type_info_static.obj
 0001:0013ee38       ?__scrt_initialize_type_info@@YAXXZ 000000018013fe38 f   LIBCMT:tncleanup.obj
 0001:0013ee48       ?__scrt_uninitialize_type_info@@YAXXZ 000000018013fe48 f   LIBCMT:tncleanup.obj
 0001:0013ee54       ??_V@YAXPEAX_K@Z           000000018013fe54 f   LIBCMT:delete_array_size.obj
 0001:0013ee70       __chkstk                   000000018013fe70 f   LIBCMT:chkstk.obj
 0001:0013ee70       _alloca_probe              000000018013fe70 f   LIBCMT:chkstk.obj
 0001:0013eec0       __vdecl_sinf4              000000018013fec0 f   LIBCMT:svml_ssinf4_dispatch.obj
 0001:0013eee0       __libm_sse2_sincosf_       000000018013fee0 f   LIBCMT:svml_ssinf4_dispatch.obj
 0001:0013ef23       __libm_sse2_sincosf4_      000000018013ff23 f   LIBCMT:svml_ssinf4_dispatch.obj
 0001:0013ef30       ??3@YAXPEAX@Z              000000018013ff30 f   LIBCMT:delete_scalar.obj
 0001:0013ef38       ??_V@YAXPEAX@Z             000000018013ff38 f   LIBCMT:delete_array.obj
 0001:0013f27c       _CRT_INIT                  000000018014027c f   LIBCMT:dll_dllmain.obj
 0001:0013f284       _DllMainCRTStartup         0000000180140284 f   LIBCMT:dll_dllmain.obj
 0001:0013f2c4       _guard_check_icall_nop     00000001801402c4 f i LIBCMT:guard_support.obj
 0001:0013f2c8       ReadNoFence64              00000001801402c8 f i LIBCMT:guard_support.obj
 0001:0013f2cc       ReadPointerNoFence         00000001801402cc f i LIBCMT:guard_support.obj
 0001:0013f2d0       __castguard_check_failure_debugbreak 00000001801402d0 f i LIBCMT:guard_support.obj
 0001:0013f2ec       __castguard_check_failure_fastfail 00000001801402ec f i LIBCMT:guard_support.obj
 0001:0013f310       __castguard_check_failure_nop 0000000180140310 f i LIBCMT:guard_support.obj
 0001:0013f314       __castguard_check_failure_os_handled 0000000180140314 f i LIBCMT:guard_support.obj
 0001:0013f390       __castguard_slow_path_check_debugbreak 0000000180140390 f i LIBCMT:guard_support.obj
 0001:0013f3c4       __castguard_slow_path_check_fastfail 00000001801403c4 f i LIBCMT:guard_support.obj
 0001:0013f400       __castguard_slow_path_check_nop 0000000180140400 f i LIBCMT:guard_support.obj
 0001:0013f404       __castguard_slow_path_check_os_handled 0000000180140404 f i LIBCMT:guard_support.obj
 0001:0013f474       _guard_icall_checks_enforced 0000000180140474 f i LIBCMT:guard_support.obj
 0001:0013f48c       _guard_rf_checks_enforced  000000018014048c f i LIBCMT:guard_support.obj
 0001:0013f490       __isa_available_init       0000000180140490 f   LIBCMT:cpu_disp.obj
 0001:0013f640       __sse2_sinf4@@16           0000000180140640 f   LIBCMT:svml_ssinf4_sse2.obj
 0001:0013ff80       __sse4_sinf4@@16           0000000180140f80 f   LIBCMT:svml_ssinf4_sse4.obj
 0001:00140760       __security_init_cookie     0000000180141760 f   LIBCMT:gs_support.obj
 0001:0014080c       DllMain                    000000018014180c f   LIBCMT:dll_dllmain_stub.obj
 0001:00140814       __local_stdio_printf_options 0000000180141814 f i LIBCMT:default_local_stdio_options.obj
 0001:0014081c       __local_stdio_scanf_options 000000018014181c f i LIBCMT:default_local_stdio_options.obj
 0001:00140824       __scrt_initialize_default_local_stdio_options 0000000180141824 f   LIBCMT:default_local_stdio_options.obj
 0001:00140840       ?configure_argv@__scrt_narrow_argv_policy@@SAHXZ 0000000180141840 f i LIBCMT:utility.obj
 0001:001408a0       ?initialize_environment@__scrt_narrow_environment_policy@@SAHXZ 00000001801418a0 f i LIBCMT:utility.obj
 0001:001408d8       NtCurrentTeb               00000001801418d8 f i LIBCMT:utility.obj
 0001:001408e4       __scrt_acquire_startup_lock 00000001801418e4 f   LIBCMT:utility.obj
 0001:00140920       __scrt_dllmain_after_initialize_c 0000000180141920 f   LIBCMT:utility.obj
 0001:00140954       __scrt_dllmain_before_initialize_c 0000000180141954 f   LIBCMT:utility.obj
 0001:0014096c       __scrt_dllmain_crt_thread_attach 000000018014196c f   LIBCMT:utility.obj
 0001:00140994       __scrt_dllmain_crt_thread_detach 0000000180141994 f   LIBCMT:utility.obj
 0001:001409ac       __scrt_dllmain_exception_filter 00000001801419ac f   LIBCMT:utility.obj
 0001:00140a0c       __scrt_dllmain_uninitialize_c 0000000180141a0c f   LIBCMT:utility.obj
 0001:00140a3c       __scrt_dllmain_uninitialize_critical 0000000180141a3c f   LIBCMT:utility.obj
 0001:00140a50       __scrt_initialize_crt      0000000180141a50 f   LIBCMT:utility.obj
 0001:00140a9c       __scrt_initialize_onexit_tables 0000000180141a9c f   LIBCMT:utility.obj
 0001:00140b28       __scrt_is_nonwritable_in_current_image 0000000180141b28 f   LIBCMT:utility.obj
 0001:00140bc0       __scrt_release_startup_lock 0000000180141bc0 f   LIBCMT:utility.obj
 0001:00140be4       __scrt_uninitialize_crt    0000000180141be4 f   LIBCMT:utility.obj
 0001:00140c10       _onexit                    0000000180141c10 f   LIBCMT:utility.obj
 0001:00140c4c       at_quick_exit              0000000180141c4c f   LIBCMT:utility.obj
 0001:00140c6c       atexit                     0000000180141c6c f   LIBCMT:utility.obj
 0001:00140c84       __scrt_get_dyn_tls_init_callback 0000000180141c84 f   LIBCMT:dyn_tls_init.obj
 0001:00140c8c       __crt_debugger_hook        0000000180141c8c f   LIBCMT:utility_desktop.obj
 0001:00140c94       __scrt_fastfail            0000000180141c94 f   LIBCMT:utility_desktop.obj
 0001:00140de0       __scrt_get_show_window_mode 0000000180141de0 f   LIBCMT:utility_desktop.obj
 0001:00140e1c       __scrt_initialize_mta      0000000180141e1c f   LIBCMT:utility_desktop.obj
 0001:00140e24       __scrt_initialize_winrt    0000000180141e24 f   LIBCMT:utility_desktop.obj
 0001:00140e28       __scrt_is_managed_app      0000000180141e28 f   LIBCMT:utility_desktop.obj
 0001:00140e7c       __scrt_set_unhandled_exception_filter 0000000180141e7c f   LIBCMT:utility_desktop.obj
 0001:00140e8c       __scrt_exe_initialize_mta  0000000180141e8c f   LIBCMT:utility_desktop.obj
 0001:00140e8c       __scrt_stub_for_initialize_mta 0000000180141e8c f   LIBCMT:utility_desktop.obj
 0001:00140e90       __scrt_unhandled_exception_filter 0000000180141e90 f   LIBCMT:utility_desktop.obj
 0001:00140eec       _RTC_Initialize            0000000180141eec f   LIBCMT:initsect.obj
 0001:00140f28       _RTC_Terminate             0000000180141f28 f   LIBCMT:initsect.obj
 0001:00140f70       __common_ssin_cout_rare    0000000180141f70 f   LIBCMT:svml_s_sin_cout.obj
 0001:00140fe0       _get_startup_argv_mode     0000000180141fe0 f   LIBCMT:argv_mode.obj
 0001:00140fe8       __scrt_is_ucrt_dll_in_use  0000000180141fe8 f   LIBCMT:ucrt_detection.obj
 0001:00140ff4       ??$__crt_interlocked_exchange_pointer@$$A6AXXZP6AXXZ@@YAP6AXXZPEDS6AXXZQ6AXXZ@Z 0000000180141ff4 f i libvcruntime:purevirt.obj
 0001:00140ffc       ??$__crt_interlocked_read_pointer@$$A6AXXZ@@YAP6AXXZPEDS6AXXZ@Z 0000000180141ffc f i libvcruntime:purevirt.obj
 0001:00141004       ?__crt_interlocked_read_64@@YA_JPED_J@Z 0000000180142004 f i libvcruntime:purevirt.obj
 0001:0014100c       _get_purecall_handler      000000018014200c f   libvcruntime:purevirt.obj
 0001:00141018       _purecall                  0000000180142018 f   libvcruntime:purevirt.obj
 0001:00141034       _set_purecall_handler      0000000180142034 f   libvcruntime:purevirt.obj
 0001:00141050       ??$?RD@__crt_internal_free_policy@@QEBAXQEBD@Z 0000000180142050 f i libvcruntime:std_type_info.obj
 0001:00141058       ??$?RX@__crt_internal_free_policy@@QEBAXQEBX@Z 0000000180142058 f i libvcruntime:std_type_info.obj
 0001:00141060       ??$__crt_interlocked_compare_exchange_pointer@$$CBDPEAD$$T@@YAPEBDPEDSEBDQEAD$$T@Z 0000000180142060 f i libvcruntime:std_type_info.obj
 0001:0014106c       ??$__crt_interlocked_read_pointer@$$CBD@@YAPEBDPEDSEBD@Z 000000018014206c f i libvcruntime:std_type_info.obj
 0001:00141074       ??0?$__crt_unique_heap_ptr@DU__crt_internal_free_policy@@@@QEAA@QEAD@Z 0000000180142074 f i libvcruntime:std_type_info.obj
 0001:0014107c       ??0?$__crt_unique_heap_ptr@XU__crt_internal_free_policy@@@@QEAA@QEAX@Z 000000018014207c f i libvcruntime:std_type_info.obj
 0001:00141084       ??1?$__crt_unique_heap_ptr@DU__crt_internal_free_policy@@@@QEAA@XZ 0000000180142084 f i libvcruntime:std_type_info.obj
 0001:001410a0       ??1?$__crt_unique_heap_ptr@XU__crt_internal_free_policy@@@@QEAA@XZ 00000001801420a0 f i libvcruntime:std_type_info.obj
 0001:001410bc       ??B?$__crt_unique_heap_ptr@DU__crt_internal_free_policy@@@@QEBA_NXZ 00000001801420bc f i libvcruntime:std_type_info.obj
 0001:001410c4       ??B?$__crt_unique_heap_ptr@XU__crt_internal_free_policy@@@@QEBA_NXZ 00000001801420c4 f i libvcruntime:std_type_info.obj
 0001:001410dc       ?detach@?$__crt_unique_heap_ptr@XU__crt_internal_free_policy@@@@QEAAPEAXXZ 00000001801420dc f i libvcruntime:std_type_info.obj
 0001:001410e4       ?get@?$__crt_unique_heap_ptr@DU__crt_internal_free_policy@@@@QEBAPEADXZ 00000001801420e4 f i libvcruntime:std_type_info.obj
 0001:001410e8       ?get@?$__crt_unique_heap_ptr@XU__crt_internal_free_policy@@@@QEBAPEAXXZ 00000001801420e8 f i libvcruntime:std_type_info.obj
 0001:001410ec       ?is_valid@?$__crt_unique_heap_ptr@DU__crt_internal_free_policy@@@@QEBA_NXZ 00000001801420ec f i libvcruntime:std_type_info.obj
 0001:001410f4       ?is_valid@?$__crt_unique_heap_ptr@XU__crt_internal_free_policy@@@@QEBA_NXZ 00000001801420f4 f i libvcruntime:std_type_info.obj
 0001:001410fc       ?release@?$__crt_unique_heap_ptr@DU__crt_internal_free_policy@@@@QEAAXXZ 00000001801420fc f i libvcruntime:std_type_info.obj
 0001:00141118       ?release@?$__crt_unique_heap_ptr@XU__crt_internal_free_policy@@@@QEAAXXZ 0000000180142118 f i libvcruntime:std_type_info.obj
 0001:00141134       __std_type_info_compare    0000000180142134 f   libvcruntime:std_type_info.obj
 0001:0014115c       __std_type_info_destroy_list 000000018014215c f   libvcruntime:std_type_info.obj
 0001:00141188       __std_type_info_hash       0000000180142188 f   libvcruntime:std_type_info.obj
 0001:001411c0       __std_type_info_name       00000001801421c0 f   libvcruntime:std_type_info.obj
 0001:001412f0       memcpy_repmovs             00000001801422f0 f   libvcruntime:memcpy.obj
 0001:00141310       memcpy                     0000000180142310 f   libvcruntime:memcpy.obj
 0001:00141310       memmove                    0000000180142310 f   libvcruntime:memcpy.obj
 0001:001419a0       memset_repstos             00000001801429a0 f   libvcruntime:memset.obj
 0001:001419c0       memset                     00000001801429c0 f   libvcruntime:memset.obj
 0001:00141d48       strstr                     0000000180142d48 f   libvcruntime:strstr.obj
 0001:00141f40       __C_specific_handler       0000000180142f40 f   libvcruntime:riscchandler.obj
 0001:00142138       __vcrt_initialize          0000000180143138 f   libvcruntime:initialization.obj
 0001:00142160       __vcrt_thread_attach       0000000180143160 f   libvcruntime:initialization.obj
 0001:00142174       __vcrt_thread_detach       0000000180143174 f   libvcruntime:initialization.obj
 0001:00142188       __vcrt_uninitialize        0000000180143188 f   libvcruntime:initialization.obj
 0001:001421a4       __vcrt_uninitialize_critical 00000001801431a4 f   libvcruntime:initialization.obj
 0001:001421b8       __DestructExceptionObject  00000001801431b8 f   libvcruntime:ehhelpers.obj
 0001:00142228       ?_CallMemberFunction0@@YAXQEAX0@Z 0000000180143228 f i libvcruntime:ehhelpers.obj
 0001:00142284       ?raw_name@type_info@@QEBAPEBDXZ 0000000180143284 f i libvcruntime:ehhelpers.obj
 0001:0014228c       _IsExceptionObjectToBeDestroyed 000000018014328c f   libvcruntime:ehhelpers.obj
 0001:001422bc       _SetWinRTOutOfMemoryExceptionCallback 00000001801432bc f   libvcruntime:ehhelpers.obj
 0001:001422c4       __AdjustPointer            00000001801432c4 f   libvcruntime:ehhelpers.obj
 0001:001422e8       __FrameUnwindFilter        00000001801432e8 f   libvcruntime:ehhelpers.obj
 0001:00142350       __GetPlatformExceptionInfo 0000000180143350 f   libvcruntime:ehhelpers.obj
 0001:001423ac       __current_exception        00000001801433ac f   libvcruntime:ehhelpers.obj
 0001:001423c0       __current_exception_context 00000001801433c0 f   libvcruntime:ehhelpers.obj
 0001:001423d4       __processing_throw         00000001801433d4 f   libvcruntime:ehhelpers.obj
 0001:001423e8       __std_terminate            00000001801433e8 f   libvcruntime:ehhelpers.obj
 0001:001423f4       _is_exception_typeof       00000001801433f4 f   libvcruntime:ehhelpers.obj
 0001:0014249c       ??$?0$00@DName@@QEAA@PEBDU?$StringLifeSelector@$00@@@Z 000000018014349c f i libvcruntime:undname.obj
 0001:001424dc       ??$?0$00@pcharNode@@QEAA@PEBDHU?$StringLifeSelector@$00@@@Z 00000001801434dc f i libvcruntime:undname.obj
 0001:001424f4       ??$?0$01@DName@@QEAA@PEBDU?$StringLifeSelector@$01@@@Z 00000001801434f4 f i libvcruntime:undname.obj
 0001:00142534       ??$?0$01@pcharNode@@QEAA@PEBDHU?$StringLifeSelector@$01@@@Z 0000000180143534 f i libvcruntime:undname.obj
 0001:001425a8       ??$?0$0A@@DName@@QEAA@PEBDU?$StringLifeSelector@$0A@@@@Z 00000001801435a8 f i libvcruntime:undname.obj
 0001:001425e8       ??$?0$0A@@pcharNode@@QEAA@PEBDHU?$StringLifeSelector@$0A@@@@Z 00000001801435e8 f i libvcruntime:undname.obj
 0001:0014265c       ??$?0_K$0A@@?$optional@_K@std@@QEAA@$$QEA_K@Z 000000018014365c f i libvcruntime:undname.obj
 0001:0014266c       ??$?0_K@?$_Optional_construct_base@_K@std@@QEAA@Uin_place_t@1@$$QEA_K@Z 000000018014366c f i libvcruntime:undname.obj
 0001:0014267c       ??$?0_K@?$_Optional_destruct_base@_K$00@std@@QEAA@Uin_place_t@1@$$QEA_K@Z 000000018014367c f i libvcruntime:undname.obj
 0001:0014268c       ??$append@VDNameNode@@@DName@@AEAAXPEBVDNameNode@@@Z 000000018014368c f i libvcruntime:undname.obj
 0001:001426f0       ??$append@VDNameStatusNode@@@DName@@AEAAXPEBVDNameStatusNode@@@Z 00000001801436f0 f i libvcruntime:undname.obj
 0001:00142754       ??$append@VcharNode@@@DName@@AEAAXPEBVcharNode@@@Z 0000000180143754 f i libvcruntime:undname.obj
 0001:001427b8       ??$append@VpDNameNode@@@DName@@AEAAXPEBVpDNameNode@@@Z 00000001801437b8 f i libvcruntime:undname.obj
 0001:0014281c       ??$append@VpcharNode@@@DName@@AEAAXPEBVpcharNode@@@Z 000000018014381c f i libvcruntime:undname.obj
 0001:00142880       ??$doPchar@$00@DName@@AEAAXPEBDH@Z 0000000180143880 f i libvcruntime:undname.obj
 0001:00142924       ??$doPchar@$01@DName@@AEAAXPEBDH@Z 0000000180143924 f i libvcruntime:undname.obj
 0001:001429bc       ??$doPchar@$0A@@DName@@AEAAXPEBDH@Z 00000001801439bc f i libvcruntime:undname.obj
 0001:00142a54       ??$forward@_K@std@@YA$$QEA_KAEA_K@Z 0000000180143a54 f i libvcruntime:undname.obj
 0001:00142b74       ??$size@D$04@std@@YA_KAEAY04$$CBD@Z 0000000180143b74 f i libvcruntime:undname.obj
 0001:00142b7c       ??0?$_Optional_construct_base@_K@std@@QEAA@XZ 0000000180143b7c f i libvcruntime:undname.obj
 0001:00142b84       ??0?$_Optional_destruct_base@_K$00@std@@QEAA@XZ 0000000180143b84 f i libvcruntime:undname.obj
 0001:00142b8c       ??0?$optional@_K@std@@QEAA@XZ 0000000180143b8c f i libvcruntime:undname.obj
 0001:00142b94       ??0Block@_HeapManager@@QEAA@XZ 0000000180143b94 f i libvcruntime:undname.obj
 0001:00142b9c       ??0DName@@QEAA@AEAPEBDD@Z  0000000180143b9c f   libvcruntime:undname.obj
 0001:00142c4c       ??0DName@@QEAA@AEBUStringLiteral@@@Z 0000000180143c4c f   libvcruntime:undname.obj
 0001:00142c78       ??0DName@@QEAA@AEBV0@@Z    0000000180143c78 f i libvcruntime:undname.obj
 0001:00142c88       ??0DName@@QEAA@D@Z         0000000180143c88 f   libvcruntime:undname.obj
 0001:00142ca8       ??0DName@@QEAA@PEAV0@@Z    0000000180143ca8 f   libvcruntime:undname.obj
 0001:00142d2c       ??0DName@@QEAA@W4DNameStatus@@@Z 0000000180143d2c f   libvcruntime:undname.obj
 0001:00142d5c       ??0DName@@QEAA@XZ          0000000180143d5c f i libvcruntime:undname.obj
 0001:00142d68       ??0DName@@QEAA@_J@Z        0000000180143d68 f   libvcruntime:undname.obj
 0001:00142e10       ??0DName@@QEAA@_K@Z        0000000180143e10 f   libvcruntime:undname.obj
 0001:00142e98       ??0DNameNode@@IEAA@XZ      0000000180143e98 f i libvcruntime:undname.obj
 0001:00142ea8       ??0Replicator@@QEAA@XZ     0000000180143ea8 f i libvcruntime:undname.obj
 0001:00142ebc       ??0UnDecorator@@QEAA@PEBDP6APEADJ@ZK@Z 0000000180143ebc f i libvcruntime:undname.obj
 0001:00142f0c       ??0_Nontrivial_dummy_type@std@@QEAA@XZ 0000000180143f0c f i libvcruntime:undname.obj
 0001:00142f10       ??0charNode@@QEAA@D@Z      0000000180143f10 f i libvcruntime:undname.obj
 0001:00142f24       ??0pDNameNode@@QEAA@PEAVDName@@@Z 0000000180143f24 f   libvcruntime:undname.obj
 0001:00142f4c       ??0pairNode@@QEAA@PEBVDNameNode@@0@Z 0000000180143f4c f i libvcruntime:undname.obj
 0001:00142f70       ??2@YAPEAX_KAEAV_HeapManager@@H@Z 0000000180143f70 f   libvcruntime:undname.obj
 0001:00142f9c       ??4DName@@QEAAAEAV0@AEBUStringLiteral@@@Z 0000000180143f9c f   libvcruntime:undname.obj
 0001:00142fc4       ??4DName@@QEAAAEAV0@AEBV0@@Z 0000000180143fc4 f   libvcruntime:undname.obj
 0001:00142fd4       ??4DName@@QEAAAEAV0@D@Z    0000000180143fd4 f i libvcruntime:undname.obj
 0001:00142ff4       ??4DName@@QEAAAEAV0@PEAV0@@Z 0000000180143ff4 f   libvcruntime:undname.obj
 0001:0014306c       ??4DName@@QEAAAEAV0@W4DNameStatus@@@Z 000000018014406c f   libvcruntime:undname.obj
 0001:0014309c       ??AReplicator@@QEBA?AVDName@@H@Z 000000018014409c f   libvcruntime:undname.obj
 0001:001430dc       ??B?$optional@_K@std@@QEBA_NXZ 00000001801440dc f i libvcruntime:undname.obj
 0001:001430e0       ??D?$_Optional_construct_base@_K@std@@QEGAAAEA_KXZ 00000001801440e0 f i libvcruntime:undname.obj
 0001:001430e4       ??H@YA?AVDName@@AEBUStringLiteral@@AEBV0@@Z 00000001801440e4 f i libvcruntime:undname.obj
 0001:0014311c       ??H@YA?AVDName@@DAEBV0@@Z  000000018014411c f i libvcruntime:undname.obj
 0001:00143160       ??H@YA?AVDName@@W4DNameStatus@@AEBV0@@Z 0000000180144160 f i libvcruntime:undname.obj
 0001:001431ac       ??HDName@@QEBA?AV0@AEBUStringLiteral@@@Z 00000001801441ac f   libvcruntime:undname.obj
 0001:001431d8       ??HDName@@QEBA?AV0@AEBV0@@Z 00000001801441d8 f   libvcruntime:undname.obj
 0001:00143204       ??HDName@@QEBA?AV0@D@Z     0000000180144204 f   libvcruntime:undname.obj
 0001:00143230       ??HDName@@QEBA?AV0@PEAV0@@Z 0000000180144230 f   libvcruntime:undname.obj
 0001:0014325c       ??HDName@@QEBA?AV0@W4DNameStatus@@@Z 000000018014425c f   libvcruntime:undname.obj
 0001:00143288       ??HStringLiteral@@QEBA?AU0@H@Z 0000000180144288 f i libvcruntime:undname.obj
 0001:001432a0       ??YDName@@QEAAAEAV0@AEBUStringLiteral@@@Z 00000001801442a0 f   libvcruntime:undname.obj
 0001:00143320       ??YDName@@QEAAAEAV0@AEBV0@@Z 0000000180144320 f   libvcruntime:undname.obj
 0001:00143378       ??YDName@@QEAAAEAV0@D@Z    0000000180144378 f   libvcruntime:undname.obj
 0001:001433e4       ??YDName@@QEAAAEAV0@PEAV0@@Z 00000001801443e4 f   libvcruntime:undname.obj
 0001:00143478       ??YDName@@QEAAAEAV0@W4DNameStatus@@@Z 0000000180144478 f   libvcruntime:undname.obj
 0001:001434d0       ??YReplicator@@QEAAAEAV0@AEBVDName@@@Z 00000001801444d0 f   libvcruntime:undname.obj
 0001:00143528       ??_5DName@@QEAAAEAV0@AEBV0@@Z 0000000180144528 f   libvcruntime:undname.obj
 0001:00143540       ??__K_l@@YA?AUStringLiteral@@PEBD_K@Z 0000000180144540 f i libvcruntime:undname.obj
 0001:0014354c       ?Constructor@_HeapManager@@QEAAXP6APEAX_K@ZP6AXPEAX@Z@Z 000000018014454c f i libvcruntime:undname.obj
 0001:00143564       ?Destructor@_HeapManager@@QEAAXXZ 0000000180144564 f i libvcruntime:undname.obj
 0001:001435b0       ?UScore@UnDecorator@@SA?AUStringLiteral@@W4Tokens@@@Z 00000001801445b0 f   libvcruntime:undname.obj
 0001:001435fc       ?composeDeclaration@UnDecorator@@CA?AVDName@@AEBV2@@Z 00000001801445fc f i libvcruntime:undname.obj
 0001:001444f0       ?doAccessSpecifiers@UnDecorator@@SAHXZ 00000001801454f0 f i libvcruntime:undname.obj
 0001:00144500       ?doAllocationLanguage@UnDecorator@@SAHXZ 0000000180145500 f i libvcruntime:undname.obj
 0001:00144510       ?doAllocationModel@UnDecorator@@SAHXZ 0000000180145510 f i libvcruntime:undname.obj
 0001:00144520       ?doEcsu@UnDecorator@@SAHXZ 0000000180145520 f i libvcruntime:undname.obj
 0001:00144530       ?doEllipsis@UnDecorator@@SAHXZ 0000000180145530 f i libvcruntime:undname.obj
 0001:00144540       ?doFunctionReturns@UnDecorator@@SAHXZ 0000000180145540 f i libvcruntime:undname.obj
 0001:00144550       ?doMSKeywords@UnDecorator@@SAHXZ 0000000180145550 f i libvcruntime:undname.obj
 0001:00144560       ?doMemberTypes@UnDecorator@@SAHXZ 0000000180145560 f i libvcruntime:undname.obj
 0001:00144570       ?doNameOnly@UnDecorator@@SAHXZ 0000000180145570 f i libvcruntime:undname.obj
 0001:0014457c       ?doNoIdentCharCheck@UnDecorator@@SAHXZ 000000018014557c f i libvcruntime:undname.obj
 0001:00144588       ?doPchar@DName@@AEAAXD@Z   0000000180145588 f   libvcruntime:undname.obj
 0001:001445d8       ?doPtr64@UnDecorator@@SAHXZ 00000001801455d8 f i libvcruntime:undname.obj
 0001:001445e8       ?doRestrictionSpec@UnDecorator@@SAHXZ 00000001801455e8 f i libvcruntime:undname.obj
 0001:001445f8       ?doThisTypes@UnDecorator@@SAHXZ 00000001801455f8 f i libvcruntime:undname.obj
 0001:0014460c       ?doThrowTypes@UnDecorator@@SAHXZ 000000018014560c f i libvcruntime:undname.obj
 0001:0014461c       ?doTypeOnly@UnDecorator@@SAHXZ 000000018014561c f i libvcruntime:undname.obj
 0001:00144628       ?doUnderScore@UnDecorator@@SAHXZ 0000000180145628 f i libvcruntime:undname.obj
 0001:00144634       ?getAddressOf@UnDecorator@@CA?AVDName@@XZ 0000000180145634 f   libvcruntime:undname.obj
 0001:001446c4       ?getArgumentList@UnDecorator@@CA?AVDName@@XZ 00000001801456c4 f   libvcruntime:undname.obj
 0001:00144878       ?getArgumentTypes@UnDecorator@@CA?AVDName@@XZ 0000000180145878 f   libvcruntime:undname.obj
 0001:001449c4       ?getArrayAccess@UnDecorator@@CA?AVDName@@XZ 00000001801459c4 f   libvcruntime:undname.obj
 0001:00144a60       ?getArrayObject@UnDecorator@@CA?AVDName@@XZ 0000000180145a60 f   libvcruntime:undname.obj
 0001:00144b1c       ?getArrayType@UnDecorator@@CA?AVDName@@AEBV2@@Z 0000000180145b1c f i libvcruntime:undname.obj
 0001:00144d64       ?getBasedType@UnDecorator@@CA?AVDName@@XZ 0000000180145d64 f   libvcruntime:undname.obj
 0001:00144e5c       ?getBasicDataType@UnDecorator@@CA?AVDName@@AEBV2@@Z 0000000180145e5c f   libvcruntime:undname.obj
 0001:00145460       ?getCHPEName@UnDecorator@@QEAAPEADPEADH@Z 0000000180146460 f i libvcruntime:undname.obj
 0001:00145580       ?getCallIndex@UnDecorator@@CA?AVDName@@XZ 0000000180146580 f i libvcruntime:undname.obj
 0001:0014559c       ?getCallingConvention@UnDecorator@@CA?AVDName@@XZ 000000018014659c f   libvcruntime:undname.obj
 0001:001456d4       ?getDataIndirectType@UnDecorator@@CA?AVDName@@AEBV2@W4IndirectionKind@@0H@Z 00000001801466d4 f   libvcruntime:undname.obj
 0001:00145ff8       ?getDataIndirectType@UnDecorator@@CA?AVDName@@XZ 0000000180146ff8 f i libvcruntime:undname.obj
 0001:00146034       ?getDataType@UnDecorator@@CA?AVDName@@PEAV2@@Z 0000000180147034 f   libvcruntime:undname.obj
 0001:00146148       ?getDecoratedName@UnDecorator@@CA?AVDName@@XZ 0000000180147148 f   libvcruntime:undname.obj
 0001:00146430       ?getDimension@UnDecorator@@CA?AVDName@@_N@Z 0000000180147430 f   libvcruntime:undname.obj
 0001:00146578       ?getDispatchTarget@UnDecorator@@CA?AVDName@@XZ 0000000180147578 f   libvcruntime:undname.obj
 0001:001465d8       ?getDisplacement@UnDecorator@@CA?AVDName@@XZ 00000001801475d8 f i libvcruntime:undname.obj
 0001:001465f4       ?getECSUDataType@UnDecorator@@CA?AVDName@@XZ 00000001801475f4 f   libvcruntime:undname.obj
 0001:001467f0       ?getECSUName@UnDecorator@@CA?AVDName@@XZ 00000001801477f0 f i libvcruntime:undname.obj
 0001:00146808       ?getEnumType@UnDecorator@@CA?AVDName@@XZ 0000000180147808 f i libvcruntime:undname.obj
 0001:00146938       ?getExtendedDataIndirectType@UnDecorator@@CA?AVDName@@AEAW4IndirectionKind@@AEA_NH@Z 0000000180147938 f   libvcruntime:undname.obj
 0001:00146b3c       ?getExternalDataType@UnDecorator@@CA?AVDName@@AEBV2@@Z 0000000180147b3c f i libvcruntime:undname.obj
 0001:00146bfc       ?getFloatingPoint@UnDecorator@@CA?AVDName@@H@Z 0000000180147bfc f   libvcruntime:undname.obj
 0001:00146d64       ?getFunctionIndirectType@UnDecorator@@CA?AVDName@@AEBV2@@Z 0000000180147d64 f   libvcruntime:undname.obj
 0001:00147298       ?getGuardNumber@UnDecorator@@CA?AVDName@@XZ 0000000180148298 f i libvcruntime:undname.obj
 0001:001472b4       ?getLastChar@DName@@QEBADXZ 00000001801482b4 f i libvcruntime:undname.obj
 0001:001472d0       ?getLastChar@DNameStatusNode@@UEBADXZ 00000001801482d0 f i libvcruntime:undname.obj
 0001:001472dc       ?getLastChar@charNode@@UEBADXZ 00000001801482dc f i libvcruntime:undname.obj
 0001:001472e0       ?getLastChar@pDNameNode@@UEBADXZ 00000001801482e0 f i libvcruntime:undname.obj
 0001:0014730c       ?getLastChar@pairNode@@UEBADXZ 000000018014830c f i libvcruntime:undname.obj
 0001:00147344       ?getLastChar@pcharNode@@UEBADXZ 0000000180148344 f i libvcruntime:undname.obj
 0001:00147358       ?getLexicalFrame@UnDecorator@@CA?AVDName@@XZ 0000000180148358 f i libvcruntime:undname.obj
 0001:001473bc       ?getMemberAccess@UnDecorator@@CA?AVDName@@XZ 00000001801483bc f   libvcruntime:undname.obj
 0001:00147450       ?getMemoryWithBuffer@_HeapManager@@QEAAPEAX_K@Z 0000000180148450 f   libvcruntime:undname.obj
 0001:001474e0       ?getMemoryWithoutBuffer@_HeapManager@@QEAAPEAX_K@Z 00000001801484e0 f   libvcruntime:undname.obj
 0001:001474f4       ?getNoexcept@UnDecorator@@CA?AVDName@@XZ 00000001801484f4 f   libvcruntime:undname.obj
 0001:00147558       ?getNumberOfDimensions@UnDecorator@@CAHXZ 0000000180148558 f   libvcruntime:undname.obj
 0001:001475c0       ?getOperatorName@UnDecorator@@CA?AVDName@@_NPEA_N@Z 00000001801485c0 f i libvcruntime:undname.obj
 0001:00147f70       ?getPointerToMember@UnDecorator@@CA?AVDName@@XZ 0000000180148f70 f   libvcruntime:undname.obj
 0001:00148068       ?getPointerType@UnDecorator@@CA?AVDName@@AEBV2@0@Z 0000000180149068 f i libvcruntime:undname.obj
 0001:00148088       ?getPointerTypeArray@UnDecorator@@CA?AVDName@@AEBV2@0@Z 0000000180149088 f i libvcruntime:undname.obj
 0001:001480a4       ?getPrimaryDataType@UnDecorator@@CA?AVDName@@AEBV2@@Z 00000001801490a4 f   libvcruntime:undname.obj
 0001:0014835c       ?getPtrRefDataType@UnDecorator@@CA?AVDName@@AEBV2@H@Z 000000018014935c f   libvcruntime:undname.obj
 0001:00148528       ?getPtrRefType@UnDecorator@@CA?AVDName@@AEBV2@0W4IndirectionKind@@@Z 0000000180149528 f   libvcruntime:undname.obj
 0001:00148700       ?getReferenceType@UnDecorator@@CA?AVDName@@AEBV2@0W4IndirectionKind@@@Z 0000000180149700 f i libvcruntime:undname.obj
 0001:00148718       ?getRestrictionSpec@UnDecorator@@CA?AVDName@@XZ 0000000180149718 f   libvcruntime:undname.obj
 0001:001488f4       ?getReturnType@UnDecorator@@CA?AVDName@@PEAV2@@Z 00000001801498f4 f   libvcruntime:undname.obj
 0001:00148928       ?getScope@UnDecorator@@CA?AVDName@@XZ 0000000180149928 f   libvcruntime:undname.obj
 0001:00148de4       ?getScopedName@UnDecorator@@CA?AVDName@@XZ 0000000180149de4 f   libvcruntime:undname.obj
 0001:00148f24       ?getSignedDimension@UnDecorator@@CA?AVDName@@XZ 0000000180149f24 f   libvcruntime:undname.obj
 0001:00148fac       ?getStorageConvention@UnDecorator@@CA?AVDName@@XZ 0000000180149fac f i libvcruntime:undname.obj
 0001:00148fe8       ?getString@DName@@QEBAPEADPEAD0@Z 0000000180149fe8 f i libvcruntime:undname.obj
 0001:00149004       ?getString@DName@@QEBAPEADPEADH@Z 000000018014a004 f i libvcruntime:undname.obj
 0001:00149098       ?getString@DNameStatusNode@@UEBAPEADPEAD0@Z 000000018014a098 f i libvcruntime:undname.obj
 0001:001490e0       ?getString@charNode@@UEBAPEADPEAD0@Z 000000018014a0e0 f i libvcruntime:undname.obj
 0001:001490f4       ?getString@pDNameNode@@UEBAPEADPEAD0@Z 000000018014a0f4 f i libvcruntime:undname.obj
 0001:00149124       ?getString@pairNode@@UEBAPEADPEAD0@Z 000000018014a124 f i libvcruntime:undname.obj
 0001:00149170       ?getString@pcharNode@@UEBAPEADPEAD0@Z 000000018014a170 f i libvcruntime:undname.obj
 0001:001491a8       ?getStringEncoding@UnDecorator@@CA?AVDName@@W4PrefixKind@@H@Z 000000018014a1a8 f   libvcruntime:undname.obj
 0001:001492b8       ?getStringHelper@@YAPEADPEADPEBD1H@Z 000000018014a2b8 f i libvcruntime:undname.obj
 0001:001492e8       ?getStringObject@UnDecorator@@CA?AVDName@@XZ 000000018014a2e8 f   libvcruntime:undname.obj
 0001:00149350       ?getSymbolName@UnDecorator@@CA?AVDName@@XZ 000000018014a350 f i libvcruntime:undname.obj
 0001:0014939c       ?getTemplateArgumentList@UnDecorator@@CA?AVDName@@XZ 000000018014a39c f   libvcruntime:undname.obj
 0001:001495b8       ?getTemplateName@UnDecorator@@CA?AVDName@@_N@Z 000000018014a5b8 f   libvcruntime:undname.obj
 0001:0014984c       ?getTemplateNonTypeArgument@UnDecorator@@CA?AVDName@@XZ 000000018014a84c f   libvcruntime:undname.obj
 0001:00149d9c       ?getTemplateTypeArgument@UnDecorator@@CA?AVDName@@XZ 000000018014ad9c f   libvcruntime:undname.obj
 0001:00149f04       ?getThisType@UnDecorator@@CA?AVDName@@XZ 000000018014af04 f i libvcruntime:undname.obj
 0001:00149f44       ?getThrowTypes@UnDecorator@@CA?AVDName@@XZ 000000018014af44 f   libvcruntime:undname.obj
 0001:00149f68       ?getTypeEncoding@UnDecorator@@CAHXZ 000000018014af68 f i libvcruntime:undname.obj
 0001:0014a324       ?getUndecoratedName@UnDecorator@@QEAAPEADPEADH@Z 000000018014b324 f i libvcruntime:undname.obj
 0001:0014a478       ?getUnionObject@UnDecorator@@CA?AVDName@@XZ 000000018014b478 f   libvcruntime:undname.obj
 0001:0014a550       ?getVCallThunkType@UnDecorator@@CA?AVDName@@XZ 000000018014b550 f i libvcruntime:undname.obj
 0001:0014a5c8       ?getValue@UnDecorator@@CA?AV?$optional@_K@std@@XZ 000000018014b5c8 f   libvcruntime:undname.obj
 0001:0014a63c       ?getValueObject@UnDecorator@@CA?AVDName@@XZ 000000018014b63c f   libvcruntime:undname.obj
 0001:0014a77c       ?getVbTableType@UnDecorator@@CA?AVDName@@AEBV2@@Z 000000018014b77c f i libvcruntime:undname.obj
 0001:0014a794       ?getVdispMapType@UnDecorator@@CA?AVDName@@AEBV2@@Z 000000018014b794 f i libvcruntime:undname.obj
 0001:0014a810       ?getVfTableType@UnDecorator@@CA?AVDName@@AEBV2@@Z 000000018014b810 f i libvcruntime:undname.obj
 0001:0014aa1c       ?getZName@UnDecorator@@CA?AVDName@@_N0@Z 000000018014ba1c f   libvcruntime:undname.obj
 0001:0014acf0       ?get_current_character_and_increment_buffer@UnDecorator@@CADXZ 000000018014bcf0 f i libvcruntime:undname.obj
 0001:0014ad08       ?haveTemplateParameters@UnDecorator@@SAHXZ 000000018014bd08 f i libvcruntime:undname.obj
 0001:0014ad14       ?increment_buffer@UnDecorator@@CA_N_K@Z 000000018014bd14 f i libvcruntime:undname.obj
 0001:0014ad40       ?increment_buffer_no_check@UnDecorator@@CAXXZ 000000018014bd40 f i libvcruntime:undname.obj
 0001:0014ad48       ?increment_buffer_no_check@UnDecorator@@CAX_K@Z 000000018014bd48 f i libvcruntime:undname.obj
 0001:0014ad50       ?isArray@DName@@QEBAHXZ    000000018014bd50 f i libvcruntime:undname.obj
 0001:0014ad5c       ?isComArray@DName@@QEBAHXZ 000000018014bd5c f i libvcruntime:undname.obj
 0001:0014ad68       ?isEmpty@DName@@QEBAHXZ    000000018014bd68 f i libvcruntime:undname.obj
 0001:0014ad74       ?isFull@Replicator@@QEBAHXZ 000000018014bd74 f i libvcruntime:undname.obj
 0001:0014ad80       ?isNoTE@DName@@QEBAHXZ     000000018014bd80 f i libvcruntime:undname.obj
 0001:0014ad8c       ?isPinPtr@DName@@QEBAHXZ   000000018014bd8c f i libvcruntime:undname.obj
 0001:0014ad98       ?isPtrRef@DName@@QEBAHXZ   000000018014bd98 f i libvcruntime:undname.obj
 0001:0014ada4       ?isUDC@DName@@QEBAHXZ      000000018014bda4 f i libvcruntime:undname.obj
 0001:0014adbc       ?isUDTThunk@DName@@QEBAHXZ 000000018014bdbc f i libvcruntime:undname.obj
 0001:0014add4       ?isVCallThunk@DName@@QEBAHXZ 000000018014bdd4 f i libvcruntime:undname.obj
 0001:0014ade0       ?isValid@DName@@QEBAHXZ    000000018014bde0 f i libvcruntime:undname.obj
 0001:0014adec       ?length@DName@@QEBAHXZ     000000018014bdec f i libvcruntime:undname.obj
 0001:0014ae04       ?length@DNameStatusNode@@UEBAHXZ 000000018014be04 f i libvcruntime:undname.obj
 0001:0014ae08       ?length@charNode@@UEBAHXZ  000000018014be08 f i libvcruntime:undname.obj
 0001:0014ae10       ?length@pDNameNode@@UEBAHXZ 000000018014be10 f i libvcruntime:undname.obj
 0001:0014ae38       ?length@pairNode@@UEBAHXZ  000000018014be38 f i libvcruntime:undname.obj
 0001:0014ae80       ?length@pcharNode@@UEBAHXZ 000000018014be80 f i libvcruntime:undname.obj
 0001:0014ae84       ?make@DNameStatusNode@@SAPEBV1@W4DNameStatus@@@Z 000000018014be84 f i libvcruntime:undname.obj
 0001:0014aea4       ?parseDecoratedName@UnDecorator@@CA?AVDName@@XZ 000000018014bea4 f   libvcruntime:undname.obj
 0001:0014afbc       ?raw_length@DNameStatusNode@@UEBAHXZ 000000018014bfbc f i libvcruntime:undname.obj
 0001:0014afc0       ?raw_length@charNode@@UEBAHXZ 000000018014bfc0 f i libvcruntime:undname.obj
 0001:0014afc8       ?raw_length@pDNameNode@@UEBAHXZ 000000018014bfc8 f i libvcruntime:undname.obj
 0001:0014afcc       ?raw_length@pairNode@@UEBAHXZ 000000018014bfcc f i libvcruntime:undname.obj
 0001:0014afd0       ?raw_length@pcharNode@@UEBAHXZ 000000018014bfd0 f i libvcruntime:undname.obj
 0001:0014afd4       ?setIsArray@DName@@QEAAXXZ 000000018014bfd4 f i libvcruntime:undname.obj
 0001:0014afdc       ?setIsComArray@DName@@QEAAXXZ 000000018014bfdc f i libvcruntime:undname.obj
 0001:0014afe4       ?setIsNoTE@DName@@QEAAXXZ  000000018014bfe4 f i libvcruntime:undname.obj
 0001:0014afec       ?setIsPinPtr@DName@@QEAAXXZ 000000018014bfec f i libvcruntime:undname.obj
 0001:0014aff4       ?setIsUDC@DName@@QEAAXXZ   000000018014bff4 f i libvcruntime:undname.obj
 0001:0014b000       ?setIsVCallThunk@DName@@QEAAXXZ 000000018014c000 f i libvcruntime:undname.obj
 0001:0014b008       ?setPtrRef@DName@@QEAAAEAV1@XZ 000000018014c008 f i libvcruntime:undname.obj
 0001:0014b014       ?status@DName@@QEBA?AW4DNameStatus@@XZ 000000018014c014 f i libvcruntime:undname.obj
 0001:0014b078       __unDName                  000000018014c078 f   libvcruntime:undname.obj
 0001:0014b0a0       __unDNameEx                000000018014c0a0 f   libvcruntime:undname.obj
 0001:0014b1d4       _vsprintf_s_l              000000018014c1d4 f i libvcruntime:undname.obj
 0001:0014b238       snprintf                   000000018014c238 f i libvcruntime:undname.obj
 0001:0014b290       sprintf_s                  000000018014c290 f i libvcruntime:undname.obj
 0001:0014b2e4       unDNameGenerateCHPE        000000018014c2e4 f   libvcruntime:undname.obj
 0001:0014b3ec       vsnprintf                  000000018014c3ec f i libvcruntime:undname.obj
 0001:0014b460       _NLG_Notify                000000018014c460 f   libvcruntime:notify.obj
 0001:0014b480       __NLG_Dispatch2            000000018014c480 f   libvcruntime:notify.obj
 0001:0014b490       __NLG_Return2              000000018014c490 f   libvcruntime:notify.obj
 0001:0014b49c       __except_validate_context_record 000000018014c49c f   libvcruntime:jbcxrval.obj
 0001:0014b4d4       __except_validate_jump_buffer 000000018014c4d4 f   libvcruntime:jbcxrval.obj
 0001:0014b514       __except_validate_jump_buffer_common 000000018014c514 f i libvcruntime:jbcxrval.obj
 0001:0014b570       ??$?RU__vcrt_ptd@@@__crt_internal_free_policy@@QEBAXQEBU__vcrt_ptd@@@Z 000000018014c570 f i libvcruntime:per_thread_data.obj
 0001:0014b578       ??0?$__crt_unique_heap_ptr@U__vcrt_ptd@@U__crt_internal_free_policy@@@@QEAA@QEAU__vcrt_ptd@@@Z 000000018014c578 f i libvcruntime:per_thread_data.obj
 0001:0014b59c       ??1?$__crt_unique_heap_ptr@U__vcrt_ptd@@U__crt_internal_free_policy@@@@QEAA@XZ 000000018014c59c f i libvcruntime:per_thread_data.obj
 0001:0014b5c4       ??B?$__crt_unique_heap_ptr@U__vcrt_ptd@@U__crt_internal_free_policy@@@@QEBA_NXZ 000000018014c5c4 f i libvcruntime:per_thread_data.obj
 0001:0014b5cc       ?detach@?$__crt_unique_heap_ptr@U__vcrt_ptd@@U__crt_internal_free_policy@@@@QEAAPEAU__vcrt_ptd@@XZ 000000018014c5cc f i libvcruntime:per_thread_data.obj
 0001:0014b5d4       ?get@?$__crt_unique_heap_ptr@U__vcrt_ptd@@U__crt_internal_free_policy@@@@QEBAPEAU__vcrt_ptd@@XZ 000000018014c5d4 f i libvcruntime:per_thread_data.obj
 0001:0014b5d8       ?is_valid@?$__crt_unique_heap_ptr@U__vcrt_ptd@@U__crt_internal_free_policy@@@@QEBA_NXZ 000000018014c5d8 f i libvcruntime:per_thread_data.obj
 0001:0014b5e0       ?release@?$__crt_unique_heap_ptr@U__vcrt_ptd@@U__crt_internal_free_policy@@@@QEAAXXZ 000000018014c5e0 f i libvcruntime:per_thread_data.obj
 0001:0014b628       __vcrt_freefls             000000018014c628 f   libvcruntime:per_thread_data.obj
 0001:0014b648       __vcrt_freeptd             000000018014c648 f   libvcruntime:per_thread_data.obj
 0001:0014b698       __vcrt_getptd              000000018014c698 f   libvcruntime:per_thread_data.obj
 0001:0014b6b4       __vcrt_getptd_noexit       000000018014c6b4 f   libvcruntime:per_thread_data.obj
 0001:0014b774       __vcrt_getptd_noinit       000000018014c774 f   libvcruntime:per_thread_data.obj
 0001:0014b7c4       __vcrt_initialize_ptd      000000018014c7c4 f   libvcruntime:per_thread_data.obj
 0001:0014b80c       __vcrt_uninitialize_ptd    000000018014c80c f   libvcruntime:per_thread_data.obj
 0001:0014b830       __vcrt_initialize_locks    000000018014c830 f   libvcruntime:locks.obj
 0001:0014b878       __vcrt_lock                000000018014c878 f   libvcruntime:locks.obj
 0001:0014b894       __vcrt_uninitialize_locks  000000018014c894 f   libvcruntime:locks.obj
 0001:0014b8cc       __vcrt_unlock              000000018014c8cc f   libvcruntime:locks.obj
 0001:0014b8e8       ??$?0AEAViterator@TryBlockMap4@FH4@@AEAV012@$0A@@?$pair@Viterator@TryBlockMap4@FH4@@V123@@std@@QEAA@AEAViterator@TryBlockMap4@FH4@@0@Z 000000018014c8e8 f i libvcruntime:risctrnsctrl.obj
 0001:0014b8fc       ??$?0AEAViterator@TryBlockMap@__FrameHandler3@@AEAV012@$0A@@?$pair@Viterator@TryBlockMap@__FrameHandler3@@V123@@std@@QEAA@AEAViterator@TryBlockMap@__FrameHandler3@@0@Z 000000018014c8fc f i libvcruntime:risctrnsctrl.obj
 0001:0014ba80       ??$_CallSETranslator@V__FrameHandler3@@@@YAHPEAUEHExceptionRecord@@PEA_KPEAU_CONTEXT@@PEAU_xDISPATCHER_CONTEXT@@PEBU_s_FuncInfo@@K1H@Z 000000018014ca80 f i libvcruntime:risctrnsctrl.obj
 0001:0014bad4       ??$_CallSETranslator@V__FrameHandler4@@@@YAHPEAUEHExceptionRecord@@PEA_KPEAU_CONTEXT@@PEAU_xDISPATCHER_CONTEXT@@PEAUFuncInfo4@FH4@@K1H@Z 000000018014cad4 f i libvcruntime:risctrnsctrl.obj
 0001:0014bb28       ??$forward@AEAViterator@TryBlockMap4@FH4@@@std@@YAAEAViterator@TryBlockMap4@FH4@@AEAV123@@Z 000000018014cb28 f i libvcruntime:risctrnsctrl.obj
 0001:0014bb2c       ??$forward@AEAViterator@TryBlockMap@__FrameHandler3@@@std@@YAAEAViterator@TryBlockMap@__FrameHandler3@@AEAV123@@Z 000000018014cb2c f i libvcruntime:risctrnsctrl.obj
 0001:0014bb30       ??0FuncInfo4@FH4@@QEAA@XZ  000000018014cb30 f i libvcruntime:risctrnsctrl.obj
 0001:0014bb44       ??0FuncInfoHeader@FH4@@QEAA@XZ 000000018014cb44 f i libvcruntime:risctrnsctrl.obj
 0001:0014bb4c       ??0iterator@TryBlockMap4@FH4@@QEAA@AEAV12@I@Z 000000018014cb4c f i libvcruntime:risctrnsctrl.obj
 0001:0014bb58       ??0iterator@TryBlockMap@__FrameHandler3@@QEAA@AEAV12@I@Z 000000018014cb58 f i libvcruntime:risctrnsctrl.obj
 0001:0014bb64       ??4iterator@TryBlockMap4@FH4@@QEAAAEAV012@AEBV012@@Z 000000018014cb64 f i libvcruntime:risctrnsctrl.obj
 0001:0014bb70       ??9iterator@TryBlockMap4@FH4@@QEBA_NAEBV012@@Z 000000018014cb70 f i libvcruntime:risctrnsctrl.obj
 0001:0014bb7c       ??Diterator@TryBlockMap4@FH4@@QEAA?AUTryBlockMapEntry4@2@XZ 000000018014cb7c f i libvcruntime:risctrnsctrl.obj
 0001:0014bb8c       ??Eiterator@TryBlockMap4@FH4@@QEAAAEAV012@XZ 000000018014cb8c f i libvcruntime:risctrnsctrl.obj
 0001:0014bc28       ?CatchTryBlock@__FrameHandler3@@SAPEBU_s_TryBlockMapEntry@@PEBU_s_FuncInfo@@H@Z 000000018014cc28 f   libvcruntime:risctrnsctrl.obj
 0001:0014bc8c       ?DecompFuncInfo@FH4@@YA_JPEAEAEAUFuncInfo4@1@_KH@Z 000000018014cc8c f i libvcruntime:risctrnsctrl.obj
 0001:0014bca0       ?DecompFuncInfo@FH4@@YA_JPEAEAEAUFuncInfo4@1@_KH_N@Z 000000018014cca0 f i libvcruntime:risctrnsctrl.obj
 0001:0014bdc4       ?DecompTryBlock@TryBlockMap4@FH4@@AEAAXXZ 000000018014cdc4 f i libvcruntime:risctrnsctrl.obj
 0001:0014be58       ?ExecutionInCatch@__FrameHandler3@@SA_NPEAU_xDISPATCHER_CONTEXT@@PEBU_s_FuncInfo@@@Z 000000018014ce58 f   libvcruntime:risctrnsctrl.obj
 0001:0014be84       ?ExecutionInCatch@__FrameHandler4@@SA_NPEAU_xDISPATCHER_CONTEXT@@PEAUFuncInfo4@FH4@@@Z 000000018014ce84 f   libvcruntime:risctrnsctrl.obj
 0001:0014be8c       ?FrameUnwindToEmptyState@__FrameHandler3@@SAXPEA_KPEAU_xDISPATCHER_CONTEXT@@PEBU_s_FuncInfo@@@Z 000000018014ce8c f   libvcruntime:risctrnsctrl.obj
 0001:0014bef0       ?FrameUnwindToEmptyState@__FrameHandler4@@SAXPEA_KPEAU_xDISPATCHER_CONTEXT@@PEAUFuncInfo4@FH4@@@Z 000000018014cef0 f   libvcruntime:risctrnsctrl.obj
 0001:0014bf24       ?GetEstablisherFrame@__FrameHandler3@@SAPEA_KPEA_KPEAU_xDISPATCHER_CONTEXT@@PEBU_s_FuncInfo@@0@Z 000000018014cf24 f   libvcruntime:risctrnsctrl.obj
 0001:0014bff0       ?GetEstablisherFrame@__FrameHandler4@@SAPEA_KPEA_KPEAU_xDISPATCHER_CONTEXT@@PEAUFuncInfo4@FH4@@0@Z 000000018014cff0 f   libvcruntime:risctrnsctrl.obj
 0001:0014c014       ?GetRangeOfTrysToCheck@__FrameHandler3@@SA?AU?$pair@Viterator@TryBlockMap@__FrameHandler3@@V123@@std@@AEAVTryBlockMap@1@HPEAU_xDISPATCHER_CONTEXT@@PEBU_s_FuncInfo@@H@Z 000000018014d014 f   libvcruntime:risctrnsctrl.obj
 0001:0014c154       ?GetRangeOfTrysToCheck@__FrameHandler4@@SA?AU?$pair@Viterator@TryBlockMap4@FH4@@V123@@std@@AEAVTryBlockMap4@FH4@@HPEAU_xDISPATCHER_CONTEXT@@PEAUFuncInfo4@5@H@Z 000000018014d154 f   libvcruntime:risctrnsctrl.obj
 0001:0014c2c0       ?ReadInt@FH4@@YAHPEAPEAE@Z 000000018014d2c0 f i libvcruntime:risctrnsctrl.obj
 0001:0014c2d0       ?ReadUnsigned@FH4@@YAIPEAPEAE@Z 000000018014d2d0 f i libvcruntime:risctrnsctrl.obj
 0001:0014c300       ?UnwindNestedFrames@__FrameHandler3@@SAXPEA_KPEAUEHExceptionRecord@@PEAU_CONTEXT@@0PEAXPEBU_s_FuncInfo@@HHPEBU_s_HandlerType@@PEAU_xDISPATCHER_CONTEXT@@E@Z 000000018014d300 f   libvcruntime:risctrnsctrl.obj
 0001:0014c404       ?UnwindNestedFrames@__FrameHandler4@@SAXPEA_KPEAUEHExceptionRecord@@PEAU_CONTEXT@@0PEAXPEAUFuncInfo4@FH4@@HHPEAUHandlerType4@5@PEAU_xDISPATCHER_CONTEXT@@E@Z 000000018014d404 f   libvcruntime:risctrnsctrl.obj
 0001:0014c524       ?begin@TryBlockMap4@FH4@@QEAA?AViterator@12@XZ 000000018014d524 f i libvcruntime:risctrnsctrl.obj
 0001:0014c530       ?end@TryBlockMap4@FH4@@QEAA?AViterator@12@XZ 000000018014d530 f i libvcruntime:risctrnsctrl.obj
 0001:0014c53c       ?imageRelToByteBuffer@FH4@@YAPEAE_KH@Z 000000018014d53c f i libvcruntime:risctrnsctrl.obj
 0001:0014c544       ?incrementToSentinel@iterator@TryBlockMap4@FH4@@QEAAXXZ 000000018014d544 f i libvcruntime:risctrnsctrl.obj
 0001:0014c548       ?setBuffer@TryBlockMap4@FH4@@QEAAXViterator@12@@Z 000000018014d548 f i libvcruntime:risctrnsctrl.obj
 0001:0014c70c       _CreateFrameInfo           000000018014d70c f   libvcruntime:risctrnsctrl.obj
 0001:0014c748       _FindAndUnlinkFrame        000000018014d748 f   libvcruntime:risctrnsctrl.obj
 0001:0014c79c       _GetImageBase              000000018014d79c f   libvcruntime:risctrnsctrl.obj
 0001:0014c7b0       _GetThrowImageBase         000000018014d7b0 f   libvcruntime:risctrnsctrl.obj
 0001:0014c7c4       _SetImageBase              000000018014d7c4 f   libvcruntime:risctrnsctrl.obj
 0001:0014c7dc       _SetThrowImageBase         000000018014d7dc f   libvcruntime:risctrnsctrl.obj
 0001:0014c7f4       __CxxFrameHandler          000000018014d7f4 f   libvcruntime:risctrnsctrl.obj
 0001:0014c7fc       __CxxFrameHandler2         000000018014d7fc f   libvcruntime:risctrnsctrl.obj
 0001:0014c804       __CxxFrameHandler3         000000018014d804 f   libvcruntime:risctrnsctrl.obj
 0001:0014c88c       __CxxFrameHandler4         000000018014d88c f   libvcruntime:risctrnsctrl.obj
 0001:0014c94c       ??$__crt_interlocked_exchange_pointer@UHINSTANCE__@@PEAU1@@@YAPEAUHINSTANCE__@@PEDSEAU0@QEAU0@@Z 000000018014d94c f i libvcruntime:winapi_downlevel.obj
 0001:0014c954       ??$__crt_interlocked_exchange_pointer@UHINSTANCE__@@PEAX@@YAPEAUHINSTANCE__@@PEDSEAU0@QEAX@Z 000000018014d954 f i libvcruntime:winapi_downlevel.obj
 0001:0014c95c       ??$__crt_interlocked_exchange_pointer@XPEAX@@YAPEAXPEDSEAXQEAX@Z 000000018014d95c f i libvcruntime:winapi_downlevel.obj
 0001:0014c964       ??$__crt_interlocked_read_pointer@UHINSTANCE__@@@@YAPEAUHINSTANCE__@@PEDSEAU0@@Z 000000018014d964 f i libvcruntime:winapi_downlevel.obj
 0001:0014c96c       ??$__crt_interlocked_read_pointer@X@@YAPEAXPEDSEAX@Z 000000018014d96c f i libvcruntime:winapi_downlevel.obj
 0001:0014ceac       __vcrt_FlsAlloc            000000018014deac f   libvcruntime:winapi_downlevel.obj
 0001:0014cef4       __vcrt_FlsFree             000000018014def4 f   libvcruntime:winapi_downlevel.obj
 0001:0014cf3c       __vcrt_FlsGetValue         000000018014df3c f   libvcruntime:winapi_downlevel.obj
 0001:0014cf84       __vcrt_FlsSetValue         000000018014df84 f   libvcruntime:winapi_downlevel.obj
 0001:0014cfd8       __vcrt_InitializeCriticalSectionEx 000000018014dfd8 f   libvcruntime:winapi_downlevel.obj
 0001:0014d03c       ?GetCurrentState@__FrameHandler3@@SAHPEA_KPEAU_xDISPATCHER_CONTEXT@@PEBU_s_FuncInfo@@@Z 000000018014e03c f   libvcruntime:ehstate.obj
 0001:0014d064       ?GetUnwindTryBlock@__FrameHandler3@@SAHPEA_KPEAU_xDISPATCHER_CONTEXT@@PEBU_s_FuncInfo@@@Z 000000018014e064 f   libvcruntime:ehstate.obj
 0001:0014d090       ?SetState@__FrameHandler3@@SAXPEA_KPEBU_s_FuncInfo@@H@Z 000000018014e090 f   libvcruntime:ehstate.obj
 0001:0014d09c       ?SetUnwindTryBlock@__FrameHandler3@@SAXPEA_KPEAU_xDISPATCHER_CONTEXT@@PEBU_s_FuncInfo@@H@Z 000000018014e09c f   libvcruntime:ehstate.obj
 0001:0014d0d8       ?StateFromControlPc@__FrameHandler3@@SAHPEBU_s_FuncInfo@@PEAU_xDISPATCHER_CONTEXT@@@Z 000000018014e0d8 f   libvcruntime:ehstate.obj
 0001:0014d0e0       ?StateFromControlPc@__FrameHandler4@@SAHPEAUFuncInfo4@FH4@@PEAU_xDISPATCHER_CONTEXT@@@Z 000000018014e0e0 f   libvcruntime:ehstate.obj
 0001:0014d0e8       ?StateFromIp@__FrameHandler3@@SAHPEBU_s_FuncInfo@@PEAU_xDISPATCHER_CONTEXT@@_K@Z 000000018014e0e8 f   libvcruntime:ehstate.obj
 0001:0014d150       ?StateFromIp@__FrameHandler4@@SAHPEAUFuncInfo4@FH4@@PEAU_xDISPATCHER_CONTEXT@@_K@Z 000000018014e150 f   libvcruntime:ehstate.obj
 0001:0014d240       ?__FuncRelToRealOffset@@YA_KPEAU_xDISPATCHER_CONTEXT@@I@Z 000000018014e240 f i libvcruntime:ehstate.obj
 0001:0014d250       ?__RVAtoRealOffset@@YA_KPEAU_xDISPATCHER_CONTEXT@@H@Z 000000018014e250 f i libvcruntime:ehstate.obj
 0001:0014e86c       ??$TypeMatchHelper@V__FrameHandler3@@@@YAHPEBU_s_HandlerType@@PEBU_s_CatchableType@@PEBU_s_ThrowInfo@@@Z 000000018014f86c f i libvcruntime:frame.obj
 0001:0014e9ac       ??$TypeMatchHelper@V__FrameHandler4@@@@YAHPEAUHandlerType4@FH4@@PEBU_s_CatchableType@@PEBU_s_ThrowInfo@@@Z 000000018014f9ac f i libvcruntime:frame.obj
 0001:0014eaf0       ??$__InternalCxxFrameHandler@V__FrameHandler3@@@@YA?AW4_EXCEPTION_DISPOSITION@@PEAUEHExceptionRecord@@PEA_KPEAU_CONTEXT@@PEAU_xDISPATCHER_CONTEXT@@PEBU_s_FuncInfo@@H1E@Z 000000018014faf0 f i libvcruntime:frame.obj
 0001:0014ed28       ??$__InternalCxxFrameHandler@V__FrameHandler4@@@@YA?AW4_EXCEPTION_DISPOSITION@@PEAUEHExceptionRecord@@PEA_KPEAU_CONTEXT@@PEAU_xDISPATCHER_CONTEXT@@PEAUFuncInfo4@FH4@@H1E@Z 000000018014fd28 f i libvcruntime:frame.obj
 0001:0014efbc       ??$__InternalCxxFrameHandlerWrapper@V__FrameHandler3@@@@YA?AW4_EXCEPTION_DISPOSITION@@PEAUEHExceptionRecord@@PEA_KPEAU_CONTEXT@@PEAU_xDISPATCHER_CONTEXT@@PEBU_s_FuncInfo@@H1E@Z 000000018014ffbc f i libvcruntime:frame.obj
 0001:0014efc4       ??$__InternalCxxFrameHandlerWrapper@V__FrameHandler4@@@@YA?AW4_EXCEPTION_DISPOSITION@@PEAUEHExceptionRecord@@PEA_KPEAU_CONTEXT@@PEAU_xDISPATCHER_CONTEXT@@PEAUFuncInfo4@FH4@@H1E@Z 000000018014ffc4 f i libvcruntime:frame.obj
 0001:0014f020       ??0HandlerMap4@FH4@@QEAA@PEBUTryBlockMapEntry4@1@_KH@Z 0000000180150020 f i libvcruntime:frame.obj
 0001:0014f09c       ??0HandlerMap@__FrameHandler3@@QEAA@PEBU_s_TryBlockMapEntry@@_KI@Z 000000018015009c f i libvcruntime:frame.obj
 0001:0014f0b0       ??0HandlerType4@FH4@@QEAA@XZ 00000001801500b0 f i libvcruntime:frame.obj
 0001:0014f0c8       ??0TryBlockMap4@FH4@@QEAA@PEBUFuncInfo4@1@_K@Z 00000001801500c8 f i libvcruntime:frame.obj
 0001:0014f1a0       ??0TryBlockMap@__FrameHandler3@@QEAA@PEBU_s_FuncInfo@@_K@Z 00000001801501a0 f i libvcruntime:frame.obj
 0001:0014f1ac       ??0UWMap4@FH4@@QEAA@PEBUFuncInfo4@1@_K@Z 00000001801501ac f i libvcruntime:frame.obj
 0001:0014f1f0       ??0bad_exception@std@@QEAA@AEBV01@@Z 00000001801501f0 f i libvcruntime:frame.obj
 0001:0014f22c       ??0bad_exception@std@@QEAA@XZ 000000018015022c f i libvcruntime:frame.obj
 0001:0014f24c       ??0exception@std@@QEAA@AEBV01@@Z 000000018015024c f i libvcruntime:frame.obj
 0001:0014f280       ??0exception@std@@QEAA@QEBDH@Z 0000000180150280 f i libvcruntime:frame.obj
 0001:0014f298       ??0iterator@HandlerMap4@FH4@@QEAA@AEAV12@I@Z 0000000180150298 f i libvcruntime:frame.obj
 0001:0014f2a4       ??0iterator@HandlerMap@__FrameHandler3@@QEAA@AEAV12@I@Z 00000001801502a4 f i libvcruntime:frame.obj
 0001:0014f2b0       ??0iterator@UWMap4@FH4@@QEAA@AEAV12@PEAE@Z 00000001801502b0 f i libvcruntime:frame.obj
 0001:0014f2bc       ??1bad_exception@std@@UEAA@XZ 00000001801502bc f i libvcruntime:frame.obj
 0001:0014f2d0       ??1exception@std@@UEAA@XZ  00000001801502d0 f i libvcruntime:frame.obj
 0001:0014f2e4       ??4iterator@UWMap4@FH4@@QEAAAEAV012@AEBV012@@Z 00000001801502e4 f i libvcruntime:frame.obj
 0001:0014f304       ??8iterator@HandlerMap4@FH4@@QEBA_NAEBV012@@Z 0000000180150304 f i libvcruntime:frame.obj
 0001:0014f310       ??8iterator@HandlerMap@__FrameHandler3@@QEBA_NAEBV012@@Z 0000000180150310 f i libvcruntime:frame.obj
 0001:0014f31c       ??8type_info@@QEBA_NAEBV0@@Z 000000018015031c f i libvcruntime:frame.obj
 0001:0014f338       ??9iterator@HandlerMap4@FH4@@QEBA_NAEBV012@@Z 0000000180150338 f i libvcruntime:frame.obj
 0001:0014f344       ??9iterator@HandlerMap@__FrameHandler3@@QEBA_NAEBV012@@Z 0000000180150344 f i libvcruntime:frame.obj
 0001:0014f350       ??Diterator@HandlerMap4@FH4@@QEAA?AUHandlerType4@2@XZ 0000000180150350 f i libvcruntime:frame.obj
 0001:0014f370       ??Diterator@HandlerMap@__FrameHandler3@@QEAA?BU_s_HandlerType@@XZ 0000000180150370 f i libvcruntime:frame.obj
 0001:0014f394       ??Diterator@TryBlockMap@__FrameHandler3@@QEAA?BU_s_TryBlockMapEntry@@XZ 0000000180150394 f i libvcruntime:frame.obj
 0001:0014f3c4       ??Diterator@UWMap4@FH4@@QEAA?AUUnwindMapEntry4@2@XZ 00000001801503c4 f i libvcruntime:frame.obj
 0001:0014f418       ??Eiterator@HandlerMap4@FH4@@QEAAAEAV012@XZ 0000000180150418 f i libvcruntime:frame.obj
 0001:0014f438       ??Eiterator@HandlerMap@__FrameHandler3@@QEAAAEAV012@XZ 0000000180150438 f i libvcruntime:frame.obj
 0001:0014f440       ??Eiterator@TryBlockMap@__FrameHandler3@@QEAAAEAV012@XZ 0000000180150440 f i libvcruntime:frame.obj
 0001:0014f448       ??Eiterator@UWMap4@FH4@@QEAAAEAV012@XZ 0000000180150448 f i libvcruntime:frame.obj
 0001:0014f468       ??Giterator@UWMap4@FH4@@QEBA_JAEBV012@@Z 0000000180150468 f i libvcruntime:frame.obj
 0001:0014f474       ??Miterator@TryBlockMap4@FH4@@QEBA_NAEBV012@@Z 0000000180150474 f i libvcruntime:frame.obj
 0001:0014f480       ??Miterator@TryBlockMap@__FrameHandler3@@QEBA_NAEBV012@@Z 0000000180150480 f i libvcruntime:frame.obj
 0001:0014f48c       ??Oiterator@UWMap4@FH4@@QEBA_NAEBV012@@Z 000000018015048c f i libvcruntime:frame.obj
 0001:0014f498       ??Piterator@UWMap4@FH4@@QEBA_NAEBV012@@Z 0000000180150498 f i libvcruntime:frame.obj
 0001:0014f4a4       ??_Ebad_exception@std@@UEAAPEAXI@Z 00000001801504a4 f i libvcruntime:frame.obj
 0001:0014f4a4       ??_Gbad_exception@std@@UEAAPEAXI@Z 00000001801504a4 f i libvcruntime:frame.obj
 0001:0014f4e8       ??_Eexception@std@@UEAAPEAXI@Z 00000001801504e8 f i libvcruntime:frame.obj
 0001:0014f4e8       ??_Gexception@std@@UEAAPEAXI@Z 00000001801504e8 f i libvcruntime:frame.obj
 0001:0014f52c       ?BuildCatchObject@__FrameHandler3@@SAXPEAUEHExceptionRecord@@PEAXPEBU_s_HandlerType@@PEBU_s_CatchableType@@@Z 000000018015052c f   libvcruntime:frame.obj
 0001:0014f534       ?BuildCatchObject@__FrameHandler4@@SAXPEAUEHExceptionRecord@@PEAXPEAUHandlerType4@FH4@@PEBU_s_CatchableType@@@Z 0000000180150534 f   libvcruntime:frame.obj
 0001:0014f53c       ?BuildCatchObjectHelper@__FrameHandler3@@SAHPEAUEHExceptionRecord@@PEAXPEBU_s_HandlerType@@PEBU_s_CatchableType@@@Z 000000018015053c f   libvcruntime:frame.obj
 0001:0014f544       ?BuildCatchObjectHelper@__FrameHandler4@@SAHPEAUEHExceptionRecord@@PEAXPEAUHandlerType4@FH4@@PEBU_s_CatchableType@@@Z 0000000180150544 f   libvcruntime:frame.obj
 0001:0014f54c       ?CxxCallCatchBlock@__FrameHandler3@@SAPEAXPEAU_EXCEPTION_RECORD@@@Z 000000018015054c f   libvcruntime:frame.obj
 0001:0014f738       ?CxxCallCatchBlock@__FrameHandler4@@SAPEAXPEAU_EXCEPTION_RECORD@@@Z 0000000180150738 f   libvcruntime:frame.obj
 0001:0014f988       ?DecompHandler@HandlerMap4@FH4@@AEAAXXZ 0000000180150988 f i libvcruntime:frame.obj
 0001:0014fbd4       ?FrameUnwindToState@__FrameHandler3@@SAXPEA_KPEAU_xDISPATCHER_CONTEXT@@PEBU_s_FuncInfo@@H@Z 0000000180150bd4 f   libvcruntime:frame.obj
 0001:0014fd60       ?FrameUnwindToState@__FrameHandler4@@SAXPEA_KPEAU_xDISPATCHER_CONTEXT@@PEAUFuncInfo4@FH4@@H@Z 0000000180150d60 f   libvcruntime:frame.obj
 0001:0015005c       ?GetHandlerSearchState@__FrameHandler3@@SAHPEA_KPEAU_xDISPATCHER_CONTEXT@@PEBU_s_FuncInfo@@@Z 000000018015105c f i libvcruntime:frame.obj
 0001:001500f4       ?GetHandlerSearchState@__FrameHandler4@@SAHPEA_KPEAU_xDISPATCHER_CONTEXT@@PEAUFuncInfo4@FH4@@@Z 00000001801510f4 f i libvcruntime:frame.obj
 0001:00150158       ?GetMaxState@__FrameHandler3@@SAHPEAU_xDISPATCHER_CONTEXT@@PEBU_s_FuncInfo@@@Z 0000000180151158 f i libvcruntime:frame.obj
 0001:0015015c       ?GetMaxState@__FrameHandler4@@SAHPEAU_xDISPATCHER_CONTEXT@@PEAUFuncInfo4@FH4@@@Z 000000018015115c f i libvcruntime:frame.obj
 0001:0015030c       ?ReadEntry@UWMap4@FH4@@AEAAXPEAPEAE@Z 000000018015130c f i libvcruntime:frame.obj
 0001:001503a8       ?TypeMatch@__FrameHandler3@@SAHPEBU_s_HandlerType@@PEBU_s_CatchableType@@PEBU_s_ThrowInfo@@@Z 00000001801513a8 f   libvcruntime:frame.obj
 0001:001503b0       ?TypeMatch@__FrameHandler4@@SAHPEAUHandlerType4@FH4@@PEBU_s_CatchableType@@PEBU_s_ThrowInfo@@@Z 00000001801513b0 f   libvcruntime:frame.obj
 0001:001503b8       ?WalkBack@UWMap4@FH4@@AEAAXPEAPEAE@Z 00000001801513b8 f i libvcruntime:frame.obj
 0001:001503f0       ?WalkBack@iterator@UWMap4@FH4@@QEAAXXZ 00000001801513f0 f i libvcruntime:frame.obj
 0001:00150430       ?WalkForward@UWMap4@FH4@@AEAAXPEAPEAE@Z 0000000180151430 f i libvcruntime:frame.obj
 0001:00150438       ?_CallMemberFunction1@@YAXQEAX00@Z 0000000180151438 f i libvcruntime:frame.obj
 0001:00150444       ?_CallMemberFunction2@@YAXQEAX00H@Z 0000000180151444 f i libvcruntime:frame.obj
 0001:00150468       ?begin@HandlerMap4@FH4@@QEAA?AViterator@12@XZ 0000000180151468 f i libvcruntime:frame.obj
 0001:00150474       ?begin@HandlerMap@__FrameHandler3@@QEAA?AViterator@12@XZ 0000000180151474 f i libvcruntime:frame.obj
 0001:00150480       ?begin@UWMap4@FH4@@QEAA?AViterator@12@XZ 0000000180151480 f i libvcruntime:frame.obj
 0001:00150490       ?end@HandlerMap4@FH4@@QEAA?AViterator@12@XZ 0000000180151490 f i libvcruntime:frame.obj
 0001:0015049c       ?end@HandlerMap@__FrameHandler3@@QEAA?AViterator@12@XZ 000000018015149c f i libvcruntime:frame.obj
 0001:001504a8       ?getESTypes@__FrameHandler3@@SAPEBU_s_ESTypeList@@PEBU_s_FuncInfo@@@Z 00000001801514a8 f i libvcruntime:frame.obj
 0001:001504d0       ?getESTypes@__FrameHandler4@@SAPEBU_s_ESTypeList@@PEAUFuncInfo4@FH4@@@Z 00000001801514d0 f i libvcruntime:frame.obj
 0001:001504d4       ?getLastEntry@HandlerMap4@FH4@@QEAAPEAUHandlerType4@2@XZ 00000001801514d4 f i libvcruntime:frame.obj
 0001:00150524       ?getLastEntry@HandlerMap@__FrameHandler3@@QEAAPEBU_s_HandlerType@@XZ 0000000180151524 f i libvcruntime:frame.obj
 0001:00150538       ?getMagicNum@__FrameHandler3@@SAIPEBU_s_FuncInfo@@@Z 0000000180151538 f i libvcruntime:frame.obj
 0001:00150540       ?getMagicNum@__FrameHandler4@@SAIPEAUFuncInfo4@FH4@@@Z 0000000180151540 f i libvcruntime:frame.obj
 0001:00150548       ?getNumTryBlocks@TryBlockMap4@FH4@@QEAAIXZ 0000000180151548 f i libvcruntime:frame.obj
 0001:0015054c       ?getNumTryBlocks@TryBlockMap@__FrameHandler3@@QEAAIXZ 000000018015154c f i libvcruntime:frame.obj
 0001:00150554       ?getStartStop@UWMap4@FH4@@QEAAXHHAEAViterator@12@0@Z 0000000180151554 f i libvcruntime:frame.obj
 0001:00150624       ?getStateFromIterators@UWMap4@FH4@@SAHAEBViterator@12@H0H0@Z 0000000180151624 f i libvcruntime:frame.obj
 0001:001506d4       ?isEHs@__FrameHandler3@@SA_NPEBU_s_FuncInfo@@@Z 00000001801516d4 f i libvcruntime:frame.obj
 0001:001506dc       ?isEHs@__FrameHandler4@@SA_NPEAUFuncInfo4@FH4@@@Z 00000001801516dc f i libvcruntime:frame.obj
 0001:001506e4       ?isNoExcept@__FrameHandler3@@SA_NPEBU_s_FuncInfo@@@Z 00000001801516e4 f i libvcruntime:frame.obj
 0001:001506f0       ?isNoExcept@__FrameHandler4@@SA_NPEAUFuncInfo4@FH4@@@Z 00000001801516f0 f i libvcruntime:frame.obj
 0001:001506f8       ?reset@HandlerType4@FH4@@QEAAXXZ 00000001801516f8 f i libvcruntime:frame.obj
 0001:0015070c       ?resetBuffer@HandlerMap4@FH4@@QEAAXXZ 000000018015170c f i libvcruntime:frame.obj
 0001:0015071c       ?setBuffer@HandlerMap4@FH4@@QEAAXI@Z 000000018015171c f i libvcruntime:frame.obj
 0001:00150758       ?what@exception@std@@UEBAPEBDXZ 0000000180151758 f i libvcruntime:frame.obj
 0001:0015076c       __BuildCatchObject         000000018015176c f   libvcruntime:frame.obj
 0001:00150774       __BuildCatchObjectHelper   0000000180151774 f   libvcruntime:frame.obj
 0001:0015077c       __TypeMatch                000000018015177c f   libvcruntime:frame.obj
 0001:00150784       __vcrt_EncodePointer       0000000180151784 f i libvcruntime:frame.obj
 0001:001507a0       _CallSettingFrame          00000001801517a0 f   libvcruntime:handlers.obj
 0001:001507f0       _CallSettingFrame_LookupContinuationIndex 00000001801517f0 f   libvcruntime:handlers.obj
 0001:00150820       _CallSettingFrame_NotifyContinuationAddr 0000000180151820 f   libvcruntime:handlers.obj
 0001:00150850       _CallSettingFrameEncoded   0000000180151850 f   libvcruntime:handlers.obj
 0001:00150898       ??$?RD@__crt_public_free_policy@@QEBAXQEBD@Z 0000000180151898 f i libvcruntime:std_exception.obj
 0001:001508a0       ??0?$__crt_unique_heap_ptr@DU__crt_public_free_policy@@@@QEAA@QEAD@Z 00000001801518a0 f i libvcruntime:std_exception.obj
 0001:001508a8       ??1?$__crt_unique_heap_ptr@DU__crt_public_free_policy@@@@QEAA@XZ 00000001801518a8 f i libvcruntime:std_exception.obj
 0001:001508c4       ??B?$__crt_unique_heap_ptr@DU__crt_public_free_policy@@@@QEBA_NXZ 00000001801518c4 f i libvcruntime:std_exception.obj
 0001:001508cc       ?detach@?$__crt_unique_heap_ptr@DU__crt_public_free_policy@@@@QEAAPEADXZ 00000001801518cc f i libvcruntime:std_exception.obj
 0001:001508d4       ?get@?$__crt_unique_heap_ptr@DU__crt_public_free_policy@@@@QEBAPEADXZ 00000001801518d4 f i libvcruntime:std_exception.obj
 0001:001508d8       ?is_valid@?$__crt_unique_heap_ptr@DU__crt_public_free_policy@@@@QEBA_NXZ 00000001801518d8 f i libvcruntime:std_exception.obj
 0001:001508e0       ?release@?$__crt_unique_heap_ptr@DU__crt_public_free_policy@@@@QEAAXXZ 00000001801518e0 f i libvcruntime:std_exception.obj
 0001:001508fc       __std_exception_copy       00000001801518fc f   libvcruntime:std_exception.obj
 0001:0015098c       __std_exception_destroy    000000018015198c f   libvcruntime:std_exception.obj
 0001:001509b4       _CxxThrowException         00000001801519b4 f   libvcruntime:throw.obj
 0001:00150a54       _local_unwind              0000000180151a54 f   libvcruntime:jmpuwind.obj
 0001:00150a80       cosf                       0000000180151a80 f   libucrt:cosf.obj
 0001:00150f80       sinf                       0000000180151f80 f   libucrt:sinf.obj
 0001:00151680       tanf                       0000000180152680 f   libucrt:tanf.obj
 0001:00151d10       strcmp                     0000000180152d10 f   libucrt:strcmp.obj
 0001:00151d78       _fpclass                   0000000180152d78 f   libucrt:ieeemisc.obj
 0001:00151e00       _fpclassf                  0000000180152e00 f   libucrt:ieeemisc.obj
 0001:00151e6c       _isnan                     0000000180152e6c f   libucrt:ieeemisc.obj
 0001:00151e98       _isnanf                    0000000180152e98 f   libucrt:ieeemisc.obj
 0001:00151eb4       _nextafter                 0000000180152eb4 f   libucrt:ieeemisc.obj
 0001:00151ebc       _nextafterf                0000000180152ebc f   libucrt:ieeemisc.obj
 0001:00151ec4       _scalb                     0000000180152ec4 f   libucrt:ieeemisc.obj
 0001:00152070       _scalbf                    0000000180153070 f   libucrt:ieeemisc.obj
 0001:00152210       acosf                      0000000180153210 f   libucrt:acosf.obj
 0001:001524dc       free                       00000001801534dc f   libucrt:free.obj
 0001:001524f0       _initterm                  00000001801534f0 f   libucrt:initterm.obj
 0001:00152534       _initterm_e                0000000180153534 f   libucrt:initterm.obj
 0001:0015259c       _seh_filter_dll            000000018015359c f   libucrt:exception_filter.obj
 0001:001525b0       _seh_filter_exe            00000001801535b0 f   libucrt:exception_filter.obj
 0001:00152734       ??$?B$$A6AXPEAXK0@Z@__crt_fast_encoded_nullptr_t@@QEBAP6AXPEAXK0@ZXZ 0000000180153734 f i libucrt:exit.obj
 0001:001527a4       ??$__crt_fast_decode_pointer@P6AXPEAXK0@Z@@YAP6AXPEAXK0@ZQ6AX0K0@Z@Z 00000001801537a4 f i libucrt:exit.obj
 0001:001527bc       ??$__crt_fast_encode_pointer@P6AXPEAXK0@Z@@YAP6AXPEAXK0@ZQ6AX0K0@Z@Z 00000001801537bc f i libucrt:exit.obj
 0001:001527dc       ??$__crt_get_proc_address@P6AXI@Z@@YAP6AXI@ZQEAUHINSTANCE__@@QEBD@Z 00000001801537dc f i libucrt:exit.obj
 0001:001527e4       ??$__crt_interlocked_read@J@@YAJPEDJ@Z 00000001801537e4 f i libucrt:exit.obj
 0001:00152808       ??0?$__crt_unique_handle_t@U__crt_hmodule_traits@@@@QEAA@QEAUHINSTANCE__@@@Z 0000000180153808 f i libucrt:exit.obj
 0001:00152810       ??1?$__crt_unique_handle_t@U__crt_hmodule_traits@@@@QEAA@XZ 0000000180153810 f i libucrt:exit.obj
 0001:00152910       ?__acrt_select_exit_lock@@YA?AW4__acrt_lock_id@@XZ 0000000180153910 f i libucrt:exit.obj
 0001:00152918       ?__crt_fast_encode_pointer@@YA?AU__crt_fast_encoded_nullptr_t@@$$T@Z 0000000180153918 f i libucrt:exit.obj
 0001:00152920       ?__crt_interlocked_read_32@@YAHPEDH@Z 0000000180153920 f i libucrt:exit.obj
 0001:00152924       ?__crt_rotate_pointer_value@@YA_K_KH@Z 0000000180153924 f i libucrt:exit.obj
 0001:0015293c       ?close@?$__crt_unique_handle_t@U__crt_hmodule_traits@@@@QEAAXXZ 000000018015393c f i libucrt:exit.obj
 0001:00152960       ?close@__crt_hmodule_traits@@SA_NPEAUHINSTANCE__@@@Z 0000000180153960 f i libucrt:exit.obj
 0001:00152a70       ?get@?$__crt_unique_handle_t@U__crt_hmodule_traits@@@@QEBAPEAUHINSTANCE__@@XZ 0000000180153a70 f i libucrt:exit.obj
 0001:00152a74       ?get_address_of@?$__crt_unique_handle_t@U__crt_hmodule_traits@@@@QEAAPEAPEAUHINSTANCE__@@XZ 0000000180153a74 f i libucrt:exit.obj
 0001:00152a78       ?get_invalid_value@__crt_hmodule_traits@@SAPEAUHINSTANCE__@@XZ 0000000180153a78 f i libucrt:exit.obj
 0001:00152b64       _Exit                      0000000180153b64 f   libucrt:exit.obj
 0001:00152b70       __acrt_initialize_thread_local_exit_callback 0000000180153b70 f   libucrt:exit.obj
 0001:00152b78       _c_exit                    0000000180153b78 f   libucrt:exit.obj
 0001:00152b88       _cexit                     0000000180153b88 f   libucrt:exit.obj
 0001:00152b98       _exit                      0000000180153b98 f   libucrt:exit.obj
 0001:00152ba4       _is_c_termination_complete 0000000180153ba4 f   libucrt:exit.obj
 0001:00152bac       _register_thread_local_exe_atexit_callback 0000000180153bac f   libucrt:exit.obj
 0001:00152bec       exit                       0000000180153bec f   libucrt:exit.obj
 0001:00152bf8       quick_exit                 0000000180153bf8 f   libucrt:exit.obj
 0001:00152c04       ??$?RE@__crt_internal_free_policy@@QEBAXQEBE@Z 0000000180153c04 f i libucrt:argv_parsing.obj
 0001:00152c0c       ??$?RPEAD@__crt_internal_free_policy@@QEBAXQEBQEAD@Z 0000000180153c0c f i libucrt:argv_parsing.obj
 0001:00152c14       ??$?RPEA_W@__crt_internal_free_policy@@QEBAXQEBQEA_W@Z 0000000180153c14 f i libucrt:argv_parsing.obj
 0001:00152f10       ??$get_module_file_name@$$TAEAY0BAF@DH@?$__crt_char_traits@D@@SAK$$QEA$$TAEAY0BAF@D$$QEAH@Z 0000000180153f10 f i libucrt:argv_parsing.obj
 0001:00152f1c       ??$get_module_file_name@$$TAEAY0BAF@_WH@?$__crt_char_traits@_W@@SAK$$QEA$$TAEAY0BAF@_W$$QEAH@Z 0000000180153f1c f i libucrt:argv_parsing.obj
 0001:00153298       ??$set_program_name@PEAD@?$__crt_char_traits@D@@SAX$$QEAPEAD@Z 0000000180154298 f i libucrt:argv_parsing.obj
 0001:001532a4       ??$set_program_name@PEA_W@?$__crt_char_traits@_W@@SAX$$QEAPEA_W@Z 00000001801542a4 f i libucrt:argv_parsing.obj
 0001:001532c0       ??0?$__crt_unique_heap_ptr@EU__crt_internal_free_policy@@@@QEAA@QEAE@Z 00000001801542c0 f i libucrt:argv_parsing.obj
 0001:001532c8       ??0?$__crt_unique_heap_ptr@PEADU__crt_internal_free_policy@@@@QEAA@QEAPEAD@Z 00000001801542c8 f i libucrt:argv_parsing.obj
 0001:001532d0       ??0?$__crt_unique_heap_ptr@PEA_WU__crt_internal_free_policy@@@@QEAA@QEAPEA_W@Z 00000001801542d0 f i libucrt:argv_parsing.obj
 0001:001532d8       ??1?$__crt_unique_heap_ptr@EU__crt_internal_free_policy@@@@QEAA@XZ 00000001801542d8 f i libucrt:argv_parsing.obj
 0001:001532f4       ??1?$__crt_unique_heap_ptr@PEADU__crt_internal_free_policy@@@@QEAA@XZ 00000001801542f4 f i libucrt:argv_parsing.obj
 0001:00153310       ??1?$__crt_unique_heap_ptr@PEA_WU__crt_internal_free_policy@@@@QEAA@XZ 0000000180154310 f i libucrt:argv_parsing.obj
 0001:0015332c       ??B?$__crt_unique_heap_ptr@EU__crt_internal_free_policy@@@@QEBA_NXZ 000000018015432c f i libucrt:argv_parsing.obj
 0001:0015336c       ?detach@?$__crt_unique_heap_ptr@EU__crt_internal_free_policy@@@@QEAAPEAEXZ 000000018015436c f i libucrt:argv_parsing.obj
 0001:00153374       ?detach@?$__crt_unique_heap_ptr@PEADU__crt_internal_free_policy@@@@QEAAPEAPEADXZ 0000000180154374 f i libucrt:argv_parsing.obj
 0001:0015337c       ?detach@?$__crt_unique_heap_ptr@PEA_WU__crt_internal_free_policy@@@@QEAAPEAPEA_WXZ 000000018015437c f i libucrt:argv_parsing.obj
 0001:001533a0       ?get@?$__crt_unique_heap_ptr@EU__crt_internal_free_policy@@@@QEBAPEAEXZ 00000001801543a0 f i libucrt:argv_parsing.obj
 0001:001533a4       ?get@?$__crt_unique_heap_ptr@PEADU__crt_internal_free_policy@@@@QEBAPEAPEADXZ 00000001801543a4 f i libucrt:argv_parsing.obj
 0001:001533a8       ?get@?$__crt_unique_heap_ptr@PEA_WU__crt_internal_free_policy@@@@QEBAPEAPEA_WXZ 00000001801543a8 f i libucrt:argv_parsing.obj
 0001:001533ac       ?get_address_of@?$__crt_unique_heap_ptr@PEADU__crt_internal_free_policy@@@@QEAAPEAPEAPEADXZ 00000001801543ac f i libucrt:argv_parsing.obj
 0001:001533b0       ?get_address_of@?$__crt_unique_heap_ptr@PEA_WU__crt_internal_free_policy@@@@QEAAPEAPEAPEA_WXZ 00000001801543b0 f i libucrt:argv_parsing.obj
 0001:001533d4       ?is_valid@?$__crt_unique_heap_ptr@EU__crt_internal_free_policy@@@@QEBA_NXZ 00000001801543d4 f i libucrt:argv_parsing.obj
 0001:001533dc       ?release@?$__crt_unique_heap_ptr@EU__crt_internal_free_policy@@@@QEAAXXZ 00000001801543dc f i libucrt:argv_parsing.obj
 0001:001533f8       ?release@?$__crt_unique_heap_ptr@PEADU__crt_internal_free_policy@@@@QEAAXXZ 00000001801543f8 f i libucrt:argv_parsing.obj
 0001:00153414       ?release@?$__crt_unique_heap_ptr@PEA_WU__crt_internal_free_policy@@@@QEAAXXZ 0000000180154414 f i libucrt:argv_parsing.obj
 0001:0015344c       __acrt_allocate_buffer_for_argv 000000018015444c f   libucrt:argv_parsing.obj
 0001:001534ac       _configure_narrow_argv     00000001801544ac f   libucrt:argv_parsing.obj
 0001:00153634       _configure_wide_argv       0000000180154634 f   libucrt:argv_parsing.obj
 0001:001537b8       _set_pgmptr                00000001801547b8 f i libucrt:argv_parsing.obj
 0001:001537c0       _set_wpgmptr               00000001801547c0 f i libucrt:argv_parsing.obj
 0001:001537c8       ??$?R_W@__crt_internal_free_policy@@QEBAXQEB_W@Z 00000001801547c8 f i libucrt:environment_initialization.obj
 0001:00153cf0       ??$get_environment_from_os@$$V@?$__crt_char_traits@D@@SAPEADXZ 0000000180154cf0 f i libucrt:environment_initialization.obj
 0001:00153cf8       ??$get_environment_from_os@$$V@?$__crt_char_traits@_W@@SAPEA_WXZ 0000000180154cf8 f i libucrt:environment_initialization.obj
 0001:00153e9c       ??$set_variable_in_environment_nolock@PEADH@?$__crt_char_traits@D@@SAH$$QEAPEAD$$QEAH@Z 0000000180154e9c f i libucrt:environment_initialization.obj
 0001:00153ea8       ??$set_variable_in_environment_nolock@PEA_WH@?$__crt_char_traits@_W@@SAH$$QEAPEA_W$$QEAH@Z 0000000180154ea8 f i libucrt:environment_initialization.obj
 0001:00153eb4       ??$tcscpy_s@PEADAEB_KAEAPEAD@?$__crt_char_traits@D@@SAH$$QEAPEADAEB_KAEAPEAD@Z 0000000180154eb4 f i libucrt:environment_initialization.obj
 0001:00153ec4       ??$tcscpy_s@PEA_WAEB_KAEAPEA_W@?$__crt_char_traits@_W@@SAH$$QEAPEA_WAEB_KAEAPEA_W@Z 0000000180154ec4 f i libucrt:environment_initialization.obj
 0001:00153ed4       ??$tcslen@AEAPEAD@?$__crt_char_traits@D@@SA_KAEAPEAD@Z 0000000180154ed4 f i libucrt:environment_initialization.obj
 0001:00153ee8       ??$tcslen@AEAPEA_W@?$__crt_char_traits@_W@@SA_KAEAPEA_W@Z 0000000180154ee8 f i libucrt:environment_initialization.obj
 0001:00153efc       ??$uninitialize@A6AXAEAPEAPEAD@_E@?$dual_state_global@PEAPEAD@__crt_state_management@@QEAAXA6AXAEAPEAPEAD@_E@Z 0000000180154efc f i libucrt:environment_initialization.obj
 0001:00153f54       ??$uninitialize@A6AXAEAPEAPEA_W@_E@?$dual_state_global@PEAPEA_W@__crt_state_management@@QEAAXA6AXAEAPEAPEA_W@_E@Z 0000000180154f54 f i libucrt:environment_initialization.obj
 0001:00153fe4       ??0?$__crt_unique_heap_ptr@_WU__crt_internal_free_policy@@@@QEAA@QEA_W@Z 0000000180154fe4 f i libucrt:environment_initialization.obj
 0001:00153fec       ??1?$__crt_unique_heap_ptr@_WU__crt_internal_free_policy@@@@QEAA@XZ 0000000180154fec f i libucrt:environment_initialization.obj
 0001:00154008       ??B?$__crt_unique_heap_ptr@PEADU__crt_internal_free_policy@@@@QEBA_NXZ 0000000180155008 f i libucrt:environment_initialization.obj
 0001:00154010       ??B?$__crt_unique_heap_ptr@PEA_WU__crt_internal_free_policy@@@@QEBA_NXZ 0000000180155010 f i libucrt:environment_initialization.obj
 0001:00154018       ??B?$__crt_unique_heap_ptr@_WU__crt_internal_free_policy@@@@QEBA_NXZ 0000000180155018 f i libucrt:environment_initialization.obj
 0001:00154020       ?__crt_compute_required_transform_buffer_count@@YA_KIQEBD@Z 0000000180155020 f i libucrt:environment_initialization.obj
 0001:00154044       ?__crt_compute_required_transform_buffer_count@@YA_KIQEB_W@Z 0000000180155044 f i libucrt:environment_initialization.obj
 0001:00154074       ?__crt_transform_string@@YA_KIQEBDQEA_W_K@Z 0000000180155074 f i libucrt:environment_initialization.obj
 0001:00154098       ?__crt_transform_string@@YA_KIQEB_WQEAD_K@Z 0000000180155098 f i libucrt:environment_initialization.obj
 0001:001540c8       ?detach@?$__crt_unique_heap_ptr@DU__crt_internal_free_policy@@@@QEAAPEADXZ 00000001801550c8 f i libucrt:environment_initialization.obj
 0001:001540d0       ?detach@?$__crt_unique_heap_ptr@_WU__crt_internal_free_policy@@@@QEAAPEA_WXZ 00000001801550d0 f i libucrt:environment_initialization.obj
 0001:001540d8       ?get@?$__crt_unique_heap_ptr@_WU__crt_internal_free_policy@@@@QEBAPEA_WXZ 00000001801550d8 f i libucrt:environment_initialization.obj
 0001:001540dc       ?get_current_state_index@__crt_state_management@@YA_KXZ 00000001801550dc f i libucrt:environment_initialization.obj
 0001:00154110       ?initialize@?$dual_state_global@PEAPEAD@__crt_state_management@@QEAAXQEAPEAD@Z 0000000180155110 f i libucrt:environment_initialization.obj
 0001:00154120       ?initialize@?$dual_state_global@PEAPEA_W@__crt_state_management@@QEAAXQEAPEA_W@Z 0000000180155120 f i libucrt:environment_initialization.obj
 0001:00154130       ?is_valid@?$__crt_unique_heap_ptr@PEADU__crt_internal_free_policy@@@@QEBA_NXZ 0000000180155130 f i libucrt:environment_initialization.obj
 0001:00154138       ?is_valid@?$__crt_unique_heap_ptr@PEA_WU__crt_internal_free_policy@@@@QEBA_NXZ 0000000180155138 f i libucrt:environment_initialization.obj
 0001:00154140       ?is_valid@?$__crt_unique_heap_ptr@_WU__crt_internal_free_policy@@@@QEBA_NXZ 0000000180155140 f i libucrt:environment_initialization.obj
 0001:00154154       ?release@?$__crt_unique_heap_ptr@_WU__crt_internal_free_policy@@@@QEAAXXZ 0000000180155154 f i libucrt:environment_initialization.obj
 0001:00154170       ?value@?$dual_state_global@PEAPEAD@__crt_state_management@@QEAAAEAPEAPEADXZ 0000000180155170 f i libucrt:environment_initialization.obj
 0001:00154174       ?value@?$dual_state_global@PEAPEA_W@__crt_state_management@@QEAAAEAPEAPEA_WXZ 0000000180155174 f i libucrt:environment_initialization.obj
 0001:00154178       __dcrt_get_or_create_narrow_environment_nolock 0000000180155178 f   libucrt:environment_initialization.obj
 0001:001541b4       __dcrt_get_or_create_wide_environment_nolock 00000001801551b4 f   libucrt:environment_initialization.obj
 0001:001541f0       __dcrt_uninitialize_environments_nolock 00000001801551f0 f   libucrt:environment_initialization.obj
 0001:00154234       __p__environ               0000000180155234 f   libucrt:environment_initialization.obj
 0001:0015423c       __p__wenviron              000000018015523c f   libucrt:environment_initialization.obj
 0001:00154244       _get_initial_narrow_environment 0000000180155244 f   libucrt:environment_initialization.obj
 0001:00154294       _get_initial_wide_environment 0000000180155294 f   libucrt:environment_initialization.obj
 0001:001542e4       _initialize_narrow_environment 00000001801552e4 f   libucrt:environment_initialization.obj
 0001:001542ec       _initialize_wide_environment 00000001801552ec f   libucrt:environment_initialization.obj
 0001:001542f4       _invoke_watson_if_error    00000001801552f4 f i libucrt:environment_initialization.obj
 0001:00154328       ??$?B$$A6AXXZ@__crt_fast_encoded_nullptr_t@@QEBAP6AXXZXZ 0000000180155328 f i libucrt:onexit.obj
 0001:00154330       ??$?BP6AXXZ@__crt_fast_encoded_nullptr_t@@QEBAPEAP6AXXZXZ 0000000180155330 f i libucrt:onexit.obj
 0001:00154338       ??$?RP6AXXZ@__crt_internal_free_policy@@QEBAXQEBQ6AXXZ@Z 0000000180155338 f i libucrt:onexit.obj
 0001:00154410       ??$__crt_fast_decode_pointer@P6AXXZ@@YAP6AXXZQ6AXXZ@Z 0000000180155410 f i libucrt:onexit.obj
 0001:00154428       ??$__crt_fast_decode_pointer@PEAP6AXXZ@@YAPEAP6AXXZQEAP6AXXZ@Z 0000000180155428 f i libucrt:onexit.obj
 0001:00154440       ??$__crt_fast_encode_pointer@P6AHXZ@@YAP6AHXZQ6AHXZ@Z 0000000180155440 f i libucrt:onexit.obj
 0001:00154460       ??$__crt_fast_encode_pointer@P6AXXZ@@YAP6AXXZQ6AXXZ@Z 0000000180155460 f i libucrt:onexit.obj
 0001:00154480       ??$__crt_fast_encode_pointer@PEAP6AXXZ@@YAPEAP6AXXZQEAP6AXXZ@Z 0000000180155480 f i libucrt:onexit.obj
 0001:001544d4       ??0?$__crt_unique_heap_ptr@P6AXXZU__crt_internal_free_policy@@@@QEAA@QEAP6AXXZ@Z 00000001801554d4 f i libucrt:onexit.obj
 0001:001544dc       ??1?$__crt_unique_heap_ptr@P6AXXZU__crt_internal_free_policy@@@@QEAA@XZ 00000001801554dc f i libucrt:onexit.obj
 0001:001544f8       ??1scoped_global_state_reset@__crt_state_management@@QEAA@XZ 00000001801554f8 f i libucrt:onexit.obj
 0001:001547ec       ?detach@?$__crt_unique_heap_ptr@P6AXXZU__crt_internal_free_policy@@@@QEAAPEAP6AXXZXZ 00000001801557ec f i libucrt:onexit.obj
 0001:001547f4       ?release@?$__crt_unique_heap_ptr@P6AXXZU__crt_internal_free_policy@@@@QEAAXXZ 00000001801557f4 f i libucrt:onexit.obj
 0001:00154810       _crt_at_quick_exit         0000000180155810 f   libucrt:onexit.obj
 0001:00154820       _crt_atexit                0000000180155820 f   libucrt:onexit.obj
 0001:00154830       _execute_onexit_table      0000000180155830 f   libucrt:onexit.obj
 0001:00154874       _initialize_onexit_table   0000000180155874 f   libucrt:onexit.obj
 0001:0015489c       _register_onexit_function  000000018015589c f   libucrt:onexit.obj
 0001:00154a24       ??$?BX@__crt_fast_encoded_nullptr_t@@QEBAPEAXXZ 0000000180155a24 f i libucrt:initialization.obj
 0001:00154a2c       ??$__crt_fast_encode_pointer@PEAX@@YAPEAXQEAX@Z 0000000180155a2c f i libucrt:initialization.obj
 0001:00154ae8       ?__acrt_stdio_is_initialized@@YA_NXZ 0000000180155ae8 f i libucrt:initialization.obj
 0001:00154af4       ?initialize@?$dual_state_global@PEAU__crt_locale_data@@@__crt_state_management@@QEAAXQEAU__crt_locale_data@@@Z 0000000180155af4 f i libucrt:initialization.obj
 0001:00154b04       __acrt_initialize          0000000180155b04 f   libucrt:initialization.obj
 0001:00154b18       __acrt_thread_attach       0000000180155b18 f   libucrt:initialization.obj
 0001:00154b2c       __acrt_thread_detach       0000000180155b2c f   libucrt:initialization.obj
 0001:00154b3c       __acrt_uninitialize        0000000180155b3c f   libucrt:initialization.obj
 0001:00154b74       __acrt_uninitialize_critical 0000000180155b74 f   libucrt:initialization.obj
 0001:00154b98       _get_terminate             0000000180155b98 f   libucrt:terminate.obj
 0001:00154bbc       set_terminate              0000000180155bbc f   libucrt:terminate.obj
 0001:00154be8       terminate                  0000000180155be8 f   libucrt:terminate.obj
 0001:00154c14       _set_abort_behavior        0000000180155c14 f   libucrt:abort.obj
 0001:00154c30       abort                      0000000180155c30 f   libucrt:abort.obj
 0001:00154c88       malloc                     0000000180155c88 f   libucrt:malloc.obj
 0001:00154cf4       strcpy_s                   0000000180155cf4 f   libucrt:strcpy_s.obj
 0001:00154d54       ??$?0AEBV?$stream_output_adapter@D@__crt_stdio_output@@AEB_KAEBQEBDAEAV__crt_cached_ptd_host@@AEBQEAD@?$format_validation_base@DV?$stream_output_adapter@D@__crt_stdio_output@@@__crt_stdio_output@@IEAA@AEBV?$stream_output_adapter@D@1@AEB_KAEBQEBDAEAV__crt_cached_ptd_host@@AEBQEAD@Z 0000000180155d54 f i libucrt:output.obj
 0001:00154dc4       ??$?0AEBV?$stream_output_adapter@D@__crt_stdio_output@@AEB_KAEBQEBDAEAV__crt_cached_ptd_host@@AEBQEAD@?$positional_parameter_base@DV?$stream_output_adapter@D@__crt_stdio_output@@@__crt_stdio_output@@IEAA@AEBV?$stream_output_adapter@D@1@AEB_KAEBQEBDAEAV__crt_cached_ptd_host@@AEBQEAD@Z 0000000180155dc4 f i libucrt:output.obj
 0001:00154e54       ??$?0AEBV?$stream_output_adapter@D@__crt_stdio_output@@AEB_KAEBQEBDAEAV__crt_cached_ptd_host@@AEBQEAD@?$standard_base@DV?$stream_output_adapter@D@__crt_stdio_output@@@__crt_stdio_output@@IEAA@AEBV?$stream_output_adapter@D@1@AEB_KAEBQEBDAEAV__crt_cached_ptd_host@@AEBQEAD@Z 0000000180155e54 f i libucrt:output.obj
 0001:00154ec4       ??$?0AEBV?$stream_output_adapter@_W@__crt_stdio_output@@AEB_KAEBQEB_WAEAV__crt_cached_ptd_host@@AEBQEAD@?$format_validation_base@_WV?$stream_output_adapter@_W@__crt_stdio_output@@@__crt_stdio_output@@IEAA@AEBV?$stream_output_adapter@_W@1@AEB_KAEBQEB_WAEAV__crt_cached_ptd_host@@AEBQEAD@Z 0000000180155ec4 f i libucrt:output.obj
 0001:00154f38       ??$?0AEBV?$stream_output_adapter@_W@__crt_stdio_output@@AEB_KAEBQEB_WAEAV__crt_cached_ptd_host@@AEBQEAD@?$positional_parameter_base@_WV?$stream_output_adapter@_W@__crt_stdio_output@@@__crt_stdio_output@@IEAA@AEBV?$stream_output_adapter@_W@1@AEB_KAEBQEB_WAEAV__crt_cached_ptd_host@@AEBQEAD@Z 0000000180155f38 f i libucrt:output.obj
 0001:00154fcc       ??$?0AEBV?$stream_output_adapter@_W@__crt_stdio_output@@AEB_KAEBQEB_WAEAV__crt_cached_ptd_host@@AEBQEAD@?$standard_base@_WV?$stream_output_adapter@_W@__crt_stdio_output@@@__crt_stdio_output@@IEAA@AEBV?$stream_output_adapter@_W@1@AEB_KAEBQEB_WAEAV__crt_cached_ptd_host@@AEBQEAD@Z 0000000180155fcc f i libucrt:output.obj
 0001:00155040       ??$?0AEBV?$string_output_adapter@D@__crt_stdio_output@@AEB_KAEBQEBDAEAV__crt_cached_ptd_host@@AEBQEAD@?$format_validation_base@DV?$string_output_adapter@D@__crt_stdio_output@@@__crt_stdio_output@@IEAA@AEBV?$string_output_adapter@D@1@AEB_KAEBQEBDAEAV__crt_cached_ptd_host@@AEBQEAD@Z 0000000180156040 f i libucrt:output.obj
 0001:001550b0       ??$?0AEBV?$string_output_adapter@D@__crt_stdio_output@@AEB_KAEBQEBDAEAV__crt_cached_ptd_host@@AEBQEAD@?$positional_parameter_base@DV?$string_output_adapter@D@__crt_stdio_output@@@__crt_stdio_output@@IEAA@AEBV?$string_output_adapter@D@1@AEB_KAEBQEBDAEAV__crt_cached_ptd_host@@AEBQEAD@Z 00000001801560b0 f i libucrt:output.obj
 0001:00155140       ??$?0AEBV?$string_output_adapter@D@__crt_stdio_output@@AEB_KAEBQEBDAEAV__crt_cached_ptd_host@@AEBQEAD@?$standard_base@DV?$string_output_adapter@D@__crt_stdio_output@@@__crt_stdio_output@@IEAA@AEBV?$string_output_adapter@D@1@AEB_KAEBQEBDAEAV__crt_cached_ptd_host@@AEBQEAD@Z 0000000180156140 f i libucrt:output.obj
 0001:001551b0       ??$?0AEBV?$string_output_adapter@_W@__crt_stdio_output@@AEB_KAEBQEB_WAEAV__crt_cached_ptd_host@@AEBQEAD@?$format_validation_base@_WV?$string_output_adapter@_W@__crt_stdio_output@@@__crt_stdio_output@@IEAA@AEBV?$string_output_adapter@_W@1@AEB_KAEBQEB_WAEAV__crt_cached_ptd_host@@AEBQEAD@Z 00000001801561b0 f i libucrt:output.obj
 0001:00155224       ??$?0AEBV?$string_output_adapter@_W@__crt_stdio_output@@AEB_KAEBQEB_WAEAV__crt_cached_ptd_host@@AEBQEAD@?$positional_parameter_base@_WV?$string_output_adapter@_W@__crt_stdio_output@@@__crt_stdio_output@@IEAA@AEBV?$string_output_adapter@_W@1@AEB_KAEBQEB_WAEAV__crt_cached_ptd_host@@AEBQEAD@Z 0000000180156224 f i libucrt:output.obj
 0001:001552b8       ??$?0AEBV?$string_output_adapter@_W@__crt_stdio_output@@AEB_KAEBQEB_WAEAV__crt_cached_ptd_host@@AEBQEAD@?$standard_base@_WV?$string_output_adapter@_W@__crt_stdio_output@@@__crt_stdio_output@@IEAA@AEBV?$string_output_adapter@_W@1@AEB_KAEBQEB_WAEAV__crt_cached_ptd_host@@AEBQEAD@Z 00000001801562b8 f i libucrt:output.obj
 0001:0015559c       ??$_tcstol_internal@DPEAPEAD$0A@@@YAJAEAV__crt_cached_ptd_host@@QEBDQEAPEADH@Z 000000018015659c f i libucrt:output.obj
 0001:001555cc       ??$_tcstol_internal@_WPEAPEA_W$0A@@@YAJAEAV__crt_cached_ptd_host@@QEB_WQEAPEA_WH@Z 00000001801565cc f i libucrt:output.obj
 0001:0015670c       ??$count@D@formatting_buffer@__crt_stdio_output@@QEBA_KXZ 000000018015770c f i libucrt:output.obj
 0001:00156728       ??$count@_W@formatting_buffer@__crt_stdio_output@@QEBA_KXZ 0000000180157728 f i libucrt:output.obj
 0001:00156744       ??$data@D@formatting_buffer@__crt_stdio_output@@QEAAPEADXZ 0000000180157744 f i libucrt:output.obj
 0001:00156754       ??$data@_W@formatting_buffer@__crt_stdio_output@@QEAAPEA_WXZ 0000000180157754 f i libucrt:output.obj
 0001:00156764       ??$ensure_buffer_is_big_enough@D@formatting_buffer@__crt_stdio_output@@QEAA_N_KAEAV__crt_cached_ptd_host@@@Z 0000000180157764 f i libucrt:output.obj
 0001:0015680c       ??$ensure_buffer_is_big_enough@_W@formatting_buffer@__crt_stdio_output@@QEAA_N_KAEAV__crt_cached_ptd_host@@@Z 000000018015780c f i libucrt:output.obj
 0001:001568b8       ??$extract_argument_from_va_list@C_J@?$positional_parameter_base@DV?$stream_output_adapter@D@__crt_stdio_output@@@__crt_stdio_output@@IEAA_NAEA_J@Z 00000001801578b8 f i libucrt:output.obj
 0001:001569c4       ??$extract_argument_from_va_list@C_J@?$positional_parameter_base@DV?$string_output_adapter@D@__crt_stdio_output@@@__crt_stdio_output@@IEAA_NAEA_J@Z 00000001801579c4 f i libucrt:output.obj
 0001:00156ad0       ??$extract_argument_from_va_list@C_J@?$positional_parameter_base@_WV?$stream_output_adapter@_W@__crt_stdio_output@@@__crt_stdio_output@@IEAA_NAEA_J@Z 0000000180157ad0 f i libucrt:output.obj
 0001:00156bdc       ??$extract_argument_from_va_list@C_J@?$positional_parameter_base@_WV?$string_output_adapter@_W@__crt_stdio_output@@@__crt_stdio_output@@IEAA_NAEA_J@Z 0000000180157bdc f i libucrt:output.obj
 0001:00156ce8       ??$extract_argument_from_va_list@C_J@?$standard_base@DV?$stream_output_adapter@D@__crt_stdio_output@@@__crt_stdio_output@@IEAA_NAEA_J@Z 0000000180157ce8 f i libucrt:output.obj
 0001:00156d00       ??$extract_argument_from_va_list@C_J@?$standard_base@DV?$string_output_adapter@D@__crt_stdio_output@@@__crt_stdio_output@@IEAA_NAEA_J@Z 0000000180157d00 f i libucrt:output.obj
 0001:00156d18       ??$extract_argument_from_va_list@C_J@?$standard_base@_WV?$stream_output_adapter@_W@__crt_stdio_output@@@__crt_stdio_output@@IEAA_NAEA_J@Z 0000000180157d18 f i libucrt:output.obj
 0001:00156d30       ??$extract_argument_from_va_list@C_J@?$standard_base@_WV?$string_output_adapter@_W@__crt_stdio_output@@@__crt_stdio_output@@IEAA_NAEA_J@Z 0000000180157d30 f i libucrt:output.obj
 0001:00156d48       ??$extract_argument_from_va_list@E_J@?$positional_parameter_base@DV?$stream_output_adapter@D@__crt_stdio_output@@@__crt_stdio_output@@IEAA_NAEA_J@Z 0000000180157d48 f i libucrt:output.obj
 0001:00156e50       ??$extract_argument_from_va_list@E_J@?$positional_parameter_base@DV?$string_output_adapter@D@__crt_stdio_output@@@__crt_stdio_output@@IEAA_NAEA_J@Z 0000000180157e50 f i libucrt:output.obj
 0001:00156f58       ??$extract_argument_from_va_list@E_J@?$positional_parameter_base@_WV?$stream_output_adapter@_W@__crt_stdio_output@@@__crt_stdio_output@@IEAA_NAEA_J@Z 0000000180157f58 f i libucrt:output.obj
 0001:00157064       ??$extract_argument_from_va_list@E_J@?$positional_parameter_base@_WV?$string_output_adapter@_W@__crt_stdio_output@@@__crt_stdio_output@@IEAA_NAEA_J@Z 0000000180158064 f i libucrt:output.obj
 0001:00157170       ??$extract_argument_from_va_list@E_J@?$standard_base@DV?$stream_output_adapter@D@__crt_stdio_output@@@__crt_stdio_output@@IEAA_NAEA_J@Z 0000000180158170 f i libucrt:output.obj
 0001:00157188       ??$extract_argument_from_va_list@E_J@?$standard_base@DV?$string_output_adapter@D@__crt_stdio_output@@@__crt_stdio_output@@IEAA_NAEA_J@Z 0000000180158188 f i libucrt:output.obj
 0001:001571a0       ??$extract_argument_from_va_list@E_J@?$standard_base@_WV?$stream_output_adapter@_W@__crt_stdio_output@@@__crt_stdio_output@@IEAA_NAEA_J@Z 00000001801581a0 f i libucrt:output.obj
 0001:001571b8       ??$extract_argument_from_va_list@E_J@?$standard_base@_WV?$string_output_adapter@_W@__crt_stdio_output@@@__crt_stdio_output@@IEAA_NAEA_J@Z 00000001801581b8 f i libucrt:output.obj
 0001:001571d0       ??$extract_argument_from_va_list@F_J@?$positional_parameter_base@DV?$stream_output_adapter@D@__crt_stdio_output@@@__crt_stdio_output@@IEAA_NAEA_J@Z 00000001801581d0 f i libucrt:output.obj
 0001:001572dc       ??$extract_argument_from_va_list@F_J@?$positional_parameter_base@DV?$string_output_adapter@D@__crt_stdio_output@@@__crt_stdio_output@@IEAA_NAEA_J@Z 00000001801582dc f i libucrt:output.obj
 0001:001573e8       ??$extract_argument_from_va_list@F_J@?$positional_parameter_base@_WV?$stream_output_adapter@_W@__crt_stdio_output@@@__crt_stdio_output@@IEAA_NAEA_J@Z 00000001801583e8 f i libucrt:output.obj
 0001:001574f4       ??$extract_argument_from_va_list@F_J@?$positional_parameter_base@_WV?$string_output_adapter@_W@__crt_stdio_output@@@__crt_stdio_output@@IEAA_NAEA_J@Z 00000001801584f4 f i libucrt:output.obj
 0001:00157600       ??$extract_argument_from_va_list@F_J@?$standard_base@DV?$stream_output_adapter@D@__crt_stdio_output@@@__crt_stdio_output@@IEAA_NAEA_J@Z 0000000180158600 f i libucrt:output.obj
 0001:00157618       ??$extract_argument_from_va_list@F_J@?$standard_base@DV?$string_output_adapter@D@__crt_stdio_output@@@__crt_stdio_output@@IEAA_NAEA_J@Z 0000000180158618 f i libucrt:output.obj
 0001:00157630       ??$extract_argument_from_va_list@F_J@?$standard_base@_WV?$stream_output_adapter@_W@__crt_stdio_output@@@__crt_stdio_output@@IEAA_NAEA_J@Z 0000000180158630 f i libucrt:output.obj
 0001:00157648       ??$extract_argument_from_va_list@F_J@?$standard_base@_WV?$string_output_adapter@_W@__crt_stdio_output@@@__crt_stdio_output@@IEAA_NAEA_J@Z 0000000180158648 f i libucrt:output.obj
 0001:00157660       ??$extract_argument_from_va_list@GD@?$positional_parameter_base@DV?$stream_output_adapter@D@__crt_stdio_output@@@__crt_stdio_output@@IEAA_NAEAD@Z 0000000180158660 f i libucrt:output.obj
 0001:00157764       ??$extract_argument_from_va_list@GD@?$positional_parameter_base@DV?$string_output_adapter@D@__crt_stdio_output@@@__crt_stdio_output@@IEAA_NAEAD@Z 0000000180158764 f i libucrt:output.obj
 0001:00157868       ??$extract_argument_from_va_list@GD@?$standard_base@DV?$stream_output_adapter@D@__crt_stdio_output@@@__crt_stdio_output@@IEAA_NAEAD@Z 0000000180158868 f i libucrt:output.obj
 0001:0015787c       ??$extract_argument_from_va_list@GD@?$standard_base@DV?$string_output_adapter@D@__crt_stdio_output@@@__crt_stdio_output@@IEAA_NAEAD@Z 000000018015887c f i libucrt:output.obj
 0001:00157890       ??$extract_argument_from_va_list@G_J@?$positional_parameter_base@DV?$stream_output_adapter@D@__crt_stdio_output@@@__crt_stdio_output@@IEAA_NAEA_J@Z 0000000180158890 f i libucrt:output.obj
 0001:00157998       ??$extract_argument_from_va_list@G_J@?$positional_parameter_base@DV?$string_output_adapter@D@__crt_stdio_output@@@__crt_stdio_output@@IEAA_NAEA_J@Z 0000000180158998 f i libucrt:output.obj
 0001:00157aa0       ??$extract_argument_from_va_list@G_J@?$positional_parameter_base@_WV?$stream_output_adapter@_W@__crt_stdio_output@@@__crt_stdio_output@@IEAA_NAEA_J@Z 0000000180158aa0 f i libucrt:output.obj
 0001:00157bac       ??$extract_argument_from_va_list@G_J@?$positional_parameter_base@_WV?$string_output_adapter@_W@__crt_stdio_output@@@__crt_stdio_output@@IEAA_NAEA_J@Z 0000000180158bac f i libucrt:output.obj
 0001:00157cb8       ??$extract_argument_from_va_list@G_J@?$standard_base@DV?$stream_output_adapter@D@__crt_stdio_output@@@__crt_stdio_output@@IEAA_NAEA_J@Z 0000000180158cb8 f i libucrt:output.obj
 0001:00157cd0       ??$extract_argument_from_va_list@G_J@?$standard_base@DV?$string_output_adapter@D@__crt_stdio_output@@@__crt_stdio_output@@IEAA_NAEA_J@Z 0000000180158cd0 f i libucrt:output.obj
 0001:00157ce8       ??$extract_argument_from_va_list@G_J@?$standard_base@_WV?$stream_output_adapter@_W@__crt_stdio_output@@@__crt_stdio_output@@IEAA_NAEA_J@Z 0000000180158ce8 f i libucrt:output.obj
 0001:00157d00       ??$extract_argument_from_va_list@G_J@?$standard_base@_WV?$string_output_adapter@_W@__crt_stdio_output@@@__crt_stdio_output@@IEAA_NAEA_J@Z 0000000180158d00 f i libucrt:output.obj
 0001:00157d18       ??$extract_argument_from_va_list@H_J@?$positional_parameter_base@DV?$stream_output_adapter@D@__crt_stdio_output@@@__crt_stdio_output@@IEAA_NAEA_J@Z 0000000180158d18 f i libucrt:output.obj
 0001:00157e20       ??$extract_argument_from_va_list@H_J@?$positional_parameter_base@DV?$string_output_adapter@D@__crt_stdio_output@@@__crt_stdio_output@@IEAA_NAEA_J@Z 0000000180158e20 f i libucrt:output.obj
 0001:00157f28       ??$extract_argument_from_va_list@H_J@?$positional_parameter_base@_WV?$stream_output_adapter@_W@__crt_stdio_output@@@__crt_stdio_output@@IEAA_NAEA_J@Z 0000000180158f28 f i libucrt:output.obj
 0001:00158034       ??$extract_argument_from_va_list@H_J@?$positional_parameter_base@_WV?$string_output_adapter@_W@__crt_stdio_output@@@__crt_stdio_output@@IEAA_NAEA_J@Z 0000000180159034 f i libucrt:output.obj
 0001:00158140       ??$extract_argument_from_va_list@H_J@?$standard_base@DV?$stream_output_adapter@D@__crt_stdio_output@@@__crt_stdio_output@@IEAA_NAEA_J@Z 0000000180159140 f i libucrt:output.obj
 0001:00158158       ??$extract_argument_from_va_list@H_J@?$standard_base@DV?$string_output_adapter@D@__crt_stdio_output@@@__crt_stdio_output@@IEAA_NAEA_J@Z 0000000180159158 f i libucrt:output.obj
 0001:00158170       ??$extract_argument_from_va_list@H_J@?$standard_base@_WV?$stream_output_adapter@_W@__crt_stdio_output@@@__crt_stdio_output@@IEAA_NAEA_J@Z 0000000180159170 f i libucrt:output.obj
 0001:00158188       ??$extract_argument_from_va_list@H_J@?$standard_base@_WV?$string_output_adapter@_W@__crt_stdio_output@@@__crt_stdio_output@@IEAA_NAEA_J@Z 0000000180159188 f i libucrt:output.obj
 0001:001581a0       ??$extract_argument_from_va_list@I_J@?$positional_parameter_base@DV?$stream_output_adapter@D@__crt_stdio_output@@@__crt_stdio_output@@IEAA_NAEA_J@Z 00000001801591a0 f i libucrt:output.obj
 0001:001582a8       ??$extract_argument_from_va_list@I_J@?$positional_parameter_base@DV?$string_output_adapter@D@__crt_stdio_output@@@__crt_stdio_output@@IEAA_NAEA_J@Z 00000001801592a8 f i libucrt:output.obj
 0001:001583b0       ??$extract_argument_from_va_list@I_J@?$positional_parameter_base@_WV?$stream_output_adapter@_W@__crt_stdio_output@@@__crt_stdio_output@@IEAA_NAEA_J@Z 00000001801593b0 f i libucrt:output.obj
 0001:001584b8       ??$extract_argument_from_va_list@I_J@?$positional_parameter_base@_WV?$string_output_adapter@_W@__crt_stdio_output@@@__crt_stdio_output@@IEAA_NAEA_J@Z 00000001801594b8 f i libucrt:output.obj
 0001:001585c0       ??$extract_argument_from_va_list@I_J@?$standard_base@DV?$stream_output_adapter@D@__crt_stdio_output@@@__crt_stdio_output@@IEAA_NAEA_J@Z 00000001801595c0 f i libucrt:output.obj
 0001:001585d8       ??$extract_argument_from_va_list@I_J@?$standard_base@DV?$string_output_adapter@D@__crt_stdio_output@@@__crt_stdio_output@@IEAA_NAEA_J@Z 00000001801595d8 f i libucrt:output.obj
 0001:001585f0       ??$extract_argument_from_va_list@I_J@?$standard_base@_WV?$stream_output_adapter@_W@__crt_stdio_output@@@__crt_stdio_output@@IEAA_NAEA_J@Z 00000001801595f0 f i libucrt:output.obj
 0001:00158608       ??$extract_argument_from_va_list@I_J@?$standard_base@_WV?$string_output_adapter@_W@__crt_stdio_output@@@__crt_stdio_output@@IEAA_NAEA_J@Z 0000000180159608 f i libucrt:output.obj
 0001:00158620       ??$extract_argument_from_va_list@PEADPEAD@?$positional_parameter_base@DV?$stream_output_adapter@D@__crt_stdio_output@@@__crt_stdio_output@@IEAA_NAEAPEAD@Z 0000000180159620 f i libucrt:output.obj
 0001:00158728       ??$extract_argument_from_va_list@PEADPEAD@?$positional_parameter_base@DV?$string_output_adapter@D@__crt_stdio_output@@@__crt_stdio_output@@IEAA_NAEAPEAD@Z 0000000180159728 f i libucrt:output.obj
 0001:00158830       ??$extract_argument_from_va_list@PEADPEAD@?$positional_parameter_base@_WV?$stream_output_adapter@_W@__crt_stdio_output@@@__crt_stdio_output@@IEAA_NAEAPEAD@Z 0000000180159830 f i libucrt:output.obj
 0001:0015893c       ??$extract_argument_from_va_list@PEADPEAD@?$positional_parameter_base@_WV?$string_output_adapter@_W@__crt_stdio_output@@@__crt_stdio_output@@IEAA_NAEAPEAD@Z 000000018015993c f i libucrt:output.obj
 0001:00158a48       ??$extract_argument_from_va_list@PEADPEAD@?$standard_base@DV?$stream_output_adapter@D@__crt_stdio_output@@@__crt_stdio_output@@IEAA_NAEAPEAD@Z 0000000180159a48 f i libucrt:output.obj
 0001:00158a60       ??$extract_argument_from_va_list@PEADPEAD@?$standard_base@DV?$string_output_adapter@D@__crt_stdio_output@@@__crt_stdio_output@@IEAA_NAEAPEAD@Z 0000000180159a60 f i libucrt:output.obj
 0001:00158a78       ??$extract_argument_from_va_list@PEADPEAD@?$standard_base@_WV?$stream_output_adapter@_W@__crt_stdio_output@@@__crt_stdio_output@@IEAA_NAEAPEAD@Z 0000000180159a78 f i libucrt:output.obj
 0001:00158a90       ??$extract_argument_from_va_list@PEADPEAD@?$standard_base@_WV?$string_output_adapter@_W@__crt_stdio_output@@@__crt_stdio_output@@IEAA_NAEAPEAD@Z 0000000180159a90 f i libucrt:output.obj
 0001:00158aa8       ??$extract_argument_from_va_list@PEAUansi_string@?1??type_case_Z@?$output_processor@DV?$stream_output_adapter@D@__crt_stdio_output@@V?$format_validation_base@DV?$stream_output_adapter@D@__crt_stdio_output@@@2@@__crt_stdio_output@@AEAA_NXZ@PEAU1?1??234@AEAA_NXZ@@?$standard_base@DV?$stream_output_adapter@D@__crt_stdio_output@@@__crt_stdio_output@@IEAA_NAEAPEAUansi_string@?1??type_case_Z@?$output_processor@DV?$stream_output_adapter@D@__crt_stdio_output@@V?$format_validation_base@DV?$stream_output_adapter@D@__crt_stdio_output@@@2@@1@AEAA_NXZ@@Z 0000000180159aa8 f i libucrt:output.obj
 0001:00158ac0       ??$extract_argument_from_va_list@PEAUansi_string@?1??type_case_Z@?$output_processor@DV?$stream_output_adapter@D@__crt_stdio_output@@V?$positional_parameter_base@DV?$stream_output_adapter@D@__crt_stdio_output@@@2@@__crt_stdio_output@@AEAA_NXZ@PEAU1?1??234@AEAA_NXZ@@?$positional_parameter_base@DV?$stream_output_adapter@D@__crt_stdio_output@@@__crt_stdio_output@@IEAA_NAEAPEAUansi_string@?1??type_case_Z@?$output_processor@DV?$stream_output_adapter@D@__crt_stdio_output@@V?$positional_parameter_base@DV?$stream_output_adapter@D@__crt_stdio_output@@@2@@1@AEAA_NXZ@@Z 0000000180159ac0 f i libucrt:output.obj
 0001:00158bc8       ??$extract_argument_from_va_list@PEAUansi_string@?1??type_case_Z@?$output_processor@DV?$stream_output_adapter@D@__crt_stdio_output@@V?$positional_parameter_base@DV?$stream_output_adapter@D@__crt_stdio_output@@@2@@__crt_stdio_output@@AEAA_NXZ@PEAU1?1??234@AEAA_NXZ@@?$standard_base@DV?$stream_output_adapter@D@__crt_stdio_output@@@__crt_stdio_output@@IEAA_NAEAPEAUansi_string@?1??type_case_Z@?$output_processor@DV?$stream_output_adapter@D@__crt_stdio_output@@V?$positional_parameter_base@DV?$stream_output_adapter@D@__crt_stdio_output@@@2@@1@AEAA_NXZ@@Z 0000000180159bc8 f i libucrt:output.obj
 0001:00158be0       ??$extract_argument_from_va_list@PEAUansi_string@?1??type_case_Z@?$output_processor@DV?$stream_output_adapter@D@__crt_stdio_output@@V?$standard_base@DV?$stream_output_adapter@D@__crt_stdio_output@@@2@@__crt_stdio_output@@AEAA_NXZ@PEAU1?1??234@AEAA_NXZ@@?$standard_base@DV?$stream_output_adapter@D@__crt_stdio_output@@@__crt_stdio_output@@IEAA_NAEAPEAUansi_string@?1??type_case_Z@?$output_processor@DV?$stream_output_adapter@D@__crt_stdio_output@@V?$standard_base@DV?$stream_output_adapter@D@__crt_stdio_output@@@2@@1@AEAA_NXZ@@Z 0000000180159be0 f i libucrt:output.obj
 0001:00158bf8       ??$extract_argument_from_va_list@PEAUansi_string@?1??type_case_Z@?$output_processor@DV?$string_output_adapter@D@__crt_stdio_output@@V?$format_validation_base@DV?$string_output_adapter@D@__crt_stdio_output@@@2@@__crt_stdio_output@@AEAA_NXZ@PEAU1?1??234@AEAA_NXZ@@?$standard_base@DV?$string_output_adapter@D@__crt_stdio_output@@@__crt_stdio_output@@IEAA_NAEAPEAUansi_string@?1??type_case_Z@?$output_processor@DV?$string_output_adapter@D@__crt_stdio_output@@V?$format_validation_base@DV?$string_output_adapter@D@__crt_stdio_output@@@2@@1@AEAA_NXZ@@Z 0000000180159bf8 f i libucrt:output.obj
 0001:00158c10       ??$extract_argument_from_va_list@PEAUansi_string@?1??type_case_Z@?$output_processor@DV?$string_output_adapter@D@__crt_stdio_output@@V?$positional_parameter_base@DV?$string_output_adapter@D@__crt_stdio_output@@@2@@__crt_stdio_output@@AEAA_NXZ@PEAU1?1??234@AEAA_NXZ@@?$positional_parameter_base@DV?$string_output_adapter@D@__crt_stdio_output@@@__crt_stdio_output@@IEAA_NAEAPEAUansi_string@?1??type_case_Z@?$output_processor@DV?$string_output_adapter@D@__crt_stdio_output@@V?$positional_parameter_base@DV?$string_output_adapter@D@__crt_stdio_output@@@2@@1@AEAA_NXZ@@Z 0000000180159c10 f i libucrt:output.obj
 0001:00158d18       ??$extract_argument_from_va_list@PEAUansi_string@?1??type_case_Z@?$output_processor@DV?$string_output_adapter@D@__crt_stdio_output@@V?$positional_parameter_base@DV?$string_output_adapter@D@__crt_stdio_output@@@2@@__crt_stdio_output@@AEAA_NXZ@PEAU1?1??234@AEAA_NXZ@@?$standard_base@DV?$string_output_adapter@D@__crt_stdio_output@@@__crt_stdio_output@@IEAA_NAEAPEAUansi_string@?1??type_case_Z@?$output_processor@DV?$string_output_adapter@D@__crt_stdio_output@@V?$positional_parameter_base@DV?$string_output_adapter@D@__crt_stdio_output@@@2@@1@AEAA_NXZ@@Z 0000000180159d18 f i libucrt:output.obj
 0001:00158d30       ??$extract_argument_from_va_list@PEAUansi_string@?1??type_case_Z@?$output_processor@DV?$string_output_adapter@D@__crt_stdio_output@@V?$standard_base@DV?$string_output_adapter@D@__crt_stdio_output@@@2@@__crt_stdio_output@@AEAA_NXZ@PEAU1?1??234@AEAA_NXZ@@?$standard_base@DV?$string_output_adapter@D@__crt_stdio_output@@@__crt_stdio_output@@IEAA_NAEAPEAUansi_string@?1??type_case_Z@?$output_processor@DV?$string_output_adapter@D@__crt_stdio_output@@V?$standard_base@DV?$string_output_adapter@D@__crt_stdio_output@@@2@@1@AEAA_NXZ@@Z 0000000180159d30 f i libucrt:output.obj
 0001:00158d48       ??$extract_argument_from_va_list@PEAUansi_string@?1??type_case_Z@?$output_processor@_WV?$stream_output_adapter@_W@__crt_stdio_output@@V?$format_validation_base@_WV?$stream_output_adapter@_W@__crt_stdio_output@@@2@@__crt_stdio_output@@AEAA_NXZ@PEAU1?1??234@AEAA_NXZ@@?$standard_base@_WV?$stream_output_adapter@_W@__crt_stdio_output@@@__crt_stdio_output@@IEAA_NAEAPEAUansi_string@?1??type_case_Z@?$output_processor@_WV?$stream_output_adapter@_W@__crt_stdio_output@@V?$format_validation_base@_WV?$stream_output_adapter@_W@__crt_stdio_output@@@2@@1@AEAA_NXZ@@Z 0000000180159d48 f i libucrt:output.obj
 0001:00158d60       ??$extract_argument_from_va_list@PEAUansi_string@?1??type_case_Z@?$output_processor@_WV?$stream_output_adapter@_W@__crt_stdio_output@@V?$positional_parameter_base@_WV?$stream_output_adapter@_W@__crt_stdio_output@@@2@@__crt_stdio_output@@AEAA_NXZ@PEAU1?1??234@AEAA_NXZ@@?$positional_parameter_base@_WV?$stream_output_adapter@_W@__crt_stdio_output@@@__crt_stdio_output@@IEAA_NAEAPEAUansi_string@?1??type_case_Z@?$output_processor@_WV?$stream_output_adapter@_W@__crt_stdio_output@@V?$positional_parameter_base@_WV?$stream_output_adapter@_W@__crt_stdio_output@@@2@@1@AEAA_NXZ@@Z 0000000180159d60 f i libucrt:output.obj
 0001:00158e6c       ??$extract_argument_from_va_list@PEAUansi_string@?1??type_case_Z@?$output_processor@_WV?$stream_output_adapter@_W@__crt_stdio_output@@V?$positional_parameter_base@_WV?$stream_output_adapter@_W@__crt_stdio_output@@@2@@__crt_stdio_output@@AEAA_NXZ@PEAU1?1??234@AEAA_NXZ@@?$standard_base@_WV?$stream_output_adapter@_W@__crt_stdio_output@@@__crt_stdio_output@@IEAA_NAEAPEAUansi_string@?1??type_case_Z@?$output_processor@_WV?$stream_output_adapter@_W@__crt_stdio_output@@V?$positional_parameter_base@_WV?$stream_output_adapter@_W@__crt_stdio_output@@@2@@1@AEAA_NXZ@@Z 0000000180159e6c f i libucrt:output.obj
 0001:00158e84       ??$extract_argument_from_va_list@PEAUansi_string@?1??type_case_Z@?$output_processor@_WV?$stream_output_adapter@_W@__crt_stdio_output@@V?$standard_base@_WV?$stream_output_adapter@_W@__crt_stdio_output@@@2@@__crt_stdio_output@@AEAA_NXZ@PEAU1?1??234@AEAA_NXZ@@?$standard_base@_WV?$stream_output_adapter@_W@__crt_stdio_output@@@__crt_stdio_output@@IEAA_NAEAPEAUansi_string@?1??type_case_Z@?$output_processor@_WV?$stream_output_adapter@_W@__crt_stdio_output@@V?$standard_base@_WV?$stream_output_adapter@_W@__crt_stdio_output@@@2@@1@AEAA_NXZ@@Z 0000000180159e84 f i libucrt:output.obj
 0001:00158e9c       ??$extract_argument_from_va_list@PEAUansi_string@?1??type_case_Z@?$output_processor@_WV?$string_output_adapter@_W@__crt_stdio_output@@V?$format_validation_base@_WV?$string_output_adapter@_W@__crt_stdio_output@@@2@@__crt_stdio_output@@AEAA_NXZ@PEAU1?1??234@AEAA_NXZ@@?$standard_base@_WV?$string_output_adapter@_W@__crt_stdio_output@@@__crt_stdio_output@@IEAA_NAEAPEAUansi_string@?1??type_case_Z@?$output_processor@_WV?$string_output_adapter@_W@__crt_stdio_output@@V?$format_validation_base@_WV?$string_output_adapter@_W@__crt_stdio_output@@@2@@1@AEAA_NXZ@@Z 0000000180159e9c f i libucrt:output.obj
 0001:00158eb4       ??$extract_argument_from_va_list@PEAUansi_string@?1??type_case_Z@?$output_processor@_WV?$string_output_adapter@_W@__crt_stdio_output@@V?$positional_parameter_base@_WV?$string_output_adapter@_W@__crt_stdio_output@@@2@@__crt_stdio_output@@AEAA_NXZ@PEAU1?1??234@AEAA_NXZ@@?$positional_parameter_base@_WV?$string_output_adapter@_W@__crt_stdio_output@@@__crt_stdio_output@@IEAA_NAEAPEAUansi_string@?1??type_case_Z@?$output_processor@_WV?$string_output_adapter@_W@__crt_stdio_output@@V?$positional_parameter_base@_WV?$string_output_adapter@_W@__crt_stdio_output@@@2@@1@AEAA_NXZ@@Z 0000000180159eb4 f i libucrt:output.obj
 0001:00158fc0       ??$extract_argument_from_va_list@PEAUansi_string@?1??type_case_Z@?$output_processor@_WV?$string_output_adapter@_W@__crt_stdio_output@@V?$positional_parameter_base@_WV?$string_output_adapter@_W@__crt_stdio_output@@@2@@__crt_stdio_output@@AEAA_NXZ@PEAU1?1??234@AEAA_NXZ@@?$standard_base@_WV?$string_output_adapter@_W@__crt_stdio_output@@@__crt_stdio_output@@IEAA_NAEAPEAUansi_string@?1??type_case_Z@?$output_processor@_WV?$string_output_adapter@_W@__crt_stdio_output@@V?$positional_parameter_base@_WV?$string_output_adapter@_W@__crt_stdio_output@@@2@@1@AEAA_NXZ@@Z 0000000180159fc0 f i libucrt:output.obj
 0001:00158fd8       ??$extract_argument_from_va_list@PEAUansi_string@?1??type_case_Z@?$output_processor@_WV?$string_output_adapter@_W@__crt_stdio_output@@V?$standard_base@_WV?$string_output_adapter@_W@__crt_stdio_output@@@2@@__crt_stdio_output@@AEAA_NXZ@PEAU1?1??234@AEAA_NXZ@@?$standard_base@_WV?$string_output_adapter@_W@__crt_stdio_output@@@__crt_stdio_output@@IEAA_NAEAPEAUansi_string@?1??type_case_Z@?$output_processor@_WV?$string_output_adapter@_W@__crt_stdio_output@@V?$standard_base@_WV?$string_output_adapter@_W@__crt_stdio_output@@@2@@1@AEAA_NXZ@@Z 0000000180159fd8 f i libucrt:output.obj
 0001:00158ff0       ??$extract_argument_from_va_list@PEAXPEAX@?$positional_parameter_base@DV?$stream_output_adapter@D@__crt_stdio_output@@@__crt_stdio_output@@IEAA_NAEAPEAX@Z 0000000180159ff0 f i libucrt:output.obj
 0001:001590f8       ??$extract_argument_from_va_list@PEAXPEAX@?$positional_parameter_base@DV?$string_output_adapter@D@__crt_stdio_output@@@__crt_stdio_output@@IEAA_NAEAPEAX@Z 000000018015a0f8 f i libucrt:output.obj
 0001:00159200       ??$extract_argument_from_va_list@PEAXPEAX@?$positional_parameter_base@_WV?$stream_output_adapter@_W@__crt_stdio_output@@@__crt_stdio_output@@IEAA_NAEAPEAX@Z 000000018015a200 f i libucrt:output.obj
 0001:0015930c       ??$extract_argument_from_va_list@PEAXPEAX@?$positional_parameter_base@_WV?$string_output_adapter@_W@__crt_stdio_output@@@__crt_stdio_output@@IEAA_NAEAPEAX@Z 000000018015a30c f i libucrt:output.obj
 0001:00159418       ??$extract_argument_from_va_list@PEAXPEAX@?$standard_base@DV?$stream_output_adapter@D@__crt_stdio_output@@@__crt_stdio_output@@IEAA_NAEAPEAX@Z 000000018015a418 f i libucrt:output.obj
 0001:00159430       ??$extract_argument_from_va_list@PEAXPEAX@?$standard_base@DV?$string_output_adapter@D@__crt_stdio_output@@@__crt_stdio_output@@IEAA_NAEAPEAX@Z 000000018015a430 f i libucrt:output.obj
 0001:00159448       ??$extract_argument_from_va_list@PEAXPEAX@?$standard_base@_WV?$stream_output_adapter@_W@__crt_stdio_output@@@__crt_stdio_output@@IEAA_NAEAPEAX@Z 000000018015a448 f i libucrt:output.obj
 0001:00159460       ??$extract_argument_from_va_list@PEAXPEAX@?$standard_base@_WV?$string_output_adapter@_W@__crt_stdio_output@@@__crt_stdio_output@@IEAA_NAEAPEAX@Z 000000018015a460 f i libucrt:output.obj
 0001:00159478       ??$extract_argument_from_va_list@U_CRT_DOUBLE@@U1@@?$positional_parameter_base@DV?$stream_output_adapter@D@__crt_stdio_output@@@__crt_stdio_output@@IEAA_NAEAU_CRT_DOUBLE@@@Z 000000018015a478 f i libucrt:output.obj
 0001:00159580       ??$extract_argument_from_va_list@U_CRT_DOUBLE@@U1@@?$positional_parameter_base@DV?$string_output_adapter@D@__crt_stdio_output@@@__crt_stdio_output@@IEAA_NAEAU_CRT_DOUBLE@@@Z 000000018015a580 f i libucrt:output.obj
 0001:00159688       ??$extract_argument_from_va_list@U_CRT_DOUBLE@@U1@@?$positional_parameter_base@_WV?$stream_output_adapter@_W@__crt_stdio_output@@@__crt_stdio_output@@IEAA_NAEAU_CRT_DOUBLE@@@Z 000000018015a688 f i libucrt:output.obj
 0001:00159794       ??$extract_argument_from_va_list@U_CRT_DOUBLE@@U1@@?$positional_parameter_base@_WV?$string_output_adapter@_W@__crt_stdio_output@@@__crt_stdio_output@@IEAA_NAEAU_CRT_DOUBLE@@@Z 000000018015a794 f i libucrt:output.obj
 0001:001598a0       ??$extract_argument_from_va_list@U_CRT_DOUBLE@@U1@@?$standard_base@DV?$stream_output_adapter@D@__crt_stdio_output@@@__crt_stdio_output@@IEAA_NAEAU_CRT_DOUBLE@@@Z 000000018015a8a0 f i libucrt:output.obj
 0001:001598b8       ??$extract_argument_from_va_list@U_CRT_DOUBLE@@U1@@?$standard_base@DV?$string_output_adapter@D@__crt_stdio_output@@@__crt_stdio_output@@IEAA_NAEAU_CRT_DOUBLE@@@Z 000000018015a8b8 f i libucrt:output.obj
 0001:001598d0       ??$extract_argument_from_va_list@U_CRT_DOUBLE@@U1@@?$standard_base@_WV?$stream_output_adapter@_W@__crt_stdio_output@@@__crt_stdio_output@@IEAA_NAEAU_CRT_DOUBLE@@@Z 000000018015a8d0 f i libucrt:output.obj
 0001:001598e8       ??$extract_argument_from_va_list@U_CRT_DOUBLE@@U1@@?$standard_base@_WV?$string_output_adapter@_W@__crt_stdio_output@@@__crt_stdio_output@@IEAA_NAEAU_CRT_DOUBLE@@@Z 000000018015a8e8 f i libucrt:output.obj
 0001:00159900       ??$extract_argument_from_va_list@_J_J@?$positional_parameter_base@DV?$stream_output_adapter@D@__crt_stdio_output@@@__crt_stdio_output@@IEAA_NAEA_J@Z 000000018015a900 f i libucrt:output.obj
 0001:00159a08       ??$extract_argument_from_va_list@_J_J@?$positional_parameter_base@DV?$string_output_adapter@D@__crt_stdio_output@@@__crt_stdio_output@@IEAA_NAEA_J@Z 000000018015aa08 f i libucrt:output.obj
 0001:00159b10       ??$extract_argument_from_va_list@_J_J@?$positional_parameter_base@_WV?$stream_output_adapter@_W@__crt_stdio_output@@@__crt_stdio_output@@IEAA_NAEA_J@Z 000000018015ab10 f i libucrt:output.obj
 0001:00159c1c       ??$extract_argument_from_va_list@_J_J@?$positional_parameter_base@_WV?$string_output_adapter@_W@__crt_stdio_output@@@__crt_stdio_output@@IEAA_NAEA_J@Z 000000018015ac1c f i libucrt:output.obj
 0001:00159d28       ??$extract_argument_from_va_list@_J_J@?$standard_base@DV?$stream_output_adapter@D@__crt_stdio_output@@@__crt_stdio_output@@IEAA_NAEA_J@Z 000000018015ad28 f i libucrt:output.obj
 0001:00159d40       ??$extract_argument_from_va_list@_J_J@?$standard_base@DV?$string_output_adapter@D@__crt_stdio_output@@@__crt_stdio_output@@IEAA_NAEA_J@Z 000000018015ad40 f i libucrt:output.obj
 0001:00159d58       ??$extract_argument_from_va_list@_J_J@?$standard_base@_WV?$stream_output_adapter@_W@__crt_stdio_output@@@__crt_stdio_output@@IEAA_NAEA_J@Z 000000018015ad58 f i libucrt:output.obj
 0001:00159d70       ??$extract_argument_from_va_list@_J_J@?$standard_base@_WV?$string_output_adapter@_W@__crt_stdio_output@@@__crt_stdio_output@@IEAA_NAEA_J@Z 000000018015ad70 f i libucrt:output.obj
 0001:00159d88       ??$extract_argument_from_va_list@_K_J@?$positional_parameter_base@DV?$stream_output_adapter@D@__crt_stdio_output@@@__crt_stdio_output@@IEAA_NAEA_J@Z 000000018015ad88 f i libucrt:output.obj
 0001:00159e90       ??$extract_argument_from_va_list@_K_J@?$positional_parameter_base@DV?$string_output_adapter@D@__crt_stdio_output@@@__crt_stdio_output@@IEAA_NAEA_J@Z 000000018015ae90 f i libucrt:output.obj
 0001:00159f98       ??$extract_argument_from_va_list@_K_J@?$positional_parameter_base@_WV?$stream_output_adapter@_W@__crt_stdio_output@@@__crt_stdio_output@@IEAA_NAEA_J@Z 000000018015af98 f i libucrt:output.obj
 0001:0015a0a4       ??$extract_argument_from_va_list@_K_J@?$positional_parameter_base@_WV?$string_output_adapter@_W@__crt_stdio_output@@@__crt_stdio_output@@IEAA_NAEA_J@Z 000000018015b0a4 f i libucrt:output.obj
 0001:0015a1b0       ??$extract_argument_from_va_list@_K_J@?$standard_base@DV?$stream_output_adapter@D@__crt_stdio_output@@@__crt_stdio_output@@IEAA_NAEA_J@Z 000000018015b1b0 f i libucrt:output.obj
 0001:0015a1c8       ??$extract_argument_from_va_list@_K_J@?$standard_base@DV?$string_output_adapter@D@__crt_stdio_output@@@__crt_stdio_output@@IEAA_NAEA_J@Z 000000018015b1c8 f i libucrt:output.obj
 0001:0015a1e0       ??$extract_argument_from_va_list@_K_J@?$standard_base@_WV?$stream_output_adapter@_W@__crt_stdio_output@@@__crt_stdio_output@@IEAA_NAEA_J@Z 000000018015b1e0 f i libucrt:output.obj
 0001:0015a1f8       ??$extract_argument_from_va_list@_K_J@?$standard_base@_WV?$string_output_adapter@_W@__crt_stdio_output@@@__crt_stdio_output@@IEAA_NAEA_J@Z 000000018015b1f8 f i libucrt:output.obj
 0001:0015a210       ??$extract_argument_from_va_list@_W_W@?$positional_parameter_base@DV?$stream_output_adapter@D@__crt_stdio_output@@@__crt_stdio_output@@IEAA_NAEA_W@Z 000000018015b210 f i libucrt:output.obj
 0001:0015a318       ??$extract_argument_from_va_list@_W_W@?$positional_parameter_base@DV?$string_output_adapter@D@__crt_stdio_output@@@__crt_stdio_output@@IEAA_NAEA_W@Z 000000018015b318 f i libucrt:output.obj
 0001:0015a420       ??$extract_argument_from_va_list@_W_W@?$positional_parameter_base@_WV?$stream_output_adapter@_W@__crt_stdio_output@@@__crt_stdio_output@@IEAA_NAEA_W@Z 000000018015b420 f i libucrt:output.obj
 0001:0015a52c       ??$extract_argument_from_va_list@_W_W@?$positional_parameter_base@_WV?$string_output_adapter@_W@__crt_stdio_output@@@__crt_stdio_output@@IEAA_NAEA_W@Z 000000018015b52c f i libucrt:output.obj
 0001:0015a638       ??$extract_argument_from_va_list@_W_W@?$standard_base@DV?$stream_output_adapter@D@__crt_stdio_output@@@__crt_stdio_output@@IEAA_NAEA_W@Z 000000018015b638 f i libucrt:output.obj
 0001:0015a650       ??$extract_argument_from_va_list@_W_W@?$standard_base@DV?$string_output_adapter@D@__crt_stdio_output@@@__crt_stdio_output@@IEAA_NAEA_W@Z 000000018015b650 f i libucrt:output.obj
 0001:0015a668       ??$extract_argument_from_va_list@_W_W@?$standard_base@_WV?$stream_output_adapter@_W@__crt_stdio_output@@@__crt_stdio_output@@IEAA_NAEA_W@Z 000000018015b668 f i libucrt:output.obj
 0001:0015a680       ??$extract_argument_from_va_list@_W_W@?$standard_base@_WV?$string_output_adapter@_W@__crt_stdio_output@@@__crt_stdio_output@@IEAA_NAEA_W@Z 000000018015b680 f i libucrt:output.obj
 0001:0015a698       ??$get_parameter_type@D@?$positional_parameter_base@DV?$stream_output_adapter@D@__crt_stdio_output@@@__crt_stdio_output@@CA?AW4parameter_type@01@PEAD@Z 000000018015b698 f i libucrt:output.obj
 0001:0015a6a0       ??$get_parameter_type@D@?$positional_parameter_base@DV?$string_output_adapter@D@__crt_stdio_output@@@__crt_stdio_output@@CA?AW4parameter_type@01@PEAD@Z 000000018015b6a0 f i libucrt:output.obj
 0001:0015a6a8       ??$get_parameter_type@D@?$positional_parameter_base@_WV?$stream_output_adapter@_W@__crt_stdio_output@@@__crt_stdio_output@@CA?AW4parameter_type@01@PEAD@Z 000000018015b6a8 f i libucrt:output.obj
 0001:0015a6b0       ??$get_parameter_type@D@?$positional_parameter_base@_WV?$string_output_adapter@_W@__crt_stdio_output@@@__crt_stdio_output@@CA?AW4parameter_type@01@PEAD@Z 000000018015b6b0 f i libucrt:output.obj
 0001:0015a6b8       ??$get_parameter_type@Uansi_string@?1??type_case_Z@?$output_processor@DV?$stream_output_adapter@D@__crt_stdio_output@@V?$positional_parameter_base@DV?$stream_output_adapter@D@__crt_stdio_output@@@2@@__crt_stdio_output@@AEAA_NXZ@@?$positional_parameter_base@DV?$stream_output_adapter@D@__crt_stdio_output@@@__crt_stdio_output@@CA?AW4parameter_type@01@PEAUansi_string@?1??type_case_Z@?$output_processor@DV?$stream_output_adapter@D@__crt_stdio_output@@V?$positional_parameter_base@DV?$stream_output_adapter@D@__crt_stdio_output@@@2@@1@AEAA_NXZ@@Z 000000018015b6b8 f i libucrt:output.obj
 0001:0015a6c0       ??$get_parameter_type@Uansi_string@?1??type_case_Z@?$output_processor@DV?$string_output_adapter@D@__crt_stdio_output@@V?$positional_parameter_base@DV?$string_output_adapter@D@__crt_stdio_output@@@2@@__crt_stdio_output@@AEAA_NXZ@@?$positional_parameter_base@DV?$string_output_adapter@D@__crt_stdio_output@@@__crt_stdio_output@@CA?AW4parameter_type@01@PEAUansi_string@?1??type_case_Z@?$output_processor@DV?$string_output_adapter@D@__crt_stdio_output@@V?$positional_parameter_base@DV?$string_output_adapter@D@__crt_stdio_output@@@2@@1@AEAA_NXZ@@Z 000000018015b6c0 f i libucrt:output.obj
 0001:0015a6c8       ??$get_parameter_type@Uansi_string@?1??type_case_Z@?$output_processor@_WV?$stream_output_adapter@_W@__crt_stdio_output@@V?$positional_parameter_base@_WV?$stream_output_adapter@_W@__crt_stdio_output@@@2@@__crt_stdio_output@@AEAA_NXZ@@?$positional_parameter_base@_WV?$stream_output_adapter@_W@__crt_stdio_output@@@__crt_stdio_output@@CA?AW4parameter_type@01@PEAUansi_string@?1??type_case_Z@?$output_processor@_WV?$stream_output_adapter@_W@__crt_stdio_output@@V?$positional_parameter_base@_WV?$stream_output_adapter@_W@__crt_stdio_output@@@2@@1@AEAA_NXZ@@Z 000000018015b6c8 f i libucrt:output.obj
 0001:0015a6d0       ??$get_parameter_type@Uansi_string@?1??type_case_Z@?$output_processor@_WV?$string_output_adapter@_W@__crt_stdio_output@@V?$positional_parameter_base@_WV?$string_output_adapter@_W@__crt_stdio_output@@@2@@__crt_stdio_output@@AEAA_NXZ@@?$positional_parameter_base@_WV?$string_output_adapter@_W@__crt_stdio_output@@@__crt_stdio_output@@CA?AW4parameter_type@01@PEAUansi_string@?1??type_case_Z@?$output_processor@_WV?$string_output_adapter@_W@__crt_stdio_output@@V?$positional_parameter_base@_WV?$string_output_adapter@_W@__crt_stdio_output@@@2@@1@AEAA_NXZ@@Z 000000018015b6d0 f i libucrt:output.obj
 0001:0015a6d8       ??$get_parameter_type@X@?$positional_parameter_base@DV?$stream_output_adapter@D@__crt_stdio_output@@@__crt_stdio_output@@CA?AW4parameter_type@01@PEAX@Z 000000018015b6d8 f i libucrt:output.obj
 0001:0015a6e0       ??$get_parameter_type@X@?$positional_parameter_base@DV?$string_output_adapter@D@__crt_stdio_output@@@__crt_stdio_output@@CA?AW4parameter_type@01@PEAX@Z 000000018015b6e0 f i libucrt:output.obj
 0001:0015a6e8       ??$get_parameter_type@X@?$positional_parameter_base@_WV?$stream_output_adapter@_W@__crt_stdio_output@@@__crt_stdio_output@@CA?AW4parameter_type@01@PEAX@Z 000000018015b6e8 f i libucrt:output.obj
 0001:0015a6f0       ??$get_parameter_type@X@?$positional_parameter_base@_WV?$string_output_adapter@_W@__crt_stdio_output@@@__crt_stdio_output@@CA?AW4parameter_type@01@PEAX@Z 000000018015b6f0 f i libucrt:output.obj
 0001:0015a6f8       ??$is_character_specifier@D@?$positional_parameter_base@DV?$stream_output_adapter@D@__crt_stdio_output@@@__crt_stdio_output@@CA_ND@Z 000000018015b6f8 f i libucrt:output.obj
 0001:0015a704       ??$is_character_specifier@D@?$positional_parameter_base@DV?$string_output_adapter@D@__crt_stdio_output@@@__crt_stdio_output@@CA_ND@Z 000000018015b704 f i libucrt:output.obj
 0001:0015a710       ??$is_character_specifier@_W@?$positional_parameter_base@_WV?$stream_output_adapter@_W@__crt_stdio_output@@@__crt_stdio_output@@CA_N_W@Z 000000018015b710 f i libucrt:output.obj
 0001:0015a720       ??$is_character_specifier@_W@?$positional_parameter_base@_WV?$string_output_adapter@_W@__crt_stdio_output@@@__crt_stdio_output@@CA_N_W@Z 000000018015b720 f i libucrt:output.obj
 0001:0015a730       ??$is_integral_specifier@D@?$positional_parameter_base@DV?$stream_output_adapter@D@__crt_stdio_output@@@__crt_stdio_output@@CA_ND@Z 000000018015b730 f i libucrt:output.obj
 0001:0015a754       ??$is_integral_specifier@D@?$positional_parameter_base@DV?$string_output_adapter@D@__crt_stdio_output@@@__crt_stdio_output@@CA_ND@Z 000000018015b754 f i libucrt:output.obj
 0001:0015a778       ??$is_integral_specifier@_W@?$positional_parameter_base@_WV?$stream_output_adapter@_W@__crt_stdio_output@@@__crt_stdio_output@@CA_N_W@Z 000000018015b778 f i libucrt:output.obj
 0001:0015a7a0       ??$is_integral_specifier@_W@?$positional_parameter_base@_WV?$string_output_adapter@_W@__crt_stdio_output@@@__crt_stdio_output@@CA_N_W@Z 000000018015b7a0 f i libucrt:output.obj
 0001:0015a7c8       ??$is_overflow_condition@K@__crt_strtox@@YA_NIK@Z 000000018015b7c8 f i libucrt:output.obj
 0001:0015a7f0       ??$is_pointer_specifier@D@?$positional_parameter_base@DV?$stream_output_adapter@D@__crt_stdio_output@@@__crt_stdio_output@@CA_ND@Z 000000018015b7f0 f i libucrt:output.obj
 0001:0015a7f8       ??$is_pointer_specifier@D@?$positional_parameter_base@DV?$string_output_adapter@D@__crt_stdio_output@@@__crt_stdio_output@@CA_ND@Z 000000018015b7f8 f i libucrt:output.obj
 0001:0015a800       ??$is_pointer_specifier@_W@?$positional_parameter_base@_WV?$stream_output_adapter@_W@__crt_stdio_output@@@__crt_stdio_output@@CA_N_W@Z 000000018015b800 f i libucrt:output.obj
 0001:0015a808       ??$is_pointer_specifier@_W@?$positional_parameter_base@_WV?$string_output_adapter@_W@__crt_stdio_output@@@__crt_stdio_output@@CA_N_W@Z 000000018015b808 f i libucrt:output.obj
 0001:0015a810       ??$is_string_specifier@D@?$positional_parameter_base@DV?$stream_output_adapter@D@__crt_stdio_output@@@__crt_stdio_output@@CA_ND@Z 000000018015b810 f i libucrt:output.obj
 0001:0015a81c       ??$is_string_specifier@D@?$positional_parameter_base@DV?$string_output_adapter@D@__crt_stdio_output@@@__crt_stdio_output@@CA_ND@Z 000000018015b81c f i libucrt:output.obj
 0001:0015a828       ??$is_string_specifier@_W@?$positional_parameter_base@_WV?$stream_output_adapter@_W@__crt_stdio_output@@@__crt_stdio_output@@CA_N_W@Z 000000018015b828 f i libucrt:output.obj
 0001:0015a838       ??$is_string_specifier@_W@?$positional_parameter_base@_WV?$string_output_adapter@_W@__crt_stdio_output@@@__crt_stdio_output@@CA_N_W@Z 000000018015b838 f i libucrt:output.obj
 0001:0015a848       ??$is_wide_character_specifier@D@__crt_stdio_output@@YA_N_KDW4length_modifier@0@@Z 000000018015b848 f i libucrt:output.obj
 0001:0015a870       ??$is_wide_character_specifier@_W@__crt_stdio_output@@YA_N_K_WW4length_modifier@0@@Z 000000018015b870 f i libucrt:output.obj
 0001:0015a8b0       ??$make_c_string_character_source@DPEAPEAD@__crt_strtox@@YA?AV?$c_string_character_source@D@0@QEBDQEAPEAD@Z 000000018015b8b0 f i libucrt:output.obj
 0001:0015a8c4       ??$make_c_string_character_source@_WPEAPEA_W@__crt_strtox@@YA?AV?$c_string_character_source@_W@0@QEB_WQEAPEA_W@Z 000000018015b8c4 f i libucrt:output.obj
 0001:0015a8d8       ??$parse_integer@KV?$c_string_character_source@D@__crt_strtox@@$0A@@__crt_strtox@@YAKAEAV__crt_cached_ptd_host@@V?$c_string_character_source@D@0@H_N@Z 000000018015b8d8 f i libucrt:output.obj
 0001:0015ab8c       ??$parse_integer@KV?$c_string_character_source@_W@__crt_strtox@@$0A@@__crt_strtox@@YAKAEAV__crt_cached_ptd_host@@V?$c_string_character_source@_W@0@H_N@Z 000000018015bb8c f i libucrt:output.obj
 0001:0015b304       ??$peek_va_arg@C@__crt_stdio_output@@YACPEAD@Z 000000018015c304 f i libucrt:output.obj
 0001:0015b308       ??$peek_va_arg@E@__crt_stdio_output@@YAEPEAD@Z 000000018015c308 f i libucrt:output.obj
 0001:0015b30c       ??$peek_va_arg@F@__crt_stdio_output@@YAFPEAD@Z 000000018015c30c f i libucrt:output.obj
 0001:0015b310       ??$peek_va_arg@G@__crt_stdio_output@@YAGPEAD@Z 000000018015c310 f i libucrt:output.obj
 0001:0015b314       ??$peek_va_arg@H@__crt_stdio_output@@YAHPEAD@Z 000000018015c314 f i libucrt:output.obj
 0001:0015b318       ??$peek_va_arg@I@__crt_stdio_output@@YAIPEAD@Z 000000018015c318 f i libucrt:output.obj
 0001:0015b31c       ??$peek_va_arg@PEAD@__crt_stdio_output@@YAPEADPEAD@Z 000000018015c31c f i libucrt:output.obj
 0001:0015b320       ??$peek_va_arg@PEAUansi_string@?1??type_case_Z@?$output_processor@DV?$stream_output_adapter@D@__crt_stdio_output@@V?$positional_parameter_base@DV?$stream_output_adapter@D@__crt_stdio_output@@@2@@__crt_stdio_output@@AEAA_NXZ@@__crt_stdio_output@@YAPEAUansi_string@?1??type_case_Z@?$output_processor@DV?$stream_output_adapter@D@__crt_stdio_output@@V?$positional_parameter_base@DV?$stream_output_adapter@D@__crt_stdio_output@@@2@@0@AEAA_NXZ@PEAD@Z 000000018015c320 f i libucrt:output.obj
 0001:0015b324       ??$peek_va_arg@PEAUansi_string@?1??type_case_Z@?$output_processor@DV?$string_output_adapter@D@__crt_stdio_output@@V?$positional_parameter_base@DV?$string_output_adapter@D@__crt_stdio_output@@@2@@__crt_stdio_output@@AEAA_NXZ@@__crt_stdio_output@@YAPEAUansi_string@?1??type_case_Z@?$output_processor@DV?$string_output_adapter@D@__crt_stdio_output@@V?$positional_parameter_base@DV?$string_output_adapter@D@__crt_stdio_output@@@2@@0@AEAA_NXZ@PEAD@Z 000000018015c324 f i libucrt:output.obj
 0001:0015b328       ??$peek_va_arg@PEAUansi_string@?1??type_case_Z@?$output_processor@_WV?$stream_output_adapter@_W@__crt_stdio_output@@V?$positional_parameter_base@_WV?$stream_output_adapter@_W@__crt_stdio_output@@@2@@__crt_stdio_output@@AEAA_NXZ@@__crt_stdio_output@@YAPEAUansi_string@?1??type_case_Z@?$output_processor@_WV?$stream_output_adapter@_W@__crt_stdio_output@@V?$positional_parameter_base@_WV?$stream_output_adapter@_W@__crt_stdio_output@@@2@@0@AEAA_NXZ@PEAD@Z 000000018015c328 f i libucrt:output.obj
 0001:0015b32c       ??$peek_va_arg@PEAUansi_string@?1??type_case_Z@?$output_processor@_WV?$string_output_adapter@_W@__crt_stdio_output@@V?$positional_parameter_base@_WV?$string_output_adapter@_W@__crt_stdio_output@@@2@@__crt_stdio_output@@AEAA_NXZ@@__crt_stdio_output@@YAPEAUansi_string@?1??type_case_Z@?$output_processor@_WV?$string_output_adapter@_W@__crt_stdio_output@@V?$positional_parameter_base@_WV?$string_output_adapter@_W@__crt_stdio_output@@@2@@0@AEAA_NXZ@PEAD@Z 000000018015c32c f i libucrt:output.obj
 0001:0015b330       ??$peek_va_arg@PEAX@__crt_stdio_output@@YAPEAXPEAD@Z 000000018015c330 f i libucrt:output.obj
 0001:0015b334       ??$peek_va_arg@U_CRT_DOUBLE@@@__crt_stdio_output@@YA?AU_CRT_DOUBLE@@PEAD@Z 000000018015c334 f i libucrt:output.obj
 0001:0015b338       ??$peek_va_arg@_J@__crt_stdio_output@@YA_JPEAD@Z 000000018015c338 f i libucrt:output.obj
 0001:0015b33c       ??$peek_va_arg@_K@__crt_stdio_output@@YA_KPEAD@Z 000000018015c33c f i libucrt:output.obj
 0001:0015b340       ??$peek_va_arg@_W@__crt_stdio_output@@YA_WPEAD@Z 000000018015c340 f i libucrt:output.obj
 0001:0015b344       ??$puttc_nolock_internal@AEBDPEAU_iobuf@@AEAV__crt_cached_ptd_host@@@?$__crt_char_traits@D@@SAHAEBD$$QEAPEAU_iobuf@@AEAV__crt_cached_ptd_host@@@Z 000000018015c344 f i libucrt:output.obj
 0001:0015b350       ??$puttc_nolock_internal@AEB_WPEAU_iobuf@@AEAV__crt_cached_ptd_host@@@?$__crt_char_traits@_W@@SAGAEB_W$$QEAPEAU_iobuf@@AEAV__crt_cached_ptd_host@@@Z 000000018015c350 f i libucrt:output.obj
 0001:0015b35c       ??$read_va_arg@C@__crt_stdio_output@@YACAEAPEAD@Z 000000018015c35c f i libucrt:output.obj
 0001:0015b36c       ??$read_va_arg@E@__crt_stdio_output@@YAEAEAPEAD@Z 000000018015c36c f i libucrt:output.obj
 0001:0015b37c       ??$read_va_arg@F@__crt_stdio_output@@YAFAEAPEAD@Z 000000018015c37c f i libucrt:output.obj
 0001:0015b38c       ??$read_va_arg@G@__crt_stdio_output@@YAGAEAPEAD@Z 000000018015c38c f i libucrt:output.obj
 0001:0015b39c       ??$read_va_arg@H@__crt_stdio_output@@YAHAEAPEAD@Z 000000018015c39c f i libucrt:output.obj
 0001:0015b3ac       ??$read_va_arg@I@__crt_stdio_output@@YAIAEAPEAD@Z 000000018015c3ac f i libucrt:output.obj
 0001:0015b3bc       ??$read_va_arg@PEAD@__crt_stdio_output@@YAPEADAEAPEAD@Z 000000018015c3bc f i libucrt:output.obj
 0001:0015b3cc       ??$read_va_arg@PEAUansi_string@?1??type_case_Z@?$output_processor@DV?$stream_output_adapter@D@__crt_stdio_output@@V?$format_validation_base@DV?$stream_output_adapter@D@__crt_stdio_output@@@2@@__crt_stdio_output@@AEAA_NXZ@@__crt_stdio_output@@YAPEAUansi_string@?1??type_case_Z@?$output_processor@DV?$stream_output_adapter@D@__crt_stdio_output@@V?$format_validation_base@DV?$stream_output_adapter@D@__crt_stdio_output@@@2@@0@AEAA_NXZ@AEAPEAD@Z 000000018015c3cc f i libucrt:output.obj
 0001:0015b3dc       ??$read_va_arg@PEAUansi_string@?1??type_case_Z@?$output_processor@DV?$stream_output_adapter@D@__crt_stdio_output@@V?$positional_parameter_base@DV?$stream_output_adapter@D@__crt_stdio_output@@@2@@__crt_stdio_output@@AEAA_NXZ@@__crt_stdio_output@@YAPEAUansi_string@?1??type_case_Z@?$output_processor@DV?$stream_output_adapter@D@__crt_stdio_output@@V?$positional_parameter_base@DV?$stream_output_adapter@D@__crt_stdio_output@@@2@@0@AEAA_NXZ@AEAPEAD@Z 000000018015c3dc f i libucrt:output.obj
 0001:0015b3ec       ??$read_va_arg@PEAUansi_string@?1??type_case_Z@?$output_processor@DV?$stream_output_adapter@D@__crt_stdio_output@@V?$standard_base@DV?$stream_output_adapter@D@__crt_stdio_output@@@2@@__crt_stdio_output@@AEAA_NXZ@@__crt_stdio_output@@YAPEAUansi_string@?1??type_case_Z@?$output_processor@DV?$stream_output_adapter@D@__crt_stdio_output@@V?$standard_base@DV?$stream_output_adapter@D@__crt_stdio_output@@@2@@0@AEAA_NXZ@AEAPEAD@Z 000000018015c3ec f i libucrt:output.obj
 0001:0015b3fc       ??$read_va_arg@PEAUansi_string@?1??type_case_Z@?$output_processor@DV?$string_output_adapter@D@__crt_stdio_output@@V?$format_validation_base@DV?$string_output_adapter@D@__crt_stdio_output@@@2@@__crt_stdio_output@@AEAA_NXZ@@__crt_stdio_output@@YAPEAUansi_string@?1??type_case_Z@?$output_processor@DV?$string_output_adapter@D@__crt_stdio_output@@V?$format_validation_base@DV?$string_output_adapter@D@__crt_stdio_output@@@2@@0@AEAA_NXZ@AEAPEAD@Z 000000018015c3fc f i libucrt:output.obj
 0001:0015b40c       ??$read_va_arg@PEAUansi_string@?1??type_case_Z@?$output_processor@DV?$string_output_adapter@D@__crt_stdio_output@@V?$positional_parameter_base@DV?$string_output_adapter@D@__crt_stdio_output@@@2@@__crt_stdio_output@@AEAA_NXZ@@__crt_stdio_output@@YAPEAUansi_string@?1??type_case_Z@?$output_processor@DV?$string_output_adapter@D@__crt_stdio_output@@V?$positional_parameter_base@DV?$string_output_adapter@D@__crt_stdio_output@@@2@@0@AEAA_NXZ@AEAPEAD@Z 000000018015c40c f i libucrt:output.obj
 0001:0015b41c       ??$read_va_arg@PEAUansi_string@?1??type_case_Z@?$output_processor@DV?$string_output_adapter@D@__crt_stdio_output@@V?$standard_base@DV?$string_output_adapter@D@__crt_stdio_output@@@2@@__crt_stdio_output@@AEAA_NXZ@@__crt_stdio_output@@YAPEAUansi_string@?1??type_case_Z@?$output_processor@DV?$string_output_adapter@D@__crt_stdio_output@@V?$standard_base@DV?$string_output_adapter@D@__crt_stdio_output@@@2@@0@AEAA_NXZ@AEAPEAD@Z 000000018015c41c f i libucrt:output.obj
 0001:0015b42c       ??$read_va_arg@PEAUansi_string@?1??type_case_Z@?$output_processor@_WV?$stream_output_adapter@_W@__crt_stdio_output@@V?$format_validation_base@_WV?$stream_output_adapter@_W@__crt_stdio_output@@@2@@__crt_stdio_output@@AEAA_NXZ@@__crt_stdio_output@@YAPEAUansi_string@?1??type_case_Z@?$output_processor@_WV?$stream_output_adapter@_W@__crt_stdio_output@@V?$format_validation_base@_WV?$stream_output_adapter@_W@__crt_stdio_output@@@2@@0@AEAA_NXZ@AEAPEAD@Z 000000018015c42c f i libucrt:output.obj
 0001:0015b43c       ??$read_va_arg@PEAUansi_string@?1??type_case_Z@?$output_processor@_WV?$stream_output_adapter@_W@__crt_stdio_output@@V?$positional_parameter_base@_WV?$stream_output_adapter@_W@__crt_stdio_output@@@2@@__crt_stdio_output@@AEAA_NXZ@@__crt_stdio_output@@YAPEAUansi_string@?1??type_case_Z@?$output_processor@_WV?$stream_output_adapter@_W@__crt_stdio_output@@V?$positional_parameter_base@_WV?$stream_output_adapter@_W@__crt_stdio_output@@@2@@0@AEAA_NXZ@AEAPEAD@Z 000000018015c43c f i libucrt:output.obj
 0001:0015b44c       ??$read_va_arg@PEAUansi_string@?1??type_case_Z@?$output_processor@_WV?$stream_output_adapter@_W@__crt_stdio_output@@V?$standard_base@_WV?$stream_output_adapter@_W@__crt_stdio_output@@@2@@__crt_stdio_output@@AEAA_NXZ@@__crt_stdio_output@@YAPEAUansi_string@?1??type_case_Z@?$output_processor@_WV?$stream_output_adapter@_W@__crt_stdio_output@@V?$standard_base@_WV?$stream_output_adapter@_W@__crt_stdio_output@@@2@@0@AEAA_NXZ@AEAPEAD@Z 000000018015c44c f i libucrt:output.obj
 0001:0015b45c       ??$read_va_arg@PEAUansi_string@?1??type_case_Z@?$output_processor@_WV?$string_output_adapter@_W@__crt_stdio_output@@V?$format_validation_base@_WV?$string_output_adapter@_W@__crt_stdio_output@@@2@@__crt_stdio_output@@AEAA_NXZ@@__crt_stdio_output@@YAPEAUansi_string@?1??type_case_Z@?$output_processor@_WV?$string_output_adapter@_W@__crt_stdio_output@@V?$format_validation_base@_WV?$string_output_adapter@_W@__crt_stdio_output@@@2@@0@AEAA_NXZ@AEAPEAD@Z 000000018015c45c f i libucrt:output.obj
 0001:0015b46c       ??$read_va_arg@PEAUansi_string@?1??type_case_Z@?$output_processor@_WV?$string_output_adapter@_W@__crt_stdio_output@@V?$positional_parameter_base@_WV?$string_output_adapter@_W@__crt_stdio_output@@@2@@__crt_stdio_output@@AEAA_NXZ@@__crt_stdio_output@@YAPEAUansi_string@?1??type_case_Z@?$output_processor@_WV?$string_output_adapter@_W@__crt_stdio_output@@V?$positional_parameter_base@_WV?$string_output_adapter@_W@__crt_stdio_output@@@2@@0@AEAA_NXZ@AEAPEAD@Z 000000018015c46c f i libucrt:output.obj
 0001:0015b47c       ??$read_va_arg@PEAUansi_string@?1??type_case_Z@?$output_processor@_WV?$string_output_adapter@_W@__crt_stdio_output@@V?$standard_base@_WV?$string_output_adapter@_W@__crt_stdio_output@@@2@@__crt_stdio_output@@AEAA_NXZ@@__crt_stdio_output@@YAPEAUansi_string@?1??type_case_Z@?$output_processor@_WV?$string_output_adapter@_W@__crt_stdio_output@@V?$standard_base@_WV?$string_output_adapter@_W@__crt_stdio_output@@@2@@0@AEAA_NXZ@AEAPEAD@Z 000000018015c47c f i libucrt:output.obj
 0001:0015b48c       ??$read_va_arg@PEAX@__crt_stdio_output@@YAPEAXAEAPEAD@Z 000000018015c48c f i libucrt:output.obj
 0001:0015b49c       ??$read_va_arg@U_CRT_DOUBLE@@@__crt_stdio_output@@YA?AU_CRT_DOUBLE@@AEAPEAD@Z 000000018015c49c f i libucrt:output.obj
 0001:0015b4ac       ??$read_va_arg@_J@__crt_stdio_output@@YA_JAEAPEAD@Z 000000018015c4ac f i libucrt:output.obj
 0001:0015b4bc       ??$read_va_arg@_K@__crt_stdio_output@@YA_KAEAPEAD@Z 000000018015c4bc f i libucrt:output.obj
 0001:0015b4cc       ??$read_va_arg@_W@__crt_stdio_output@@YA_WAEAPEAD@Z 000000018015c4cc f i libucrt:output.obj
 0001:0015b4dc       ??$scratch_count@D@formatting_buffer@__crt_stdio_output@@QEBA_KXZ 000000018015c4dc f i libucrt:output.obj
 0001:0015b4f8       ??$scratch_data@D@formatting_buffer@__crt_stdio_output@@QEAAPEADXZ 000000018015c4f8 f i libucrt:output.obj
 0001:0015b51c       ??$type_case_integer@$07@?$output_processor@DV?$stream_output_adapter@D@__crt_stdio_output@@V?$format_validation_base@DV?$stream_output_adapter@D@__crt_stdio_output@@@2@@__crt_stdio_output@@AEAA_N_N@Z 000000018015c51c f i libucrt:output.obj
 0001:0015b720       ??$type_case_integer@$07@?$output_processor@DV?$stream_output_adapter@D@__crt_stdio_output@@V?$positional_parameter_base@DV?$stream_output_adapter@D@__crt_stdio_output@@@2@@__crt_stdio_output@@AEAA_N_N@Z 000000018015c720 f i libucrt:output.obj
 0001:0015b94c       ??$type_case_integer@$07@?$output_processor@DV?$stream_output_adapter@D@__crt_stdio_output@@V?$standard_base@DV?$stream_output_adapter@D@__crt_stdio_output@@@2@@__crt_stdio_output@@AEAA_N_N@Z 000000018015c94c f i libucrt:output.obj
 0001:0015bb50       ??$type_case_integer@$07@?$output_processor@DV?$string_output_adapter@D@__crt_stdio_output@@V?$format_validation_base@DV?$string_output_adapter@D@__crt_stdio_output@@@2@@__crt_stdio_output@@AEAA_N_N@Z 000000018015cb50 f i libucrt:output.obj
 0001:0015bd54       ??$type_case_integer@$07@?$output_processor@DV?$string_output_adapter@D@__crt_stdio_output@@V?$positional_parameter_base@DV?$string_output_adapter@D@__crt_stdio_output@@@2@@__crt_stdio_output@@AEAA_N_N@Z 000000018015cd54 f i libucrt:output.obj
 0001:0015bf80       ??$type_case_integer@$07@?$output_processor@DV?$string_output_adapter@D@__crt_stdio_output@@V?$standard_base@DV?$string_output_adapter@D@__crt_stdio_output@@@2@@__crt_stdio_output@@AEAA_N_N@Z 000000018015cf80 f i libucrt:output.obj
 0001:0015c184       ??$type_case_integer@$07@?$output_processor@_WV?$stream_output_adapter@_W@__crt_stdio_output@@V?$format_validation_base@_WV?$stream_output_adapter@_W@__crt_stdio_output@@@2@@__crt_stdio_output@@AEAA_N_N@Z 000000018015d184 f i libucrt:output.obj
 0001:0015c390       ??$type_case_integer@$07@?$output_processor@_WV?$stream_output_adapter@_W@__crt_stdio_output@@V?$positional_parameter_base@_WV?$stream_output_adapter@_W@__crt_stdio_output@@@2@@__crt_stdio_output@@AEAA_N_N@Z 000000018015d390 f i libucrt:output.obj
 0001:0015c5c4       ??$type_case_integer@$07@?$output_processor@_WV?$stream_output_adapter@_W@__crt_stdio_output@@V?$standard_base@_WV?$stream_output_adapter@_W@__crt_stdio_output@@@2@@__crt_stdio_output@@AEAA_N_N@Z 000000018015d5c4 f i libucrt:output.obj
 0001:0015c7d0       ??$type_case_integer@$07@?$output_processor@_WV?$string_output_adapter@_W@__crt_stdio_output@@V?$format_validation_base@_WV?$string_output_adapter@_W@__crt_stdio_output@@@2@@__crt_stdio_output@@AEAA_N_N@Z 000000018015d7d0 f i libucrt:output.obj
 0001:0015c9dc       ??$type_case_integer@$07@?$output_processor@_WV?$string_output_adapter@_W@__crt_stdio_output@@V?$positional_parameter_base@_WV?$string_output_adapter@_W@__crt_stdio_output@@@2@@__crt_stdio_output@@AEAA_N_N@Z 000000018015d9dc f i libucrt:output.obj
 0001:0015cc10       ??$type_case_integer@$07@?$output_processor@_WV?$string_output_adapter@_W@__crt_stdio_output@@V?$standard_base@_WV?$string_output_adapter@_W@__crt_stdio_output@@@2@@__crt_stdio_output@@AEAA_N_N@Z 000000018015dc10 f i libucrt:output.obj
 0001:0015ce1c       ??$type_case_integer@$09@?$output_processor@DV?$stream_output_adapter@D@__crt_stdio_output@@V?$format_validation_base@DV?$stream_output_adapter@D@__crt_stdio_output@@@2@@__crt_stdio_output@@AEAA_N_N@Z 000000018015de1c f i libucrt:output.obj
 0001:0015d020       ??$type_case_integer@$09@?$output_processor@DV?$stream_output_adapter@D@__crt_stdio_output@@V?$positional_parameter_base@DV?$stream_output_adapter@D@__crt_stdio_output@@@2@@__crt_stdio_output@@AEAA_N_N@Z 000000018015e020 f i libucrt:output.obj
 0001:0015d24c       ??$type_case_integer@$09@?$output_processor@DV?$stream_output_adapter@D@__crt_stdio_output@@V?$standard_base@DV?$stream_output_adapter@D@__crt_stdio_output@@@2@@__crt_stdio_output@@AEAA_N_N@Z 000000018015e24c f i libucrt:output.obj
 0001:0015d450       ??$type_case_integer@$09@?$output_processor@DV?$string_output_adapter@D@__crt_stdio_output@@V?$format_validation_base@DV?$string_output_adapter@D@__crt_stdio_output@@@2@@__crt_stdio_output@@AEAA_N_N@Z 000000018015e450 f i libucrt:output.obj
 0001:0015d654       ??$type_case_integer@$09@?$output_processor@DV?$string_output_adapter@D@__crt_stdio_output@@V?$positional_parameter_base@DV?$string_output_adapter@D@__crt_stdio_output@@@2@@__crt_stdio_output@@AEAA_N_N@Z 000000018015e654 f i libucrt:output.obj
 0001:0015d880       ??$type_case_integer@$09@?$output_processor@DV?$string_output_adapter@D@__crt_stdio_output@@V?$standard_base@DV?$string_output_adapter@D@__crt_stdio_output@@@2@@__crt_stdio_output@@AEAA_N_N@Z 000000018015e880 f i libucrt:output.obj
 0001:0015da84       ??$type_case_integer@$09@?$output_processor@_WV?$stream_output_adapter@_W@__crt_stdio_output@@V?$format_validation_base@_WV?$stream_output_adapter@_W@__crt_stdio_output@@@2@@__crt_stdio_output@@AEAA_N_N@Z 000000018015ea84 f i libucrt:output.obj
 0001:0015dc90       ??$type_case_integer@$09@?$output_processor@_WV?$stream_output_adapter@_W@__crt_stdio_output@@V?$positional_parameter_base@_WV?$stream_output_adapter@_W@__crt_stdio_output@@@2@@__crt_stdio_output@@AEAA_N_N@Z 000000018015ec90 f i libucrt:output.obj
 0001:0015dec4       ??$type_case_integer@$09@?$output_processor@_WV?$stream_output_adapter@_W@__crt_stdio_output@@V?$standard_base@_WV?$stream_output_adapter@_W@__crt_stdio_output@@@2@@__crt_stdio_output@@AEAA_N_N@Z 000000018015eec4 f i libucrt:output.obj
 0001:0015e0d0       ??$type_case_integer@$09@?$output_processor@_WV?$string_output_adapter@_W@__crt_stdio_output@@V?$format_validation_base@_WV?$string_output_adapter@_W@__crt_stdio_output@@@2@@__crt_stdio_output@@AEAA_N_N@Z 000000018015f0d0 f i libucrt:output.obj
 0001:0015e2dc       ??$type_case_integer@$09@?$output_processor@_WV?$string_output_adapter@_W@__crt_stdio_output@@V?$positional_parameter_base@_WV?$string_output_adapter@_W@__crt_stdio_output@@@2@@__crt_stdio_output@@AEAA_N_N@Z 000000018015f2dc f i libucrt:output.obj
 0001:0015e510       ??$type_case_integer@$09@?$output_processor@_WV?$string_output_adapter@_W@__crt_stdio_output@@V?$standard_base@_WV?$string_output_adapter@_W@__crt_stdio_output@@@2@@__crt_stdio_output@@AEAA_N_N@Z 000000018015f510 f i libucrt:output.obj
 0001:0015e71c       ??$type_case_integer@$0BA@@?$output_processor@DV?$stream_output_adapter@D@__crt_stdio_output@@V?$format_validation_base@DV?$stream_output_adapter@D@__crt_stdio_output@@@2@@__crt_stdio_output@@AEAA_N_N@Z 000000018015f71c f i libucrt:output.obj
 0001:0015e920       ??$type_case_integer@$0BA@@?$output_processor@DV?$stream_output_adapter@D@__crt_stdio_output@@V?$positional_parameter_base@DV?$stream_output_adapter@D@__crt_stdio_output@@@2@@__crt_stdio_output@@AEAA_N_N@Z 000000018015f920 f i libucrt:output.obj
 0001:0015eb4c       ??$type_case_integer@$0BA@@?$output_processor@DV?$stream_output_adapter@D@__crt_stdio_output@@V?$standard_base@DV?$stream_output_adapter@D@__crt_stdio_output@@@2@@__crt_stdio_output@@AEAA_N_N@Z 000000018015fb4c f i libucrt:output.obj
 0001:0015ed50       ??$type_case_integer@$0BA@@?$output_processor@DV?$string_output_adapter@D@__crt_stdio_output@@V?$format_validation_base@DV?$string_output_adapter@D@__crt_stdio_output@@@2@@__crt_stdio_output@@AEAA_N_N@Z 000000018015fd50 f i libucrt:output.obj
 0001:0015ef54       ??$type_case_integer@$0BA@@?$output_processor@DV?$string_output_adapter@D@__crt_stdio_output@@V?$positional_parameter_base@DV?$string_output_adapter@D@__crt_stdio_output@@@2@@__crt_stdio_output@@AEAA_N_N@Z 000000018015ff54 f i libucrt:output.obj
 0001:0015f180       ??$type_case_integer@$0BA@@?$output_processor@DV?$string_output_adapter@D@__crt_stdio_output@@V?$standard_base@DV?$string_output_adapter@D@__crt_stdio_output@@@2@@__crt_stdio_output@@AEAA_N_N@Z 0000000180160180 f i libucrt:output.obj
 0001:0015f384       ??$type_case_integer@$0BA@@?$output_processor@_WV?$stream_output_adapter@_W@__crt_stdio_output@@V?$format_validation_base@_WV?$stream_output_adapter@_W@__crt_stdio_output@@@2@@__crt_stdio_output@@AEAA_N_N@Z 0000000180160384 f i libucrt:output.obj
 0001:0015f590       ??$type_case_integer@$0BA@@?$output_processor@_WV?$stream_output_adapter@_W@__crt_stdio_output@@V?$positional_parameter_base@_WV?$stream_output_adapter@_W@__crt_stdio_output@@@2@@__crt_stdio_output@@AEAA_N_N@Z 0000000180160590 f i libucrt:output.obj
 0001:0015f7c4       ??$type_case_integer@$0BA@@?$output_processor@_WV?$stream_output_adapter@_W@__crt_stdio_output@@V?$standard_base@_WV?$stream_output_adapter@_W@__crt_stdio_output@@@2@@__crt_stdio_output@@AEAA_N_N@Z 00000001801607c4 f i libucrt:output.obj
 0001:0015f9d0       ??$type_case_integer@$0BA@@?$output_processor@_WV?$string_output_adapter@_W@__crt_stdio_output@@V?$format_validation_base@_WV?$string_output_adapter@_W@__crt_stdio_output@@@2@@__crt_stdio_output@@AEAA_N_N@Z 00000001801609d0 f i libucrt:output.obj
 0001:0015fbdc       ??$type_case_integer@$0BA@@?$output_processor@_WV?$string_output_adapter@_W@__crt_stdio_output@@V?$positional_parameter_base@_WV?$string_output_adapter@_W@__crt_stdio_output@@@2@@__crt_stdio_output@@AEAA_N_N@Z 0000000180160bdc f i libucrt:output.obj
 0001:0015fe10       ??$type_case_integer@$0BA@@?$output_processor@_WV?$string_output_adapter@_W@__crt_stdio_output@@V?$standard_base@_WV?$string_output_adapter@_W@__crt_stdio_output@@@2@@__crt_stdio_output@@AEAA_N_N@Z 0000000180160e10 f i libucrt:output.obj
 0001:0016001c       ??$type_case_integer_parse_into_buffer@I$07@?$output_processor@DV?$stream_output_adapter@D@__crt_stdio_output@@V?$format_validation_base@DV?$stream_output_adapter@D@__crt_stdio_output@@@2@@__crt_stdio_output@@AEAAXI_N@Z 000000018016101c f i libucrt:output.obj
 0001:0016008c       ??$type_case_integer_parse_into_buffer@I$07@?$output_processor@DV?$stream_output_adapter@D@__crt_stdio_output@@V?$positional_parameter_base@DV?$stream_output_adapter@D@__crt_stdio_output@@@2@@__crt_stdio_output@@AEAAXI_N@Z 000000018016108c f i libucrt:output.obj
 0001:001600fc       ??$type_case_integer_parse_into_buffer@I$07@?$output_processor@DV?$stream_output_adapter@D@__crt_stdio_output@@V?$standard_base@DV?$stream_output_adapter@D@__crt_stdio_output@@@2@@__crt_stdio_output@@AEAAXI_N@Z 00000001801610fc f i libucrt:output.obj
 0001:0016016c       ??$type_case_integer_parse_into_buffer@I$07@?$output_processor@DV?$string_output_adapter@D@__crt_stdio_output@@V?$format_validation_base@DV?$string_output_adapter@D@__crt_stdio_output@@@2@@__crt_stdio_output@@AEAAXI_N@Z 000000018016116c f i libucrt:output.obj
 0001:001601dc       ??$type_case_integer_parse_into_buffer@I$07@?$output_processor@DV?$string_output_adapter@D@__crt_stdio_output@@V?$positional_parameter_base@DV?$string_output_adapter@D@__crt_stdio_output@@@2@@__crt_stdio_output@@AEAAXI_N@Z 00000001801611dc f i libucrt:output.obj
 0001:0016024c       ??$type_case_integer_parse_into_buffer@I$07@?$output_processor@DV?$string_output_adapter@D@__crt_stdio_output@@V?$standard_base@DV?$string_output_adapter@D@__crt_stdio_output@@@2@@__crt_stdio_output@@AEAAXI_N@Z 000000018016124c f i libucrt:output.obj
 0001:001602bc       ??$type_case_integer_parse_into_buffer@I$07@?$output_processor@_WV?$stream_output_adapter@_W@__crt_stdio_output@@V?$format_validation_base@_WV?$stream_output_adapter@_W@__crt_stdio_output@@@2@@__crt_stdio_output@@AEAAXI_N@Z 00000001801612bc f i libucrt:output.obj
 0001:00160340       ??$type_case_integer_parse_into_buffer@I$07@?$output_processor@_WV?$stream_output_adapter@_W@__crt_stdio_output@@V?$positional_parameter_base@_WV?$stream_output_adapter@_W@__crt_stdio_output@@@2@@__crt_stdio_output@@AEAAXI_N@Z 0000000180161340 f i libucrt:output.obj
 0001:001603c4       ??$type_case_integer_parse_into_buffer@I$07@?$output_processor@_WV?$stream_output_adapter@_W@__crt_stdio_output@@V?$standard_base@_WV?$stream_output_adapter@_W@__crt_stdio_output@@@2@@__crt_stdio_output@@AEAAXI_N@Z 00000001801613c4 f i libucrt:output.obj
 0001:00160448       ??$type_case_integer_parse_into_buffer@I$07@?$output_processor@_WV?$string_output_adapter@_W@__crt_stdio_output@@V?$format_validation_base@_WV?$string_output_adapter@_W@__crt_stdio_output@@@2@@__crt_stdio_output@@AEAAXI_N@Z 0000000180161448 f i libucrt:output.obj
 0001:001604cc       ??$type_case_integer_parse_into_buffer@I$07@?$output_processor@_WV?$string_output_adapter@_W@__crt_stdio_output@@V?$positional_parameter_base@_WV?$string_output_adapter@_W@__crt_stdio_output@@@2@@__crt_stdio_output@@AEAAXI_N@Z 00000001801614cc f i libucrt:output.obj
 0001:00160550       ??$type_case_integer_parse_into_buffer@I$07@?$output_processor@_WV?$string_output_adapter@_W@__crt_stdio_output@@V?$standard_base@_WV?$string_output_adapter@_W@__crt_stdio_output@@@2@@__crt_stdio_output@@AEAAXI_N@Z 0000000180161550 f i libucrt:output.obj
 0001:001605d4       ??$type_case_integer_parse_into_buffer@I$09@?$output_processor@DV?$stream_output_adapter@D@__crt_stdio_output@@V?$format_validation_base@DV?$stream_output_adapter@D@__crt_stdio_output@@@2@@__crt_stdio_output@@AEAAXI_N@Z 00000001801615d4 f i libucrt:output.obj
 0001:00160680       ??$type_case_integer_parse_into_buffer@I$09@?$output_processor@DV?$stream_output_adapter@D@__crt_stdio_output@@V?$positional_parameter_base@DV?$stream_output_adapter@D@__crt_stdio_output@@@2@@__crt_stdio_output@@AEAAXI_N@Z 0000000180161680 f i libucrt:output.obj
 0001:0016072c       ??$type_case_integer_parse_into_buffer@I$09@?$output_processor@DV?$stream_output_adapter@D@__crt_stdio_output@@V?$standard_base@DV?$stream_output_adapter@D@__crt_stdio_output@@@2@@__crt_stdio_output@@AEAAXI_N@Z 000000018016172c f i libucrt:output.obj
 0001:001607d8       ??$type_case_integer_parse_into_buffer@I$09@?$output_processor@DV?$string_output_adapter@D@__crt_stdio_output@@V?$format_validation_base@DV?$string_output_adapter@D@__crt_stdio_output@@@2@@__crt_stdio_output@@AEAAXI_N@Z 00000001801617d8 f i libucrt:output.obj
 0001:00160884       ??$type_case_integer_parse_into_buffer@I$09@?$output_processor@DV?$string_output_adapter@D@__crt_stdio_output@@V?$positional_parameter_base@DV?$string_output_adapter@D@__crt_stdio_output@@@2@@__crt_stdio_output@@AEAAXI_N@Z 0000000180161884 f i libucrt:output.obj
 0001:00160930       ??$type_case_integer_parse_into_buffer@I$09@?$output_processor@DV?$string_output_adapter@D@__crt_stdio_output@@V?$standard_base@DV?$string_output_adapter@D@__crt_stdio_output@@@2@@__crt_stdio_output@@AEAAXI_N@Z 0000000180161930 f i libucrt:output.obj
 0001:001609dc       ??$type_case_integer_parse_into_buffer@I$09@?$output_processor@_WV?$stream_output_adapter@_W@__crt_stdio_output@@V?$format_validation_base@_WV?$stream_output_adapter@_W@__crt_stdio_output@@@2@@__crt_stdio_output@@AEAAXI_N@Z 00000001801619dc f i libucrt:output.obj
 0001:00160a9c       ??$type_case_integer_parse_into_buffer@I$09@?$output_processor@_WV?$stream_output_adapter@_W@__crt_stdio_output@@V?$positional_parameter_base@_WV?$stream_output_adapter@_W@__crt_stdio_output@@@2@@__crt_stdio_output@@AEAAXI_N@Z 0000000180161a9c f i libucrt:output.obj
 0001:00160b5c       ??$type_case_integer_parse_into_buffer@I$09@?$output_processor@_WV?$stream_output_adapter@_W@__crt_stdio_output@@V?$standard_base@_WV?$stream_output_adapter@_W@__crt_stdio_output@@@2@@__crt_stdio_output@@AEAAXI_N@Z 0000000180161b5c f i libucrt:output.obj
 0001:00160c1c       ??$type_case_integer_parse_into_buffer@I$09@?$output_processor@_WV?$string_output_adapter@_W@__crt_stdio_output@@V?$format_validation_base@_WV?$string_output_adapter@_W@__crt_stdio_output@@@2@@__crt_stdio_output@@AEAAXI_N@Z 0000000180161c1c f i libucrt:output.obj
 0001:00160cdc       ??$type_case_integer_parse_into_buffer@I$09@?$output_processor@_WV?$string_output_adapter@_W@__crt_stdio_output@@V?$positional_parameter_base@_WV?$string_output_adapter@_W@__crt_stdio_output@@@2@@__crt_stdio_output@@AEAAXI_N@Z 0000000180161cdc f i libucrt:output.obj
 0001:00160d9c       ??$type_case_integer_parse_into_buffer@I$09@?$output_processor@_WV?$string_output_adapter@_W@__crt_stdio_output@@V?$standard_base@_WV?$string_output_adapter@_W@__crt_stdio_output@@@2@@__crt_stdio_output@@AEAAXI_N@Z 0000000180161d9c f i libucrt:output.obj
 0001:00160e5c       ??$type_case_integer_parse_into_buffer@I$0BA@@?$output_processor@DV?$stream_output_adapter@D@__crt_stdio_output@@V?$format_validation_base@DV?$stream_output_adapter@D@__crt_stdio_output@@@2@@__crt_stdio_output@@AEAAXI_N@Z 0000000180161e5c f i libucrt:output.obj
 0001:00160ee0       ??$type_case_integer_parse_into_buffer@I$0BA@@?$output_processor@DV?$stream_output_adapter@D@__crt_stdio_output@@V?$positional_parameter_base@DV?$stream_output_adapter@D@__crt_stdio_output@@@2@@__crt_stdio_output@@AEAAXI_N@Z 0000000180161ee0 f i libucrt:output.obj
 0001:00160f64       ??$type_case_integer_parse_into_buffer@I$0BA@@?$output_processor@DV?$stream_output_adapter@D@__crt_stdio_output@@V?$standard_base@DV?$stream_output_adapter@D@__crt_stdio_output@@@2@@__crt_stdio_output@@AEAAXI_N@Z 0000000180161f64 f i libucrt:output.obj
 0001:00160fe8       ??$type_case_integer_parse_into_buffer@I$0BA@@?$output_processor@DV?$string_output_adapter@D@__crt_stdio_output@@V?$format_validation_base@DV?$string_output_adapter@D@__crt_stdio_output@@@2@@__crt_stdio_output@@AEAAXI_N@Z 0000000180161fe8 f i libucrt:output.obj
 0001:0016106c       ??$type_case_integer_parse_into_buffer@I$0BA@@?$output_processor@DV?$string_output_adapter@D@__crt_stdio_output@@V?$positional_parameter_base@DV?$string_output_adapter@D@__crt_stdio_output@@@2@@__crt_stdio_output@@AEAAXI_N@Z 000000018016206c f i libucrt:output.obj
 0001:001610f0       ??$type_case_integer_parse_into_buffer@I$0BA@@?$output_processor@DV?$string_output_adapter@D@__crt_stdio_output@@V?$standard_base@DV?$string_output_adapter@D@__crt_stdio_output@@@2@@__crt_stdio_output@@AEAAXI_N@Z 00000001801620f0 f i libucrt:output.obj
 0001:00161174       ??$type_case_integer_parse_into_buffer@I$0BA@@?$output_processor@_WV?$stream_output_adapter@_W@__crt_stdio_output@@V?$format_validation_base@_WV?$stream_output_adapter@_W@__crt_stdio_output@@@2@@__crt_stdio_output@@AEAAXI_N@Z 0000000180162174 f i libucrt:output.obj
 0001:00161214       ??$type_case_integer_parse_into_buffer@I$0BA@@?$output_processor@_WV?$stream_output_adapter@_W@__crt_stdio_output@@V?$positional_parameter_base@_WV?$stream_output_adapter@_W@__crt_stdio_output@@@2@@__crt_stdio_output@@AEAAXI_N@Z 0000000180162214 f i libucrt:output.obj
 0001:001612b4       ??$type_case_integer_parse_into_buffer@I$0BA@@?$output_processor@_WV?$stream_output_adapter@_W@__crt_stdio_output@@V?$standard_base@_WV?$stream_output_adapter@_W@__crt_stdio_output@@@2@@__crt_stdio_output@@AEAAXI_N@Z 00000001801622b4 f i libucrt:output.obj
 0001:00161354       ??$type_case_integer_parse_into_buffer@I$0BA@@?$output_processor@_WV?$string_output_adapter@_W@__crt_stdio_output@@V?$format_validation_base@_WV?$string_output_adapter@_W@__crt_stdio_output@@@2@@__crt_stdio_output@@AEAAXI_N@Z 0000000180162354 f i libucrt:output.obj
 0001:001613f4       ??$type_case_integer_parse_into_buffer@I$0BA@@?$output_processor@_WV?$string_output_adapter@_W@__crt_stdio_output@@V?$positional_parameter_base@_WV?$string_output_adapter@_W@__crt_stdio_output@@@2@@__crt_stdio_output@@AEAAXI_N@Z 00000001801623f4 f i libucrt:output.obj
 0001:00161494       ??$type_case_integer_parse_into_buffer@I$0BA@@?$output_processor@_WV?$string_output_adapter@_W@__crt_stdio_output@@V?$standard_base@_WV?$string_output_adapter@_W@__crt_stdio_output@@@2@@__crt_stdio_output@@AEAAXI_N@Z 0000000180162494 f i libucrt:output.obj
 0001:00161534       ??$type_case_integer_parse_into_buffer@_K$07@?$output_processor@DV?$stream_output_adapter@D@__crt_stdio_output@@V?$format_validation_base@DV?$stream_output_adapter@D@__crt_stdio_output@@@2@@__crt_stdio_output@@AEAAX_K_N@Z 0000000180162534 f i libucrt:output.obj
 0001:001615a4       ??$type_case_integer_parse_into_buffer@_K$07@?$output_processor@DV?$stream_output_adapter@D@__crt_stdio_output@@V?$positional_parameter_base@DV?$stream_output_adapter@D@__crt_stdio_output@@@2@@__crt_stdio_output@@AEAAX_K_N@Z 00000001801625a4 f i libucrt:output.obj
 0001:00161614       ??$type_case_integer_parse_into_buffer@_K$07@?$output_processor@DV?$stream_output_adapter@D@__crt_stdio_output@@V?$standard_base@DV?$stream_output_adapter@D@__crt_stdio_output@@@2@@__crt_stdio_output@@AEAAX_K_N@Z 0000000180162614 f i libucrt:output.obj
 0001:00161684       ??$type_case_integer_parse_into_buffer@_K$07@?$output_processor@DV?$string_output_adapter@D@__crt_stdio_output@@V?$format_validation_base@DV?$string_output_adapter@D@__crt_stdio_output@@@2@@__crt_stdio_output@@AEAAX_K_N@Z 0000000180162684 f i libucrt:output.obj
 0001:001616f4       ??$type_case_integer_parse_into_buffer@_K$07@?$output_processor@DV?$string_output_adapter@D@__crt_stdio_output@@V?$positional_parameter_base@DV?$string_output_adapter@D@__crt_stdio_output@@@2@@__crt_stdio_output@@AEAAX_K_N@Z 00000001801626f4 f i libucrt:output.obj
 0001:00161764       ??$type_case_integer_parse_into_buffer@_K$07@?$output_processor@DV?$string_output_adapter@D@__crt_stdio_output@@V?$standard_base@DV?$string_output_adapter@D@__crt_stdio_output@@@2@@__crt_stdio_output@@AEAAX_K_N@Z 0000000180162764 f i libucrt:output.obj
 0001:001617d4       ??$type_case_integer_parse_into_buffer@_K$07@?$output_processor@_WV?$stream_output_adapter@_W@__crt_stdio_output@@V?$format_validation_base@_WV?$stream_output_adapter@_W@__crt_stdio_output@@@2@@__crt_stdio_output@@AEAAX_K_N@Z 00000001801627d4 f i libucrt:output.obj
 0001:0016185c       ??$type_case_integer_parse_into_buffer@_K$07@?$output_processor@_WV?$stream_output_adapter@_W@__crt_stdio_output@@V?$positional_parameter_base@_WV?$stream_output_adapter@_W@__crt_stdio_output@@@2@@__crt_stdio_output@@AEAAX_K_N@Z 000000018016285c f i libucrt:output.obj
 0001:001618e4       ??$type_case_integer_parse_into_buffer@_K$07@?$output_processor@_WV?$stream_output_adapter@_W@__crt_stdio_output@@V?$standard_base@_WV?$stream_output_adapter@_W@__crt_stdio_output@@@2@@__crt_stdio_output@@AEAAX_K_N@Z 00000001801628e4 f i libucrt:output.obj
 0001:0016196c       ??$type_case_integer_parse_into_buffer@_K$07@?$output_processor@_WV?$string_output_adapter@_W@__crt_stdio_output@@V?$format_validation_base@_WV?$string_output_adapter@_W@__crt_stdio_output@@@2@@__crt_stdio_output@@AEAAX_K_N@Z 000000018016296c f i libucrt:output.obj
 0001:001619f4       ??$type_case_integer_parse_into_buffer@_K$07@?$output_processor@_WV?$string_output_adapter@_W@__crt_stdio_output@@V?$positional_parameter_base@_WV?$string_output_adapter@_W@__crt_stdio_output@@@2@@__crt_stdio_output@@AEAAX_K_N@Z 00000001801629f4 f i libucrt:output.obj
 0001:00161a7c       ??$type_case_integer_parse_into_buffer@_K$07@?$output_processor@_WV?$string_output_adapter@_W@__crt_stdio_output@@V?$standard_base@_WV?$string_output_adapter@_W@__crt_stdio_output@@@2@@__crt_stdio_output@@AEAAX_K_N@Z 0000000180162a7c f i libucrt:output.obj
 0001:00161b04       ??$type_case_integer_parse_into_buffer@_K$09@?$output_processor@DV?$stream_output_adapter@D@__crt_stdio_output@@V?$format_validation_base@DV?$stream_output_adapter@D@__crt_stdio_output@@@2@@__crt_stdio_output@@AEAAX_K_N@Z 0000000180162b04 f i libucrt:output.obj
 0001:00161bb4       ??$type_case_integer_parse_into_buffer@_K$09@?$output_processor@DV?$stream_output_adapter@D@__crt_stdio_output@@V?$positional_parameter_base@DV?$stream_output_adapter@D@__crt_stdio_output@@@2@@__crt_stdio_output@@AEAAX_K_N@Z 0000000180162bb4 f i libucrt:output.obj
 0001:00161c64       ??$type_case_integer_parse_into_buffer@_K$09@?$output_processor@DV?$stream_output_adapter@D@__crt_stdio_output@@V?$standard_base@DV?$stream_output_adapter@D@__crt_stdio_output@@@2@@__crt_stdio_output@@AEAAX_K_N@Z 0000000180162c64 f i libucrt:output.obj
 0001:00161d14       ??$type_case_integer_parse_into_buffer@_K$09@?$output_processor@DV?$string_output_adapter@D@__crt_stdio_output@@V?$format_validation_base@DV?$string_output_adapter@D@__crt_stdio_output@@@2@@__crt_stdio_output@@AEAAX_K_N@Z 0000000180162d14 f i libucrt:output.obj
 0001:00161dc4       ??$type_case_integer_parse_into_buffer@_K$09@?$output_processor@DV?$string_output_adapter@D@__crt_stdio_output@@V?$positional_parameter_base@DV?$string_output_adapter@D@__crt_stdio_output@@@2@@__crt_stdio_output@@AEAAX_K_N@Z 0000000180162dc4 f i libucrt:output.obj
 0001:00161e74       ??$type_case_integer_parse_into_buffer@_K$09@?$output_processor@DV?$string_output_adapter@D@__crt_stdio_output@@V?$standard_base@DV?$string_output_adapter@D@__crt_stdio_output@@@2@@__crt_stdio_output@@AEAAX_K_N@Z 0000000180162e74 f i libucrt:output.obj
 0001:00161f24       ??$type_case_integer_parse_into_buffer@_K$09@?$output_processor@_WV?$stream_output_adapter@_W@__crt_stdio_output@@V?$format_validation_base@_WV?$stream_output_adapter@_W@__crt_stdio_output@@@2@@__crt_stdio_output@@AEAAX_K_N@Z 0000000180162f24 f i libucrt:output.obj
 0001:00161fe8       ??$type_case_integer_parse_into_buffer@_K$09@?$output_processor@_WV?$stream_output_adapter@_W@__crt_stdio_output@@V?$positional_parameter_base@_WV?$stream_output_adapter@_W@__crt_stdio_output@@@2@@__crt_stdio_output@@AEAAX_K_N@Z 0000000180162fe8 f i libucrt:output.obj
 0001:001620ac       ??$type_case_integer_parse_into_buffer@_K$09@?$output_processor@_WV?$stream_output_adapter@_W@__crt_stdio_output@@V?$standard_base@_WV?$stream_output_adapter@_W@__crt_stdio_output@@@2@@__crt_stdio_output@@AEAAX_K_N@Z 00000001801630ac f i libucrt:output.obj
 0001:00162170       ??$type_case_integer_parse_into_buffer@_K$09@?$output_processor@_WV?$string_output_adapter@_W@__crt_stdio_output@@V?$format_validation_base@_WV?$string_output_adapter@_W@__crt_stdio_output@@@2@@__crt_stdio_output@@AEAAX_K_N@Z 0000000180163170 f i libucrt:output.obj
 0001:00162234       ??$type_case_integer_parse_into_buffer@_K$09@?$output_processor@_WV?$string_output_adapter@_W@__crt_stdio_output@@V?$positional_parameter_base@_WV?$string_output_adapter@_W@__crt_stdio_output@@@2@@__crt_stdio_output@@AEAAX_K_N@Z 0000000180163234 f i libucrt:output.obj
 0001:001622f8       ??$type_case_integer_parse_into_buffer@_K$09@?$output_processor@_WV?$string_output_adapter@_W@__crt_stdio_output@@V?$standard_base@_WV?$string_output_adapter@_W@__crt_stdio_output@@@2@@__crt_stdio_output@@AEAAX_K_N@Z 00000001801632f8 f i libucrt:output.obj
 0001:001623bc       ??$type_case_integer_parse_into_buffer@_K$0BA@@?$output_processor@DV?$stream_output_adapter@D@__crt_stdio_output@@V?$format_validation_base@DV?$stream_output_adapter@D@__crt_stdio_output@@@2@@__crt_stdio_output@@AEAAX_K_N@Z 00000001801633bc f i libucrt:output.obj
 0001:00162440       ??$type_case_integer_parse_into_buffer@_K$0BA@@?$output_processor@DV?$stream_output_adapter@D@__crt_stdio_output@@V?$positional_parameter_base@DV?$stream_output_adapter@D@__crt_stdio_output@@@2@@__crt_stdio_output@@AEAAX_K_N@Z 0000000180163440 f i libucrt:output.obj
 0001:001624c4       ??$type_case_integer_parse_into_buffer@_K$0BA@@?$output_processor@DV?$stream_output_adapter@D@__crt_stdio_output@@V?$standard_base@DV?$stream_output_adapter@D@__crt_stdio_output@@@2@@__crt_stdio_output@@AEAAX_K_N@Z 00000001801634c4 f i libucrt:output.obj
 0001:00162548       ??$type_case_integer_parse_into_buffer@_K$0BA@@?$output_processor@DV?$string_output_adapter@D@__crt_stdio_output@@V?$format_validation_base@DV?$string_output_adapter@D@__crt_stdio_output@@@2@@__crt_stdio_output@@AEAAX_K_N@Z 0000000180163548 f i libucrt:output.obj
 0001:001625cc       ??$type_case_integer_parse_into_buffer@_K$0BA@@?$output_processor@DV?$string_output_adapter@D@__crt_stdio_output@@V?$positional_parameter_base@DV?$string_output_adapter@D@__crt_stdio_output@@@2@@__crt_stdio_output@@AEAAX_K_N@Z 00000001801635cc f i libucrt:output.obj
 0001:00162650       ??$type_case_integer_parse_into_buffer@_K$0BA@@?$output_processor@DV?$string_output_adapter@D@__crt_stdio_output@@V?$standard_base@DV?$string_output_adapter@D@__crt_stdio_output@@@2@@__crt_stdio_output@@AEAAX_K_N@Z 0000000180163650 f i libucrt:output.obj
 0001:001626d4       ??$type_case_integer_parse_into_buffer@_K$0BA@@?$output_processor@_WV?$stream_output_adapter@_W@__crt_stdio_output@@V?$format_validation_base@_WV?$stream_output_adapter@_W@__crt_stdio_output@@@2@@__crt_stdio_output@@AEAAX_K_N@Z 00000001801636d4 f i libucrt:output.obj
 0001:00162774       ??$type_case_integer_parse_into_buffer@_K$0BA@@?$output_processor@_WV?$stream_output_adapter@_W@__crt_stdio_output@@V?$positional_parameter_base@_WV?$stream_output_adapter@_W@__crt_stdio_output@@@2@@__crt_stdio_output@@AEAAX_K_N@Z 0000000180163774 f i libucrt:output.obj
 0001:00162814       ??$type_case_integer_parse_into_buffer@_K$0BA@@?$output_processor@_WV?$stream_output_adapter@_W@__crt_stdio_output@@V?$standard_base@_WV?$stream_output_adapter@_W@__crt_stdio_output@@@2@@__crt_stdio_output@@AEAAX_K_N@Z 0000000180163814 f i libucrt:output.obj
 0001:001628b4       ??$type_case_integer_parse_into_buffer@_K$0BA@@?$output_processor@_WV?$string_output_adapter@_W@__crt_stdio_output@@V?$format_validation_base@_WV?$string_output_adapter@_W@__crt_stdio_output@@@2@@__crt_stdio_output@@AEAAX_K_N@Z 00000001801638b4 f i libucrt:output.obj
 0001:00162954       ??$type_case_integer_parse_into_buffer@_K$0BA@@?$output_processor@_WV?$string_output_adapter@_W@__crt_stdio_output@@V?$positional_parameter_base@_WV?$string_output_adapter@_W@__crt_stdio_output@@@2@@__crt_stdio_output@@AEAAX_K_N@Z 0000000180163954 f i libucrt:output.obj
 0001:001629f4       ??$type_case_integer_parse_into_buffer@_K$0BA@@?$output_processor@_WV?$string_output_adapter@_W@__crt_stdio_output@@V?$standard_base@_WV?$string_output_adapter@_W@__crt_stdio_output@@@2@@__crt_stdio_output@@AEAAX_K_N@Z 00000001801639f4 f i libucrt:output.obj
 0001:00162a94       ??$write_multiple_characters@V?$stream_output_adapter@D@__crt_stdio_output@@D@__crt_stdio_output@@YAXAEBV?$stream_output_adapter@D@0@DHQEAHAEAV__crt_cached_ptd_host@@@Z 0000000180163a94 f i libucrt:output.obj
 0001:00162b28       ??$write_multiple_characters@V?$stream_output_adapter@_W@__crt_stdio_output@@D@__crt_stdio_output@@YAXAEBV?$stream_output_adapter@_W@0@DHQEAHAEAV__crt_cached_ptd_host@@@Z 0000000180163b28 f i libucrt:output.obj
 0001:00162bc0       ??$write_multiple_characters@V?$string_output_adapter@D@__crt_stdio_output@@D@__crt_stdio_output@@YAXAEBV?$string_output_adapter@D@0@DHQEAHAEAV__crt_cached_ptd_host@@@Z 0000000180163bc0 f i libucrt:output.obj
 0001:00162c38       ??$write_multiple_characters@V?$string_output_adapter@_W@__crt_stdio_output@@D@__crt_stdio_output@@YAXAEBV?$string_output_adapter@_W@0@DHQEAHAEAV__crt_cached_ptd_host@@@Z 0000000180163c38 f i libucrt:output.obj
 0001:00162e18       ??0?$c_string_character_source@D@__crt_strtox@@QEAA@QEBDQEAPEBD@Z 0000000180163e18 f i libucrt:output.obj
 0001:00162e2c       ??0?$c_string_character_source@_W@__crt_strtox@@QEAA@QEB_WQEAPEB_W@Z 0000000180163e2c f i libucrt:output.obj
 0001:00162e40       ??0?$cached@H@__crt_cached_ptd_host@@QEAA@XZ 0000000180163e40 f i libucrt:output.obj
 0001:00162e48       ??0?$cached@K@__crt_cached_ptd_host@@QEAA@XZ 0000000180163e48 f i libucrt:output.obj
 0001:00162e50       ??0?$common_data@D@__crt_stdio_output@@IEAA@AEAV__crt_cached_ptd_host@@@Z 0000000180163e50 f i libucrt:output.obj
 0001:00162e8c       ??0?$common_data@_W@__crt_stdio_output@@IEAA@AEAV__crt_cached_ptd_host@@@Z 0000000180163e8c f i libucrt:output.obj
 0001:00162ecc       ??0?$output_adapter_data@DV?$stream_output_adapter@D@__crt_stdio_output@@@__crt_stdio_output@@IEAA@AEBV?$stream_output_adapter@D@1@_KQEBDAEAV__crt_cached_ptd_host@@QEAD@Z 0000000180163ecc f i libucrt:output.obj
 0001:00162f2c       ??0?$output_adapter_data@DV?$string_output_adapter@D@__crt_stdio_output@@@__crt_stdio_output@@IEAA@AEBV?$string_output_adapter@D@1@_KQEBDAEAV__crt_cached_ptd_host@@QEAD@Z 0000000180163f2c f i libucrt:output.obj
 0001:00162f8c       ??0?$output_adapter_data@_WV?$stream_output_adapter@_W@__crt_stdio_output@@@__crt_stdio_output@@IEAA@AEBV?$stream_output_adapter@_W@1@_KQEB_WAEAV__crt_cached_ptd_host@@QEAD@Z 0000000180163f8c f i libucrt:output.obj
 0001:00162ff0       ??0?$output_adapter_data@_WV?$string_output_adapter@_W@__crt_stdio_output@@@__crt_stdio_output@@IEAA@AEBV?$string_output_adapter@_W@1@_KQEB_WAEAV__crt_cached_ptd_host@@QEAD@Z 0000000180163ff0 f i libucrt:output.obj
 0001:00163054       ??0?$output_processor@DV?$stream_output_adapter@D@__crt_stdio_output@@V?$format_validation_base@DV?$stream_output_adapter@D@__crt_stdio_output@@@2@@__crt_stdio_output@@QEAA@AEBV?$stream_output_adapter@D@1@_KQEBDAEAV__crt_cached_ptd_host@@QEAD@Z 0000000180164054 f i libucrt:output.obj
 0001:001630bc       ??0?$output_processor@DV?$stream_output_adapter@D@__crt_stdio_output@@V?$positional_parameter_base@DV?$stream_output_adapter@D@__crt_stdio_output@@@2@@__crt_stdio_output@@QEAA@AEBV?$stream_output_adapter@D@1@_KQEBDAEAV__crt_cached_ptd_host@@QEAD@Z 00000001801640bc f i libucrt:output.obj
 0001:00163140       ??0?$output_processor@DV?$stream_output_adapter@D@__crt_stdio_output@@V?$standard_base@DV?$stream_output_adapter@D@__crt_stdio_output@@@2@@__crt_stdio_output@@QEAA@AEBV?$stream_output_adapter@D@1@_KQEBDAEAV__crt_cached_ptd_host@@QEAD@Z 0000000180164140 f i libucrt:output.obj
 0001:001631a8       ??0?$output_processor@DV?$string_output_adapter@D@__crt_stdio_output@@V?$format_validation_base@DV?$string_output_adapter@D@__crt_stdio_output@@@2@@__crt_stdio_output@@QEAA@AEBV?$string_output_adapter@D@1@_KQEBDAEAV__crt_cached_ptd_host@@QEAD@Z 00000001801641a8 f i libucrt:output.obj
 0001:00163210       ??0?$output_processor@DV?$string_output_adapter@D@__crt_stdio_output@@V?$positional_parameter_base@DV?$string_output_adapter@D@__crt_stdio_output@@@2@@__crt_stdio_output@@QEAA@AEBV?$string_output_adapter@D@1@_KQEBDAEAV__crt_cached_ptd_host@@QEAD@Z 0000000180164210 f i libucrt:output.obj
 0001:00163294       ??0?$output_processor@DV?$string_output_adapter@D@__crt_stdio_output@@V?$standard_base@DV?$string_output_adapter@D@__crt_stdio_output@@@2@@__crt_stdio_output@@QEAA@AEBV?$string_output_adapter@D@1@_KQEBDAEAV__crt_cached_ptd_host@@QEAD@Z 0000000180164294 f i libucrt:output.obj
 0001:001632fc       ??0?$output_processor@_WV?$stream_output_adapter@_W@__crt_stdio_output@@V?$format_validation_base@_WV?$stream_output_adapter@_W@__crt_stdio_output@@@2@@__crt_stdio_output@@QEAA@AEBV?$stream_output_adapter@_W@1@_KQEB_WAEAV__crt_cached_ptd_host@@QEAD@Z 00000001801642fc f i libucrt:output.obj
 0001:00163368       ??0?$output_processor@_WV?$stream_output_adapter@_W@__crt_stdio_output@@V?$positional_parameter_base@_WV?$stream_output_adapter@_W@__crt_stdio_output@@@2@@__crt_stdio_output@@QEAA@AEBV?$stream_output_adapter@_W@1@_KQEB_WAEAV__crt_cached_ptd_host@@QEAD@Z 0000000180164368 f i libucrt:output.obj
 0001:001633f0       ??0?$output_processor@_WV?$stream_output_adapter@_W@__crt_stdio_output@@V?$standard_base@_WV?$stream_output_adapter@_W@__crt_stdio_output@@@2@@__crt_stdio_output@@QEAA@AEBV?$stream_output_adapter@_W@1@_KQEB_WAEAV__crt_cached_ptd_host@@QEAD@Z 00000001801643f0 f i libucrt:output.obj
 0001:0016345c       ??0?$output_processor@_WV?$string_output_adapter@_W@__crt_stdio_output@@V?$format_validation_base@_WV?$string_output_adapter@_W@__crt_stdio_output@@@2@@__crt_stdio_output@@QEAA@AEBV?$string_output_adapter@_W@1@_KQEB_WAEAV__crt_cached_ptd_host@@QEAD@Z 000000018016445c f i libucrt:output.obj
 0001:001634c8       ??0?$output_processor@_WV?$string_output_adapter@_W@__crt_stdio_output@@V?$positional_parameter_base@_WV?$string_output_adapter@_W@__crt_stdio_output@@@2@@__crt_stdio_output@@QEAA@AEBV?$string_output_adapter@_W@1@_KQEB_WAEAV__crt_cached_ptd_host@@QEAD@Z 00000001801644c8 f i libucrt:output.obj
 0001:00163550       ??0?$output_processor@_WV?$string_output_adapter@_W@__crt_stdio_output@@V?$standard_base@_WV?$string_output_adapter@_W@__crt_stdio_output@@@2@@__crt_stdio_output@@QEAA@AEBV?$string_output_adapter@_W@1@_KQEB_WAEAV__crt_cached_ptd_host@@QEAD@Z 0000000180164550 f i libucrt:output.obj
 0001:001635bc       ??0?$stream_output_adapter@D@__crt_stdio_output@@QEAA@QEAU_iobuf@@@Z 00000001801645bc f i libucrt:output.obj
 0001:001635c4       ??0?$stream_output_adapter@_W@__crt_stdio_output@@QEAA@QEAU_iobuf@@@Z 00000001801645c4 f i libucrt:output.obj
 0001:001635cc       ??0?$string_output_adapter@D@__crt_stdio_output@@QEAA@QEAU?$string_output_adapter_context@D@1@@Z 00000001801645cc f i libucrt:output.obj
 0001:001635d4       ??0?$string_output_adapter@_W@__crt_stdio_output@@QEAA@QEAU?$string_output_adapter_context@_W@1@@Z 00000001801645d4 f i libucrt:output.obj
 0001:001635dc       ??0__acrt_stdio_temporary_buffering_guard@@QEAA@QEAU_iobuf@@AEAV__crt_cached_ptd_host@@@Z 00000001801645dc f i libucrt:output.obj
 0001:00163600       ??0__crt_cached_ptd_host@@QEAA@QEAU__crt_locale_pointers@@@Z 0000000180164600 f i libucrt:output.obj
 0001:00163648       ??0__crt_scoped_get_last_error_reset@@QEAA@XZ 0000000180164648 f i libucrt:output.obj
 0001:00163664       ??0__crt_stdio_stream@@QEAA@QEAU_iobuf@@@Z 0000000180164664 f i libucrt:output.obj
 0001:0016366c       ??0formatting_buffer@__crt_stdio_output@@QEAA@XZ 000000018016466c f i libucrt:output.obj
 0001:00163680       ??0guard@?$cached@H@__crt_cached_ptd_host@@QEAA@AEAU12@@Z 0000000180164680 f i libucrt:output.obj
 0001:00163694       ??1?$c_string_character_source@D@__crt_strtox@@QEAA@XZ 0000000180164694 f i libucrt:output.obj
 0001:001636a4       ??1?$c_string_character_source@_W@__crt_strtox@@QEAA@XZ 00000001801646a4 f i libucrt:output.obj
 0001:001636b4       ??1?$common_data@D@__crt_stdio_output@@QEAA@XZ 00000001801646b4 f i libucrt:output.obj
 0001:001636d8       ??1?$common_data@_W@__crt_stdio_output@@QEAA@XZ 00000001801646d8 f i libucrt:output.obj
 0001:001636fc       ??1?$format_validation_base@DV?$stream_output_adapter@D@__crt_stdio_output@@@__crt_stdio_output@@QEAA@XZ 00000001801646fc f i libucrt:output.obj
 0001:00163720       ??1?$format_validation_base@DV?$string_output_adapter@D@__crt_stdio_output@@@__crt_stdio_output@@QEAA@XZ 0000000180164720 f i libucrt:output.obj
 0001:00163744       ??1?$format_validation_base@_WV?$stream_output_adapter@_W@__crt_stdio_output@@@__crt_stdio_output@@QEAA@XZ 0000000180164744 f i libucrt:output.obj
 0001:00163768       ??1?$format_validation_base@_WV?$string_output_adapter@_W@__crt_stdio_output@@@__crt_stdio_output@@QEAA@XZ 0000000180164768 f i libucrt:output.obj
 0001:0016378c       ??1?$output_adapter_data@DV?$stream_output_adapter@D@__crt_stdio_output@@@__crt_stdio_output@@QEAA@XZ 000000018016478c f i libucrt:output.obj
 0001:001637b0       ??1?$output_adapter_data@DV?$string_output_adapter@D@__crt_stdio_output@@@__crt_stdio_output@@QEAA@XZ 00000001801647b0 f i libucrt:output.obj
 0001:001637d4       ??1?$output_adapter_data@_WV?$stream_output_adapter@_W@__crt_stdio_output@@@__crt_stdio_output@@QEAA@XZ 00000001801647d4 f i libucrt:output.obj
 0001:001637f8       ??1?$output_adapter_data@_WV?$string_output_adapter@_W@__crt_stdio_output@@@__crt_stdio_output@@QEAA@XZ 00000001801647f8 f i libucrt:output.obj
 0001:0016381c       ??1?$output_processor@DV?$stream_output_adapter@D@__crt_stdio_output@@V?$format_validation_base@DV?$stream_output_adapter@D@__crt_stdio_output@@@2@@__crt_stdio_output@@QEAA@XZ 000000018016481c f i libucrt:output.obj
 0001:00163840       ??1?$output_processor@DV?$stream_output_adapter@D@__crt_stdio_output@@V?$positional_parameter_base@DV?$stream_output_adapter@D@__crt_stdio_output@@@2@@__crt_stdio_output@@QEAA@XZ 0000000180164840 f i libucrt:output.obj
 0001:00163864       ??1?$output_processor@DV?$stream_output_adapter@D@__crt_stdio_output@@V?$standard_base@DV?$stream_output_adapter@D@__crt_stdio_output@@@2@@__crt_stdio_output@@QEAA@XZ 0000000180164864 f i libucrt:output.obj
 0001:00163888       ??1?$output_processor@DV?$string_output_adapter@D@__crt_stdio_output@@V?$format_validation_base@DV?$string_output_adapter@D@__crt_stdio_output@@@2@@__crt_stdio_output@@QEAA@XZ 0000000180164888 f i libucrt:output.obj
 0001:001638ac       ??1?$output_processor@DV?$string_output_adapter@D@__crt_stdio_output@@V?$positional_parameter_base@DV?$string_output_adapter@D@__crt_stdio_output@@@2@@__crt_stdio_output@@QEAA@XZ 00000001801648ac f i libucrt:output.obj
 0001:001638d0       ??1?$output_processor@DV?$string_output_adapter@D@__crt_stdio_output@@V?$standard_base@DV?$string_output_adapter@D@__crt_stdio_output@@@2@@__crt_stdio_output@@QEAA@XZ 00000001801648d0 f i libucrt:output.obj
 0001:001638f4       ??1?$output_processor@_WV?$stream_output_adapter@_W@__crt_stdio_output@@V?$format_validation_base@_WV?$stream_output_adapter@_W@__crt_stdio_output@@@2@@__crt_stdio_output@@QEAA@XZ 00000001801648f4 f i libucrt:output.obj
 0001:00163918       ??1?$output_processor@_WV?$stream_output_adapter@_W@__crt_stdio_output@@V?$positional_parameter_base@_WV?$stream_output_adapter@_W@__crt_stdio_output@@@2@@__crt_stdio_output@@QEAA@XZ 0000000180164918 f i libucrt:output.obj
 0001:0016393c       ??1?$output_processor@_WV?$stream_output_adapter@_W@__crt_stdio_output@@V?$standard_base@_WV?$stream_output_adapter@_W@__crt_stdio_output@@@2@@__crt_stdio_output@@QEAA@XZ 000000018016493c f i libucrt:output.obj
 0001:00163960       ??1?$output_processor@_WV?$string_output_adapter@_W@__crt_stdio_output@@V?$format_validation_base@_WV?$string_output_adapter@_W@__crt_stdio_output@@@2@@__crt_stdio_output@@QEAA@XZ 0000000180164960 f i libucrt:output.obj
 0001:00163984       ??1?$output_processor@_WV?$string_output_adapter@_W@__crt_stdio_output@@V?$positional_parameter_base@_WV?$string_output_adapter@_W@__crt_stdio_output@@@2@@__crt_stdio_output@@QEAA@XZ 0000000180164984 f i libucrt:output.obj
 0001:001639a8       ??1?$output_processor@_WV?$string_output_adapter@_W@__crt_stdio_output@@V?$standard_base@_WV?$string_output_adapter@_W@__crt_stdio_output@@@2@@__crt_stdio_output@@QEAA@XZ 00000001801649a8 f i libucrt:output.obj
 0001:001639cc       ??1?$positional_parameter_base@DV?$stream_output_adapter@D@__crt_stdio_output@@@__crt_stdio_output@@QEAA@XZ 00000001801649cc f i libucrt:output.obj
 0001:001639f0       ??1?$positional_parameter_base@DV?$string_output_adapter@D@__crt_stdio_output@@@__crt_stdio_output@@QEAA@XZ 00000001801649f0 f i libucrt:output.obj
 0001:00163a14       ??1?$positional_parameter_base@_WV?$stream_output_adapter@_W@__crt_stdio_output@@@__crt_stdio_output@@QEAA@XZ 0000000180164a14 f i libucrt:output.obj
 0001:00163a38       ??1?$positional_parameter_base@_WV?$string_output_adapter@_W@__crt_stdio_output@@@__crt_stdio_output@@QEAA@XZ 0000000180164a38 f i libucrt:output.obj
 0001:00163a5c       ??1?$standard_base@DV?$stream_output_adapter@D@__crt_stdio_output@@@__crt_stdio_output@@QEAA@XZ 0000000180164a5c f i libucrt:output.obj
 0001:00163a80       ??1?$standard_base@DV?$string_output_adapter@D@__crt_stdio_output@@@__crt_stdio_output@@QEAA@XZ 0000000180164a80 f i libucrt:output.obj
 0001:00163aa4       ??1?$standard_base@_WV?$stream_output_adapter@_W@__crt_stdio_output@@@__crt_stdio_output@@QEAA@XZ 0000000180164aa4 f i libucrt:output.obj
 0001:00163ac8       ??1?$standard_base@_WV?$string_output_adapter@_W@__crt_stdio_output@@@__crt_stdio_output@@QEAA@XZ 0000000180164ac8 f i libucrt:output.obj
 0001:00163aec       ??1__acrt_stdio_temporary_buffering_guard@@QEAA@XZ 0000000180164aec f i libucrt:output.obj
 0001:00163b00       ??1__crt_cached_ptd_host@@QEAA@XZ 0000000180164b00 f i libucrt:output.obj
 0001:00163b50       ??1__crt_scoped_get_last_error_reset@@QEAA@XZ 0000000180164b50 f i libucrt:output.obj
 0001:00163b5c       ??1formatting_buffer@__crt_stdio_output@@QEAA@XZ 0000000180164b5c f i libucrt:output.obj
 0001:00163b80       ??1guard@?$cached@H@__crt_cached_ptd_host@@QEAA@XZ 0000000180164b80 f i libucrt:output.obj
 0001:00163b94       ??4?$__crt_unique_heap_ptr@DU__crt_internal_free_policy@@@@QEAAAEAV0@$$QEAV0@@Z 0000000180164b94 f i libucrt:output.obj
 0001:00163bc8       ??A?$spectre_mitigated_lookup_table@Ustate_transition_pair@__crt_stdio_output@@$0IA@@__crt_stdio_output@@QEBAAEBUstate_transition_pair@1@_K@Z 0000000180164bc8 f i libucrt:output.obj
 0001:00163bd0       ??C__crt_stdio_stream@@QEBAPEAU__crt_stdio_stream_data@@XZ 0000000180164bd0 f i libucrt:output.obj
 0001:00164318       ?adjust_hexit@?$output_processor@DV?$stream_output_adapter@D@__crt_stdio_output@@V?$format_validation_base@DV?$stream_output_adapter@D@__crt_stdio_output@@@2@@__crt_stdio_output@@CADH_N@Z 0000000180165318 f i libucrt:output.obj
 0001:00164324       ?adjust_hexit@?$output_processor@DV?$stream_output_adapter@D@__crt_stdio_output@@V?$positional_parameter_base@DV?$stream_output_adapter@D@__crt_stdio_output@@@2@@__crt_stdio_output@@CADH_N@Z 0000000180165324 f i libucrt:output.obj
 0001:00164330       ?adjust_hexit@?$output_processor@DV?$stream_output_adapter@D@__crt_stdio_output@@V?$standard_base@DV?$stream_output_adapter@D@__crt_stdio_output@@@2@@__crt_stdio_output@@CADH_N@Z 0000000180165330 f i libucrt:output.obj
 0001:0016433c       ?adjust_hexit@?$output_processor@DV?$string_output_adapter@D@__crt_stdio_output@@V?$format_validation_base@DV?$string_output_adapter@D@__crt_stdio_output@@@2@@__crt_stdio_output@@CADH_N@Z 000000018016533c f i libucrt:output.obj
 0001:00164348       ?adjust_hexit@?$output_processor@DV?$string_output_adapter@D@__crt_stdio_output@@V?$positional_parameter_base@DV?$string_output_adapter@D@__crt_stdio_output@@@2@@__crt_stdio_output@@CADH_N@Z 0000000180165348 f i libucrt:output.obj
 0001:00164354       ?adjust_hexit@?$output_processor@DV?$string_output_adapter@D@__crt_stdio_output@@V?$standard_base@DV?$string_output_adapter@D@__crt_stdio_output@@@2@@__crt_stdio_output@@CADH_N@Z 0000000180165354 f i libucrt:output.obj
 0001:00164360       ?adjust_hexit@?$output_processor@_WV?$stream_output_adapter@_W@__crt_stdio_output@@V?$format_validation_base@_WV?$stream_output_adapter@_W@__crt_stdio_output@@@2@@__crt_stdio_output@@CADH_N@Z 0000000180165360 f i libucrt:output.obj
 0001:0016436c       ?adjust_hexit@?$output_processor@_WV?$stream_output_adapter@_W@__crt_stdio_output@@V?$positional_parameter_base@_WV?$stream_output_adapter@_W@__crt_stdio_output@@@2@@__crt_stdio_output@@CADH_N@Z 000000018016536c f i libucrt:output.obj
 0001:00164378       ?adjust_hexit@?$output_processor@_WV?$stream_output_adapter@_W@__crt_stdio_output@@V?$standard_base@_WV?$stream_output_adapter@_W@__crt_stdio_output@@@2@@__crt_stdio_output@@CADH_N@Z 0000000180165378 f i libucrt:output.obj
 0001:00164384       ?adjust_hexit@?$output_processor@_WV?$string_output_adapter@_W@__crt_stdio_output@@V?$format_validation_base@_WV?$string_output_adapter@_W@__crt_stdio_output@@@2@@__crt_stdio_output@@CADH_N@Z 0000000180165384 f i libucrt:output.obj
 0001:00164390       ?adjust_hexit@?$output_processor@_WV?$string_output_adapter@_W@__crt_stdio_output@@V?$positional_parameter_base@_WV?$string_output_adapter@_W@__crt_stdio_output@@@2@@__crt_stdio_output@@CADH_N@Z 0000000180165390 f i libucrt:output.obj
 0001:0016439c       ?adjust_hexit@?$output_processor@_WV?$string_output_adapter@_W@__crt_stdio_output@@V?$standard_base@_WV?$string_output_adapter@_W@__crt_stdio_output@@@2@@__crt_stdio_output@@CADH_N@Z 000000018016539c f i libucrt:output.obj
 0001:001643a8       ?advance_to_next_pass@?$positional_parameter_base@DV?$stream_output_adapter@D@__crt_stdio_output@@@__crt_stdio_output@@IEAA_NXZ 00000001801653a8 f i libucrt:output.obj
 0001:001643fc       ?advance_to_next_pass@?$positional_parameter_base@DV?$string_output_adapter@D@__crt_stdio_output@@@__crt_stdio_output@@IEAA_NXZ 00000001801653fc f i libucrt:output.obj
 0001:00164450       ?advance_to_next_pass@?$positional_parameter_base@_WV?$stream_output_adapter@_W@__crt_stdio_output@@@__crt_stdio_output@@IEAA_NXZ 0000000180165450 f i libucrt:output.obj
 0001:001644a4       ?advance_to_next_pass@?$positional_parameter_base@_WV?$string_output_adapter@_W@__crt_stdio_output@@@__crt_stdio_output@@IEAA_NXZ 00000001801654a4 f i libucrt:output.obj
 0001:001644f8       ?advance_to_next_pass@?$standard_base@DV?$stream_output_adapter@D@__crt_stdio_output@@@__crt_stdio_output@@IEAA_NXZ 00000001801654f8 f i libucrt:output.obj
 0001:0016450c       ?advance_to_next_pass@?$standard_base@DV?$string_output_adapter@D@__crt_stdio_output@@@__crt_stdio_output@@IEAA_NXZ 000000018016550c f i libucrt:output.obj
 0001:00164520       ?advance_to_next_pass@?$standard_base@_WV?$stream_output_adapter@_W@__crt_stdio_output@@@__crt_stdio_output@@IEAA_NXZ 0000000180165520 f i libucrt:output.obj
 0001:00164534       ?advance_to_next_pass@?$standard_base@_WV?$string_output_adapter@_W@__crt_stdio_output@@@__crt_stdio_output@@IEAA_NXZ 0000000180165534 f i libucrt:output.obj
 0001:00164548       ?check@?$cached@H@__crt_cached_ptd_host@@QEBA_NH@Z 0000000180165548 f i libucrt:output.obj
 0001:00164560       ?check_synchronize_global_state_index@__crt_cached_ptd_host@@AEAA_KAEBV__crt_scoped_get_last_error_reset@@@Z 0000000180165560 f i libucrt:output.obj
 0001:00164580       ?check_synchronize_per_thread_data@__crt_cached_ptd_host@@AEAAPEAU__acrt_ptd@@XZ 0000000180165580 f i libucrt:output.obj
 0001:001645e8       ?create_guard@?$cached@H@__crt_cached_ptd_host@@QEAA?AVguard@12@XZ 00000001801655e8 f i libucrt:output.obj
 0001:001645fc       ?crop_zeroes@__crt_stdio_output@@YAXPEADQEAU__crt_locale_pointers@@@Z 00000001801655fc f i libucrt:output.obj
 0001:00164668       ?disable@guard@?$cached@H@__crt_cached_ptd_host@@QEAAXXZ 0000000180165668 f i libucrt:output.obj
 0001:00164670       ?enable@guard@?$cached@H@__crt_cached_ptd_host@@QEAAXXZ 0000000180165670 f i libucrt:output.obj
 0001:00164678       ?find_next_state@?$output_processor@DV?$stream_output_adapter@D@__crt_stdio_output@@V?$format_validation_base@DV?$stream_output_adapter@D@__crt_stdio_output@@@2@@__crt_stdio_output@@AEBA?AW4state@2@DW432@@Z 0000000180165678 f i libucrt:output.obj
 0001:001646b0       ?find_next_state@?$output_processor@DV?$stream_output_adapter@D@__crt_stdio_output@@V?$positional_parameter_base@DV?$stream_output_adapter@D@__crt_stdio_output@@@2@@__crt_stdio_output@@AEBA?AW4state@2@DW432@@Z 00000001801656b0 f i libucrt:output.obj
 0001:001646e8       ?find_next_state@?$output_processor@DV?$stream_output_adapter@D@__crt_stdio_output@@V?$standard_base@DV?$stream_output_adapter@D@__crt_stdio_output@@@2@@__crt_stdio_output@@AEBA?AW4state@2@DW432@@Z 00000001801656e8 f i libucrt:output.obj
 0001:0016471c       ?find_next_state@?$output_processor@DV?$string_output_adapter@D@__crt_stdio_output@@V?$format_validation_base@DV?$string_output_adapter@D@__crt_stdio_output@@@2@@__crt_stdio_output@@AEBA?AW4state@2@DW432@@Z 000000018016571c f i libucrt:output.obj
 0001:00164754       ?find_next_state@?$output_processor@DV?$string_output_adapter@D@__crt_stdio_output@@V?$positional_parameter_base@DV?$string_output_adapter@D@__crt_stdio_output@@@2@@__crt_stdio_output@@AEBA?AW4state@2@DW432@@Z 0000000180165754 f i libucrt:output.obj
 0001:0016478c       ?find_next_state@?$output_processor@DV?$string_output_adapter@D@__crt_stdio_output@@V?$standard_base@DV?$string_output_adapter@D@__crt_stdio_output@@@2@@__crt_stdio_output@@AEBA?AW4state@2@DW432@@Z 000000018016578c f i libucrt:output.obj
 0001:001647c0       ?find_next_state@?$output_processor@_WV?$stream_output_adapter@_W@__crt_stdio_output@@V?$format_validation_base@_WV?$stream_output_adapter@_W@__crt_stdio_output@@@2@@__crt_stdio_output@@AEBA?AW4state@2@_WW432@@Z 00000001801657c0 f i libucrt:output.obj
 0001:00164800       ?find_next_state@?$output_processor@_WV?$stream_output_adapter@_W@__crt_stdio_output@@V?$positional_parameter_base@_WV?$stream_output_adapter@_W@__crt_stdio_output@@@2@@__crt_stdio_output@@AEBA?AW4state@2@_WW432@@Z 0000000180165800 f i libucrt:output.obj
 0001:00164840       ?find_next_state@?$output_processor@_WV?$stream_output_adapter@_W@__crt_stdio_output@@V?$standard_base@_WV?$stream_output_adapter@_W@__crt_stdio_output@@@2@@__crt_stdio_output@@AEBA?AW4state@2@_WW432@@Z 0000000180165840 f i libucrt:output.obj
 0001:0016487c       ?find_next_state@?$output_processor@_WV?$string_output_adapter@_W@__crt_stdio_output@@V?$format_validation_base@_WV?$string_output_adapter@_W@__crt_stdio_output@@@2@@__crt_stdio_output@@AEBA?AW4state@2@_WW432@@Z 000000018016587c f i libucrt:output.obj
 0001:001648bc       ?find_next_state@?$output_processor@_WV?$string_output_adapter@_W@__crt_stdio_output@@V?$positional_parameter_base@_WV?$string_output_adapter@_W@__crt_stdio_output@@@2@@__crt_stdio_output@@AEBA?AW4state@2@_WW432@@Z 00000001801658bc f i libucrt:output.obj
 0001:001648fc       ?find_next_state@?$output_processor@_WV?$string_output_adapter@_W@__crt_stdio_output@@V?$standard_base@_WV?$string_output_adapter@_W@__crt_stdio_output@@@2@@__crt_stdio_output@@AEBA?AW4state@2@_WW432@@Z 00000001801658fc f i libucrt:output.obj
 0001:00164938       ?force_decimal_point@__crt_stdio_output@@YAXPEADQEAU__crt_locale_pointers@@@Z 0000000180165938 f i libucrt:output.obj
 0001:001649a0       ?force_synchronize_global_state_index@__crt_cached_ptd_host@@AEAA_KAEBV__crt_scoped_get_last_error_reset@@@Z 00000001801659a0 f i libucrt:output.obj
 0001:001649b0       ?force_synchronize_per_thread_data@__crt_cached_ptd_host@@AEAAPEAU__acrt_ptd@@XZ 00000001801659b0 f i libucrt:output.obj
 0001:00164a08       ?get@?$c_string_character_source@D@__crt_strtox@@QEAADXZ 0000000180165a08 f i libucrt:output.obj
 0001:00164a14       ?get@?$c_string_character_source@_W@__crt_strtox@@QEAA_WXZ 0000000180165a14 f i libucrt:output.obj
 0001:00164a24       ?get_current_state_index@__crt_state_management@@YA_KAEBV__crt_scoped_get_last_error_reset@@@Z 0000000180165a24 f i libucrt:output.obj
 0001:00164a30       ?get_errno@__crt_cached_ptd_host@@QEAA@XZ 0000000180165a30 f i libucrt:output.obj
 0001:00164a38       ?get_flags@__crt_stdio_stream@@QEBAJXZ 0000000180165a38 f i libucrt:output.obj
 0001:00164a40       ?get_locale@__crt_cached_ptd_host@@QEAAPEAU__crt_locale_pointers@@XZ 0000000180165a40 f i libucrt:output.obj
 0001:00164a68       ?get_parameter_type@?$positional_parameter_base@DV?$stream_output_adapter@D@__crt_stdio_output@@@__crt_stdio_output@@CA?AW4parameter_type@12@F@Z 0000000180165a68 f i libucrt:output.obj
 0001:00164a70       ?get_parameter_type@?$positional_parameter_base@DV?$stream_output_adapter@D@__crt_stdio_output@@@__crt_stdio_output@@CA?AW4parameter_type@12@G@Z 0000000180165a70 f i libucrt:output.obj
 0001:00164a78       ?get_parameter_type@?$positional_parameter_base@DV?$stream_output_adapter@D@__crt_stdio_output@@@__crt_stdio_output@@CA?AW4parameter_type@12@H@Z 0000000180165a78 f i libucrt:output.obj
 0001:00164a80       ?get_parameter_type@?$positional_parameter_base@DV?$stream_output_adapter@D@__crt_stdio_output@@@__crt_stdio_output@@CA?AW4parameter_type@12@I@Z 0000000180165a80 f i libucrt:output.obj
 0001:00164a88       ?get_parameter_type@?$positional_parameter_base@DV?$stream_output_adapter@D@__crt_stdio_output@@@__crt_stdio_output@@CA?AW4parameter_type@12@U_CRT_DOUBLE@@@Z 0000000180165a88 f i libucrt:output.obj
 0001:00164a90       ?get_parameter_type@?$positional_parameter_base@DV?$stream_output_adapter@D@__crt_stdio_output@@@__crt_stdio_output@@CA?AW4parameter_type@12@_J@Z 0000000180165a90 f i libucrt:output.obj
 0001:00164a98       ?get_parameter_type@?$positional_parameter_base@DV?$stream_output_adapter@D@__crt_stdio_output@@@__crt_stdio_output@@CA?AW4parameter_type@12@_K@Z 0000000180165a98 f i libucrt:output.obj
 0001:00164aa0       ?get_parameter_type@?$positional_parameter_base@DV?$stream_output_adapter@D@__crt_stdio_output@@@__crt_stdio_output@@CA?AW4parameter_type@12@_W@Z 0000000180165aa0 f i libucrt:output.obj
 0001:00164aa8       ?get_parameter_type@?$positional_parameter_base@DV?$string_output_adapter@D@__crt_stdio_output@@@__crt_stdio_output@@CA?AW4parameter_type@12@F@Z 0000000180165aa8 f i libucrt:output.obj
 0001:00164ab0       ?get_parameter_type@?$positional_parameter_base@DV?$string_output_adapter@D@__crt_stdio_output@@@__crt_stdio_output@@CA?AW4parameter_type@12@G@Z 0000000180165ab0 f i libucrt:output.obj
 0001:00164ab8       ?get_parameter_type@?$positional_parameter_base@DV?$string_output_adapter@D@__crt_stdio_output@@@__crt_stdio_output@@CA?AW4parameter_type@12@H@Z 0000000180165ab8 f i libucrt:output.obj
 0001:00164ac0       ?get_parameter_type@?$positional_parameter_base@DV?$string_output_adapter@D@__crt_stdio_output@@@__crt_stdio_output@@CA?AW4parameter_type@12@I@Z 0000000180165ac0 f i libucrt:output.obj
 0001:00164ac8       ?get_parameter_type@?$positional_parameter_base@DV?$string_output_adapter@D@__crt_stdio_output@@@__crt_stdio_output@@CA?AW4parameter_type@12@U_CRT_DOUBLE@@@Z 0000000180165ac8 f i libucrt:output.obj
 0001:00164ad0       ?get_parameter_type@?$positional_parameter_base@DV?$string_output_adapter@D@__crt_stdio_output@@@__crt_stdio_output@@CA?AW4parameter_type@12@_J@Z 0000000180165ad0 f i libucrt:output.obj
 0001:00164ad8       ?get_parameter_type@?$positional_parameter_base@DV?$string_output_adapter@D@__crt_stdio_output@@@__crt_stdio_output@@CA?AW4parameter_type@12@_K@Z 0000000180165ad8 f i libucrt:output.obj
 0001:00164ae0       ?get_parameter_type@?$positional_parameter_base@DV?$string_output_adapter@D@__crt_stdio_output@@@__crt_stdio_output@@CA?AW4parameter_type@12@_W@Z 0000000180165ae0 f i libucrt:output.obj
 0001:00164ae8       ?get_parameter_type@?$positional_parameter_base@_WV?$stream_output_adapter@_W@__crt_stdio_output@@@__crt_stdio_output@@CA?AW4parameter_type@12@F@Z 0000000180165ae8 f i libucrt:output.obj
 0001:00164af0       ?get_parameter_type@?$positional_parameter_base@_WV?$stream_output_adapter@_W@__crt_stdio_output@@@__crt_stdio_output@@CA?AW4parameter_type@12@G@Z 0000000180165af0 f i libucrt:output.obj
 0001:00164af8       ?get_parameter_type@?$positional_parameter_base@_WV?$stream_output_adapter@_W@__crt_stdio_output@@@__crt_stdio_output@@CA?AW4parameter_type@12@H@Z 0000000180165af8 f i libucrt:output.obj
 0001:00164b00       ?get_parameter_type@?$positional_parameter_base@_WV?$stream_output_adapter@_W@__crt_stdio_output@@@__crt_stdio_output@@CA?AW4parameter_type@12@I@Z 0000000180165b00 f i libucrt:output.obj
 0001:00164b08       ?get_parameter_type@?$positional_parameter_base@_WV?$stream_output_adapter@_W@__crt_stdio_output@@@__crt_stdio_output@@CA?AW4parameter_type@12@U_CRT_DOUBLE@@@Z 0000000180165b08 f i libucrt:output.obj
 0001:00164b10       ?get_parameter_type@?$positional_parameter_base@_WV?$stream_output_adapter@_W@__crt_stdio_output@@@__crt_stdio_output@@CA?AW4parameter_type@12@_J@Z 0000000180165b10 f i libucrt:output.obj
 0001:00164b18       ?get_parameter_type@?$positional_parameter_base@_WV?$stream_output_adapter@_W@__crt_stdio_output@@@__crt_stdio_output@@CA?AW4parameter_type@12@_K@Z 0000000180165b18 f i libucrt:output.obj
 0001:00164b20       ?get_parameter_type@?$positional_parameter_base@_WV?$stream_output_adapter@_W@__crt_stdio_output@@@__crt_stdio_output@@CA?AW4parameter_type@12@_W@Z 0000000180165b20 f i libucrt:output.obj
 0001:00164b28       ?get_parameter_type@?$positional_parameter_base@_WV?$string_output_adapter@_W@__crt_stdio_output@@@__crt_stdio_output@@CA?AW4parameter_type@12@F@Z 0000000180165b28 f i libucrt:output.obj
 0001:00164b30       ?get_parameter_type@?$positional_parameter_base@_WV?$string_output_adapter@_W@__crt_stdio_output@@@__crt_stdio_output@@CA?AW4parameter_type@12@G@Z 0000000180165b30 f i libucrt:output.obj
 0001:00164b38       ?get_parameter_type@?$positional_parameter_base@_WV?$string_output_adapter@_W@__crt_stdio_output@@@__crt_stdio_output@@CA?AW4parameter_type@12@H@Z 0000000180165b38 f i libucrt:output.obj
 0001:00164b40       ?get_parameter_type@?$positional_parameter_base@_WV?$string_output_adapter@_W@__crt_stdio_output@@@__crt_stdio_output@@CA?AW4parameter_type@12@I@Z 0000000180165b40 f i libucrt:output.obj
 0001:00164b48       ?get_parameter_type@?$positional_parameter_base@_WV?$string_output_adapter@_W@__crt_stdio_output@@@__crt_stdio_output@@CA?AW4parameter_type@12@U_CRT_DOUBLE@@@Z 0000000180165b48 f i libucrt:output.obj
 0001:00164b50       ?get_parameter_type@?$positional_parameter_base@_WV?$string_output_adapter@_W@__crt_stdio_output@@@__crt_stdio_output@@CA?AW4parameter_type@12@_J@Z 0000000180165b50 f i libucrt:output.obj
 0001:00164b58       ?get_parameter_type@?$positional_parameter_base@_WV?$string_output_adapter@_W@__crt_stdio_output@@@__crt_stdio_output@@CA?AW4parameter_type@12@_K@Z 0000000180165b58 f i libucrt:output.obj
 0001:00164b60       ?get_parameter_type@?$positional_parameter_base@_WV?$string_output_adapter@_W@__crt_stdio_output@@@__crt_stdio_output@@CA?AW4parameter_type@12@_W@Z 0000000180165b60 f i libucrt:output.obj
 0001:00164b70       ?get_raw_ptd@__crt_cached_ptd_host@@QEAAPEAU__acrt_ptd@@XZ 0000000180165b70 f i libucrt:output.obj
 0001:00164bd8       ?has_flag@?$output_processor@DV?$stream_output_adapter@D@__crt_stdio_output@@V?$format_validation_base@DV?$stream_output_adapter@D@__crt_stdio_output@@@2@@__crt_stdio_output@@AEBA_NI@Z 0000000180165bd8 f i libucrt:output.obj
 0001:00164be0       ?has_flag@?$output_processor@DV?$stream_output_adapter@D@__crt_stdio_output@@V?$positional_parameter_base@DV?$stream_output_adapter@D@__crt_stdio_output@@@2@@__crt_stdio_output@@AEBA_NI@Z 0000000180165be0 f i libucrt:output.obj
 0001:00164be8       ?has_flag@?$output_processor@DV?$stream_output_adapter@D@__crt_stdio_output@@V?$standard_base@DV?$stream_output_adapter@D@__crt_stdio_output@@@2@@__crt_stdio_output@@AEBA_NI@Z 0000000180165be8 f i libucrt:output.obj
 0001:00164bf0       ?has_flag@?$output_processor@DV?$string_output_adapter@D@__crt_stdio_output@@V?$format_validation_base@DV?$string_output_adapter@D@__crt_stdio_output@@@2@@__crt_stdio_output@@AEBA_NI@Z 0000000180165bf0 f i libucrt:output.obj
 0001:00164bf8       ?has_flag@?$output_processor@DV?$string_output_adapter@D@__crt_stdio_output@@V?$positional_parameter_base@DV?$string_output_adapter@D@__crt_stdio_output@@@2@@__crt_stdio_output@@AEBA_NI@Z 0000000180165bf8 f i libucrt:output.obj
 0001:00164c00       ?has_flag@?$output_processor@DV?$string_output_adapter@D@__crt_stdio_output@@V?$standard_base@DV?$string_output_adapter@D@__crt_stdio_output@@@2@@__crt_stdio_output@@AEBA_NI@Z 0000000180165c00 f i libucrt:output.obj
 0001:00164c08       ?has_flag@?$output_processor@_WV?$stream_output_adapter@_W@__crt_stdio_output@@V?$format_validation_base@_WV?$stream_output_adapter@_W@__crt_stdio_output@@@2@@__crt_stdio_output@@AEBA_NI@Z 0000000180165c08 f i libucrt:output.obj
 0001:00164c10       ?has_flag@?$output_processor@_WV?$stream_output_adapter@_W@__crt_stdio_output@@V?$positional_parameter_base@_WV?$stream_output_adapter@_W@__crt_stdio_output@@@2@@__crt_stdio_output@@AEBA_NI@Z 0000000180165c10 f i libucrt:output.obj
 0001:00164c18       ?has_flag@?$output_processor@_WV?$stream_output_adapter@_W@__crt_stdio_output@@V?$standard_base@_WV?$stream_output_adapter@_W@__crt_stdio_output@@@2@@__crt_stdio_output@@AEBA_NI@Z 0000000180165c18 f i libucrt:output.obj
 0001:00164c20       ?has_flag@?$output_processor@_WV?$string_output_adapter@_W@__crt_stdio_output@@V?$format_validation_base@_WV?$string_output_adapter@_W@__crt_stdio_output@@@2@@__crt_stdio_output@@AEBA_NI@Z 0000000180165c20 f i libucrt:output.obj
 0001:00164c28       ?has_flag@?$output_processor@_WV?$string_output_adapter@_W@__crt_stdio_output@@V?$positional_parameter_base@_WV?$string_output_adapter@_W@__crt_stdio_output@@@2@@__crt_stdio_output@@AEBA_NI@Z 0000000180165c28 f i libucrt:output.obj
 0001:00164c30       ?has_flag@?$output_processor@_WV?$string_output_adapter@_W@__crt_stdio_output@@V?$standard_base@_WV?$string_output_adapter@_W@__crt_stdio_output@@@2@@__crt_stdio_output@@AEBA_NI@Z 0000000180165c30 f i libucrt:output.obj
 0001:00164c38       ?is_positional_parameter_reappearance_consistent@?$positional_parameter_base@DV?$stream_output_adapter@D@__crt_stdio_output@@@__crt_stdio_output@@AEAA_NAEBUparameter_data@12@W4parameter_type@12@DW4length_modifier@2@@Z 0000000180165c38 f i libucrt:output.obj
 0001:00164e6c       ?is_positional_parameter_reappearance_consistent@?$positional_parameter_base@DV?$string_output_adapter@D@__crt_stdio_output@@@__crt_stdio_output@@AEAA_NAEBUparameter_data@12@W4parameter_type@12@DW4length_modifier@2@@Z 0000000180165e6c f i libucrt:output.obj
 0001:001650a0       ?is_positional_parameter_reappearance_consistent@?$positional_parameter_base@_WV?$stream_output_adapter@_W@__crt_stdio_output@@@__crt_stdio_output@@AEAA_NAEBUparameter_data@12@W4parameter_type@12@_WW4length_modifier@2@@Z 00000001801660a0 f i libucrt:output.obj
 0001:001652a4       ?is_positional_parameter_reappearance_consistent@?$positional_parameter_base@_WV?$string_output_adapter@_W@__crt_stdio_output@@@__crt_stdio_output@@AEAA_NAEBUparameter_data@12@W4parameter_type@12@_WW4length_modifier@2@@Z 00000001801662a4 f i libucrt:output.obj
 0001:001654a8       ?is_string_backed@__crt_stdio_stream@@QEBA_NXZ 00000001801664a8 f i libucrt:output.obj
 0001:001654b8       ?maximum_signed_value@__crt_strtox@@YAJK@Z 00000001801664b8 f i libucrt:output.obj
 0001:001654c0       ?minimum_signed_value@__crt_strtox@@YAJK@Z 00000001801664c0 f i libucrt:output.obj
 0001:001654c8       ?narrow_null_string@?$output_processor@DV?$stream_output_adapter@D@__crt_stdio_output@@V?$format_validation_base@DV?$stream_output_adapter@D@__crt_stdio_output@@@2@@__crt_stdio_output@@CAPEADXZ 00000001801664c8 f i libucrt:output.obj
 0001:001654d0       ?narrow_null_string@?$output_processor@DV?$stream_output_adapter@D@__crt_stdio_output@@V?$positional_parameter_base@DV?$stream_output_adapter@D@__crt_stdio_output@@@2@@__crt_stdio_output@@CAPEADXZ 00000001801664d0 f i libucrt:output.obj
 0001:001654d8       ?narrow_null_string@?$output_processor@DV?$stream_output_adapter@D@__crt_stdio_output@@V?$standard_base@DV?$stream_output_adapter@D@__crt_stdio_output@@@2@@__crt_stdio_output@@CAPEADXZ 00000001801664d8 f i libucrt:output.obj
 0001:001654e0       ?narrow_null_string@?$output_processor@DV?$string_output_adapter@D@__crt_stdio_output@@V?$format_validation_base@DV?$string_output_adapter@D@__crt_stdio_output@@@2@@__crt_stdio_output@@CAPEADXZ 00000001801664e0 f i libucrt:output.obj
 0001:001654e8       ?narrow_null_string@?$output_processor@DV?$string_output_adapter@D@__crt_stdio_output@@V?$positional_parameter_base@DV?$string_output_adapter@D@__crt_stdio_output@@@2@@__crt_stdio_output@@CAPEADXZ 00000001801664e8 f i libucrt:output.obj
 0001:001654f0       ?narrow_null_string@?$output_processor@DV?$string_output_adapter@D@__crt_stdio_output@@V?$standard_base@DV?$string_output_adapter@D@__crt_stdio_output@@@2@@__crt_stdio_output@@CAPEADXZ 00000001801664f0 f i libucrt:output.obj
 0001:001654f8       ?narrow_null_string@?$output_processor@_WV?$stream_output_adapter@_W@__crt_stdio_output@@V?$format_validation_base@_WV?$stream_output_adapter@_W@__crt_stdio_output@@@2@@__crt_stdio_output@@CAPEADXZ 00000001801664f8 f i libucrt:output.obj
 0001:00165500       ?narrow_null_string@?$output_processor@_WV?$stream_output_adapter@_W@__crt_stdio_output@@V?$positional_parameter_base@_WV?$stream_output_adapter@_W@__crt_stdio_output@@@2@@__crt_stdio_output@@CAPEADXZ 0000000180166500 f i libucrt:output.obj
 0001:00165508       ?narrow_null_string@?$output_processor@_WV?$stream_output_adapter@_W@__crt_stdio_output@@V?$standard_base@_WV?$stream_output_adapter@_W@__crt_stdio_output@@@2@@__crt_stdio_output@@CAPEADXZ 0000000180166508 f i libucrt:output.obj
 0001:00165510       ?narrow_null_string@?$output_processor@_WV?$string_output_adapter@_W@__crt_stdio_output@@V?$format_validation_base@_WV?$string_output_adapter@_W@__crt_stdio_output@@@2@@__crt_stdio_output@@CAPEADXZ 0000000180166510 f i libucrt:output.obj
 0001:00165518       ?narrow_null_string@?$output_processor@_WV?$string_output_adapter@_W@__crt_stdio_output@@V?$positional_parameter_base@_WV?$string_output_adapter@_W@__crt_stdio_output@@@2@@__crt_stdio_output@@CAPEADXZ 0000000180166518 f i libucrt:output.obj
 0001:00165520       ?narrow_null_string@?$output_processor@_WV?$string_output_adapter@_W@__crt_stdio_output@@V?$standard_base@_WV?$string_output_adapter@_W@__crt_stdio_output@@@2@@__crt_stdio_output@@CAPEADXZ 0000000180166520 f i libucrt:output.obj
 0001:00165528       ?parse_digit@__crt_strtox@@YAID@Z 0000000180166528 f i libucrt:output.obj
 0001:00165558       ?parse_digit@__crt_strtox@@YAI_W@Z 0000000180166558 f i libucrt:output.obj
 0001:00165714       ?parse_int_from_format_string@?$output_processor@DV?$stream_output_adapter@D@__crt_stdio_output@@V?$format_validation_base@DV?$stream_output_adapter@D@__crt_stdio_output@@@2@@__crt_stdio_output@@AEAA_NQEAH@Z 0000000180166714 f i libucrt:output.obj
 0001:001657a4       ?parse_int_from_format_string@?$output_processor@DV?$stream_output_adapter@D@__crt_stdio_output@@V?$positional_parameter_base@DV?$stream_output_adapter@D@__crt_stdio_output@@@2@@__crt_stdio_output@@AEAA_NQEAH@Z 00000001801667a4 f i libucrt:output.obj
 0001:00165834       ?parse_int_from_format_string@?$output_processor@DV?$stream_output_adapter@D@__crt_stdio_output@@V?$standard_base@DV?$stream_output_adapter@D@__crt_stdio_output@@@2@@__crt_stdio_output@@AEAA_NQEAH@Z 0000000180166834 f i libucrt:output.obj
 0001:001658c4       ?parse_int_from_format_string@?$output_processor@DV?$string_output_adapter@D@__crt_stdio_output@@V?$format_validation_base@DV?$string_output_adapter@D@__crt_stdio_output@@@2@@__crt_stdio_output@@AEAA_NQEAH@Z 00000001801668c4 f i libucrt:output.obj
 0001:00165954       ?parse_int_from_format_string@?$output_processor@DV?$string_output_adapter@D@__crt_stdio_output@@V?$positional_parameter_base@DV?$string_output_adapter@D@__crt_stdio_output@@@2@@__crt_stdio_output@@AEAA_NQEAH@Z 0000000180166954 f i libucrt:output.obj
 0001:001659e4       ?parse_int_from_format_string@?$output_processor@DV?$string_output_adapter@D@__crt_stdio_output@@V?$standard_base@DV?$string_output_adapter@D@__crt_stdio_output@@@2@@__crt_stdio_output@@AEAA_NQEAH@Z 00000001801669e4 f i libucrt:output.obj
 0001:00165a74       ?parse_int_from_format_string@?$output_processor@_WV?$stream_output_adapter@_W@__crt_stdio_output@@V?$format_validation_base@_WV?$stream_output_adapter@_W@__crt_stdio_output@@@2@@__crt_stdio_output@@AEAA_NQEAH@Z 0000000180166a74 f i libucrt:output.obj
 0001:00165b04       ?parse_int_from_format_string@?$output_processor@_WV?$stream_output_adapter@_W@__crt_stdio_output@@V?$positional_parameter_base@_WV?$stream_output_adapter@_W@__crt_stdio_output@@@2@@__crt_stdio_output@@AEAA_NQEAH@Z 0000000180166b04 f i libucrt:output.obj
 0001:00165b94       ?parse_int_from_format_string@?$output_processor@_WV?$stream_output_adapter@_W@__crt_stdio_output@@V?$standard_base@_WV?$stream_output_adapter@_W@__crt_stdio_output@@@2@@__crt_stdio_output@@AEAA_NQEAH@Z 0000000180166b94 f i libucrt:output.obj
 0001:00165c24       ?parse_int_from_format_string@?$output_processor@_WV?$string_output_adapter@_W@__crt_stdio_output@@V?$format_validation_base@_WV?$string_output_adapter@_W@__crt_stdio_output@@@2@@__crt_stdio_output@@AEAA_NQEAH@Z 0000000180166c24 f i libucrt:output.obj
 0001:00165cb4       ?parse_int_from_format_string@?$output_processor@_WV?$string_output_adapter@_W@__crt_stdio_output@@V?$positional_parameter_base@_WV?$string_output_adapter@_W@__crt_stdio_output@@@2@@__crt_stdio_output@@AEAA_NQEAH@Z 0000000180166cb4 f i libucrt:output.obj
 0001:00165d44       ?parse_int_from_format_string@?$output_processor@_WV?$string_output_adapter@_W@__crt_stdio_output@@V?$standard_base@_WV?$string_output_adapter@_W@__crt_stdio_output@@@2@@__crt_stdio_output@@AEAA_NQEAH@Z 0000000180166d44 f i libucrt:output.obj
 0001:00165dd4       ?process@?$output_processor@DV?$stream_output_adapter@D@__crt_stdio_output@@V?$format_validation_base@DV?$stream_output_adapter@D@__crt_stdio_output@@@2@@__crt_stdio_output@@QEAAHXZ 0000000180166dd4 f i libucrt:output.obj
 0001:00166170       ?process@?$output_processor@DV?$stream_output_adapter@D@__crt_stdio_output@@V?$positional_parameter_base@DV?$stream_output_adapter@D@__crt_stdio_output@@@2@@__crt_stdio_output@@QEAAHXZ 0000000180167170 f i libucrt:output.obj
 0001:001665a4       ?process@?$output_processor@DV?$stream_output_adapter@D@__crt_stdio_output@@V?$standard_base@DV?$stream_output_adapter@D@__crt_stdio_output@@@2@@__crt_stdio_output@@QEAAHXZ 00000001801675a4 f i libucrt:output.obj
 0001:0016693c       ?process@?$output_processor@DV?$string_output_adapter@D@__crt_stdio_output@@V?$format_validation_base@DV?$string_output_adapter@D@__crt_stdio_output@@@2@@__crt_stdio_output@@QEAAHXZ 000000018016793c f i libucrt:output.obj
 0001:00166cc0       ?process@?$output_processor@DV?$string_output_adapter@D@__crt_stdio_output@@V?$positional_parameter_base@DV?$string_output_adapter@D@__crt_stdio_output@@@2@@__crt_stdio_output@@QEAAHXZ 0000000180167cc0 f i libucrt:output.obj
 0001:001670d8       ?process@?$output_processor@DV?$string_output_adapter@D@__crt_stdio_output@@V?$standard_base@DV?$string_output_adapter@D@__crt_stdio_output@@@2@@__crt_stdio_output@@QEAAHXZ 00000001801680d8 f i libucrt:output.obj
 0001:00167458       ?process@?$output_processor@_WV?$stream_output_adapter@_W@__crt_stdio_output@@V?$format_validation_base@_WV?$stream_output_adapter@_W@__crt_stdio_output@@@2@@__crt_stdio_output@@QEAAHXZ 0000000180168458 f i libucrt:output.obj
 0001:00167738       ?process@?$output_processor@_WV?$stream_output_adapter@_W@__crt_stdio_output@@V?$positional_parameter_base@_WV?$stream_output_adapter@_W@__crt_stdio_output@@@2@@__crt_stdio_output@@QEAAHXZ 0000000180168738 f i libucrt:output.obj
 0001:00167aa8       ?process@?$output_processor@_WV?$stream_output_adapter@_W@__crt_stdio_output@@V?$standard_base@_WV?$stream_output_adapter@_W@__crt_stdio_output@@@2@@__crt_stdio_output@@QEAAHXZ 0000000180168aa8 f i libucrt:output.obj
 0001:00167d78       ?process@?$output_processor@_WV?$string_output_adapter@_W@__crt_stdio_output@@V?$format_validation_base@_WV?$string_output_adapter@_W@__crt_stdio_output@@@2@@__crt_stdio_output@@QEAAHXZ 0000000180168d78 f i libucrt:output.obj
 0001:00168050       ?process@?$output_processor@_WV?$string_output_adapter@_W@__crt_stdio_output@@V?$positional_parameter_base@_WV?$string_output_adapter@_W@__crt_stdio_output@@@2@@__crt_stdio_output@@QEAAHXZ 0000000180169050 f i libucrt:output.obj
 0001:001683bc       ?process@?$output_processor@_WV?$string_output_adapter@_W@__crt_stdio_output@@V?$standard_base@_WV?$string_output_adapter@_W@__crt_stdio_output@@@2@@__crt_stdio_output@@QEAAHXZ 00000001801693bc f i libucrt:output.obj
 0001:00168694       ?public_stream@__crt_stdio_stream@@QEBAPEAU_iobuf@@XZ 0000000180169694 f i libucrt:output.obj
 0001:00168698       ?restore_state@?$c_string_character_source@D@__crt_strtox@@QEAA_NQEBD@Z 0000000180169698 f i libucrt:output.obj
 0001:001686a0       ?restore_state@?$c_string_character_source@_W@__crt_strtox@@QEAA_NQEB_W@Z 00000001801696a0 f i libucrt:output.obj
 0001:001686a8       ?save_state@?$c_string_character_source@D@__crt_strtox@@QEBAPEBDXZ 00000001801696a8 f i libucrt:output.obj
 0001:001686ac       ?save_state@?$c_string_character_source@_W@__crt_strtox@@QEBAPEB_WXZ 00000001801696ac f i libucrt:output.obj
 0001:001686b0       ?set@?$cached@H@__crt_cached_ptd_host@@QEAAHH@Z 00000001801696b0 f i libucrt:output.obj
 0001:001686bc       ?set_flag@?$output_processor@DV?$stream_output_adapter@D@__crt_stdio_output@@V?$format_validation_base@DV?$stream_output_adapter@D@__crt_stdio_output@@@2@@__crt_stdio_output@@AEAAXI@Z 00000001801696bc f i libucrt:output.obj
 0001:001686c0       ?set_flag@?$output_processor@DV?$stream_output_adapter@D@__crt_stdio_output@@V?$positional_parameter_base@DV?$stream_output_adapter@D@__crt_stdio_output@@@2@@__crt_stdio_output@@AEAAXI@Z 00000001801696c0 f i libucrt:output.obj
 0001:001686c4       ?set_flag@?$output_processor@DV?$stream_output_adapter@D@__crt_stdio_output@@V?$standard_base@DV?$stream_output_adapter@D@__crt_stdio_output@@@2@@__crt_stdio_output@@AEAAXI@Z 00000001801696c4 f i libucrt:output.obj
 0001:001686c8       ?set_flag@?$output_processor@DV?$string_output_adapter@D@__crt_stdio_output@@V?$format_validation_base@DV?$string_output_adapter@D@__crt_stdio_output@@@2@@__crt_stdio_output@@AEAAXI@Z 00000001801696c8 f i libucrt:output.obj
 0001:001686cc       ?set_flag@?$output_processor@DV?$string_output_adapter@D@__crt_stdio_output@@V?$positional_parameter_base@DV?$string_output_adapter@D@__crt_stdio_output@@@2@@__crt_stdio_output@@AEAAXI@Z 00000001801696cc f i libucrt:output.obj
 0001:001686d0       ?set_flag@?$output_processor@DV?$string_output_adapter@D@__crt_stdio_output@@V?$standard_base@DV?$string_output_adapter@D@__crt_stdio_output@@@2@@__crt_stdio_output@@AEAAXI@Z 00000001801696d0 f i libucrt:output.obj
 0001:001686d4       ?set_flag@?$output_processor@_WV?$stream_output_adapter@_W@__crt_stdio_output@@V?$format_validation_base@_WV?$stream_output_adapter@_W@__crt_stdio_output@@@2@@__crt_stdio_output@@AEAAXI@Z 00000001801696d4 f i libucrt:output.obj
 0001:001686d8       ?set_flag@?$output_processor@_WV?$stream_output_adapter@_W@__crt_stdio_output@@V?$positional_parameter_base@_WV?$stream_output_adapter@_W@__crt_stdio_output@@@2@@__crt_stdio_output@@AEAAXI@Z 00000001801696d8 f i libucrt:output.obj
 0001:001686dc       ?set_flag@?$output_processor@_WV?$stream_output_adapter@_W@__crt_stdio_output@@V?$standard_base@_WV?$stream_output_adapter@_W@__crt_stdio_output@@@2@@__crt_stdio_output@@AEAAXI@Z 00000001801696dc f i libucrt:output.obj
 0001:001686e0       ?set_flag@?$output_processor@_WV?$string_output_adapter@_W@__crt_stdio_output@@V?$format_validation_base@_WV?$string_output_adapter@_W@__crt_stdio_output@@@2@@__crt_stdio_output@@AEAAXI@Z 00000001801696e0 f i libucrt:output.obj
 0001:001686e4       ?set_flag@?$output_processor@_WV?$string_output_adapter@_W@__crt_stdio_output@@V?$positional_parameter_base@_WV?$string_output_adapter@_W@__crt_stdio_output@@@2@@__crt_stdio_output@@AEAAXI@Z 00000001801696e4 f i libucrt:output.obj
 0001:001686e8       ?set_flag@?$output_processor@_WV?$string_output_adapter@_W@__crt_stdio_output@@V?$standard_base@_WV?$string_output_adapter@_W@__crt_stdio_output@@@2@@__crt_stdio_output@@AEAAXI@Z 00000001801696e8 f i libucrt:output.obj
 0001:001686ec       ?should_format@?$positional_parameter_base@DV?$stream_output_adapter@D@__crt_stdio_output@@@__crt_stdio_output@@IEAA_NXZ 00000001801696ec f i libucrt:output.obj
 0001:00168704       ?should_format@?$positional_parameter_base@DV?$string_output_adapter@D@__crt_stdio_output@@@__crt_stdio_output@@IEAA_NXZ 0000000180169704 f i libucrt:output.obj
 0001:0016871c       ?should_format@?$positional_parameter_base@_WV?$stream_output_adapter@_W@__crt_stdio_output@@@__crt_stdio_output@@IEAA_NXZ 000000018016971c f i libucrt:output.obj
 0001:00168734       ?should_format@?$positional_parameter_base@_WV?$string_output_adapter@_W@__crt_stdio_output@@@__crt_stdio_output@@IEAA_NXZ 0000000180169734 f i libucrt:output.obj
 0001:0016874c       ?should_format@?$standard_base@DV?$stream_output_adapter@D@__crt_stdio_output@@@__crt_stdio_output@@IEAA_NXZ 000000018016974c f i libucrt:output.obj
 0001:00168750       ?should_format@?$standard_base@DV?$string_output_adapter@D@__crt_stdio_output@@@__crt_stdio_output@@IEAA_NXZ 0000000180169750 f i libucrt:output.obj
 0001:00168754       ?should_format@?$standard_base@_WV?$stream_output_adapter@_W@__crt_stdio_output@@@__crt_stdio_output@@IEAA_NXZ 0000000180169754 f i libucrt:output.obj
 0001:00168758       ?should_format@?$standard_base@_WV?$string_output_adapter@_W@__crt_stdio_output@@@__crt_stdio_output@@IEAA_NXZ 0000000180169758 f i libucrt:output.obj
 0001:0016875c       ?should_skip_normal_state_processing@?$positional_parameter_base@DV?$stream_output_adapter@D@__crt_stdio_output@@@__crt_stdio_output@@IEAA_NXZ 000000018016975c f i libucrt:output.obj
 0001:00168788       ?should_skip_normal_state_processing@?$positional_parameter_base@DV?$string_output_adapter@D@__crt_stdio_output@@@__crt_stdio_output@@IEAA_NXZ 0000000180169788 f i libucrt:output.obj
 0001:001687b4       ?should_skip_normal_state_processing@?$positional_parameter_base@_WV?$stream_output_adapter@_W@__crt_stdio_output@@@__crt_stdio_output@@IEAA_NXZ 00000001801697b4 f i libucrt:output.obj
 0001:001687e0       ?should_skip_normal_state_processing@?$positional_parameter_base@_WV?$string_output_adapter@_W@__crt_stdio_output@@@__crt_stdio_output@@IEAA_NXZ 00000001801697e0 f i libucrt:output.obj
 0001:0016880c       ?should_skip_normal_state_processing@?$standard_base@DV?$stream_output_adapter@D@__crt_stdio_output@@@__crt_stdio_output@@IEAA_NXZ 000000018016980c f i libucrt:output.obj
 0001:00168810       ?should_skip_normal_state_processing@?$standard_base@DV?$string_output_adapter@D@__crt_stdio_output@@@__crt_stdio_output@@IEAA_NXZ 0000000180169810 f i libucrt:output.obj
 0001:00168814       ?should_skip_normal_state_processing@?$standard_base@_WV?$stream_output_adapter@_W@__crt_stdio_output@@@__crt_stdio_output@@IEAA_NXZ 0000000180169814 f i libucrt:output.obj
 0001:00168818       ?should_skip_normal_state_processing@?$standard_base@_WV?$string_output_adapter@_W@__crt_stdio_output@@@__crt_stdio_output@@IEAA_NXZ 0000000180169818 f i libucrt:output.obj
 0001:0016881c       ?should_skip_type_state_output@?$positional_parameter_base@DV?$stream_output_adapter@D@__crt_stdio_output@@@__crt_stdio_output@@IEBA_NXZ 000000018016981c f i libucrt:output.obj
 0001:00168838       ?should_skip_type_state_output@?$positional_parameter_base@DV?$string_output_adapter@D@__crt_stdio_output@@@__crt_stdio_output@@IEBA_NXZ 0000000180169838 f i libucrt:output.obj
 0001:00168854       ?should_skip_type_state_output@?$positional_parameter_base@_WV?$stream_output_adapter@_W@__crt_stdio_output@@@__crt_stdio_output@@IEBA_NXZ 0000000180169854 f i libucrt:output.obj
 0001:00168870       ?should_skip_type_state_output@?$positional_parameter_base@_WV?$string_output_adapter@_W@__crt_stdio_output@@@__crt_stdio_output@@IEBA_NXZ 0000000180169870 f i libucrt:output.obj
 0001:0016888c       ?should_skip_type_state_output@?$standard_base@DV?$stream_output_adapter@D@__crt_stdio_output@@@__crt_stdio_output@@IEBA_NXZ 000000018016988c f i libucrt:output.obj
 0001:00168890       ?should_skip_type_state_output@?$standard_base@DV?$string_output_adapter@D@__crt_stdio_output@@@__crt_stdio_output@@IEBA_NXZ 0000000180169890 f i libucrt:output.obj
 0001:00168894       ?should_skip_type_state_output@?$standard_base@_WV?$stream_output_adapter@_W@__crt_stdio_output@@@__crt_stdio_output@@IEBA_NXZ 0000000180169894 f i libucrt:output.obj
 0001:00168898       ?should_skip_type_state_output@?$standard_base@_WV?$string_output_adapter@_W@__crt_stdio_output@@@__crt_stdio_output@@IEBA_NXZ 0000000180169898 f i libucrt:output.obj
 0001:0016889c       ?state_case_dot@?$output_processor@DV?$stream_output_adapter@D@__crt_stdio_output@@V?$format_validation_base@DV?$stream_output_adapter@D@__crt_stdio_output@@@2@@__crt_stdio_output@@AEAA_NXZ 000000018016989c f i libucrt:output.obj
 0001:001688a4       ?state_case_dot@?$output_processor@DV?$stream_output_adapter@D@__crt_stdio_output@@V?$positional_parameter_base@DV?$stream_output_adapter@D@__crt_stdio_output@@@2@@__crt_stdio_output@@AEAA_NXZ 00000001801698a4 f i libucrt:output.obj
 0001:001688ac       ?state_case_dot@?$output_processor@DV?$stream_output_adapter@D@__crt_stdio_output@@V?$standard_base@DV?$stream_output_adapter@D@__crt_stdio_output@@@2@@__crt_stdio_output@@AEAA_NXZ 00000001801698ac f i libucrt:output.obj
 0001:001688b4       ?state_case_dot@?$output_processor@DV?$string_output_adapter@D@__crt_stdio_output@@V?$format_validation_base@DV?$string_output_adapter@D@__crt_stdio_output@@@2@@__crt_stdio_output@@AEAA_NXZ 00000001801698b4 f i libucrt:output.obj
 0001:001688bc       ?state_case_dot@?$output_processor@DV?$string_output_adapter@D@__crt_stdio_output@@V?$positional_parameter_base@DV?$string_output_adapter@D@__crt_stdio_output@@@2@@__crt_stdio_output@@AEAA_NXZ 00000001801698bc f i libucrt:output.obj
 0001:001688c4       ?state_case_dot@?$output_processor@DV?$string_output_adapter@D@__crt_stdio_output@@V?$standard_base@DV?$string_output_adapter@D@__crt_stdio_output@@@2@@__crt_stdio_output@@AEAA_NXZ 00000001801698c4 f i libucrt:output.obj
 0001:001688cc       ?state_case_dot@?$output_processor@_WV?$stream_output_adapter@_W@__crt_stdio_output@@V?$format_validation_base@_WV?$stream_output_adapter@_W@__crt_stdio_output@@@2@@__crt_stdio_output@@AEAA_NXZ 00000001801698cc f i libucrt:output.obj
 0001:001688d4       ?state_case_dot@?$output_processor@_WV?$stream_output_adapter@_W@__crt_stdio_output@@V?$positional_parameter_base@_WV?$stream_output_adapter@_W@__crt_stdio_output@@@2@@__crt_stdio_output@@AEAA_NXZ 00000001801698d4 f i libucrt:output.obj
 0001:001688dc       ?state_case_dot@?$output_processor@_WV?$stream_output_adapter@_W@__crt_stdio_output@@V?$standard_base@_WV?$stream_output_adapter@_W@__crt_stdio_output@@@2@@__crt_stdio_output@@AEAA_NXZ 00000001801698dc f i libucrt:output.obj
 0001:001688e4       ?state_case_dot@?$output_processor@_WV?$string_output_adapter@_W@__crt_stdio_output@@V?$format_validation_base@_WV?$string_output_adapter@_W@__crt_stdio_output@@@2@@__crt_stdio_output@@AEAA_NXZ 00000001801698e4 f i libucrt:output.obj
 0001:001688ec       ?state_case_dot@?$output_processor@_WV?$string_output_adapter@_W@__crt_stdio_output@@V?$positional_parameter_base@_WV?$string_output_adapter@_W@__crt_stdio_output@@@2@@__crt_stdio_output@@AEAA_NXZ 00000001801698ec f i libucrt:output.obj
 0001:001688f4       ?state_case_dot@?$output_processor@_WV?$string_output_adapter@_W@__crt_stdio_output@@V?$standard_base@_WV?$string_output_adapter@_W@__crt_stdio_output@@@2@@__crt_stdio_output@@AEAA_NXZ 00000001801698f4 f i libucrt:output.obj
 0001:001688fc       ?state_case_flag@?$output_processor@DV?$stream_output_adapter@D@__crt_stdio_output@@V?$format_validation_base@DV?$stream_output_adapter@D@__crt_stdio_output@@@2@@__crt_stdio_output@@AEAA_NXZ 00000001801698fc f i libucrt:output.obj
 0001:00168934       ?state_case_flag@?$output_processor@DV?$stream_output_adapter@D@__crt_stdio_output@@V?$positional_parameter_base@DV?$stream_output_adapter@D@__crt_stdio_output@@@2@@__crt_stdio_output@@AEAA_NXZ 0000000180169934 f i libucrt:output.obj
 0001:0016896c       ?state_case_flag@?$output_processor@DV?$stream_output_adapter@D@__crt_stdio_output@@V?$standard_base@DV?$stream_output_adapter@D@__crt_stdio_output@@@2@@__crt_stdio_output@@AEAA_NXZ 000000018016996c f i libucrt:output.obj
 0001:001689a4       ?state_case_flag@?$output_processor@DV?$string_output_adapter@D@__crt_stdio_output@@V?$format_validation_base@DV?$string_output_adapter@D@__crt_stdio_output@@@2@@__crt_stdio_output@@AEAA_NXZ 00000001801699a4 f i libucrt:output.obj
 0001:001689dc       ?state_case_flag@?$output_processor@DV?$string_output_adapter@D@__crt_stdio_output@@V?$positional_parameter_base@DV?$string_output_adapter@D@__crt_stdio_output@@@2@@__crt_stdio_output@@AEAA_NXZ 00000001801699dc f i libucrt:output.obj
 0001:00168a14       ?state_case_flag@?$output_processor@DV?$string_output_adapter@D@__crt_stdio_output@@V?$standard_base@DV?$string_output_adapter@D@__crt_stdio_output@@@2@@__crt_stdio_output@@AEAA_NXZ 0000000180169a14 f i libucrt:output.obj
 0001:00168a4c       ?state_case_flag@?$output_processor@_WV?$stream_output_adapter@_W@__crt_stdio_output@@V?$format_validation_base@_WV?$stream_output_adapter@_W@__crt_stdio_output@@@2@@__crt_stdio_output@@AEAA_NXZ 0000000180169a4c f i libucrt:output.obj
 0001:00168a90       ?state_case_flag@?$output_processor@_WV?$stream_output_adapter@_W@__crt_stdio_output@@V?$positional_parameter_base@_WV?$stream_output_adapter@_W@__crt_stdio_output@@@2@@__crt_stdio_output@@AEAA_NXZ 0000000180169a90 f i libucrt:output.obj
 0001:00168ad4       ?state_case_flag@?$output_processor@_WV?$stream_output_adapter@_W@__crt_stdio_output@@V?$standard_base@_WV?$stream_output_adapter@_W@__crt_stdio_output@@@2@@__crt_stdio_output@@AEAA_NXZ 0000000180169ad4 f i libucrt:output.obj
 0001:00168b18       ?state_case_flag@?$output_processor@_WV?$string_output_adapter@_W@__crt_stdio_output@@V?$format_validation_base@_WV?$string_output_adapter@_W@__crt_stdio_output@@@2@@__crt_stdio_output@@AEAA_NXZ 0000000180169b18 f i libucrt:output.obj
 0001:00168b5c       ?state_case_flag@?$output_processor@_WV?$string_output_adapter@_W@__crt_stdio_output@@V?$positional_parameter_base@_WV?$string_output_adapter@_W@__crt_stdio_output@@@2@@__crt_stdio_output@@AEAA_NXZ 0000000180169b5c f i libucrt:output.obj
 0001:00168ba0       ?state_case_flag@?$output_processor@_WV?$string_output_adapter@_W@__crt_stdio_output@@V?$standard_base@_WV?$string_output_adapter@_W@__crt_stdio_output@@@2@@__crt_stdio_output@@AEAA_NXZ 0000000180169ba0 f i libucrt:output.obj
 0001:00168be4       ?state_case_normal@?$output_processor@DV?$stream_output_adapter@D@__crt_stdio_output@@V?$format_validation_base@DV?$stream_output_adapter@D@__crt_stdio_output@@@2@@__crt_stdio_output@@AEAA_NXZ 0000000180169be4 f i libucrt:output.obj
 0001:00168d38       ?state_case_normal@?$output_processor@DV?$stream_output_adapter@D@__crt_stdio_output@@V?$positional_parameter_base@DV?$stream_output_adapter@D@__crt_stdio_output@@@2@@__crt_stdio_output@@AEAA_NXZ 0000000180169d38 f i libucrt:output.obj
 0001:00168eb8       ?state_case_normal@?$output_processor@DV?$stream_output_adapter@D@__crt_stdio_output@@V?$standard_base@DV?$stream_output_adapter@D@__crt_stdio_output@@@2@@__crt_stdio_output@@AEAA_NXZ 0000000180169eb8 f i libucrt:output.obj
 0001:0016900c       ?state_case_normal@?$output_processor@DV?$string_output_adapter@D@__crt_stdio_output@@V?$format_validation_base@DV?$string_output_adapter@D@__crt_stdio_output@@@2@@__crt_stdio_output@@AEAA_NXZ 000000018016a00c f i libucrt:output.obj
 0001:00169158       ?state_case_normal@?$output_processor@DV?$string_output_adapter@D@__crt_stdio_output@@V?$positional_parameter_base@DV?$string_output_adapter@D@__crt_stdio_output@@@2@@__crt_stdio_output@@AEAA_NXZ 000000018016a158 f i libucrt:output.obj
 0001:001692d0       ?state_case_normal@?$output_processor@DV?$string_output_adapter@D@__crt_stdio_output@@V?$standard_base@DV?$string_output_adapter@D@__crt_stdio_output@@@2@@__crt_stdio_output@@AEAA_NXZ 000000018016a2d0 f i libucrt:output.obj
 0001:0016941c       ?state_case_normal@?$output_processor@_WV?$stream_output_adapter@_W@__crt_stdio_output@@V?$format_validation_base@_WV?$stream_output_adapter@_W@__crt_stdio_output@@@2@@__crt_stdio_output@@AEAA_NXZ 000000018016a41c f i libucrt:output.obj
 0001:0016947c       ?state_case_normal@?$output_processor@_WV?$stream_output_adapter@_W@__crt_stdio_output@@V?$positional_parameter_base@_WV?$stream_output_adapter@_W@__crt_stdio_output@@@2@@__crt_stdio_output@@AEAA_NXZ 000000018016a47c f i libucrt:output.obj
 0001:00169500       ?state_case_normal@?$output_processor@_WV?$stream_output_adapter@_W@__crt_stdio_output@@V?$standard_base@_WV?$stream_output_adapter@_W@__crt_stdio_output@@@2@@__crt_stdio_output@@AEAA_NXZ 000000018016a500 f i libucrt:output.obj
 0001:00169560       ?state_case_normal@?$output_processor@_WV?$string_output_adapter@_W@__crt_stdio_output@@V?$format_validation_base@_WV?$string_output_adapter@_W@__crt_stdio_output@@@2@@__crt_stdio_output@@AEAA_NXZ 000000018016a560 f i libucrt:output.obj
 0001:001695b4       ?state_case_normal@?$output_processor@_WV?$string_output_adapter@_W@__crt_stdio_output@@V?$positional_parameter_base@_WV?$string_output_adapter@_W@__crt_stdio_output@@@2@@__crt_stdio_output@@AEAA_NXZ 000000018016a5b4 f i libucrt:output.obj
 0001:0016962c       ?state_case_normal@?$output_processor@_WV?$string_output_adapter@_W@__crt_stdio_output@@V?$standard_base@_WV?$string_output_adapter@_W@__crt_stdio_output@@@2@@__crt_stdio_output@@AEAA_NXZ 000000018016a62c f i libucrt:output.obj
 0001:00169680       ?state_case_normal_common@?$output_processor@DV?$stream_output_adapter@D@__crt_stdio_output@@V?$format_validation_base@DV?$stream_output_adapter@D@__crt_stdio_output@@@2@@__crt_stdio_output@@AEAA_NXZ 000000018016a680 f i libucrt:output.obj
 0001:001697ac       ?state_case_normal_common@?$output_processor@DV?$stream_output_adapter@D@__crt_stdio_output@@V?$positional_parameter_base@DV?$stream_output_adapter@D@__crt_stdio_output@@@2@@__crt_stdio_output@@AEAA_NXZ 000000018016a7ac f i libucrt:output.obj
 0001:001698d8       ?state_case_normal_common@?$output_processor@DV?$stream_output_adapter@D@__crt_stdio_output@@V?$standard_base@DV?$stream_output_adapter@D@__crt_stdio_output@@@2@@__crt_stdio_output@@AEAA_NXZ 000000018016a8d8 f i libucrt:output.obj
 0001:00169a04       ?state_case_normal_common@?$output_processor@DV?$string_output_adapter@D@__crt_stdio_output@@V?$format_validation_base@DV?$string_output_adapter@D@__crt_stdio_output@@@2@@__crt_stdio_output@@AEAA_NXZ 000000018016aa04 f i libucrt:output.obj
 0001:00169b28       ?state_case_normal_common@?$output_processor@DV?$string_output_adapter@D@__crt_stdio_output@@V?$positional_parameter_base@DV?$string_output_adapter@D@__crt_stdio_output@@@2@@__crt_stdio_output@@AEAA_NXZ 000000018016ab28 f i libucrt:output.obj
 0001:00169c4c       ?state_case_normal_common@?$output_processor@DV?$string_output_adapter@D@__crt_stdio_output@@V?$standard_base@DV?$string_output_adapter@D@__crt_stdio_output@@@2@@__crt_stdio_output@@AEAA_NXZ 000000018016ac4c f i libucrt:output.obj
 0001:00169d70       ?state_case_normal_common@?$output_processor@_WV?$stream_output_adapter@_W@__crt_stdio_output@@V?$format_validation_base@_WV?$stream_output_adapter@_W@__crt_stdio_output@@@2@@__crt_stdio_output@@AEAA_NXZ 000000018016ad70 f i libucrt:output.obj
 0001:00169dd0       ?state_case_normal_common@?$output_processor@_WV?$stream_output_adapter@_W@__crt_stdio_output@@V?$positional_parameter_base@_WV?$stream_output_adapter@_W@__crt_stdio_output@@@2@@__crt_stdio_output@@AEAA_NXZ 000000018016add0 f i libucrt:output.obj
 0001:00169e30       ?state_case_normal_common@?$output_processor@_WV?$stream_output_adapter@_W@__crt_stdio_output@@V?$standard_base@_WV?$stream_output_adapter@_W@__crt_stdio_output@@@2@@__crt_stdio_output@@AEAA_NXZ 000000018016ae30 f i libucrt:output.obj
 0001:00169e90       ?state_case_normal_common@?$output_processor@_WV?$string_output_adapter@_W@__crt_stdio_output@@V?$format_validation_base@_WV?$string_output_adapter@_W@__crt_stdio_output@@@2@@__crt_stdio_output@@AEAA_NXZ 000000018016ae90 f i libucrt:output.obj
 0001:00169ee4       ?state_case_normal_common@?$output_processor@_WV?$string_output_adapter@_W@__crt_stdio_output@@V?$positional_parameter_base@_WV?$string_output_adapter@_W@__crt_stdio_output@@@2@@__crt_stdio_output@@AEAA_NXZ 000000018016aee4 f i libucrt:output.obj
 0001:00169f38       ?state_case_normal_common@?$output_processor@_WV?$string_output_adapter@_W@__crt_stdio_output@@V?$standard_base@_WV?$string_output_adapter@_W@__crt_stdio_output@@@2@@__crt_stdio_output@@AEAA_NXZ 000000018016af38 f i libucrt:output.obj
 0001:00169f8c       ?state_case_normal_tchar@?$output_processor@DV?$stream_output_adapter@D@__crt_stdio_output@@V?$format_validation_base@DV?$stream_output_adapter@D@__crt_stdio_output@@@2@@__crt_stdio_output@@AEAA_ND@Z 000000018016af8c f i libucrt:output.obj
 0001:0016a06c       ?state_case_normal_tchar@?$output_processor@DV?$stream_output_adapter@D@__crt_stdio_output@@V?$positional_parameter_base@DV?$stream_output_adapter@D@__crt_stdio_output@@@2@@__crt_stdio_output@@AEAA_ND@Z 000000018016b06c f i libucrt:output.obj
 0001:0016a14c       ?state_case_normal_tchar@?$output_processor@DV?$stream_output_adapter@D@__crt_stdio_output@@V?$standard_base@DV?$stream_output_adapter@D@__crt_stdio_output@@@2@@__crt_stdio_output@@AEAA_ND@Z 000000018016b14c f i libucrt:output.obj
 0001:0016a22c       ?state_case_normal_tchar@?$output_processor@DV?$string_output_adapter@D@__crt_stdio_output@@V?$format_validation_base@DV?$string_output_adapter@D@__crt_stdio_output@@@2@@__crt_stdio_output@@AEAA_ND@Z 000000018016b22c f i libucrt:output.obj
 0001:0016a308       ?state_case_normal_tchar@?$output_processor@DV?$string_output_adapter@D@__crt_stdio_output@@V?$positional_parameter_base@DV?$string_output_adapter@D@__crt_stdio_output@@@2@@__crt_stdio_output@@AEAA_ND@Z 000000018016b308 f i libucrt:output.obj
 0001:0016a3e4       ?state_case_normal_tchar@?$output_processor@DV?$string_output_adapter@D@__crt_stdio_output@@V?$standard_base@DV?$string_output_adapter@D@__crt_stdio_output@@@2@@__crt_stdio_output@@AEAA_ND@Z 000000018016b3e4 f i libucrt:output.obj
 0001:0016a4c0       ?state_case_normal_tchar@?$output_processor@_WV?$stream_output_adapter@_W@__crt_stdio_output@@V?$format_validation_base@_WV?$stream_output_adapter@_W@__crt_stdio_output@@@2@@__crt_stdio_output@@AEAA_N_W@Z 000000018016b4c0 f i libucrt:output.obj
 0001:0016a4c8       ?state_case_normal_tchar@?$output_processor@_WV?$stream_output_adapter@_W@__crt_stdio_output@@V?$positional_parameter_base@_WV?$stream_output_adapter@_W@__crt_stdio_output@@@2@@__crt_stdio_output@@AEAA_N_W@Z 000000018016b4c8 f i libucrt:output.obj
 0001:0016a4d0       ?state_case_normal_tchar@?$output_processor@_WV?$stream_output_adapter@_W@__crt_stdio_output@@V?$standard_base@_WV?$stream_output_adapter@_W@__crt_stdio_output@@@2@@__crt_stdio_output@@AEAA_N_W@Z 000000018016b4d0 f i libucrt:output.obj
 0001:0016a4d8       ?state_case_normal_tchar@?$output_processor@_WV?$string_output_adapter@_W@__crt_stdio_output@@V?$format_validation_base@_WV?$string_output_adapter@_W@__crt_stdio_output@@@2@@__crt_stdio_output@@AEAA_N_W@Z 000000018016b4d8 f i libucrt:output.obj
 0001:0016a4e0       ?state_case_normal_tchar@?$output_processor@_WV?$string_output_adapter@_W@__crt_stdio_output@@V?$positional_parameter_base@_WV?$string_output_adapter@_W@__crt_stdio_output@@@2@@__crt_stdio_output@@AEAA_N_W@Z 000000018016b4e0 f i libucrt:output.obj
 0001:0016a4e8       ?state_case_normal_tchar@?$output_processor@_WV?$string_output_adapter@_W@__crt_stdio_output@@V?$standard_base@_WV?$string_output_adapter@_W@__crt_stdio_output@@@2@@__crt_stdio_output@@AEAA_N_W@Z 000000018016b4e8 f i libucrt:output.obj
 0001:0016a4f0       ?state_case_percent@?$output_processor@DV?$stream_output_adapter@D@__crt_stdio_output@@V?$format_validation_base@DV?$stream_output_adapter@D@__crt_stdio_output@@@2@@__crt_stdio_output@@AEAA_NXZ 000000018016b4f0 f i libucrt:output.obj
 0001:0016a508       ?state_case_percent@?$output_processor@DV?$stream_output_adapter@D@__crt_stdio_output@@V?$positional_parameter_base@DV?$stream_output_adapter@D@__crt_stdio_output@@@2@@__crt_stdio_output@@AEAA_NXZ 000000018016b508 f i libucrt:output.obj
 0001:0016a520       ?state_case_percent@?$output_processor@DV?$stream_output_adapter@D@__crt_stdio_output@@V?$standard_base@DV?$stream_output_adapter@D@__crt_stdio_output@@@2@@__crt_stdio_output@@AEAA_NXZ 000000018016b520 f i libucrt:output.obj
 0001:0016a538       ?state_case_percent@?$output_processor@DV?$string_output_adapter@D@__crt_stdio_output@@V?$format_validation_base@DV?$string_output_adapter@D@__crt_stdio_output@@@2@@__crt_stdio_output@@AEAA_NXZ 000000018016b538 f i libucrt:output.obj
 0001:0016a550       ?state_case_percent@?$output_processor@DV?$string_output_adapter@D@__crt_stdio_output@@V?$positional_parameter_base@DV?$string_output_adapter@D@__crt_stdio_output@@@2@@__crt_stdio_output@@AEAA_NXZ 000000018016b550 f i libucrt:output.obj
 0001:0016a568       ?state_case_percent@?$output_processor@DV?$string_output_adapter@D@__crt_stdio_output@@V?$standard_base@DV?$string_output_adapter@D@__crt_stdio_output@@@2@@__crt_stdio_output@@AEAA_NXZ 000000018016b568 f i libucrt:output.obj
 0001:0016a580       ?state_case_percent@?$output_processor@_WV?$stream_output_adapter@_W@__crt_stdio_output@@V?$format_validation_base@_WV?$stream_output_adapter@_W@__crt_stdio_output@@@2@@__crt_stdio_output@@AEAA_NXZ 000000018016b580 f i libucrt:output.obj
 0001:0016a598       ?state_case_percent@?$output_processor@_WV?$stream_output_adapter@_W@__crt_stdio_output@@V?$positional_parameter_base@_WV?$stream_output_adapter@_W@__crt_stdio_output@@@2@@__crt_stdio_output@@AEAA_NXZ 000000018016b598 f i libucrt:output.obj
 0001:0016a5b0       ?state_case_percent@?$output_processor@_WV?$stream_output_adapter@_W@__crt_stdio_output@@V?$standard_base@_WV?$stream_output_adapter@_W@__crt_stdio_output@@@2@@__crt_stdio_output@@AEAA_NXZ 000000018016b5b0 f i libucrt:output.obj
 0001:0016a5c8       ?state_case_percent@?$output_processor@_WV?$string_output_adapter@_W@__crt_stdio_output@@V?$format_validation_base@_WV?$string_output_adapter@_W@__crt_stdio_output@@@2@@__crt_stdio_output@@AEAA_NXZ 000000018016b5c8 f i libucrt:output.obj
 0001:0016a5e0       ?state_case_percent@?$output_processor@_WV?$string_output_adapter@_W@__crt_stdio_output@@V?$positional_parameter_base@_WV?$string_output_adapter@_W@__crt_stdio_output@@@2@@__crt_stdio_output@@AEAA_NXZ 000000018016b5e0 f i libucrt:output.obj
 0001:0016a5f8       ?state_case_percent@?$output_processor@_WV?$string_output_adapter@_W@__crt_stdio_output@@V?$standard_base@_WV?$string_output_adapter@_W@__crt_stdio_output@@@2@@__crt_stdio_output@@AEAA_NXZ 000000018016b5f8 f i libucrt:output.obj
 0001:0016a610       ?state_case_precision@?$output_processor@DV?$stream_output_adapter@D@__crt_stdio_output@@V?$format_validation_base@DV?$stream_output_adapter@D@__crt_stdio_output@@@2@@__crt_stdio_output@@AEAA_NXZ 000000018016b610 f i libucrt:output.obj
 0001:0016a640       ?state_case_precision@?$output_processor@DV?$stream_output_adapter@D@__crt_stdio_output@@V?$positional_parameter_base@DV?$stream_output_adapter@D@__crt_stdio_output@@@2@@__crt_stdio_output@@AEAA_NXZ 000000018016b640 f i libucrt:output.obj
 0001:0016a68c       ?state_case_precision@?$output_processor@DV?$stream_output_adapter@D@__crt_stdio_output@@V?$standard_base@DV?$stream_output_adapter@D@__crt_stdio_output@@@2@@__crt_stdio_output@@AEAA_NXZ 000000018016b68c f i libucrt:output.obj
 0001:0016a6bc       ?state_case_precision@?$output_processor@DV?$string_output_adapter@D@__crt_stdio_output@@V?$format_validation_base@DV?$string_output_adapter@D@__crt_stdio_output@@@2@@__crt_stdio_output@@AEAA_NXZ 000000018016b6bc f i libucrt:output.obj
 0001:0016a6ec       ?state_case_precision@?$output_processor@DV?$string_output_adapter@D@__crt_stdio_output@@V?$positional_parameter_base@DV?$string_output_adapter@D@__crt_stdio_output@@@2@@__crt_stdio_output@@AEAA_NXZ 000000018016b6ec f i libucrt:output.obj
 0001:0016a738       ?state_case_precision@?$output_processor@DV?$string_output_adapter@D@__crt_stdio_output@@V?$standard_base@DV?$string_output_adapter@D@__crt_stdio_output@@@2@@__crt_stdio_output@@AEAA_NXZ 000000018016b738 f i libucrt:output.obj
 0001:0016a768       ?state_case_precision@?$output_processor@_WV?$stream_output_adapter@_W@__crt_stdio_output@@V?$format_validation_base@_WV?$stream_output_adapter@_W@__crt_stdio_output@@@2@@__crt_stdio_output@@AEAA_NXZ 000000018016b768 f i libucrt:output.obj
 0001:0016a79c       ?state_case_precision@?$output_processor@_WV?$stream_output_adapter@_W@__crt_stdio_output@@V?$positional_parameter_base@_WV?$stream_output_adapter@_W@__crt_stdio_output@@@2@@__crt_stdio_output@@AEAA_NXZ 000000018016b79c f i libucrt:output.obj
 0001:0016a7e8       ?state_case_precision@?$output_processor@_WV?$stream_output_adapter@_W@__crt_stdio_output@@V?$standard_base@_WV?$stream_output_adapter@_W@__crt_stdio_output@@@2@@__crt_stdio_output@@AEAA_NXZ 000000018016b7e8 f i libucrt:output.obj
 0001:0016a81c       ?state_case_precision@?$output_processor@_WV?$string_output_adapter@_W@__crt_stdio_output@@V?$format_validation_base@_WV?$string_output_adapter@_W@__crt_stdio_output@@@2@@__crt_stdio_output@@AEAA_NXZ 000000018016b81c f i libucrt:output.obj
 0001:0016a850       ?state_case_precision@?$output_processor@_WV?$string_output_adapter@_W@__crt_stdio_output@@V?$positional_parameter_base@_WV?$string_output_adapter@_W@__crt_stdio_output@@@2@@__crt_stdio_output@@AEAA_NXZ 000000018016b850 f i libucrt:output.obj
 0001:0016a89c       ?state_case_precision@?$output_processor@_WV?$string_output_adapter@_W@__crt_stdio_output@@V?$standard_base@_WV?$string_output_adapter@_W@__crt_stdio_output@@@2@@__crt_stdio_output@@AEAA_NXZ 000000018016b89c f i libucrt:output.obj
 0001:0016a8d0       ?state_case_size@?$output_processor@DV?$stream_output_adapter@D@__crt_stdio_output@@V?$format_validation_base@DV?$stream_output_adapter@D@__crt_stdio_output@@@2@@__crt_stdio_output@@AEAA_NXZ 000000018016b8d0 f i libucrt:output.obj
 0001:0016aa58       ?state_case_size@?$output_processor@DV?$stream_output_adapter@D@__crt_stdio_output@@V?$positional_parameter_base@DV?$stream_output_adapter@D@__crt_stdio_output@@@2@@__crt_stdio_output@@AEAA_NXZ 000000018016ba58 f i libucrt:output.obj
 0001:0016abe0       ?state_case_size@?$output_processor@DV?$stream_output_adapter@D@__crt_stdio_output@@V?$standard_base@DV?$stream_output_adapter@D@__crt_stdio_output@@@2@@__crt_stdio_output@@AEAA_NXZ 000000018016bbe0 f i libucrt:output.obj
 0001:0016ad68       ?state_case_size@?$output_processor@DV?$string_output_adapter@D@__crt_stdio_output@@V?$format_validation_base@DV?$string_output_adapter@D@__crt_stdio_output@@@2@@__crt_stdio_output@@AEAA_NXZ 000000018016bd68 f i libucrt:output.obj
 0001:0016aef0       ?state_case_size@?$output_processor@DV?$string_output_adapter@D@__crt_stdio_output@@V?$positional_parameter_base@DV?$string_output_adapter@D@__crt_stdio_output@@@2@@__crt_stdio_output@@AEAA_NXZ 000000018016bef0 f i libucrt:output.obj
 0001:0016b078       ?state_case_size@?$output_processor@DV?$string_output_adapter@D@__crt_stdio_output@@V?$standard_base@DV?$string_output_adapter@D@__crt_stdio_output@@@2@@__crt_stdio_output@@AEAA_NXZ 000000018016c078 f i libucrt:output.obj
 0001:0016b200       ?state_case_size@?$output_processor@_WV?$stream_output_adapter@_W@__crt_stdio_output@@V?$format_validation_base@_WV?$stream_output_adapter@_W@__crt_stdio_output@@@2@@__crt_stdio_output@@AEAA_NXZ 000000018016c200 f i libucrt:output.obj
 0001:0016b3b0       ?state_case_size@?$output_processor@_WV?$stream_output_adapter@_W@__crt_stdio_output@@V?$positional_parameter_base@_WV?$stream_output_adapter@_W@__crt_stdio_output@@@2@@__crt_stdio_output@@AEAA_NXZ 000000018016c3b0 f i libucrt:output.obj
 0001:0016b560       ?state_case_size@?$output_processor@_WV?$stream_output_adapter@_W@__crt_stdio_output@@V?$standard_base@_WV?$stream_output_adapter@_W@__crt_stdio_output@@@2@@__crt_stdio_output@@AEAA_NXZ 000000018016c560 f i libucrt:output.obj
 0001:0016b710       ?state_case_size@?$output_processor@_WV?$string_output_adapter@_W@__crt_stdio_output@@V?$format_validation_base@_WV?$string_output_adapter@_W@__crt_stdio_output@@@2@@__crt_stdio_output@@AEAA_NXZ 000000018016c710 f i libucrt:output.obj
 0001:0016b8c0       ?state_case_size@?$output_processor@_WV?$string_output_adapter@_W@__crt_stdio_output@@V?$positional_parameter_base@_WV?$string_output_adapter@_W@__crt_stdio_output@@@2@@__crt_stdio_output@@AEAA_NXZ 000000018016c8c0 f i libucrt:output.obj
 0001:0016ba70       ?state_case_size@?$output_processor@_WV?$string_output_adapter@_W@__crt_stdio_output@@V?$standard_base@_WV?$string_output_adapter@_W@__crt_stdio_output@@@2@@__crt_stdio_output@@AEAA_NXZ 000000018016ca70 f i libucrt:output.obj
 0001:0016bc20       ?state_case_type@?$output_processor@DV?$stream_output_adapter@D@__crt_stdio_output@@V?$format_validation_base@DV?$stream_output_adapter@D@__crt_stdio_output@@@2@@__crt_stdio_output@@AEAA_NXZ 000000018016cc20 f i libucrt:output.obj
 0001:0016c058       ?state_case_type@?$output_processor@DV?$stream_output_adapter@D@__crt_stdio_output@@V?$positional_parameter_base@DV?$stream_output_adapter@D@__crt_stdio_output@@@2@@__crt_stdio_output@@AEAA_NXZ 000000018016d058 f i libucrt:output.obj
 0001:0016c4c0       ?state_case_type@?$output_processor@DV?$stream_output_adapter@D@__crt_stdio_output@@V?$standard_base@DV?$stream_output_adapter@D@__crt_stdio_output@@@2@@__crt_stdio_output@@AEAA_NXZ 000000018016d4c0 f i libucrt:output.obj
 0001:0016c8f8       ?state_case_type@?$output_processor@DV?$string_output_adapter@D@__crt_stdio_output@@V?$format_validation_base@DV?$string_output_adapter@D@__crt_stdio_output@@@2@@__crt_stdio_output@@AEAA_NXZ 000000018016d8f8 f i libucrt:output.obj
 0001:0016ccfc       ?state_case_type@?$output_processor@DV?$string_output_adapter@D@__crt_stdio_output@@V?$positional_parameter_base@DV?$string_output_adapter@D@__crt_stdio_output@@@2@@__crt_stdio_output@@AEAA_NXZ 000000018016dcfc f i libucrt:output.obj
 0001:0016d114       ?state_case_type@?$output_processor@DV?$string_output_adapter@D@__crt_stdio_output@@V?$standard_base@DV?$string_output_adapter@D@__crt_stdio_output@@@2@@__crt_stdio_output@@AEAA_NXZ 000000018016e114 f i libucrt:output.obj
 0001:0016d518       ?state_case_type@?$output_processor@_WV?$stream_output_adapter@_W@__crt_stdio_output@@V?$format_validation_base@_WV?$stream_output_adapter@_W@__crt_stdio_output@@@2@@__crt_stdio_output@@AEAA_NXZ 000000018016e518 f i libucrt:output.obj
 0001:0016d9dc       ?state_case_type@?$output_processor@_WV?$stream_output_adapter@_W@__crt_stdio_output@@V?$positional_parameter_base@_WV?$stream_output_adapter@_W@__crt_stdio_output@@@2@@__crt_stdio_output@@AEAA_NXZ 000000018016e9dc f i libucrt:output.obj
 0001:0016deb8       ?state_case_type@?$output_processor@_WV?$stream_output_adapter@_W@__crt_stdio_output@@V?$standard_base@_WV?$stream_output_adapter@_W@__crt_stdio_output@@@2@@__crt_stdio_output@@AEAA_NXZ 000000018016eeb8 f i libucrt:output.obj
 0001:0016e37c       ?state_case_type@?$output_processor@_WV?$string_output_adapter@_W@__crt_stdio_output@@V?$format_validation_base@_WV?$string_output_adapter@_W@__crt_stdio_output@@@2@@__crt_stdio_output@@AEAA_NXZ 000000018016f37c f i libucrt:output.obj
 0001:0016e7e0       ?state_case_type@?$output_processor@_WV?$string_output_adapter@_W@__crt_stdio_output@@V?$positional_parameter_base@_WV?$string_output_adapter@_W@__crt_stdio_output@@@2@@__crt_stdio_output@@AEAA_NXZ 000000018016f7e0 f i libucrt:output.obj
 0001:0016ec70       ?state_case_type@?$output_processor@_WV?$string_output_adapter@_W@__crt_stdio_output@@V?$standard_base@_WV?$string_output_adapter@_W@__crt_stdio_output@@@2@@__crt_stdio_output@@AEAA_NXZ 000000018016fc70 f i libucrt:output.obj
 0001:0016f0d4       ?state_case_width@?$output_processor@DV?$stream_output_adapter@D@__crt_stdio_output@@V?$format_validation_base@DV?$stream_output_adapter@D@__crt_stdio_output@@@2@@__crt_stdio_output@@AEAA_NXZ 00000001801700d4 f i libucrt:output.obj
 0001:0016f108       ?state_case_width@?$output_processor@DV?$stream_output_adapter@D@__crt_stdio_output@@V?$positional_parameter_base@DV?$stream_output_adapter@D@__crt_stdio_output@@@2@@__crt_stdio_output@@AEAA_NXZ 0000000180170108 f i libucrt:output.obj
 0001:0016f158       ?state_case_width@?$output_processor@DV?$stream_output_adapter@D@__crt_stdio_output@@V?$standard_base@DV?$stream_output_adapter@D@__crt_stdio_output@@@2@@__crt_stdio_output@@AEAA_NXZ 0000000180170158 f i libucrt:output.obj
 0001:0016f18c       ?state_case_width@?$output_processor@DV?$string_output_adapter@D@__crt_stdio_output@@V?$format_validation_base@DV?$string_output_adapter@D@__crt_stdio_output@@@2@@__crt_stdio_output@@AEAA_NXZ 000000018017018c f i libucrt:output.obj
 0001:0016f1c0       ?state_case_width@?$output_processor@DV?$string_output_adapter@D@__crt_stdio_output@@V?$positional_parameter_base@DV?$string_output_adapter@D@__crt_stdio_output@@@2@@__crt_stdio_output@@AEAA_NXZ 00000001801701c0 f i libucrt:output.obj
 0001:0016f210       ?state_case_width@?$output_processor@DV?$string_output_adapter@D@__crt_stdio_output@@V?$standard_base@DV?$string_output_adapter@D@__crt_stdio_output@@@2@@__crt_stdio_output@@AEAA_NXZ 0000000180170210 f i libucrt:output.obj
 0001:0016f244       ?state_case_width@?$output_processor@_WV?$stream_output_adapter@_W@__crt_stdio_output@@V?$format_validation_base@_WV?$stream_output_adapter@_W@__crt_stdio_output@@@2@@__crt_stdio_output@@AEAA_NXZ 0000000180170244 f i libucrt:output.obj
 0001:0016f278       ?state_case_width@?$output_processor@_WV?$stream_output_adapter@_W@__crt_stdio_output@@V?$positional_parameter_base@_WV?$stream_output_adapter@_W@__crt_stdio_output@@@2@@__crt_stdio_output@@AEAA_NXZ 0000000180170278 f i libucrt:output.obj
 0001:0016f2cc       ?state_case_width@?$output_processor@_WV?$stream_output_adapter@_W@__crt_stdio_output@@V?$standard_base@_WV?$stream_output_adapter@_W@__crt_stdio_output@@@2@@__crt_stdio_output@@AEAA_NXZ 00000001801702cc f i libucrt:output.obj
 0001:0016f300       ?state_case_width@?$output_processor@_WV?$string_output_adapter@_W@__crt_stdio_output@@V?$format_validation_base@_WV?$string_output_adapter@_W@__crt_stdio_output@@@2@@__crt_stdio_output@@AEAA_NXZ 0000000180170300 f i libucrt:output.obj
 0001:0016f334       ?state_case_width@?$output_processor@_WV?$string_output_adapter@_W@__crt_stdio_output@@V?$positional_parameter_base@_WV?$string_output_adapter@_W@__crt_stdio_output@@@2@@__crt_stdio_output@@AEAA_NXZ 0000000180170334 f i libucrt:output.obj
 0001:0016f388       ?state_case_width@?$output_processor@_WV?$string_output_adapter@_W@__crt_stdio_output@@V?$standard_base@_WV?$string_output_adapter@_W@__crt_stdio_output@@@2@@__crt_stdio_output@@AEAA_NXZ 0000000180170388 f i libucrt:output.obj
 0001:0016f3bc       ?state_count@?$format_validation_base@DV?$stream_output_adapter@D@__crt_stdio_output@@@__crt_stdio_output@@KAIXZ 00000001801703bc f i libucrt:output.obj
 0001:0016f3c4       ?state_count@?$format_validation_base@DV?$string_output_adapter@D@__crt_stdio_output@@@__crt_stdio_output@@KAIXZ 00000001801703c4 f i libucrt:output.obj
 0001:0016f3cc       ?state_count@?$format_validation_base@_WV?$stream_output_adapter@_W@__crt_stdio_output@@@__crt_stdio_output@@KAIXZ 00000001801703cc f i libucrt:output.obj
 0001:0016f3d4       ?state_count@?$format_validation_base@_WV?$string_output_adapter@_W@__crt_stdio_output@@@__crt_stdio_output@@KAIXZ 00000001801703d4 f i libucrt:output.obj
 0001:0016f3dc       ?state_count@?$standard_base@DV?$stream_output_adapter@D@__crt_stdio_output@@@__crt_stdio_output@@KAIXZ 00000001801703dc f i libucrt:output.obj
 0001:0016f3e4       ?state_count@?$standard_base@DV?$string_output_adapter@D@__crt_stdio_output@@@__crt_stdio_output@@KAIXZ 00000001801703e4 f i libucrt:output.obj
 0001:0016f3ec       ?state_count@?$standard_base@_WV?$stream_output_adapter@_W@__crt_stdio_output@@@__crt_stdio_output@@KAIXZ 00000001801703ec f i libucrt:output.obj
 0001:0016f3f4       ?state_count@?$standard_base@_WV?$string_output_adapter@_W@__crt_stdio_output@@@__crt_stdio_output@@KAIXZ 00000001801703f4 f i libucrt:output.obj
 0001:0016f3fc       ?state_transition_table@?$format_validation_base@DV?$stream_output_adapter@D@__crt_stdio_output@@@__crt_stdio_output@@KAAEBV?$spectre_mitigated_lookup_table@Ustate_transition_pair@__crt_stdio_output@@$0IA@@2@XZ 00000001801703fc f i libucrt:output.obj
 0001:0016f404       ?state_transition_table@?$format_validation_base@DV?$string_output_adapter@D@__crt_stdio_output@@@__crt_stdio_output@@KAAEBV?$spectre_mitigated_lookup_table@Ustate_transition_pair@__crt_stdio_output@@$0IA@@2@XZ 0000000180170404 f i libucrt:output.obj
 0001:0016f40c       ?state_transition_table@?$format_validation_base@_WV?$stream_output_adapter@_W@__crt_stdio_output@@@__crt_stdio_output@@KAAEBV?$spectre_mitigated_lookup_table@Ustate_transition_pair@__crt_stdio_output@@$0IA@@2@XZ 000000018017040c f i libucrt:output.obj
 0001:0016f414       ?state_transition_table@?$format_validation_base@_WV?$string_output_adapter@_W@__crt_stdio_output@@@__crt_stdio_output@@KAAEBV?$spectre_mitigated_lookup_table@Ustate_transition_pair@__crt_stdio_output@@$0IA@@2@XZ 0000000180170414 f i libucrt:output.obj
 0001:0016f41c       ?state_transition_table@?$standard_base@DV?$stream_output_adapter@D@__crt_stdio_output@@@__crt_stdio_output@@KAAEBV?$spectre_mitigated_lookup_table@Ustate_transition_pair@__crt_stdio_output@@$0IA@@2@XZ 000000018017041c f i libucrt:output.obj
 0001:0016f424       ?state_transition_table@?$standard_base@DV?$string_output_adapter@D@__crt_stdio_output@@@__crt_stdio_output@@KAAEBV?$spectre_mitigated_lookup_table@Ustate_transition_pair@__crt_stdio_output@@$0IA@@2@XZ 0000000180170424 f i libucrt:output.obj
 0001:0016f42c       ?state_transition_table@?$standard_base@_WV?$stream_output_adapter@_W@__crt_stdio_output@@@__crt_stdio_output@@KAAEBV?$spectre_mitigated_lookup_table@Ustate_transition_pair@__crt_stdio_output@@$0IA@@2@XZ 000000018017042c f i libucrt:output.obj
 0001:0016f434       ?state_transition_table@?$standard_base@_WV?$string_output_adapter@_W@__crt_stdio_output@@@__crt_stdio_output@@KAAEBV?$spectre_mitigated_lookup_table@Ustate_transition_pair@__crt_stdio_output@@$0IA@@2@XZ 0000000180170434 f i libucrt:output.obj
 0001:0016f43c       ?tchar_string@?$common_data@D@__crt_stdio_output@@IEAAAEAPEADD@Z 000000018017043c f i libucrt:output.obj
 0001:0016f444       ?tchar_string@?$common_data@D@__crt_stdio_output@@IEAAAEAPEADXZ 0000000180170444 f i libucrt:output.obj
 0001:0016f44c       ?tchar_string@?$common_data@_W@__crt_stdio_output@@IEAAAEAPEA_WXZ 000000018017044c f i libucrt:output.obj
 0001:0016f454       ?tchar_string@?$common_data@_W@__crt_stdio_output@@IEAAAEAPEA_W_W@Z 0000000180170454 f i libucrt:output.obj
 0001:0016f45c       ?to_integer_size@__crt_stdio_output@@YA_KW4length_modifier@1@@Z 000000018017045c f i libucrt:output.obj
 0001:0016f4a4       ?type_case_X@?$output_processor@DV?$stream_output_adapter@D@__crt_stdio_output@@V?$format_validation_base@DV?$stream_output_adapter@D@__crt_stdio_output@@@2@@__crt_stdio_output@@AEAA_NXZ 00000001801704a4 f i libucrt:output.obj
 0001:0016f4ac       ?type_case_X@?$output_processor@DV?$stream_output_adapter@D@__crt_stdio_output@@V?$positional_parameter_base@DV?$stream_output_adapter@D@__crt_stdio_output@@@2@@__crt_stdio_output@@AEAA_NXZ 00000001801704ac f i libucrt:output.obj
 0001:0016f4b4       ?type_case_X@?$output_processor@DV?$stream_output_adapter@D@__crt_stdio_output@@V?$standard_base@DV?$stream_output_adapter@D@__crt_stdio_output@@@2@@__crt_stdio_output@@AEAA_NXZ 00000001801704b4 f i libucrt:output.obj
 0001:0016f4bc       ?type_case_X@?$output_processor@DV?$string_output_adapter@D@__crt_stdio_output@@V?$format_validation_base@DV?$string_output_adapter@D@__crt_stdio_output@@@2@@__crt_stdio_output@@AEAA_NXZ 00000001801704bc f i libucrt:output.obj
 0001:0016f4c4       ?type_case_X@?$output_processor@DV?$string_output_adapter@D@__crt_stdio_output@@V?$positional_parameter_base@DV?$string_output_adapter@D@__crt_stdio_output@@@2@@__crt_stdio_output@@AEAA_NXZ 00000001801704c4 f i libucrt:output.obj
 0001:0016f4cc       ?type_case_X@?$output_processor@DV?$string_output_adapter@D@__crt_stdio_output@@V?$standard_base@DV?$string_output_adapter@D@__crt_stdio_output@@@2@@__crt_stdio_output@@AEAA_NXZ 00000001801704cc f i libucrt:output.obj
 0001:0016f4d4       ?type_case_X@?$output_processor@_WV?$stream_output_adapter@_W@__crt_stdio_output@@V?$format_validation_base@_WV?$stream_output_adapter@_W@__crt_stdio_output@@@2@@__crt_stdio_output@@AEAA_NXZ 00000001801704d4 f i libucrt:output.obj
 0001:0016f4dc       ?type_case_X@?$output_processor@_WV?$stream_output_adapter@_W@__crt_stdio_output@@V?$positional_parameter_base@_WV?$stream_output_adapter@_W@__crt_stdio_output@@@2@@__crt_stdio_output@@AEAA_NXZ 00000001801704dc f i libucrt:output.obj
 0001:0016f4e4       ?type_case_X@?$output_processor@_WV?$stream_output_adapter@_W@__crt_stdio_output@@V?$standard_base@_WV?$stream_output_adapter@_W@__crt_stdio_output@@@2@@__crt_stdio_output@@AEAA_NXZ 00000001801704e4 f i libucrt:output.obj
 0001:0016f4ec       ?type_case_X@?$output_processor@_WV?$string_output_adapter@_W@__crt_stdio_output@@V?$format_validation_base@_WV?$string_output_adapter@_W@__crt_stdio_output@@@2@@__crt_stdio_output@@AEAA_NXZ 00000001801704ec f i libucrt:output.obj
 0001:0016f4f4       ?type_case_X@?$output_processor@_WV?$string_output_adapter@_W@__crt_stdio_output@@V?$positional_parameter_base@_WV?$string_output_adapter@_W@__crt_stdio_output@@@2@@__crt_stdio_output@@AEAA_NXZ 00000001801704f4 f i libucrt:output.obj
 0001:0016f4fc       ?type_case_X@?$output_processor@_WV?$string_output_adapter@_W@__crt_stdio_output@@V?$standard_base@_WV?$string_output_adapter@_W@__crt_stdio_output@@@2@@__crt_stdio_output@@AEAA_NXZ 00000001801704fc f i libucrt:output.obj
 0001:0016f504       ?type_case_Z@?$output_processor@DV?$stream_output_adapter@D@__crt_stdio_output@@V?$format_validation_base@DV?$stream_output_adapter@D@__crt_stdio_output@@@2@@__crt_stdio_output@@AEAA_NXZ 0000000180170504 f i libucrt:output.obj
 0001:0016f580       ?type_case_Z@?$output_processor@DV?$stream_output_adapter@D@__crt_stdio_output@@V?$positional_parameter_base@DV?$stream_output_adapter@D@__crt_stdio_output@@@2@@__crt_stdio_output@@AEAA_NXZ 0000000180170580 f i libucrt:output.obj
 0001:0016f628       ?type_case_Z@?$output_processor@DV?$stream_output_adapter@D@__crt_stdio_output@@V?$standard_base@DV?$stream_output_adapter@D@__crt_stdio_output@@@2@@__crt_stdio_output@@AEAA_NXZ 0000000180170628 f i libucrt:output.obj
 0001:0016f6a4       ?type_case_Z@?$output_processor@DV?$string_output_adapter@D@__crt_stdio_output@@V?$format_validation_base@DV?$string_output_adapter@D@__crt_stdio_output@@@2@@__crt_stdio_output@@AEAA_NXZ 00000001801706a4 f i libucrt:output.obj
 0001:0016f720       ?type_case_Z@?$output_processor@DV?$string_output_adapter@D@__crt_stdio_output@@V?$positional_parameter_base@DV?$string_output_adapter@D@__crt_stdio_output@@@2@@__crt_stdio_output@@AEAA_NXZ 0000000180170720 f i libucrt:output.obj
 0001:0016f7c8       ?type_case_Z@?$output_processor@DV?$string_output_adapter@D@__crt_stdio_output@@V?$standard_base@DV?$string_output_adapter@D@__crt_stdio_output@@@2@@__crt_stdio_output@@AEAA_NXZ 00000001801707c8 f i libucrt:output.obj
 0001:0016f844       ?type_case_Z@?$output_processor@_WV?$stream_output_adapter@_W@__crt_stdio_output@@V?$format_validation_base@_WV?$stream_output_adapter@_W@__crt_stdio_output@@@2@@__crt_stdio_output@@AEAA_NXZ 0000000180170844 f i libucrt:output.obj
 0001:0016f8c4       ?type_case_Z@?$output_processor@_WV?$stream_output_adapter@_W@__crt_stdio_output@@V?$positional_parameter_base@_WV?$stream_output_adapter@_W@__crt_stdio_output@@@2@@__crt_stdio_output@@AEAA_NXZ 00000001801708c4 f i libucrt:output.obj
 0001:0016f95c       ?type_case_Z@?$output_processor@_WV?$stream_output_adapter@_W@__crt_stdio_output@@V?$standard_base@_WV?$stream_output_adapter@_W@__crt_stdio_output@@@2@@__crt_stdio_output@@AEAA_NXZ 000000018017095c f i libucrt:output.obj
 0001:0016f9dc       ?type_case_Z@?$output_processor@_WV?$string_output_adapter@_W@__crt_stdio_output@@V?$format_validation_base@_WV?$string_output_adapter@_W@__crt_stdio_output@@@2@@__crt_stdio_output@@AEAA_NXZ 00000001801709dc f i libucrt:output.obj
 0001:0016fa5c       ?type_case_Z@?$output_processor@_WV?$string_output_adapter@_W@__crt_stdio_output@@V?$positional_parameter_base@_WV?$string_output_adapter@_W@__crt_stdio_output@@@2@@__crt_stdio_output@@AEAA_NXZ 0000000180170a5c f i libucrt:output.obj
 0001:0016faf4       ?type_case_Z@?$output_processor@_WV?$string_output_adapter@_W@__crt_stdio_output@@V?$standard_base@_WV?$string_output_adapter@_W@__crt_stdio_output@@@2@@__crt_stdio_output@@AEAA_NXZ 0000000180170af4 f i libucrt:output.obj
 0001:0016fb74       ?type_case_a@?$output_processor@DV?$stream_output_adapter@D@__crt_stdio_output@@V?$format_validation_base@DV?$stream_output_adapter@D@__crt_stdio_output@@@2@@__crt_stdio_output@@AEAA_NXZ 0000000180170b74 f i libucrt:output.obj
 0001:0016fdc8       ?type_case_a@?$output_processor@DV?$stream_output_adapter@D@__crt_stdio_output@@V?$positional_parameter_base@DV?$stream_output_adapter@D@__crt_stdio_output@@@2@@__crt_stdio_output@@AEAA_NXZ 0000000180170dc8 f i libucrt:output.obj
 0001:00170044       ?type_case_a@?$output_processor@DV?$stream_output_adapter@D@__crt_stdio_output@@V?$standard_base@DV?$stream_output_adapter@D@__crt_stdio_output@@@2@@__crt_stdio_output@@AEAA_NXZ 0000000180171044 f i libucrt:output.obj
 0001:00170298       ?type_case_a@?$output_processor@DV?$string_output_adapter@D@__crt_stdio_output@@V?$format_validation_base@DV?$string_output_adapter@D@__crt_stdio_output@@@2@@__crt_stdio_output@@AEAA_NXZ 0000000180171298 f i libucrt:output.obj
 0001:001704ec       ?type_case_a@?$output_processor@DV?$string_output_adapter@D@__crt_stdio_output@@V?$positional_parameter_base@DV?$string_output_adapter@D@__crt_stdio_output@@@2@@__crt_stdio_output@@AEAA_NXZ 00000001801714ec f i libucrt:output.obj
 0001:00170768       ?type_case_a@?$output_processor@DV?$string_output_adapter@D@__crt_stdio_output@@V?$standard_base@DV?$string_output_adapter@D@__crt_stdio_output@@@2@@__crt_stdio_output@@AEAA_NXZ 0000000180171768 f i libucrt:output.obj
 0001:001709bc       ?type_case_a@?$output_processor@_WV?$stream_output_adapter@_W@__crt_stdio_output@@V?$format_validation_base@_WV?$stream_output_adapter@_W@__crt_stdio_output@@@2@@__crt_stdio_output@@AEAA_NXZ 00000001801719bc f i libucrt:output.obj
 0001:00170c24       ?type_case_a@?$output_processor@_WV?$stream_output_adapter@_W@__crt_stdio_output@@V?$positional_parameter_base@_WV?$stream_output_adapter@_W@__crt_stdio_output@@@2@@__crt_stdio_output@@AEAA_NXZ 0000000180171c24 f i libucrt:output.obj
 0001:00170eb8       ?type_case_a@?$output_processor@_WV?$stream_output_adapter@_W@__crt_stdio_output@@V?$standard_base@_WV?$stream_output_adapter@_W@__crt_stdio_output@@@2@@__crt_stdio_output@@AEAA_NXZ 0000000180171eb8 f i libucrt:output.obj
 0001:00171120       ?type_case_a@?$output_processor@_WV?$string_output_adapter@_W@__crt_stdio_output@@V?$format_validation_base@_WV?$string_output_adapter@_W@__crt_stdio_output@@@2@@__crt_stdio_output@@AEAA_NXZ 0000000180172120 f i libucrt:output.obj
 0001:00171388       ?type_case_a@?$output_processor@_WV?$string_output_adapter@_W@__crt_stdio_output@@V?$positional_parameter_base@_WV?$string_output_adapter@_W@__crt_stdio_output@@@2@@__crt_stdio_output@@AEAA_NXZ 0000000180172388 f i libucrt:output.obj
 0001:0017161c       ?type_case_a@?$output_processor@_WV?$string_output_adapter@_W@__crt_stdio_output@@V?$standard_base@_WV?$string_output_adapter@_W@__crt_stdio_output@@@2@@__crt_stdio_output@@AEAA_NXZ 000000018017261c f i libucrt:output.obj
 0001:00171884       ?type_case_c@?$output_processor@DV?$stream_output_adapter@D@__crt_stdio_output@@V?$format_validation_base@DV?$stream_output_adapter@D@__crt_stdio_output@@@2@@__crt_stdio_output@@AEAA_NXZ 0000000180172884 f i libucrt:output.obj
 0001:0017188c       ?type_case_c@?$output_processor@DV?$stream_output_adapter@D@__crt_stdio_output@@V?$positional_parameter_base@DV?$stream_output_adapter@D@__crt_stdio_output@@@2@@__crt_stdio_output@@AEAA_NXZ 000000018017288c f i libucrt:output.obj
 0001:00171894       ?type_case_c@?$output_processor@DV?$stream_output_adapter@D@__crt_stdio_output@@V?$standard_base@DV?$stream_output_adapter@D@__crt_stdio_output@@@2@@__crt_stdio_output@@AEAA_NXZ 0000000180172894 f i libucrt:output.obj
 0001:0017189c       ?type_case_c@?$output_processor@DV?$string_output_adapter@D@__crt_stdio_output@@V?$format_validation_base@DV?$string_output_adapter@D@__crt_stdio_output@@@2@@__crt_stdio_output@@AEAA_NXZ 000000018017289c f i libucrt:output.obj
 0001:001718a4       ?type_case_c@?$output_processor@DV?$string_output_adapter@D@__crt_stdio_output@@V?$positional_parameter_base@DV?$string_output_adapter@D@__crt_stdio_output@@@2@@__crt_stdio_output@@AEAA_NXZ 00000001801728a4 f i libucrt:output.obj
 0001:001718ac       ?type_case_c@?$output_processor@DV?$string_output_adapter@D@__crt_stdio_output@@V?$standard_base@DV?$string_output_adapter@D@__crt_stdio_output@@@2@@__crt_stdio_output@@AEAA_NXZ 00000001801728ac f i libucrt:output.obj
 0001:001718b4       ?type_case_c@?$output_processor@_WV?$stream_output_adapter@_W@__crt_stdio_output@@V?$format_validation_base@_WV?$stream_output_adapter@_W@__crt_stdio_output@@@2@@__crt_stdio_output@@AEAA_NXZ 00000001801728b4 f i libucrt:output.obj
 0001:001718bc       ?type_case_c@?$output_processor@_WV?$stream_output_adapter@_W@__crt_stdio_output@@V?$positional_parameter_base@_WV?$stream_output_adapter@_W@__crt_stdio_output@@@2@@__crt_stdio_output@@AEAA_NXZ 00000001801728bc f i libucrt:output.obj
 0001:001718c4       ?type_case_c@?$output_processor@_WV?$stream_output_adapter@_W@__crt_stdio_output@@V?$standard_base@_WV?$stream_output_adapter@_W@__crt_stdio_output@@@2@@__crt_stdio_output@@AEAA_NXZ 00000001801728c4 f i libucrt:output.obj
 0001:001718cc       ?type_case_c@?$output_processor@_WV?$string_output_adapter@_W@__crt_stdio_output@@V?$format_validation_base@_WV?$string_output_adapter@_W@__crt_stdio_output@@@2@@__crt_stdio_output@@AEAA_NXZ 00000001801728cc f i libucrt:output.obj
 0001:001718d4       ?type_case_c@?$output_processor@_WV?$string_output_adapter@_W@__crt_stdio_output@@V?$positional_parameter_base@_WV?$string_output_adapter@_W@__crt_stdio_output@@@2@@__crt_stdio_output@@AEAA_NXZ 00000001801728d4 f i libucrt:output.obj
 0001:001718dc       ?type_case_c@?$output_processor@_WV?$string_output_adapter@_W@__crt_stdio_output@@V?$standard_base@_WV?$string_output_adapter@_W@__crt_stdio_output@@@2@@__crt_stdio_output@@AEAA_NXZ 00000001801728dc f i libucrt:output.obj
 0001:001718e4       ?type_case_c_tchar@?$output_processor@DV?$stream_output_adapter@D@__crt_stdio_output@@V?$format_validation_base@DV?$stream_output_adapter@D@__crt_stdio_output@@@2@@__crt_stdio_output@@AEAA_ND@Z 00000001801728e4 f i libucrt:output.obj
 0001:001719b8       ?type_case_c_tchar@?$output_processor@DV?$stream_output_adapter@D@__crt_stdio_output@@V?$positional_parameter_base@DV?$stream_output_adapter@D@__crt_stdio_output@@@2@@__crt_stdio_output@@AEAA_ND@Z 00000001801729b8 f i libucrt:output.obj
 0001:00171ad4       ?type_case_c_tchar@?$output_processor@DV?$stream_output_adapter@D@__crt_stdio_output@@V?$standard_base@DV?$stream_output_adapter@D@__crt_stdio_output@@@2@@__crt_stdio_output@@AEAA_ND@Z 0000000180172ad4 f i libucrt:output.obj
 0001:00171ba8       ?type_case_c_tchar@?$output_processor@DV?$string_output_adapter@D@__crt_stdio_output@@V?$format_validation_base@DV?$string_output_adapter@D@__crt_stdio_output@@@2@@__crt_stdio_output@@AEAA_ND@Z 0000000180172ba8 f i libucrt:output.obj
 0001:00171c7c       ?type_case_c_tchar@?$output_processor@DV?$string_output_adapter@D@__crt_stdio_output@@V?$positional_parameter_base@DV?$string_output_adapter@D@__crt_stdio_output@@@2@@__crt_stdio_output@@AEAA_ND@Z 0000000180172c7c f i libucrt:output.obj
 0001:00171d98       ?type_case_c_tchar@?$output_processor@DV?$string_output_adapter@D@__crt_stdio_output@@V?$standard_base@DV?$string_output_adapter@D@__crt_stdio_output@@@2@@__crt_stdio_output@@AEAA_ND@Z 0000000180172d98 f i libucrt:output.obj
 0001:00171e6c       ?type_case_c_tchar@?$output_processor@_WV?$stream_output_adapter@_W@__crt_stdio_output@@V?$format_validation_base@_WV?$stream_output_adapter@_W@__crt_stdio_output@@@2@@__crt_stdio_output@@AEAA_N_W@Z 0000000180172e6c f i libucrt:output.obj
 0001:00171f30       ?type_case_c_tchar@?$output_processor@_WV?$stream_output_adapter@_W@__crt_stdio_output@@V?$positional_parameter_base@_WV?$stream_output_adapter@_W@__crt_stdio_output@@@2@@__crt_stdio_output@@AEAA_N_W@Z 0000000180172f30 f i libucrt:output.obj
 0001:00172028       ?type_case_c_tchar@?$output_processor@_WV?$stream_output_adapter@_W@__crt_stdio_output@@V?$standard_base@_WV?$stream_output_adapter@_W@__crt_stdio_output@@@2@@__crt_stdio_output@@AEAA_N_W@Z 0000000180173028 f i libucrt:output.obj
 0001:001720ec       ?type_case_c_tchar@?$output_processor@_WV?$string_output_adapter@_W@__crt_stdio_output@@V?$format_validation_base@_WV?$string_output_adapter@_W@__crt_stdio_output@@@2@@__crt_stdio_output@@AEAA_N_W@Z 00000001801730ec f i libucrt:output.obj
 0001:001721b0       ?type_case_c_tchar@?$output_processor@_WV?$string_output_adapter@_W@__crt_stdio_output@@V?$positional_parameter_base@_WV?$string_output_adapter@_W@__crt_stdio_output@@@2@@__crt_stdio_output@@AEAA_N_W@Z 00000001801731b0 f i libucrt:output.obj
 0001:001722a8       ?type_case_c_tchar@?$output_processor@_WV?$string_output_adapter@_W@__crt_stdio_output@@V?$standard_base@_WV?$string_output_adapter@_W@__crt_stdio_output@@@2@@__crt_stdio_output@@AEAA_N_W@Z 00000001801732a8 f i libucrt:output.obj
 0001:0017236c       ?type_case_d@?$output_processor@DV?$stream_output_adapter@D@__crt_stdio_output@@V?$format_validation_base@DV?$stream_output_adapter@D@__crt_stdio_output@@@2@@__crt_stdio_output@@AEAA_NXZ 000000018017336c f i libucrt:output.obj
 0001:00172378       ?type_case_d@?$output_processor@DV?$stream_output_adapter@D@__crt_stdio_output@@V?$positional_parameter_base@DV?$stream_output_adapter@D@__crt_stdio_output@@@2@@__crt_stdio_output@@AEAA_NXZ 0000000180173378 f i libucrt:output.obj
 0001:00172384       ?type_case_d@?$output_processor@DV?$stream_output_adapter@D@__crt_stdio_output@@V?$standard_base@DV?$stream_output_adapter@D@__crt_stdio_output@@@2@@__crt_stdio_output@@AEAA_NXZ 0000000180173384 f i libucrt:output.obj
 0001:00172390       ?type_case_d@?$output_processor@DV?$string_output_adapter@D@__crt_stdio_output@@V?$format_validation_base@DV?$string_output_adapter@D@__crt_stdio_output@@@2@@__crt_stdio_output@@AEAA_NXZ 0000000180173390 f i libucrt:output.obj
 0001:0017239c       ?type_case_d@?$output_processor@DV?$string_output_adapter@D@__crt_stdio_output@@V?$positional_parameter_base@DV?$string_output_adapter@D@__crt_stdio_output@@@2@@__crt_stdio_output@@AEAA_NXZ 000000018017339c f i libucrt:output.obj
 0001:001723a8       ?type_case_d@?$output_processor@DV?$string_output_adapter@D@__crt_stdio_output@@V?$standard_base@DV?$string_output_adapter@D@__crt_stdio_output@@@2@@__crt_stdio_output@@AEAA_NXZ 00000001801733a8 f i libucrt:output.obj
 0001:001723b4       ?type_case_d@?$output_processor@_WV?$stream_output_adapter@_W@__crt_stdio_output@@V?$format_validation_base@_WV?$stream_output_adapter@_W@__crt_stdio_output@@@2@@__crt_stdio_output@@AEAA_NXZ 00000001801733b4 f i libucrt:output.obj
 0001:001723c0       ?type_case_d@?$output_processor@_WV?$stream_output_adapter@_W@__crt_stdio_output@@V?$positional_parameter_base@_WV?$stream_output_adapter@_W@__crt_stdio_output@@@2@@__crt_stdio_output@@AEAA_NXZ 00000001801733c0 f i libucrt:output.obj
 0001:001723cc       ?type_case_d@?$output_processor@_WV?$stream_output_adapter@_W@__crt_stdio_output@@V?$standard_base@_WV?$stream_output_adapter@_W@__crt_stdio_output@@@2@@__crt_stdio_output@@AEAA_NXZ 00000001801733cc f i libucrt:output.obj
 0001:001723d8       ?type_case_d@?$output_processor@_WV?$string_output_adapter@_W@__crt_stdio_output@@V?$format_validation_base@_WV?$string_output_adapter@_W@__crt_stdio_output@@@2@@__crt_stdio_output@@AEAA_NXZ 00000001801733d8 f i libucrt:output.obj
 0001:001723e4       ?type_case_d@?$output_processor@_WV?$string_output_adapter@_W@__crt_stdio_output@@V?$positional_parameter_base@_WV?$string_output_adapter@_W@__crt_stdio_output@@@2@@__crt_stdio_output@@AEAA_NXZ 00000001801733e4 f i libucrt:output.obj
 0001:001723f0       ?type_case_d@?$output_processor@_WV?$string_output_adapter@_W@__crt_stdio_output@@V?$standard_base@_WV?$string_output_adapter@_W@__crt_stdio_output@@@2@@__crt_stdio_output@@AEAA_NXZ 00000001801733f0 f i libucrt:output.obj
 0001:001723fc       ?type_case_n@?$output_processor@DV?$stream_output_adapter@D@__crt_stdio_output@@V?$format_validation_base@DV?$stream_output_adapter@D@__crt_stdio_output@@@2@@__crt_stdio_output@@AEAA_NXZ 00000001801733fc f i libucrt:output.obj
 0001:001724b4       ?type_case_n@?$output_processor@DV?$stream_output_adapter@D@__crt_stdio_output@@V?$positional_parameter_base@DV?$stream_output_adapter@D@__crt_stdio_output@@@2@@__crt_stdio_output@@AEAA_NXZ 00000001801734b4 f i libucrt:output.obj
 0001:00172598       ?type_case_n@?$output_processor@DV?$stream_output_adapter@D@__crt_stdio_output@@V?$standard_base@DV?$stream_output_adapter@D@__crt_stdio_output@@@2@@__crt_stdio_output@@AEAA_NXZ 0000000180173598 f i libucrt:output.obj
 0001:00172650       ?type_case_n@?$output_processor@DV?$string_output_adapter@D@__crt_stdio_output@@V?$format_validation_base@DV?$string_output_adapter@D@__crt_stdio_output@@@2@@__crt_stdio_output@@AEAA_NXZ 0000000180173650 f i libucrt:output.obj
 0001:00172708       ?type_case_n@?$output_processor@DV?$string_output_adapter@D@__crt_stdio_output@@V?$positional_parameter_base@DV?$string_output_adapter@D@__crt_stdio_output@@@2@@__crt_stdio_output@@AEAA_NXZ 0000000180173708 f i libucrt:output.obj
 0001:001727ec       ?type_case_n@?$output_processor@DV?$string_output_adapter@D@__crt_stdio_output@@V?$standard_base@DV?$string_output_adapter@D@__crt_stdio_output@@@2@@__crt_stdio_output@@AEAA_NXZ 00000001801737ec f i libucrt:output.obj
 0001:001728a4       ?type_case_n@?$output_processor@_WV?$stream_output_adapter@_W@__crt_stdio_output@@V?$format_validation_base@_WV?$stream_output_adapter@_W@__crt_stdio_output@@@2@@__crt_stdio_output@@AEAA_NXZ 00000001801738a4 f i libucrt:output.obj
 0001:0017295c       ?type_case_n@?$output_processor@_WV?$stream_output_adapter@_W@__crt_stdio_output@@V?$positional_parameter_base@_WV?$stream_output_adapter@_W@__crt_stdio_output@@@2@@__crt_stdio_output@@AEAA_NXZ 000000018017395c f i libucrt:output.obj
 0001:00172a40       ?type_case_n@?$output_processor@_WV?$stream_output_adapter@_W@__crt_stdio_output@@V?$standard_base@_WV?$stream_output_adapter@_W@__crt_stdio_output@@@2@@__crt_stdio_output@@AEAA_NXZ 0000000180173a40 f i libucrt:output.obj
 0001:00172af8       ?type_case_n@?$output_processor@_WV?$string_output_adapter@_W@__crt_stdio_output@@V?$format_validation_base@_WV?$string_output_adapter@_W@__crt_stdio_output@@@2@@__crt_stdio_output@@AEAA_NXZ 0000000180173af8 f i libucrt:output.obj
 0001:00172bb0       ?type_case_n@?$output_processor@_WV?$string_output_adapter@_W@__crt_stdio_output@@V?$positional_parameter_base@_WV?$string_output_adapter@_W@__crt_stdio_output@@@2@@__crt_stdio_output@@AEAA_NXZ 0000000180173bb0 f i libucrt:output.obj
 0001:00172c94       ?type_case_n@?$output_processor@_WV?$string_output_adapter@_W@__crt_stdio_output@@V?$standard_base@_WV?$string_output_adapter@_W@__crt_stdio_output@@@2@@__crt_stdio_output@@AEAA_NXZ 0000000180173c94 f i libucrt:output.obj
 0001:00172d4c       ?type_case_o@?$output_processor@DV?$stream_output_adapter@D@__crt_stdio_output@@V?$format_validation_base@DV?$stream_output_adapter@D@__crt_stdio_output@@@2@@__crt_stdio_output@@AEAA_NXZ 0000000180173d4c f i libucrt:output.obj
 0001:00172d68       ?type_case_o@?$output_processor@DV?$stream_output_adapter@D@__crt_stdio_output@@V?$positional_parameter_base@DV?$stream_output_adapter@D@__crt_stdio_output@@@2@@__crt_stdio_output@@AEAA_NXZ 0000000180173d68 f i libucrt:output.obj
 0001:00172d84       ?type_case_o@?$output_processor@DV?$stream_output_adapter@D@__crt_stdio_output@@V?$standard_base@DV?$stream_output_adapter@D@__crt_stdio_output@@@2@@__crt_stdio_output@@AEAA_NXZ 0000000180173d84 f i libucrt:output.obj
 0001:00172da0       ?type_case_o@?$output_processor@DV?$string_output_adapter@D@__crt_stdio_output@@V?$format_validation_base@DV?$string_output_adapter@D@__crt_stdio_output@@@2@@__crt_stdio_output@@AEAA_NXZ 0000000180173da0 f i libucrt:output.obj
 0001:00172dbc       ?type_case_o@?$output_processor@DV?$string_output_adapter@D@__crt_stdio_output@@V?$positional_parameter_base@DV?$string_output_adapter@D@__crt_stdio_output@@@2@@__crt_stdio_output@@AEAA_NXZ 0000000180173dbc f i libucrt:output.obj
 0001:00172dd8       ?type_case_o@?$output_processor@DV?$string_output_adapter@D@__crt_stdio_output@@V?$standard_base@DV?$string_output_adapter@D@__crt_stdio_output@@@2@@__crt_stdio_output@@AEAA_NXZ 0000000180173dd8 f i libucrt:output.obj
 0001:00172df4       ?type_case_o@?$output_processor@_WV?$stream_output_adapter@_W@__crt_stdio_output@@V?$format_validation_base@_WV?$stream_output_adapter@_W@__crt_stdio_output@@@2@@__crt_stdio_output@@AEAA_NXZ 0000000180173df4 f i libucrt:output.obj
 0001:00172e10       ?type_case_o@?$output_processor@_WV?$stream_output_adapter@_W@__crt_stdio_output@@V?$positional_parameter_base@_WV?$stream_output_adapter@_W@__crt_stdio_output@@@2@@__crt_stdio_output@@AEAA_NXZ 0000000180173e10 f i libucrt:output.obj
 0001:00172e2c       ?type_case_o@?$output_processor@_WV?$stream_output_adapter@_W@__crt_stdio_output@@V?$standard_base@_WV?$stream_output_adapter@_W@__crt_stdio_output@@@2@@__crt_stdio_output@@AEAA_NXZ 0000000180173e2c f i libucrt:output.obj
 0001:00172e48       ?type_case_o@?$output_processor@_WV?$string_output_adapter@_W@__crt_stdio_output@@V?$format_validation_base@_WV?$string_output_adapter@_W@__crt_stdio_output@@@2@@__crt_stdio_output@@AEAA_NXZ 0000000180173e48 f i libucrt:output.obj
 0001:00172e64       ?type_case_o@?$output_processor@_WV?$string_output_adapter@_W@__crt_stdio_output@@V?$positional_parameter_base@_WV?$string_output_adapter@_W@__crt_stdio_output@@@2@@__crt_stdio_output@@AEAA_NXZ 0000000180173e64 f i libucrt:output.obj
 0001:00172e80       ?type_case_o@?$output_processor@_WV?$string_output_adapter@_W@__crt_stdio_output@@V?$standard_base@_WV?$string_output_adapter@_W@__crt_stdio_output@@@2@@__crt_stdio_output@@AEAA_NXZ 0000000180173e80 f i libucrt:output.obj
 0001:00172e9c       ?type_case_p@?$output_processor@DV?$stream_output_adapter@D@__crt_stdio_output@@V?$format_validation_base@DV?$stream_output_adapter@D@__crt_stdio_output@@@2@@__crt_stdio_output@@AEAA_NXZ 0000000180173e9c f i libucrt:output.obj
 0001:00172eb4       ?type_case_p@?$output_processor@DV?$stream_output_adapter@D@__crt_stdio_output@@V?$positional_parameter_base@DV?$stream_output_adapter@D@__crt_stdio_output@@@2@@__crt_stdio_output@@AEAA_NXZ 0000000180173eb4 f i libucrt:output.obj
 0001:00172ecc       ?type_case_p@?$output_processor@DV?$stream_output_adapter@D@__crt_stdio_output@@V?$standard_base@DV?$stream_output_adapter@D@__crt_stdio_output@@@2@@__crt_stdio_output@@AEAA_NXZ 0000000180173ecc f i libucrt:output.obj
 0001:00172ee4       ?type_case_p@?$output_processor@DV?$string_output_adapter@D@__crt_stdio_output@@V?$format_validation_base@DV?$string_output_adapter@D@__crt_stdio_output@@@2@@__crt_stdio_output@@AEAA_NXZ 0000000180173ee4 f i libucrt:output.obj
 0001:00172efc       ?type_case_p@?$output_processor@DV?$string_output_adapter@D@__crt_stdio_output@@V?$positional_parameter_base@DV?$string_output_adapter@D@__crt_stdio_output@@@2@@__crt_stdio_output@@AEAA_NXZ 0000000180173efc f i libucrt:output.obj
 0001:00172f14       ?type_case_p@?$output_processor@DV?$string_output_adapter@D@__crt_stdio_output@@V?$standard_base@DV?$string_output_adapter@D@__crt_stdio_output@@@2@@__crt_stdio_output@@AEAA_NXZ 0000000180173f14 f i libucrt:output.obj
 0001:00172f2c       ?type_case_p@?$output_processor@_WV?$stream_output_adapter@_W@__crt_stdio_output@@V?$format_validation_base@_WV?$stream_output_adapter@_W@__crt_stdio_output@@@2@@__crt_stdio_output@@AEAA_NXZ 0000000180173f2c f i libucrt:output.obj
 0001:00172f44       ?type_case_p@?$output_processor@_WV?$stream_output_adapter@_W@__crt_stdio_output@@V?$positional_parameter_base@_WV?$stream_output_adapter@_W@__crt_stdio_output@@@2@@__crt_stdio_output@@AEAA_NXZ 0000000180173f44 f i libucrt:output.obj
 0001:00172f5c       ?type_case_p@?$output_processor@_WV?$stream_output_adapter@_W@__crt_stdio_output@@V?$standard_base@_WV?$stream_output_adapter@_W@__crt_stdio_output@@@2@@__crt_stdio_output@@AEAA_NXZ 0000000180173f5c f i libucrt:output.obj
 0001:00172f74       ?type_case_p@?$output_processor@_WV?$string_output_adapter@_W@__crt_stdio_output@@V?$format_validation_base@_WV?$string_output_adapter@_W@__crt_stdio_output@@@2@@__crt_stdio_output@@AEAA_NXZ 0000000180173f74 f i libucrt:output.obj
 0001:00172f8c       ?type_case_p@?$output_processor@_WV?$string_output_adapter@_W@__crt_stdio_output@@V?$positional_parameter_base@_WV?$string_output_adapter@_W@__crt_stdio_output@@@2@@__crt_stdio_output@@AEAA_NXZ 0000000180173f8c f i libucrt:output.obj
 0001:00172fa4       ?type_case_p@?$output_processor@_WV?$string_output_adapter@_W@__crt_stdio_output@@V?$standard_base@_WV?$string_output_adapter@_W@__crt_stdio_output@@@2@@__crt_stdio_output@@AEAA_NXZ 0000000180173fa4 f i libucrt:output.obj
 0001:00172fbc       ?type_case_s@?$output_processor@DV?$stream_output_adapter@D@__crt_stdio_output@@V?$format_validation_base@DV?$stream_output_adapter@D@__crt_stdio_output@@@2@@__crt_stdio_output@@AEAA_NXZ 0000000180173fbc f i libucrt:output.obj
 0001:00173058       ?type_case_s@?$output_processor@DV?$stream_output_adapter@D@__crt_stdio_output@@V?$positional_parameter_base@DV?$stream_output_adapter@D@__crt_stdio_output@@@2@@__crt_stdio_output@@AEAA_NXZ 0000000180174058 f i libucrt:output.obj
 0001:00173114       ?type_case_s@?$output_processor@DV?$stream_output_adapter@D@__crt_stdio_output@@V?$standard_base@DV?$stream_output_adapter@D@__crt_stdio_output@@@2@@__crt_stdio_output@@AEAA_NXZ 0000000180174114 f i libucrt:output.obj
 0001:001731b0       ?type_case_s@?$output_processor@DV?$string_output_adapter@D@__crt_stdio_output@@V?$format_validation_base@DV?$string_output_adapter@D@__crt_stdio_output@@@2@@__crt_stdio_output@@AEAA_NXZ 00000001801741b0 f i libucrt:output.obj
 0001:0017324c       ?type_case_s@?$output_processor@DV?$string_output_adapter@D@__crt_stdio_output@@V?$positional_parameter_base@DV?$string_output_adapter@D@__crt_stdio_output@@@2@@__crt_stdio_output@@AEAA_NXZ 000000018017424c f i libucrt:output.obj
 0001:00173308       ?type_case_s@?$output_processor@DV?$string_output_adapter@D@__crt_stdio_output@@V?$standard_base@DV?$string_output_adapter@D@__crt_stdio_output@@@2@@__crt_stdio_output@@AEAA_NXZ 0000000180174308 f i libucrt:output.obj
 0001:001733a4       ?type_case_s@?$output_processor@_WV?$stream_output_adapter@_W@__crt_stdio_output@@V?$format_validation_base@_WV?$stream_output_adapter@_W@__crt_stdio_output@@@2@@__crt_stdio_output@@AEAA_NXZ 00000001801743a4 f i libucrt:output.obj
 0001:00173440       ?type_case_s@?$output_processor@_WV?$stream_output_adapter@_W@__crt_stdio_output@@V?$positional_parameter_base@_WV?$stream_output_adapter@_W@__crt_stdio_output@@@2@@__crt_stdio_output@@AEAA_NXZ 0000000180174440 f i libucrt:output.obj
 0001:001734f4       ?type_case_s@?$output_processor@_WV?$stream_output_adapter@_W@__crt_stdio_output@@V?$standard_base@_WV?$stream_output_adapter@_W@__crt_stdio_output@@@2@@__crt_stdio_output@@AEAA_NXZ 00000001801744f4 f i libucrt:output.obj
 0001:00173590       ?type_case_s@?$output_processor@_WV?$string_output_adapter@_W@__crt_stdio_output@@V?$format_validation_base@_WV?$string_output_adapter@_W@__crt_stdio_output@@@2@@__crt_stdio_output@@AEAA_NXZ 0000000180174590 f i libucrt:output.obj
 0001:0017362c       ?type_case_s@?$output_processor@_WV?$string_output_adapter@_W@__crt_stdio_output@@V?$positional_parameter_base@_WV?$string_output_adapter@_W@__crt_stdio_output@@@2@@__crt_stdio_output@@AEAA_NXZ 000000018017462c f i libucrt:output.obj
 0001:001736e0       ?type_case_s@?$output_processor@_WV?$string_output_adapter@_W@__crt_stdio_output@@V?$standard_base@_WV?$string_output_adapter@_W@__crt_stdio_output@@@2@@__crt_stdio_output@@AEAA_NXZ 00000001801746e0 f i libucrt:output.obj
 0001:0017377c       ?type_case_s_compute_narrow_string_length@?$output_processor@DV?$stream_output_adapter@D@__crt_stdio_output@@V?$format_validation_base@DV?$stream_output_adapter@D@__crt_stdio_output@@@2@@__crt_stdio_output@@AEAAHHD@Z 000000018017477c f i libucrt:output.obj
 0001:00173788       ?type_case_s_compute_narrow_string_length@?$output_processor@DV?$stream_output_adapter@D@__crt_stdio_output@@V?$positional_parameter_base@DV?$stream_output_adapter@D@__crt_stdio_output@@@2@@__crt_stdio_output@@AEAAHHD@Z 0000000180174788 f i libucrt:output.obj
 0001:00173794       ?type_case_s_compute_narrow_string_length@?$output_processor@DV?$stream_output_adapter@D@__crt_stdio_output@@V?$standard_base@DV?$stream_output_adapter@D@__crt_stdio_output@@@2@@__crt_stdio_output@@AEAAHHD@Z 0000000180174794 f i libucrt:output.obj
 0001:001737a0       ?type_case_s_compute_narrow_string_length@?$output_processor@DV?$string_output_adapter@D@__crt_stdio_output@@V?$format_validation_base@DV?$string_output_adapter@D@__crt_stdio_output@@@2@@__crt_stdio_output@@AEAAHHD@Z 00000001801747a0 f i libucrt:output.obj
 0001:001737ac       ?type_case_s_compute_narrow_string_length@?$output_processor@DV?$string_output_adapter@D@__crt_stdio_output@@V?$positional_parameter_base@DV?$string_output_adapter@D@__crt_stdio_output@@@2@@__crt_stdio_output@@AEAAHHD@Z 00000001801747ac f i libucrt:output.obj
 0001:001737b8       ?type_case_s_compute_narrow_string_length@?$output_processor@DV?$string_output_adapter@D@__crt_stdio_output@@V?$standard_base@DV?$string_output_adapter@D@__crt_stdio_output@@@2@@__crt_stdio_output@@AEAAHHD@Z 00000001801747b8 f i libucrt:output.obj
 0001:001737c4       ?type_case_s_compute_narrow_string_length@?$output_processor@_WV?$stream_output_adapter@_W@__crt_stdio_output@@V?$format_validation_base@_WV?$stream_output_adapter@_W@__crt_stdio_output@@@2@@__crt_stdio_output@@AEAAHH_W@Z 00000001801747c4 f i libucrt:output.obj
 0001:00173838       ?type_case_s_compute_narrow_string_length@?$output_processor@_WV?$stream_output_adapter@_W@__crt_stdio_output@@V?$positional_parameter_base@_WV?$stream_output_adapter@_W@__crt_stdio_output@@@2@@__crt_stdio_output@@AEAAHH_W@Z 0000000180174838 f i libucrt:output.obj
 0001:001738ac       ?type_case_s_compute_narrow_string_length@?$output_processor@_WV?$stream_output_adapter@_W@__crt_stdio_output@@V?$standard_base@_WV?$stream_output_adapter@_W@__crt_stdio_output@@@2@@__crt_stdio_output@@AEAAHH_W@Z 00000001801748ac f i libucrt:output.obj
 0001:00173920       ?type_case_s_compute_narrow_string_length@?$output_processor@_WV?$string_output_adapter@_W@__crt_stdio_output@@V?$format_validation_base@_WV?$string_output_adapter@_W@__crt_stdio_output@@@2@@__crt_stdio_output@@AEAAHH_W@Z 0000000180174920 f i libucrt:output.obj
 0001:00173994       ?type_case_s_compute_narrow_string_length@?$output_processor@_WV?$string_output_adapter@_W@__crt_stdio_output@@V?$positional_parameter_base@_WV?$string_output_adapter@_W@__crt_stdio_output@@@2@@__crt_stdio_output@@AEAAHH_W@Z 0000000180174994 f i libucrt:output.obj
 0001:00173a08       ?type_case_s_compute_narrow_string_length@?$output_processor@_WV?$string_output_adapter@_W@__crt_stdio_output@@V?$standard_base@_WV?$string_output_adapter@_W@__crt_stdio_output@@@2@@__crt_stdio_output@@AEAAHH_W@Z 0000000180174a08 f i libucrt:output.obj
 0001:00173a7c       ?type_case_u@?$output_processor@DV?$stream_output_adapter@D@__crt_stdio_output@@V?$format_validation_base@DV?$stream_output_adapter@D@__crt_stdio_output@@@2@@__crt_stdio_output@@AEAA_NXZ 0000000180174a7c f i libucrt:output.obj
 0001:00173a84       ?type_case_u@?$output_processor@DV?$stream_output_adapter@D@__crt_stdio_output@@V?$positional_parameter_base@DV?$stream_output_adapter@D@__crt_stdio_output@@@2@@__crt_stdio_output@@AEAA_NXZ 0000000180174a84 f i libucrt:output.obj
 0001:00173a8c       ?type_case_u@?$output_processor@DV?$stream_output_adapter@D@__crt_stdio_output@@V?$standard_base@DV?$stream_output_adapter@D@__crt_stdio_output@@@2@@__crt_stdio_output@@AEAA_NXZ 0000000180174a8c f i libucrt:output.obj
 0001:00173a94       ?type_case_u@?$output_processor@DV?$string_output_adapter@D@__crt_stdio_output@@V?$format_validation_base@DV?$string_output_adapter@D@__crt_stdio_output@@@2@@__crt_stdio_output@@AEAA_NXZ 0000000180174a94 f i libucrt:output.obj
 0001:00173a9c       ?type_case_u@?$output_processor@DV?$string_output_adapter@D@__crt_stdio_output@@V?$positional_parameter_base@DV?$string_output_adapter@D@__crt_stdio_output@@@2@@__crt_stdio_output@@AEAA_NXZ 0000000180174a9c f i libucrt:output.obj
