 PhysXCooking_64

 Timestamp is 6402432a (Fri Mar  3 10:57:46 2023)

 Preferred load address is 0000000180000000

 Start         Length     Name                   Class
 0001:00000000 000003c0H .text$di                CODE
 0001:000003c0 0008a1e0H .text$mn                CODE
 0001:0008a5a0 00000040H .text$mn$00             CODE
 0001:0008a5e0 00000a80H .text$x                 CODE
 0002:00000000 000002f8H .idata$5                DATA
 0002:000002f8 00000038H .00cfg                  DATA
 0002:00000330 00000008H .CRT$XCA                DATA
 0002:00000338 000001e0H .CRT$XCU                DATA
 0002:00000518 00000008H .CRT$XCZ                DATA
 0002:00000520 00000008H .CRT$XIA                DATA
 0002:00000528 00000018H .CRT$XIC                DATA
 0002:00000540 00000008H .CRT$XIZ                DATA
 0002:00000548 00000008H .CRT$XPA                DATA
 0002:00000550 00000010H .CRT$XPX                DATA
 0002:00000560 00000008H .CRT$XPXA               DATA
 0002:00000568 00000008H .CRT$XPZ                DATA
 0002:00000570 00000008H .CRT$XTA                DATA
 0002:00000578 00000008H .CRT$XTZ                DATA
 0002:00000580 00000000H .gehcont$y              DATA
 0002:00000580 00000000H .gfids$y                DATA
 0002:00000580 0000d880H .rdata                  DATA
 0002:0000de00 00000080H .rdata$CastGuardVftablesA DATA
 0002:0000de80 00000080H .rdata$CastGuardVftablesC DATA
 0002:0000df00 00000464H .rdata$r                DATA
 0002:0000e364 00000758H .rdata$voltmd           DATA
 0002:0000eabc 00000484H .rdata$zzzdbg           DATA
 0002:0000ef40 00000008H .rtc$IAA                DATA
 0002:0000ef48 00000008H .rtc$IZZ                DATA
 0002:0000ef50 00000008H .rtc$TAA                DATA
 0002:0000ef58 00000008H .rtc$TZZ                DATA
 0002:0000ef60 00009740H .xdata                  DATA
 0002:000186a0 00000084H .xdata$x                DATA
 0002:00018724 00000040H .didat$2                DATA
 0002:00018764 00000024H .didat$3                DATA
 0002:00018788 00000198H .didat$4                DATA
 0002:00018920 000009c0H .didat$6                DATA
 0002:000192e0 000001a0H .didat$7                DATA
 0002:00019480 00001d00H .edata                  DATA
 0002:0001b180 00000014H .idata$2                DATA
 0002:0001b194 00000014H .idata$3                DATA
 0002:0001b1a8 000002f8H .idata$4                DATA
 0002:0001b4a0 000006d6H .idata$6                DATA
 0003:00000000 00000aa0H .data                   DATA
 0003:00000aa0 000006a8H .data$r                 DATA
 0003:00001148 000000f0H .data$rs                DATA
 0003:00001238 00000198H .didat$5                DATA
 0003:000013d0 00001e60H .bss                    DATA
 0004:00000000 00006a74H .pdata                  DATA
 0005:00000000 0000236cH _RDATA                  DATA
 0006:00000000 000000a0H .rsrc$01                DATA
 0006:000000a0 000004b0H .rsrc$02                DATA

  Address         Publics by Value              Rva+Base               Lib:Object

 0000:00000000       __AbsoluteZero             0000000000000000     <absolute>
 0000:00000000       ___safe_se_handler_count   0000000000000000     <absolute>
 0000:00000000       ___safe_se_handler_table   0000000000000000     <absolute>
 0000:00000000       __arm64x_extra_rfe_table   0000000000000000     <absolute>
 0000:00000000       __arm64x_extra_rfe_table_size 0000000000000000     <absolute>
 0000:00000000       __arm64x_native_entrypoint 0000000000000000     <absolute>
 0000:00000000       __arm64x_redirection_metadata 0000000000000000     <absolute>
 0000:00000000       __arm64x_redirection_metadata_count 0000000000000000     <absolute>
 0000:00000000       __dynamic_value_reloc_table 0000000000000000     <absolute>
 0000:00000000       __enclave_config           0000000000000000     <absolute>
 0000:00000000       __guard_check_icall_a64n_fptr 0000000000000000     <absolute>
 0000:00000000       __guard_eh_cont_count      0000000000000000     <absolute>
 0000:00000000       __guard_eh_cont_table      0000000000000000     <absolute>
 0000:00000000       __guard_fids_count         0000000000000000     <absolute>
 0000:00000000       __guard_fids_table         0000000000000000     <absolute>
 0000:00000000       __guard_iat_count          0000000000000000     <absolute>
 0000:00000000       __guard_iat_table          0000000000000000     <absolute>
 0000:00000000       __guard_longjmp_count      0000000000000000     <absolute>
 0000:00000000       __guard_longjmp_table      0000000000000000     <absolute>
 0000:00000000       __hybrid_auxiliary_iat     0000000000000000     <absolute>
 0000:00000000       __hybrid_auxiliary_iat_copy 0000000000000000     <absolute>
 0000:00000000       __hybrid_code_map          0000000000000000     <absolute>
 0000:00000000       __hybrid_code_map_count    0000000000000000     <absolute>
 0000:00000000       __x64_code_ranges_to_entry_points 0000000000000000     <absolute>
 0000:00000000       __x64_code_ranges_to_entry_points_count 0000000000000000     <absolute>
 0000:00000100       __guard_flags              0000000000000100     <absolute>
 0000:00000000       __ImageBase                0000000180000000     <linker-defined>
 0001:000003c0       ?ComputeNbBoundaryEdges@AdjTriangle@physx@@QEBAIXZ 00000001800013c0 f   Adjacencies.obj
 0001:00000410       ?ComputeNbNeighbors@AdjTriangle@physx@@QEBAIXZ 0000000180001410 f   Adjacencies.obj
 0001:00000460       ?HasNeighbor@AdjTriangle@physx@@QEBA_NIPEAI@Z 0000000180001460 f   Adjacencies.obj
 0001:000004d0       ?Flip@AdjTriangle@physx@@QEAAXXZ 00000001800014d0 f   Adjacencies.obj
 0001:000004f0       ??0Adjacencies@physx@@QEAA@XZ 00000001800014f0 f   Adjacencies.obj
 0001:00000510       ??1Adjacencies@physx@@QEAA@XZ 0000000180001510 f   Adjacencies.obj
 0001:00000580       ?Load@Adjacencies@physx@@QEAA_NAEAVPxInputStream@2@@Z 0000000180001580 f   Adjacencies.obj
 0001:00000660       ?ComputeNbBoundaryEdges@Adjacencies@physx@@QEBAIXZ 0000000180001660 f   Adjacencies.obj
 0001:000006e0       ?GetBoundaryVertices@Adjacencies@physx@@QEBA_NIPEA_NPEBU?$TriangleT@I@Gu@2@@Z 00000001800016e0 f   Adjacencies.obj
 0001:00000840       ?MakeLastRef@Adjacencies@physx@@QEAA_NAEAVAdjTriangle@2@IPEAU?$TriangleT@I@Gu@2@@Z 0000000180001840 f   Adjacencies.obj
 0001:00000a80       ?AssignNewEdgeCode@Adjacencies@physx@@AEAAXIE@Z 0000000180001a80 f   Adjacencies.obj
 0001:00000ad0       ??0AdjacenciesBuilder@physx@@QEAA@XZ 0000000180001ad0 f   Adjacencies.obj
 0001:00000af0       ??1AdjacenciesBuilder@physx@@QEAA@XZ 0000000180001af0 f   Adjacencies.obj
 0001:00000b00       ?Init@AdjacenciesBuilder@physx@@QEAA_NAEBUADJACENCIESCREATE@2@@Z 0000000180001b00 f   Adjacencies.obj
 0001:00000e20       ??$?_UV?$ReflectionAllocator@VAdjTriangle@physx@@@shdfnd@physx@@@UserAllocated@shdfnd@physx@@SAPEAX_KV?$ReflectionAllocator@VAdjTriangle@physx@@@12@PEBDH@Z 0000000180001e20 f i Adjacencies.obj
 0001:00000ec0       ??0AdjEdge@@QEAA@XZ        0000000180001ec0 f i Adjacencies.obj
 0001:00000ed0       ??0AdjTriangle@physx@@QEAA@XZ 0000000180001ed0 f i Adjacencies.obj
 0001:00000ee0       ??0Allocator@shdfnd@physx@@QEAA@PEBD@Z 0000000180001ee0 f i Adjacencies.obj
 0001:00000ef0       ??0PxFoundation@physx@@QEAA@AEBV01@@Z 0000000180001ef0 f i Adjacencies.obj
 0001:00000f00       ??0PxFoundation@physx@@QEAA@XZ 0000000180001f00 f i Adjacencies.obj
 0001:00000f10       ??1AdjEdge@@QEAA@XZ        0000000180001f10 f i Adjacencies.obj
 0001:00000f20       ??1AdjTriangle@physx@@QEAA@XZ 0000000180001f20 f i Adjacencies.obj
 0001:00000f30       ??1PxFoundation@physx@@MEAA@XZ 0000000180001f30 f i Adjacencies.obj
 0001:00000f40       ??4Allocator@shdfnd@physx@@QEAAAEAV012@$$QEAV012@@Z 0000000180001f40 f i Adjacencies.obj
 0001:00000f50       ??4Allocator@shdfnd@physx@@QEAAAEAV012@AEBV012@@Z 0000000180001f50 f i Adjacencies.obj
 0001:00000f60       ??4MutexImpl@shdfnd@physx@@QEAAAEAV012@AEBV012@@Z 0000000180001f60 f i Adjacencies.obj
 0001:00000f70       ??4PxFoundation@physx@@QEAAAEAV01@AEBV01@@Z 0000000180001f70 f i Adjacencies.obj
 0001:00000f80       ??_EAdjEdge@@QEAAPEAXI@Z   0000000180001f80 f i Adjacencies.obj
 0001:00001000       ??_EAdjTriangle@physx@@QEAAPEAXI@Z 0000000180002000 f i Adjacencies.obj
 0001:00001080       ??_EPxFoundation@physx@@MEAAPEAXI@Z 0000000180002080 f i Adjacencies.obj
 0001:00001110       ??_FAllocator@shdfnd@physx@@QEAAXXZ 0000000180002110 f i Adjacencies.obj
 0001:00001120       ??_GPxFoundation@physx@@MEAAPEAXI@Z 0000000180002120 f i Adjacencies.obj
 0001:00001150       ??_H@YAXPEAX_K1P6APEAX0@Z@Z 0000000180002150 f i Adjacencies.obj
 0001:000011a0       ??_I@YAXPEAX_K1P6AX0@Z@Z   00000001800021a0 f i Adjacencies.obj
 0001:00001560       ?GetNbHits@RadixSort@Cm@physx@@QEBAIXZ 0000000180002560 f i Adjacencies.obj
 0001:00001570       ?GetNbTotalCalls@RadixSort@Cm@physx@@QEBAIXZ 0000000180002570 f i Adjacencies.obj
 0001:00001580       ?GetRanks@RadixSort@Cm@physx@@QEBAPEBIXZ 0000000180002580 f i Adjacencies.obj
 0001:00001590       ?GetRecyclable@RadixSort@Cm@physx@@QEBAPEAIXZ 0000000180002590 f i Adjacencies.obj
 0001:000017c0       ?__empty_global_delete@@YAXPEAX@Z 00000001800027c0 f i Adjacencies.obj
 0001:000017d0       ?__empty_global_delete@@YAXPEAX_K@Z 00000001800027d0 f i Adjacencies.obj
 0001:000017e0       ?getAllocator@Foundation@shdfnd@physx@@QEAAAEAVPxAllocatorCallback@3@XZ 00000001800027e0 f i Adjacencies.obj
 0001:000017f0       ?getAllocatorCallback@Foundation@shdfnd@physx@@UEAAAEAVPxAllocatorCallback@3@XZ 00000001800027f0 f i Adjacencies.obj
 0001:00001800       ?getErrorCallback@Foundation@shdfnd@physx@@UEAAAEAVPxErrorCallback@3@XZ 0000000180002800 f i Adjacencies.obj
 0001:00001810       ?getErrorLevel@Foundation@shdfnd@physx@@UEBA?AW4Enum@PxErrorCode@3@XZ 0000000180002810 f i Adjacencies.obj
 0001:00001820       ?getInternalErrorCallback@Foundation@shdfnd@physx@@QEAAAEAVPxErrorCallback@3@XZ 0000000180002820 f i Adjacencies.obj
 0001:00001830       ?getNamedAllocMap@Foundation@shdfnd@physx@@QEAAAEAV?$HashMap@PEBVNamedAllocator@shdfnd@physx@@PEBDU?$Hash@PEBVNamedAllocator@shdfnd@physx@@@23@VNonTrackingAllocator@23@@23@XZ 0000000180002830 f i Adjacencies.obj
 0001:00001840       ?getNamedAllocMutex@Foundation@shdfnd@physx@@QEAAAEAV?$MutexT@VAllocator@shdfnd@physx@@@23@XZ 0000000180002840 f i Adjacencies.obj
 0001:00001850       ?getReportAllocationNames@Foundation@shdfnd@physx@@UEBA_NXZ 0000000180002850 f i Adjacencies.obj
 0001:00001860       ?getTempAllocFreeTable@Foundation@shdfnd@physx@@QEAAAEAV?$Array@PEATTempAllocatorChunk@shdfnd@physx@@VAllocator@23@@23@XZ 0000000180002860 f i Adjacencies.obj
 0001:00001870       ?getTempAllocMutex@Foundation@shdfnd@physx@@QEAAAEAV?$MutexT@VAllocator@shdfnd@physx@@@23@XZ 0000000180002870 f i Adjacencies.obj
 0001:00001880       ?invalidateRanks@RadixSort@Cm@physx@@QEAAXXZ 0000000180002880 f i Adjacencies.obj
 0001:00001890       ?setErrorLevel@Foundation@shdfnd@physx@@UEAAXW4Enum@PxErrorCode@3@@Z 0000000180002890 f i Adjacencies.obj
 0001:000018a0       ?setReportAllocationNames@Foundation@shdfnd@physx@@UEAAX_N@Z 00000001800028a0 f i Adjacencies.obj
 0001:000018b0       PxCreateCooking            00000001800028b0 f   Cooking.obj
 0001:000019a0       ?release@Cooking@physx@@UEAAXXZ 00000001800029a0 f   Cooking.obj
 0001:000019d0       ?setParams@Cooking@physx@@UEAAXAEBUPxCookingParams@2@@Z 00000001800029d0 f   Cooking.obj
 0001:00001a30       ?getParams@Cooking@physx@@UEBAAEBUPxCookingParams@2@XZ 0000000180002a30 f   Cooking.obj
 0001:00001a40       ?platformMismatch@Cooking@physx@@UEBA_NXZ 0000000180002a40 f   Cooking.obj
 0001:00001a50       ?cookTriangleMesh@Cooking@physx@@UEBA_NAEBVPxTriangleMeshDesc@2@AEAVPxOutputStream@2@PEAW4Enum@PxTriangleMeshCookingResult@2@@Z 0000000180002a50 f   Cooking.obj
 0001:00001b90       ?createTriangleMesh@Cooking@physx@@UEBAPEAVPxTriangleMesh@2@AEBVPxTriangleMeshDesc@2@AEAVPxPhysicsInsertionCallback@2@PEAW4Enum@PxTriangleMeshCookingResult@2@@Z 0000000180002b90 f   Cooking.obj
 0001:00001cf0       ?validateTriangleMesh@Cooking@physx@@UEBA_NAEBVPxTriangleMeshDesc@2@@Z 0000000180002cf0 f   Cooking.obj
 0001:00001e00       ?cookConvexMesh@Cooking@physx@@UEBA_NAEBVPxConvexMeshDesc@2@AEAVPxOutputStream@2@PEAW4Enum@PxConvexMeshCookingResult@2@@Z 0000000180002e00 f   Cooking.obj
 0001:00001ff0       ?createConvexMesh@Cooking@physx@@UEBAPEAVPxConvexMesh@2@AEBVPxConvexMeshDesc@2@AEAVPxPhysicsInsertionCallback@2@PEAW4Enum@PxConvexMeshCookingResult@2@@Z 0000000180002ff0 f   Cooking.obj
 0001:000021f0       ?validateConvexMesh@Cooking@physx@@UEBA_NAEBVPxConvexMeshDesc@2@@Z 00000001800031f0 f   Cooking.obj
 0001:00002260       ?computeHullPolygons@Cooking@physx@@UEBA_NAEBVPxSimpleTriangleMesh@2@AEAVPxAllocatorCallback@2@AEAIAEAPEAVPxVec3@2@2AEAPEAI2AEAPEAUPxHullPolygon@2@@Z 0000000180003260 f   Cooking.obj
 0001:00002440       ?cookHeightField@Cooking@physx@@UEBA_NAEBVPxHeightFieldDesc@2@AEAVPxOutputStream@2@@Z 0000000180003440 f   Cooking.obj
 0001:00002520       ?createHeightField@Cooking@physx@@UEBAPEAVPxHeightField@2@AEBVPxHeightFieldDesc@2@AEAVPxPhysicsInsertionCallback@2@@Z 0000000180003520 f   Cooking.obj
 0001:00002680       ?cookBVHStructure@Cooking@physx@@UEBA_NAEBVPxBVHStructureDesc@2@AEAVPxOutputStream@2@@Z 0000000180003680 f   Cooking.obj
 0001:00002730       ?createBVHStructure@Cooking@physx@@UEBAPEAVPxBVHStructure@2@AEBVPxBVHStructureDesc@2@AEAVPxPhysicsInsertionCallback@2@@Z 0000000180003730 f   Cooking.obj
 0001:000027e0       ?cookConvexMeshInternal@Cooking@physx@@AEBA_NAEBVPxConvexMeshDesc@2@AEAVConvexMeshBuilder@2@PEAVConvexHullLib@2@PEAW4Enum@PxConvexMeshCookingResult@2@@Z 00000001800037e0 f   Cooking.obj
 0001:00002a50       ?cookTriangleMesh@Cooking@physx@@AEBA_NAEAVTriangleMeshBuilder@2@AEBVPxTriangleMeshDesc@2@AEAVPxOutputStream@2@PEAW4Enum@PxTriangleMeshCookingResult@2@@Z 0000000180003a50 f   Cooking.obj
 0001:00002af0       ?createTriangleMesh@Cooking@physx@@AEBAPEAVPxTriangleMesh@2@AEAVTriangleMeshBuilder@2@AEBVPxTriangleMeshDesc@2@AEAVPxPhysicsInsertionCallback@2@PEAW4Enum@PxTriangleMeshCookingResult@2@@Z 0000000180003af0 f   Cooking.obj
 0001:00002ba0       ??0DebugText@Cm@physx@@QEAA@$$QEAU012@@Z 0000000180003ba0 f i Cooking.obj
 0001:00002c80       ??0DebugText@Cm@physx@@QEAA@AEBU012@@Z 0000000180003c80 f i Cooking.obj
 0001:00002d60       ??0HeightFieldData@Gu@physx@@QEAA@$$QEAU012@@Z 0000000180003d60 f i Cooking.obj
 0001:00002dc0       ??0HeightFieldData@Gu@physx@@QEAA@AEBU012@@Z 0000000180003dc0 f i Cooking.obj
 0001:00002e20       ??0HeightFieldData@Gu@physx@@QEAA@W4PxEMPTY@2@@Z 0000000180003e20 f i Cooking.obj
 0001:00002e30       ??0HeightFieldData@Gu@physx@@QEAA@XZ 0000000180003e30 f i Cooking.obj
 0001:00002e40       ??0RenderOutput@Cm@physx@@QEAA@AEAVRenderBuffer@12@@Z 0000000180003e40 f i Cooking.obj
 0001:00002e90       ??0RenderOutput@Cm@physx@@QEAA@AEBV012@@Z 0000000180003e90 f i Cooking.obj
 0001:00002f30       ??1HeightFieldData@Gu@physx@@QEAA@XZ 0000000180003f30 f i Cooking.obj
 0001:00002f40       ??1PxBase@physx@@MEAA@XZ   0000000180003f40 f i Cooking.obj
 0001:00002f50       ??1PxConvexMesh@physx@@MEAA@XZ 0000000180003f50 f i Cooking.obj
 0001:00002f60       ??1PxCooking@physx@@MEAA@XZ 0000000180003f60 f i Cooking.obj
 0001:00002f70       ??1PxHeightField@physx@@MEAA@XZ 0000000180003f70 f i Cooking.obj
 0001:00002f80       ??4DebugText@Cm@physx@@QEAAAEAU012@$$QEAU012@@Z 0000000180003f80 f i Cooking.obj
 0001:000030b0       ??4DebugText@Cm@physx@@QEAAAEAU012@AEBU012@@Z 00000001800040b0 f i Cooking.obj
 0001:000031e0       ??4FPUGuard@shdfnd@physx@@QEAAAEAV012@AEBV012@@Z 00000001800041e0 f i Cooking.obj
 0001:00003200       ??4HeightFieldData@Gu@physx@@QEAAAEAU012@$$QEAU012@@Z 0000000180004200 f i Cooking.obj
 0001:00003260       ??4HeightFieldData@Gu@physx@@QEAAAEAU012@AEBU012@@Z 0000000180004260 f i Cooking.obj
 0001:000032c0       ??_ECooking@physx@@UEAAPEAXI@Z 00000001800042c0 f i Cooking.obj
 0001:000032c0       ??_GCooking@physx@@UEAAPEAXI@Z 00000001800042c0 f i Cooking.obj
 0001:00003310       ??_EPxBase@physx@@MEAAPEAXI@Z 0000000180004310 f i Cooking.obj
 0001:00003310       ??_GPxBase@physx@@MEAAPEAXI@Z 0000000180004310 f i Cooking.obj
 0001:00003340       ??_EPxCooking@physx@@MEAAPEAXI@Z 0000000180004340 f i Cooking.obj
 0001:00003340       ??_GPxCooking@physx@@MEAAPEAXI@Z 0000000180004340 f i Cooking.obj
 0001:00003370       ?allocate@?$Array@UPxDebugLine@physx@@V?$ReflectionAllocator@UPxDebugLine@physx@@@shdfnd@2@@shdfnd@physx@@IEAAPEAUPxDebugLine@3@I@Z 0000000180004370 f i Cooking.obj
 0001:00003410       ?copy@?$Array@UPxDebugLine@physx@@V?$ReflectionAllocator@UPxDebugLine@physx@@@shdfnd@2@@shdfnd@physx@@KAXPEAUPxDebugLine@3@0PEBU43@@Z 0000000180004410 f i Cooking.obj
 0001:000035c0       ?getConcreteTypeName@PxConvexMesh@physx@@UEBAPEBDXZ 00000001800045c0 f i Cooking.obj
 0001:000035d0       ?getConcreteTypeName@PxHeightField@physx@@UEBAPEBDXZ 00000001800045d0 f i Cooking.obj
 0001:000035e0       ?getConvexEdgeThreshold@HeightField@Gu@physx@@UEBAMXZ 00000001800045e0 f i Cooking.obj
 0001:000035f0       ?getFlags@HeightField@Gu@physx@@UEBA?AV?$PxFlags@W4Enum@PxHeightFieldFlag@physx@@G@3@XZ 00000001800045f0 f i Cooking.obj
 0001:00003600       ?getFormat@HeightField@Gu@physx@@UEBA?AW4Enum@PxHeightFieldFormat@3@XZ 0000000180004600 f i Cooking.obj
 0001:00003610       ?getHeight@HeightField@Gu@physx@@UEBAMMM@Z 0000000180004610 f i Cooking.obj
 0001:00003650       ?getHeightInternal2@HeightField@Gu@physx@@QEBAMIMM@Z 0000000180004650 f i Cooking.obj
 0001:000037c0       ?getIndexBuffer@ConvexMesh@Gu@physx@@UEBAPEBEXZ 00000001800047c0 f i Cooking.obj
 0001:00003800       ?getNbColumns@HeightField@Gu@physx@@UEBAIXZ 0000000180004800 f i Cooking.obj
 0001:00003810       ?getNbPolygons@ConvexMesh@Gu@physx@@UEBAIXZ 0000000180004810 f i Cooking.obj
 0001:00003820       ?getNbRows@HeightField@Gu@physx@@UEBAIXZ 0000000180004820 f i Cooking.obj
 0001:00003830       ?getNbVertices@ConvexMesh@Gu@physx@@UEBAIXZ 0000000180004830 f i Cooking.obj
 0001:00003840       ?getPaddedBounds@HeightFieldData@Gu@physx@@QEBAAEBVCenterExtentsPadded@23@XZ 0000000180004840 f i Cooking.obj
 0001:00003850       ?getSample@HeightField@Gu@physx@@UEBAAEBUPxHeightFieldSample@3@II@Z 0000000180004850 f i Cooking.obj
 0001:00003860       ?getSampleStride@HeightField@Gu@physx@@UEBAIXZ 0000000180004860 f i Cooking.obj
 0001:00003870       ?getTimestamp@HeightField@Gu@physx@@UEBAIXZ 0000000180004870 f i Cooking.obj
 0001:00003880       ?getTriangleMaterialIndex@HeightField@Gu@physx@@UEBAGI@Z 0000000180004880 f i Cooking.obj
 0001:000038b0       ?getTriangleNormal@HeightField@Gu@physx@@UEBA?AVPxVec3@3@I@Z 00000001800048b0 f i Cooking.obj
 0001:000038d0       ?getTriangleNormalInternal@HeightField@Gu@physx@@QEBA?AVPxVec3@3@I@Z 00000001800048d0 f i Cooking.obj
 0001:00003a20       ?getVertices@ConvexMesh@Gu@physx@@UEBAPEBVPxVec3@3@XZ 0000000180004a20 f i Cooking.obj
 0001:00003a40       ?isKindOf@PxBase@physx@@MEBA_NPEBD@Z 0000000180004a40 f i Cooking.obj
 0001:00003a70       ?isKindOf@PxConvexMesh@physx@@MEBA_NPEBD@Z 0000000180004a70 f i Cooking.obj
 0001:00003ac0       ?isKindOf@PxHeightField@physx@@MEBA_NPEBD@Z 0000000180004ac0 f i Cooking.obj
 0001:00003b10       ?isReleasable@PxBase@physx@@UEBA_NXZ 0000000180004b10 f i Cooking.obj
 0001:00003b20       ?outputSegment@RenderOutput@Cm@physx@@QEAAXAEBVPxVec3@3@0@Z 0000000180004b20 f i Cooking.obj
 0001:00003be0       ?preExportDataReset@ConvexMesh@Gu@physx@@QEAAXXZ 0000000180004be0 f i Cooking.obj
 0001:00003bf0       ?preExportDataReset@HeightField@Gu@physx@@QEAAXXZ 0000000180004bf0 f i Cooking.obj
 0001:00003c00       ?recreate@?$Array@UPxDebugLine@physx@@V?$ReflectionAllocator@UPxDebugLine@physx@@@shdfnd@2@@shdfnd@physx@@IEAAXI@Z 0000000180004c00 f i Cooking.obj
 0001:00003c90       ?reserveSegments@RenderOutput@Cm@physx@@QEAAPEAUPxDebugLine@3@I@Z 0000000180004c90 f i Cooking.obj
 0001:00003cf0       ??0ReducedVertexCloud@physx@@QEAA@PEBVPxVec3@1@I@Z 0000000180004cf0 f   CookingUtils.obj
 0001:00003d10       ??1ReducedVertexCloud@physx@@QEAA@XZ 0000000180004d10 f   CookingUtils.obj
 0001:00003d20       ?Clean@ReducedVertexCloud@physx@@QEAAAEAV12@XZ 0000000180004d20 f   CookingUtils.obj
 0001:00003d90       ?Reduce@ReducedVertexCloud@physx@@QEAA_NPEAUREDUCEDCLOUD@2@@Z 0000000180004d90 f   CookingUtils.obj
 0001:000040d0       ??0EdgeList@Gu@physx@@QEAA@XZ 00000001800050d0 f   EdgeList.obj
 0001:000040f0       ??1EdgeList@Gu@physx@@QEAA@XZ 00000001800050f0 f   EdgeList.obj
 0001:000041a0       ?load@EdgeList@Gu@physx@@QEAA_NAEAVPxInputStream@3@@Z 00000001800051a0 f   EdgeList.obj
 0001:00004390       ??0EdgeListBuilder@Gu@physx@@QEAA@XZ 0000000180005390 f   EdgeList.obj
 0001:000043b0       ??1EdgeListBuilder@Gu@physx@@QEAA@XZ 00000001800053b0 f   EdgeList.obj
 0001:000043c0       ?init@EdgeListBuilder@Gu@physx@@QEAA_NAEBUEDGELISTCREATE@23@@Z 00000001800053c0 f   EdgeList.obj
 0001:000044f0       ?createFacesToEdges@EdgeListBuilder@Gu@physx@@AEAA_NIPEBIPEBG@Z 00000001800054f0 f   EdgeList.obj
 0001:00004930       ?createEdgesToFaces@EdgeListBuilder@Gu@physx@@AEAA_NIPEBIPEBG@Z 0000000180005930 f   EdgeList.obj
 0001:00004b90       ?computeActiveEdges@EdgeListBuilder@Gu@physx@@AEAA_NIPEBIPEBGPEBVPxVec3@3@M@Z 0000000180005b90 f   EdgeList.obj
 0001:000061a0       ??$?_UI@@YAPEAX_KV?$ReflectionAllocator@I@shdfnd@physx@@PEBDH@Z 00000001800071a0 f i EdgeList.obj
 0001:00006240       ??0PxVec3@physx@@QEAA@XZ   0000000180007240 f i EdgeList.obj
 0001:00006250       ??0MeshCleaner@physx@@QEAA@IPEBVPxVec3@1@IPEBIM@Z 0000000180007250 f   MeshCleaner.obj
 0001:00006bc0       ??1MeshCleaner@physx@@QEAA@XZ 0000000180007bc0 f   MeshCleaner.obj
 0001:00006c50       ?createQuantizer@physx@@YAPEAVQuantizer@1@XZ 0000000180007c50 f   Quantizer.obj
 0001:00006d00       ?kmeans_cluster3d@@YAIPEBVPxVec3@physx@@IIPEAV12@PEAIMM@Z 0000000180007d00 f   Quantizer.obj
 0001:00006d10       ??$kmeans_cluster@VPxVec3@physx@@M@@YAIPEBVPxVec3@physx@@IIPEAV01@PEAIMM@Z 0000000180007d10 f i Quantizer.obj
 0001:000076d0       ??1Quantizer@physx@@MEAA@XZ 00000001800086d0 f i Quantizer.obj
 0001:000076e0       ??1QuantizerImpl@@EEAA@XZ  00000001800086e0 f i Quantizer.obj
 0001:00007760       ??_EQuantizer@physx@@MEAAPEAXI@Z 0000000180008760 f i Quantizer.obj
 0001:00007760       ??_GQuantizer@physx@@MEAAPEAXI@Z 0000000180008760 f i Quantizer.obj
 0001:00007790       ??_EQuantizerImpl@@EEAAPEAXI@Z 0000000180008790 f i Quantizer.obj
 0001:00007790       ??_GQuantizerImpl@@EEAAPEAXI@Z 0000000180008790 f i Quantizer.obj
 0001:00007860       ?getDenormalizeCenter@QuantizerImpl@@UEBAAEBVPxVec3@physx@@XZ 0000000180008860 f i Quantizer.obj
 0001:00007870       ?getDenormalizeScale@QuantizerImpl@@UEBAAEBVPxVec3@physx@@XZ 0000000180008870 f i Quantizer.obj
 0001:00007880       ?growAndPushBack@?$Array@VPxVec3@physx@@V?$ReflectionAllocator@VPxVec3@physx@@@shdfnd@2@@shdfnd@physx@@IEAAAEAVPxVec3@3@AEBV43@@Z 0000000180008880 f i Quantizer.obj
 0001:00007a60       ?kmeansQuantize3D@QuantizerImpl@@UEAAPEBVPxVec3@physx@@IPEBV23@I_NIAEAI@Z 0000000180008a60 f i Quantizer.obj
 0001:00007cc0       ?normalizeInput@QuantizerImpl@@AEAAXIPEBVPxVec3@physx@@I@Z 0000000180008cc0 f i Quantizer.obj
 0001:00008110       ?release@QuantizerImpl@@UEAAXXZ 0000000180009110 f i Quantizer.obj
 0001:00008130       ??0BVHStructureBuilder@physx@@QEAA@XZ 0000000180009130 f   BVHStructureBuilder.obj
 0001:00008150       ??1BVHStructureBuilder@physx@@QEAA@XZ 0000000180009150 f   BVHStructureBuilder.obj
 0001:000081e0       ?loadFromDesc@BVHStructureBuilder@physx@@QEAA_NAEBVPxBVHStructureDesc@2@@Z 00000001800091e0 f   BVHStructureBuilder.obj
 0001:000084f0       ?save@BVHStructureBuilder@physx@@QEBA_NAEAVPxOutputStream@2@_N@Z 00000001800094f0 f   BVHStructureBuilder.obj
 0001:00008680       ?moveData@BVHStructureBuilder@physx@@QEAAXAEAUBVHStructureData@Gu@2@@Z 0000000180009680 f   BVHStructureBuilder.obj
 0001:000086c0       ?flatten@@YAXAEBVNodeAllocator@Gu@physx@@PEAUBVHNode@23@@Z 00000001800096c0 f   BVHStructureBuilder.obj
 0001:00008890       ??$copy@V?$ReflectionAllocator@USlab@NodeAllocator@Gu@physx@@@shdfnd@physx@@@?$Array@USlab@NodeAllocator@Gu@physx@@V?$ReflectionAllocator@USlab@NodeAllocator@Gu@physx@@@shdfnd@4@@shdfnd@physx@@IEAAXAEBV012@@Z 0000000180009890 f i BVHStructureBuilder.obj
 0001:00008910       ??0AABBTreeBuildNode@Gu@physx@@QEAA@AEBV012@@Z 0000000180009910 f i BVHStructureBuilder.obj
 0001:00008950       ??0AABBTreeBuildNode@Gu@physx@@QEAA@XZ 0000000180009950 f i BVHStructureBuilder.obj
 0001:00008960       ??0AABBTreeBuildParams@Gu@physx@@QEAA@IIPEBVPxBounds3@2@@Z 0000000180009960 f i BVHStructureBuilder.obj
 0001:00008980       ??0BuildStats@Gu@physx@@QEAA@XZ 0000000180009980 f i BVHStructureBuilder.obj
 0001:00008990       ??0NodeAllocator@Gu@physx@@QEAA@AEBV012@@Z 0000000180009990 f i BVHStructureBuilder.obj
 0001:000089d0       ??1AABBTreeBuildNode@Gu@physx@@QEAA@XZ 00000001800099d0 f i BVHStructureBuilder.obj
 0001:000089e0       ??1AABBTreeBuildParams@Gu@physx@@QEAA@XZ 00000001800099e0 f i BVHStructureBuilder.obj
 0001:00008a40       ??4AABBTreeBuildNode@Gu@physx@@QEAAAEAV012@AEBV012@@Z 0000000180009a40 f i BVHStructureBuilder.obj
 0001:00008a80       ??4AABBTreeBuildParams@Gu@physx@@QEAAAEAV012@AEBV012@@Z 0000000180009a80 f i BVHStructureBuilder.obj
 0001:00008aa0       ??4BuildStats@Gu@physx@@QEAAAEAU012@$$QEAU012@@Z 0000000180009aa0 f i BVHStructureBuilder.obj
 0001:00008ab0       ??4BuildStats@Gu@physx@@QEAAAEAU012@AEBU012@@Z 0000000180009ab0 f i BVHStructureBuilder.obj
 0001:00008ac0       ??4NodeAllocator@Gu@physx@@QEAAAEAV012@AEBV012@@Z 0000000180009ac0 f i BVHStructureBuilder.obj
 0001:00008b70       ??_FAABBTreeBuildParams@Gu@physx@@QEAAXXZ 0000000180009b70 f i BVHStructureBuilder.obj
 0001:00008b90       ?__global_array_delete@@YAXPEAX@Z 0000000180009b90 f i BVHStructureBuilder.obj
 0001:00008ba0       ?__global_array_delete@@YAXPEAX_K@Z 0000000180009ba0 f i BVHStructureBuilder.obj
 0001:00008bb0       ?__global_delete@@YAXPEAX@Z 0000000180009bb0 f i BVHStructureBuilder.obj
 0001:00008bc0       ?__global_delete@@YAXPEAX_K@Z 0000000180009bc0 f i BVHStructureBuilder.obj
 0001:00008bd0       ?allocate@?$Array@USlab@NodeAllocator@Gu@physx@@V?$ReflectionAllocator@USlab@NodeAllocator@Gu@physx@@@shdfnd@4@@shdfnd@physx@@IEAAPEAUSlab@NodeAllocator@Gu@3@I@Z 0000000180009bd0 f i BVHStructureBuilder.obj
 0001:00008c70       ?getAABB@AABBTreeBuildNode@Gu@physx@@QEBAAEBVPxBounds3@3@XZ 0000000180009c70 f i BVHStructureBuilder.obj
 0001:00008c80       ?getCount@BuildStats@Gu@physx@@QEBAIXZ 0000000180009c80 f i BVHStructureBuilder.obj
 0001:00008c90       ?getNbPrimitives@AABBTreeBuildNode@Gu@physx@@QEBAIXZ 0000000180009c90 f i BVHStructureBuilder.obj
 0001:00008ca0       ?getNbRuntimePrimitives@AABBTreeBuildNode@Gu@physx@@QEBAIXZ 0000000180009ca0 f i BVHStructureBuilder.obj
 0001:00008cb0       ?getNeg@AABBTreeBuildNode@Gu@physx@@QEBAPEBV123@XZ 0000000180009cb0 f i BVHStructureBuilder.obj
 0001:00008cd0       ?getPos@AABBTreeBuildNode@Gu@physx@@QEBAPEBV123@XZ 0000000180009cd0 f i BVHStructureBuilder.obj
 0001:00008ce0       ?getPrimitives@AABBTreeBuildNode@Gu@physx@@QEAAPEAIPEAI@Z 0000000180009ce0 f i BVHStructureBuilder.obj
 0001:00008cf0       ?getPrimitives@AABBTreeBuildNode@Gu@physx@@QEBAPEBIPEBI@Z 0000000180009cf0 f i BVHStructureBuilder.obj
 0001:00008d00       ?increaseCount@BuildStats@Gu@physx@@QEAAXI@Z 0000000180009d00 f i BVHStructureBuilder.obj
 0001:00008d10       ?isLeaf@AABBTreeBuildNode@Gu@physx@@QEBA_NXZ 0000000180009d10 f i BVHStructureBuilder.obj
 0001:00008d20       ?recreate@?$Array@USlab@NodeAllocator@Gu@physx@@V?$ReflectionAllocator@USlab@NodeAllocator@Gu@physx@@@shdfnd@4@@shdfnd@physx@@IEAAXI@Z 0000000180009d20 f i BVHStructureBuilder.obj
 0001:00008dd0       ?reset@AABBTreeBuildParams@Gu@physx@@QEAAXXZ 0000000180009dd0 f i BVHStructureBuilder.obj
 0001:00008e30       ?reset@BuildStats@Gu@physx@@QEAAXXZ 0000000180009e30 f i BVHStructureBuilder.obj
 0001:00008e40       ?setCount@BuildStats@Gu@physx@@QEAAXI@Z 0000000180009e40 f i BVHStructureBuilder.obj
 0001:00008e50       ?setNbRunTimePrimitives@AABBTreeBuildNode@Gu@physx@@QEAAXI@Z 0000000180009e50 f i BVHStructureBuilder.obj
 0001:00008e60       ?saveHeightField@physx@@YA_NAEBVHeightField@Gu@1@AEAVPxOutputStream@1@_N@Z 0000000180009e60 f   HeightFieldCooking.obj
 0001:000090a0       ?buildFromTriangles@RTreeCooker@physx@@SAXAEAURTree@Gu@2@PEBVPxVec3@2@IPEBGPEBIIAEAV?$Array@IV?$ReflectionAllocator@I@shdfnd@physx@@@shdfnd@2@PEAURemapCallback@12@MW4Enum@PxMeshCookingHint@2@@Z 000000018000a0a0 f   RTreeCooking.obj
 0001:00009360       ??$partition@UBoundsLTE@physx@@@quickSelect@physx@@YAIPEIAIIIIAEBUBoundsLTE@1@@Z 000000018000a360 f i RTreeCooking.obj
 0001:000094f0       ??$quickSelectFirstK@UBoundsLTE@physx@@@quickSelect@physx@@YAXPEIAIIIIAEBUBoundsLTE@1@@Z 000000018000a4f0 f i RTreeCooking.obj
 0001:000096d0       ??$smallSort@I$$CBUSortBoundsPredicate@physx@@@internal@shdfnd@physx@@YAXPEAIHHAEBUSortBoundsPredicate@2@@Z 000000018000a6d0 f i RTreeCooking.obj
 0001:00009970       ??$sort@I@shdfnd@physx@@YAXPEAII@Z 000000018000a970 f i RTreeCooking.obj
 0001:00009990       ??$sort@IU?$Less@I@shdfnd@physx@@V?$ReflectionAllocator@I@23@@shdfnd@physx@@YAXPEAIIAEBU?$Less@I@01@AEBV?$ReflectionAllocator@I@01@I@Z 000000018000a990 f i RTreeCooking.obj
 0001:00009dd0       ??$sort@IUSortBoundsPredicate@physx@@@shdfnd@physx@@YAXPEAIIAEBUSortBoundsPredicate@1@@Z 000000018000add0 f i RTreeCooking.obj
 0001:00009df0       ??$sort@IUSortBoundsPredicate@physx@@V?$ReflectionAllocator@I@shdfnd@2@@shdfnd@physx@@YAXPEAIIAEBUSortBoundsPredicate@1@AEBV?$ReflectionAllocator@I@01@I@Z 000000018000adf0 f i RTreeCooking.obj
 0001:0000a2a0       ?allocate@?$Array@UInterval@physx@@V?$InlineAllocator@$0CAAA@V?$ReflectionAllocator@UInterval@physx@@@shdfnd@physx@@@shdfnd@2@@shdfnd@physx@@IEAAPEAUInterval@3@I@Z 000000018000b2a0 f i RTreeCooking.obj
 0001:0000a360       ?allocate@?$Array@UPxBounds3V@physx@@V?$ReflectionAllocator@UPxBounds3V@physx@@@shdfnd@2@@shdfnd@physx@@IEAAPEAUPxBounds3V@3@I@Z 000000018000b360 f i RTreeCooking.obj
 0001:0000a400       ?allocate@?$Array@URTreeNodeNQ@physx@@V?$ReflectionAllocator@URTreeNodeNQ@physx@@@shdfnd@2@@shdfnd@physx@@IEAAPEAURTreeNodeNQ@3@I@Z 000000018000b400 f i RTreeCooking.obj
 0001:0000a4a0       ?allocate@?$Array@URTreeNodeQ@Gu@physx@@V?$ReflectionAllocator@URTreeNodeQ@Gu@physx@@@shdfnd@3@@shdfnd@physx@@IEAAPEAURTreeNodeQ@Gu@3@I@Z 000000018000b4a0 f i RTreeCooking.obj
 0001:0000a540       ?allocate@?$Array@VPxVec3@physx@@V?$ReflectionAllocator@VPxVec3@physx@@@shdfnd@2@@shdfnd@physx@@IEAAPEAVPxVec3@3@I@Z 000000018000b540 f i RTreeCooking.obj
 0001:0000a5e0       ?allocate@?$ReflectionAllocator@I@shdfnd@physx@@QEAAPEAX_KPEBDH@Z 000000018000b5e0 f i RTreeCooking.obj
 0001:0000b2e0       ?copy@?$Array@URTreeNodeNQ@physx@@V?$ReflectionAllocator@URTreeNodeNQ@physx@@@shdfnd@2@@shdfnd@physx@@KAXPEAURTreeNodeNQ@3@0PEBU43@@Z 000000018000c2e0 f i RTreeCooking.obj
 0001:0000b4a0       ?copy@?$Array@VPxVec3@physx@@V?$ReflectionAllocator@VPxVec3@physx@@@shdfnd@2@@shdfnd@physx@@KAXPEAVPxVec3@3@0PEBV43@@Z 000000018000c4a0 f i RTreeCooking.obj
 0001:0000b570       ?growAndPushBack@?$Array@IV?$ReflectionAllocator@I@shdfnd@physx@@@shdfnd@physx@@IEAAAEAIAEBI@Z 000000018000c570 f i RTreeCooking.obj
 0001:0000b640       ?growAndPushBack@?$Array@UInterval@physx@@V?$InlineAllocator@$0CAAA@V?$ReflectionAllocator@UInterval@physx@@@shdfnd@physx@@@shdfnd@2@@shdfnd@physx@@IEAAAEAUInterval@3@AEBU43@@Z 000000018000c640 f i RTreeCooking.obj
 0001:0000b720       ?growAndPushBack@?$Array@UPxBounds3V@physx@@V?$ReflectionAllocator@UPxBounds3V@physx@@@shdfnd@2@@shdfnd@physx@@IEAAAEAUPxBounds3V@3@AEBU43@@Z 000000018000c720 f i RTreeCooking.obj
 0001:0000b7f0       ?growAndPushBack@?$Array@URTreeNodeNQ@physx@@V?$ReflectionAllocator@URTreeNodeNQ@physx@@@shdfnd@2@@shdfnd@physx@@IEAAAEAURTreeNodeNQ@3@AEBU43@@Z 000000018000c7f0 f i RTreeCooking.obj
 0001:0000b8c0       ?growAndPushBack@?$Array@URTreeNodeQ@Gu@physx@@V?$ReflectionAllocator@URTreeNodeQ@Gu@physx@@@shdfnd@3@@shdfnd@physx@@IEAAAEAURTreeNodeQ@Gu@3@AEBU453@@Z 000000018000c8c0 f i RTreeCooking.obj
 0001:0000b9a0       ?recreate@?$Array@IV?$ReflectionAllocator@I@shdfnd@physx@@@shdfnd@physx@@IEAAXI@Z 000000018000c9a0 f i RTreeCooking.obj
 0001:0000ba60       ?recreate@?$Array@UPxBounds3V@physx@@V?$ReflectionAllocator@UPxBounds3V@physx@@@shdfnd@2@@shdfnd@physx@@IEAAXI@Z 000000018000ca60 f i RTreeCooking.obj
 0001:0000bb10       ?recreate@?$Array@URTreeNodeNQ@physx@@V?$ReflectionAllocator@URTreeNodeNQ@physx@@@shdfnd@2@@shdfnd@physx@@IEAAXI@Z 000000018000cb10 f i RTreeCooking.obj
 0001:0000bba0       ?recreate@?$Array@URTreeNodeQ@Gu@physx@@V?$ReflectionAllocator@URTreeNodeQ@Gu@physx@@@shdfnd@3@@shdfnd@physx@@IEAAXI@Z 000000018000cba0 f i RTreeCooking.obj
 0001:0000bc60       ?recreate@?$Array@VPxVec3@physx@@V?$ReflectionAllocator@VPxVec3@physx@@@shdfnd@2@@shdfnd@physx@@IEAAXI@Z 000000018000cc60 f i RTreeCooking.obj
 0001:0000bcf0       ?resize@?$Array@IV?$ReflectionAllocator@I@shdfnd@physx@@@shdfnd@physx@@QEAAXIAEBI@Z 000000018000ccf0 f i RTreeCooking.obj
 0001:0000bdb0       ?resizeUninitialized@?$Array@URTreeNodeNQ@physx@@V?$ReflectionAllocator@URTreeNodeNQ@physx@@@shdfnd@2@@shdfnd@physx@@QEAAXI@Z 000000018000cdb0 f i RTreeCooking.obj
 0001:0000bdf0       ?sort4@SubSortQuick@physx@@QEAAXPEIAIIAEAV?$Array@URTreeNodeNQ@physx@@V?$ReflectionAllocator@URTreeNodeNQ@physx@@@shdfnd@2@@shdfnd@2@AEAIAEAUPxBounds3V@2@I@Z 000000018000cdf0 f i RTreeCooking.obj
 0001:0000c180       ?sort4@SubSortSAH@physx@@QEAAXPEAIIAEAV?$Array@URTreeNodeNQ@physx@@V?$ReflectionAllocator@URTreeNodeNQ@physx@@@shdfnd@2@@shdfnd@2@AEAIIPEAURTreeNodeNQ@2@@Z 000000018000d180 f i RTreeCooking.obj
 0001:0000c9e0       ?split@SubSortSAH@physx@@QEAAIPEAII@Z 000000018000d9e0 f i RTreeCooking.obj
 0001:0000d460       ?computeLocalBounds@MeshBulider@physx@@IEAAXAEAVMeshDataBase@Gu@2@@Z 000000018000e460 f   MeshBuilder.obj
 0001:0000d4f0       ??0TriangleMeshBuilder@physx@@QEAA@AEAVTriangleMeshData@Gu@1@AEBUPxCookingParams@1@@Z 000000018000e4f0 f   TriangleMeshBuilder.obj
 0001:0000d520       ??1TriangleMeshBuilder@physx@@UEAA@XZ 000000018000e520 f   TriangleMeshBuilder.obj
 0001:0000d590       ?cleanMesh@TriangleMeshBuilder@physx@@QEAA_N_NPEAW4Enum@PxTriangleMeshCookingResult@2@@Z 000000018000e590 f   TriangleMeshBuilder.obj
 0001:0000dab0       ?remapTopology@TriangleMeshBuilder@physx@@QEAAXPEBI@Z 000000018000eab0 f   TriangleMeshBuilder.obj
 0001:0000dda0       ?createSharedEdgeData@TriangleMeshBuilder@physx@@QEAAX_N0@Z 000000018000eda0 f   TriangleMeshBuilder.obj
 0001:0000e250       ?recordTriangleIndices@TriangleMeshBuilder@physx@@QEAAXXZ 000000018000f250 f   TriangleMeshBuilder.obj
 0001:0000e350       ?createGRBMidPhaseAndData@TriangleMeshBuilder@physx@@QEAAXI@Z 000000018000f350 f   TriangleMeshBuilder.obj
 0001:0000e5d0       ?createGRBData@TriangleMeshBuilder@physx@@QEAAXXZ 000000018000f5d0 f   TriangleMeshBuilder.obj
 0001:0000e6d0       ?loadFromDesc@TriangleMeshBuilder@physx@@QEAA_NAEBVPxTriangleMeshDesc@2@PEAW4Enum@PxTriangleMeshCookingResult@2@_N@Z 000000018000f6d0 f   TriangleMeshBuilder.obj
 0001:0000eb50       ?save@TriangleMeshBuilder@physx@@QEBA_NAEAVPxOutputStream@2@_NAEBUPxCookingParams@2@@Z 000000018000fb50 f   TriangleMeshBuilder.obj
 0001:0000f120       ?checkMeshIndicesSize@TriangleMeshBuilder@physx@@QEAAXXZ 0000000180010120 f   TriangleMeshBuilder.obj
 0001:0000f230       ?importMesh@TriangleMeshBuilder@physx@@IEAA_NAEBVPxTriangleMeshDesc@2@AEBUPxCookingParams@2@PEAW4Enum@PxTriangleMeshCookingResult@2@_N@Z 0000000180010230 f   TriangleMeshBuilder.obj
 0001:0000f5b0       ?releaseEdgeList@TriangleMeshBuilder@physx@@IEAAXXZ 00000001800105b0 f   TriangleMeshBuilder.obj
 0001:0000f610       ?createEdgeList@TriangleMeshBuilder@physx@@IEAAXXZ 0000000180010610 f   TriangleMeshBuilder.obj
 0001:0000f730       ??0RTreeTriangleMeshBuilder@physx@@QEAA@AEBUPxCookingParams@1@@Z 0000000180010730 f   TriangleMeshBuilder.obj
 0001:0000f7f0       ??1RTreeTriangleMeshBuilder@physx@@UEAA@XZ 00000001800107f0 f   TriangleMeshBuilder.obj
 0001:0000f820       ?createMidPhaseStructure@RTreeTriangleMeshBuilder@physx@@UEAAXXZ 0000000180010820 f   TriangleMeshBuilder.obj
 0001:0000f900       ?saveMidPhaseStructure@RTreeTriangleMeshBuilder@physx@@UEBAXAEAVPxOutputStream@2@_N@Z 0000000180010900 f   TriangleMeshBuilder.obj
 0001:0000fb40       ??0BV4TriangleMeshBuilder@physx@@QEAA@AEBUPxCookingParams@1@@Z 0000000180010b40 f   TriangleMeshBuilder.obj
 0001:0000fc10       ??1BV4TriangleMeshBuilder@physx@@UEAA@XZ 0000000180010c10 f   TriangleMeshBuilder.obj
 0001:0000fc70       ?createMidPhaseStructure@BV4TriangleMeshBuilder@physx@@UEAAXXZ 0000000180010c70 f   TriangleMeshBuilder.obj
 0001:0000ff30       ?saveMidPhaseStructure@BV4TriangleMeshBuilder@physx@@UEBAXAEAVPxOutputStream@2@_N@Z 0000000180010f30 f   TriangleMeshBuilder.obj
 0001:000100d0       ?onMeshIndexFormatChange@BV4TriangleMeshBuilder@physx@@UEAAXXZ 00000001800110d0 f   TriangleMeshBuilder.obj
 0001:00010110       ?createMidPhaseStructure@BV32TriangleMeshBuilder@physx@@SAXAEBUPxCookingParams@2@AEAVTriangleMeshData@Gu@2@AEAVBV32Tree@52@@Z 0000000180011110 f   TriangleMeshBuilder.obj
 0001:000102f0       ?saveMidPhaseStructure@BV32TriangleMeshBuilder@physx@@SAXPEAVBV32Tree@Gu@2@AEAVPxOutputStream@2@_N@Z 00000001800112f0 f   TriangleMeshBuilder.obj
 0001:00010490       ?findSharpVertices@GrbTrimeshCookerHelper@physx@@YAXAEAV?$Array@USortedNeighbor@GrbTrimeshCookerHelper@physx@@V?$ReflectionAllocator@USortedNeighbor@GrbTrimeshCookerHelper@physx@@@shdfnd@3@@shdfnd@2@AEAV?$Array@USharpEdgeRange@GrbTrimeshCookerHelper@physx@@V?$ReflectionAllocator@USharpEdgeRange@GrbTrimeshCookerHelper@physx@@@shdfnd@3@@42@PEBUuint3@2@PEBUuint4@2@II@Z 0000000180011490 f   TriangleMeshBuilder.obj
 0001:00010830       ?buildVertexConnectionNew_p1@GrbTrimeshCookerHelper@physx@@YAIAEAV?$Array@USortedNeighbor@GrbTrimeshCookerHelper@physx@@V?$ReflectionAllocator@USortedNeighbor@GrbTrimeshCookerHelper@physx@@@shdfnd@3@@shdfnd@2@AEAV?$Array@USharpEdgeRange@GrbTrimeshCookerHelper@physx@@V?$ReflectionAllocator@USharpEdgeRange@GrbTrimeshCookerHelper@physx@@@shdfnd@3@@42@PEBUuint3@2@PEBUuint4@2@II@Z 0000000180011830 f   TriangleMeshBuilder.obj
 0001:000109b0       ?buildVertexConnectionNew_p2@GrbTrimeshCookerHelper@physx@@YAXPEAI00AEAV?$Array@USortedNeighbor@GrbTrimeshCookerHelper@physx@@V?$ReflectionAllocator@USortedNeighbor@GrbTrimeshCookerHelper@physx@@@shdfnd@3@@shdfnd@2@AEAV?$Array@USharpEdgeRange@GrbTrimeshCookerHelper@physx@@V?$ReflectionAllocator@USharpEdgeRange@GrbTrimeshCookerHelper@physx@@@shdfnd@3@@42@I@Z 00000001800119b0 f   TriangleMeshBuilder.obj
 0001:00010a60       ??$?_UG@@YAPEAX_KV?$ReflectionAllocator@G@shdfnd@physx@@PEBDH@Z 0000000180011a60 f i TriangleMeshBuilder.obj
 0001:00010b00       ??$median3@USortedNeighbor@GrbTrimeshCookerHelper@physx@@$$CBU?$Less@USortedNeighbor@GrbTrimeshCookerHelper@physx@@@shdfnd@3@@internal@shdfnd@physx@@YAXPEAUSortedNeighbor@GrbTrimeshCookerHelper@2@HHAEBU?$Less@USortedNeighbor@GrbTrimeshCookerHelper@physx@@@12@@Z 0000000180011b00 f i TriangleMeshBuilder.obj
 0001:00010c30       ??$sort@UEdgeTriLookup@physx@@@shdfnd@physx@@YAXPEAUEdgeTriLookup@1@I@Z 0000000180011c30 f i TriangleMeshBuilder.obj
 0001:00010c50       ??$sort@UEdgeTriLookup@physx@@U?$Less@UEdgeTriLookup@physx@@@shdfnd@2@V?$ReflectionAllocator@UEdgeTriLookup@physx@@@42@@shdfnd@physx@@YAXPEAUEdgeTriLookup@1@IAEBU?$Less@UEdgeTriLookup@physx@@@01@AEBV?$ReflectionAllocator@UEdgeTriLookup@physx@@@01@I@Z 0000000180011c50 f i TriangleMeshBuilder.obj
 0001:000111d0       ??$sort@USortedNeighbor@GrbTrimeshCookerHelper@physx@@@shdfnd@physx@@YAXPEAUSortedNeighbor@GrbTrimeshCookerHelper@1@I@Z 00000001800121d0 f i TriangleMeshBuilder.obj
 0001:000111f0       ??$sort@USortedNeighbor@GrbTrimeshCookerHelper@physx@@U?$Less@USortedNeighbor@GrbTrimeshCookerHelper@physx@@@shdfnd@3@V?$ReflectionAllocator@USortedNeighbor@GrbTrimeshCookerHelper@physx@@@53@@shdfnd@physx@@YAXPEAUSortedNeighbor@GrbTrimeshCookerHelper@1@IAEBU?$Less@USortedNeighbor@GrbTrimeshCookerHelper@physx@@@01@AEBV?$ReflectionAllocator@USortedNeighbor@GrbTrimeshCookerHelper@physx@@@01@I@Z 00000001800121f0 f i TriangleMeshBuilder.obj
 0001:000116f0       ??0PxVec4@physx@@QEAA@XZ   00000001800126f0 f i TriangleMeshBuilder.obj
 0001:00011700       ??1BV4TriangleData@Gu@physx@@UEAA@XZ 0000000180012700 f i TriangleMeshBuilder.obj
 0001:00011740       ??1MeshDataBase@Gu@physx@@UEAA@XZ 0000000180012740 f i TriangleMeshBuilder.obj
 0001:00011820       ??1RTreeTriangleData@Gu@physx@@UEAA@XZ 0000000180012820 f i TriangleMeshBuilder.obj
 0001:00011890       ??1RemapCallback@RTreeCooker@physx@@UEAA@XZ 0000000180012890 f i TriangleMeshBuilder.obj
 0001:000118a0       ??1TriangleMeshData@Gu@physx@@UEAA@XZ 00000001800128a0 f i TriangleMeshBuilder.obj
 0001:00011970       ??_EBV4TriangleData@Gu@physx@@UEAAPEAXI@Z 0000000180012970 f i TriangleMeshBuilder.obj
 0001:00011970       ??_GBV4TriangleData@Gu@physx@@UEAAPEAXI@Z 0000000180012970 f i TriangleMeshBuilder.obj
 0001:000119f0       ??_EBV4TriangleMeshBuilder@physx@@UEAAPEAXI@Z 00000001800129f0 f i TriangleMeshBuilder.obj
 0001:000119f0       ??_GBV4TriangleMeshBuilder@physx@@UEAAPEAXI@Z 00000001800129f0 f i TriangleMeshBuilder.obj
 0001:00011a70       ??_EMeshDataBase@Gu@physx@@UEAAPEAXI@Z 0000000180012a70 f i TriangleMeshBuilder.obj
 0001:00011a70       ??_GMeshDataBase@Gu@physx@@UEAAPEAXI@Z 0000000180012a70 f i TriangleMeshBuilder.obj
 0001:00011ad0       ??_ERTreeCookerRemap@physx@@UEAAPEAXI@Z 0000000180012ad0 f i TriangleMeshBuilder.obj
 0001:00011ad0       ??_GRTreeCookerRemap@physx@@UEAAPEAXI@Z 0000000180012ad0 f i TriangleMeshBuilder.obj
 0001:00011b00       ??_ERTreeTriangleData@Gu@physx@@UEAAPEAXI@Z 0000000180012b00 f i TriangleMeshBuilder.obj
 0001:00011b00       ??_GRTreeTriangleData@Gu@physx@@UEAAPEAXI@Z 0000000180012b00 f i TriangleMeshBuilder.obj
 0001:00011b60       ??_ERTreeTriangleMeshBuilder@physx@@UEAAPEAXI@Z 0000000180012b60 f i TriangleMeshBuilder.obj
 0001:00011b60       ??_GRTreeTriangleMeshBuilder@physx@@UEAAPEAXI@Z 0000000180012b60 f i TriangleMeshBuilder.obj
 0001:00011bb0       ??_ERemapCallback@RTreeCooker@physx@@UEAAPEAXI@Z 0000000180012bb0 f i TriangleMeshBuilder.obj
 0001:00011bb0       ??_GRemapCallback@RTreeCooker@physx@@UEAAPEAXI@Z 0000000180012bb0 f i TriangleMeshBuilder.obj
 0001:00011be0       ??_ETriangleMeshBuilder@physx@@UEAAPEAXI@Z 0000000180012be0 f i TriangleMeshBuilder.obj
 0001:00011be0       ??_GTriangleMeshBuilder@physx@@UEAAPEAXI@Z 0000000180012be0 f i TriangleMeshBuilder.obj
 0001:00011c20       ??_ETriangleMeshData@Gu@physx@@UEAAPEAXI@Z 0000000180012c20 f i TriangleMeshBuilder.obj
 0001:00011c20       ??_GTriangleMeshData@Gu@physx@@UEAAPEAXI@Z 0000000180012c20 f i TriangleMeshBuilder.obj
 0001:00011c80       ?allocate@?$ReflectionAllocator@USortedNeighbor@GrbTrimeshCookerHelper@physx@@@shdfnd@physx@@QEAAPEAX_KPEBDH@Z 0000000180012c80 f i TriangleMeshBuilder.obj
 0001:00011d20       ?allocateTriangles@TriangleMeshData@Gu@physx@@QEAAPEAXI_NI@Z 0000000180012d20 f i TriangleMeshBuilder.obj
 0001:00011e00       ?allocateVertices@MeshDataBase@Gu@physx@@QEAAPEAVPxVec3@3@I@Z 0000000180012e00 f i TriangleMeshBuilder.obj
 0001:00012510       ?getMidphaseID@BV4TriangleMeshBuilder@physx@@UEBA?AW4Enum@PxMeshMidPhase@2@XZ 0000000180013510 f i TriangleMeshBuilder.obj
 0001:00012520       ?getMidphaseID@RTreeTriangleMeshBuilder@physx@@UEBA?AW4Enum@PxMeshMidPhase@2@XZ 0000000180013520 f i TriangleMeshBuilder.obj
 0001:00012530       ?growAndPushBack@?$Array@USortedNeighbor@GrbTrimeshCookerHelper@physx@@V?$ReflectionAllocator@USortedNeighbor@GrbTrimeshCookerHelper@physx@@@shdfnd@3@@shdfnd@physx@@IEAAAEAUSortedNeighbor@GrbTrimeshCookerHelper@3@AEBU453@@Z 0000000180013530 f i TriangleMeshBuilder.obj
 0001:00012620       ?onMeshIndexFormatChange@TriangleMeshBuilder@physx@@UEAAXXZ 0000000180013620 f i TriangleMeshBuilder.obj
 0001:00012630       ?recreate@?$Array@USharpEdgeRange@GrbTrimeshCookerHelper@physx@@V?$ReflectionAllocator@USharpEdgeRange@GrbTrimeshCookerHelper@physx@@@shdfnd@3@@shdfnd@physx@@IEAAXI@Z 0000000180013630 f i TriangleMeshBuilder.obj
 0001:00012740       ?recreate@?$Array@USortedNeighbor@GrbTrimeshCookerHelper@physx@@V?$ReflectionAllocator@USortedNeighbor@GrbTrimeshCookerHelper@physx@@@shdfnd@3@@shdfnd@physx@@IEAAXI@Z 0000000180013740 f i TriangleMeshBuilder.obj
 0001:00012810       ?remap@RTreeCookerRemap@physx@@UEAAXPEAIII@Z 0000000180013810 f i TriangleMeshBuilder.obj
 0001:00012830       ?resize@?$Array@USharpEdgeRange@GrbTrimeshCookerHelper@physx@@V?$ReflectionAllocator@USharpEdgeRange@GrbTrimeshCookerHelper@physx@@@shdfnd@3@@shdfnd@physx@@QEAAXIAEBUSharpEdgeRange@GrbTrimeshCookerHelper@3@@Z 0000000180013830 f i TriangleMeshBuilder.obj
 0001:000128f0       ?resizeUninitialized@?$Array@USortedNeighbor@GrbTrimeshCookerHelper@physx@@V?$ReflectionAllocator@USortedNeighbor@GrbTrimeshCookerHelper@physx@@@shdfnd@3@@shdfnd@physx@@QEAAXI@Z 00000001800138f0 f i TriangleMeshBuilder.obj
 0001:00012930       ??0BigConvexDataBuilder@physx@@QEAA@PEBUConvexHullData@Gu@1@PEAVBigConvexData@1@PEBVPxVec3@1@@Z 0000000180013930 f   BigConvexDataBuilder.obj
 0001:00012950       ??1BigConvexDataBuilder@physx@@QEAA@XZ 0000000180013950 f   BigConvexDataBuilder.obj
 0001:00012960       ?precompute@BigConvexDataBuilder@physx@@QEAA_NI@Z 0000000180013960 f   BigConvexDataBuilder.obj
 0001:000135a0       ?initialize@BigConvexDataBuilder@physx@@QEAA_NXZ 00000001800145a0 f   BigConvexDataBuilder.obj
 0001:00013640       ?save@BigConvexDataBuilder@physx@@QEBA_NAEAVPxOutputStream@2@_N@Z 0000000180014640 f   BigConvexDataBuilder.obj
 0001:00013730       ?computeValencies@BigConvexDataBuilder@physx@@QEAA_NAEBVConvexHullBuilder@2@@Z 0000000180014730 f   BigConvexDataBuilder.obj
 0001:00013b20       ?saveValencies@BigConvexDataBuilder@physx@@QEBA_NAEAVPxOutputStream@2@_N@Z 0000000180014b20 f   BigConvexDataBuilder.obj
 0001:00013cc0       ??0BigConvexData@physx@@QEAA@W4PxEMPTY@1@@Z 0000000180014cc0 f i BigConvexDataBuilder.obj
 0001:00013cd0       ??4BigConvexData@physx@@QEAAAEAV01@AEBV01@@Z 0000000180014cd0 f i BigConvexDataBuilder.obj
 0001:00013cf0       ?GetAdjacentVerts@BigConvexData@physx@@QEBAPEBEXZ 0000000180014cf0 f i BigConvexDataBuilder.obj
 0001:00013d00       ?GetNbNeighbors@BigConvexData@physx@@QEBAGI@Z 0000000180014d00 f i BigConvexDataBuilder.obj
 0001:00013d10       ?GetNbSamples@BigConvexData@physx@@QEBAIXZ 0000000180014d10 f i BigConvexDataBuilder.obj
 0001:00013d20       ?GetNbVerts@BigConvexData@physx@@QEBAIXZ 0000000180014d20 f i BigConvexDataBuilder.obj
 0001:00013d30       ?GetNeighbors@BigConvexData@physx@@QEBAPEBEI@Z 0000000180014d30 f i BigConvexDataBuilder.obj
 0001:00013d40       ?GetOffset@BigConvexData@physx@@QEBAGI@Z 0000000180014d40 f i BigConvexDataBuilder.obj
 0001:00013d50       ?GetSubdiv@BigConvexData@physx@@QEBAIXZ 0000000180014d50 f i BigConvexDataBuilder.obj
 0001:00013d60       ?GetValencies@BigConvexData@physx@@QEBAPEBUValency@Gu@2@XZ 0000000180014d60 f i BigConvexDataBuilder.obj
 0001:00013d70       ?GetValency@BigConvexData@physx@@QEBAGI@Z 0000000180014d70 f i BigConvexDataBuilder.obj
 0001:00013d80       ??0ConvexHullBuilder@physx@@QEAA@PEAUConvexHullData@Gu@1@_N@Z 0000000180014d80 f   ConvexHullBuilder.obj
 0001:00013db0       ??1ConvexHullBuilder@physx@@QEAA@XZ 0000000180014db0 f   ConvexHullBuilder.obj
 0001:00013ec0       ?init@ConvexHullBuilder@physx@@QEAA_NIPEBVPxVec3@2@PEBIIIPEBUPxHullPolygon@2@_NPEAVConvexHullLib@2@@Z 0000000180014ec0 f   ConvexHullBuilder.obj
 0001:00014810       ?save@ConvexHullBuilder@physx@@QEBA_NAEAVPxOutputStream@2@_N@Z 0000000180015810 f   ConvexHullBuilder.obj
 0001:00014b30       ?copy@ConvexHullBuilder@physx@@QEAA_NAEAUConvexHullData@Gu@2@AEAI@Z 0000000180015b30 f   ConvexHullBuilder.obj
 0001:00014da0       ?createEdgeList@ConvexHullBuilder@physx@@QEAA_N_NI@Z 0000000180015da0 f   ConvexHullBuilder.obj
 0001:00015600       ?checkHullPolygons@ConvexHullBuilder@physx@@QEBA_NXZ 0000000180016600 f   ConvexHullBuilder.obj
 0001:00015bf0       ?calculateVertexMapTable@ConvexHullBuilder@physx@@QEAA_NI_N@Z 0000000180016bf0 f   ConvexHullBuilder.obj
 0001:00015e00       ?computeGeomCenter@ConvexHullBuilder@physx@@IEBA_NAEAVPxVec3@2@IPEAUHullTriangleData@2@@Z 0000000180016e00 f   ConvexHullBuilder.obj
 0001:000160c0       ??$?_UE@@YAPEAX_KV?$ReflectionAllocator@E@shdfnd@physx@@PEBDH@Z 00000001800170c0 f i ConvexHullBuilder.obj
 0001:00016160       ??1ConvexHullLib@physx@@UEAA@XZ 0000000180017160 f   ConvexHullLib.obj
 0001:000161c0       ?cleanupVertices@ConvexHullLib@physx@@IEAA_NIPEBVPxVec3@2@IAEAIPEAV32@AEAV32@3@Z 00000001800171c0 f   ConvexHullLib.obj
 0001:00016650       ?shiftAndcleanupVertices@ConvexHullLib@physx@@IEAA_NIPEBVPxVec3@2@IAEAIPEAV32@AEAV32@3@Z 0000000180017650 f   ConvexHullLib.obj
 0001:00016b00       ?swapLargestFace@ConvexHullLib@physx@@IEAAXAEAVPxConvexMeshDesc@2@@Z 0000000180017b00 f   ConvexHullLib.obj
 0001:00016cf0       ?shiftConvexMeshDesc@ConvexHullLib@physx@@IEAAXAEAVPxConvexMeshDesc@2@@Z 0000000180017cf0 f   ConvexHullLib.obj
 0001:00016db0       ??_EConvexHullLib@physx@@UEAAPEAXI@Z 0000000180017db0 f i ConvexHullLib.obj
 0001:00016db0       ??_GConvexHullLib@physx@@UEAAPEAXI@Z 0000000180017db0 f i ConvexHullLib.obj
 0001:00017310       ??0ConvexHull@physx@@QEAA@AEBVPxVec3@1@0AEBV?$Array@VPxPlane@physx@@V?$ReflectionAllocator@VPxPlane@physx@@@shdfnd@2@@shdfnd@1@@Z 0000000180018310 f   ConvexHullUtils.obj
 0001:00017ce0       ??0ConvexHull@physx@@QEAA@AEBVPxVec3@1@AEBVPxTransform@1@AEBV?$Array@VPxPlane@physx@@V?$ReflectionAllocator@VPxPlane@physx@@@shdfnd@2@@shdfnd@1@@Z 0000000180018ce0 f   ConvexHullUtils.obj
 0001:00018e30       ?findCandidatePlane@ConvexHull@physx@@QEBAHMM@Z 0000000180019e30 f   ConvexHullUtils.obj
 0001:00019280       ?assertIntact@ConvexHull@physx@@QEBA_NM@Z 000000018001a280 f   ConvexHullUtils.obj
 0001:000195a0       ?maxNumVertsPerFace@ConvexHull@physx@@QEBAIXZ 000000018001a5a0 f   ConvexHullUtils.obj
 0001:00019620       ?convexHullCrop@physx@@YAPEAVConvexHull@1@AEBV21@AEBVPxPlane@1@M@Z 000000018001a620 f   ConvexHullUtils.obj
 0001:0001a420       ?computeOBBFromConvex@physx@@YA_NAEBVPxConvexMeshDesc@1@AEAVPxVec3@1@AEAVPxTransform@1@@Z 000000018001b420 f   ConvexHullUtils.obj
 0001:0001ab00       ?computeOBBSIMD@local@@YAXIPEBT__m128@@AEAT2@AEBT2@1@Z 000000018001bb00 f   ConvexHullUtils.obj
 0001:0001aee0       ??0Box@Gu@physx@@QEAA@AEBV012@@Z 000000018001bee0 f i ConvexHullUtils.obj
 0001:0001af40       ??0Box@Gu@physx@@QEAA@AEBVPxVec3@2@0AEBVPxMat33@2@@Z 000000018001bf40 f i ConvexHullUtils.obj
 0001:0001afb0       ??0Box@Gu@physx@@QEAA@XZ   000000018001bfb0 f i ConvexHullUtils.obj
 0001:0001afc0       ??0HalfEdge@ConvexHull@physx@@QEAA@XZ 000000018001bfc0 f i ConvexHullUtils.obj
 0001:0001afd0       ??0PxPlane@physx@@QEAA@XZ  000000018001bfd0 f i ConvexHullUtils.obj
 0001:0001afe0       ??0PxQuat@physx@@QEAA@AEBVPxMat33@1@@Z 000000018001bfe0 f i ConvexHullUtils.obj
 0001:0001b1e0       ??1Box@Gu@physx@@QEAA@XZ   000000018001c1e0 f i ConvexHullUtils.obj
 0001:0001b1f0       ??4Box@Gu@physx@@QEAAAEBV012@AEBV012@@Z 000000018001c1f0 f i ConvexHullUtils.obj
 0001:0001b250       ?allocate@?$Array@VHalfEdge@ConvexHull@physx@@V?$ReflectionAllocator@VHalfEdge@ConvexHull@physx@@@shdfnd@3@@shdfnd@physx@@IEAAPEAVHalfEdge@ConvexHull@3@I@Z 000000018001c250 f i ConvexHullUtils.obj
 0001:0001b2f0       ?allocate@?$Array@VPxPlane@physx@@V?$ReflectionAllocator@VPxPlane@physx@@@shdfnd@2@@shdfnd@physx@@IEAAPEAVPxPlane@3@I@Z 000000018001c2f0 f i ConvexHullUtils.obj
 0001:0001b390       ?computeAABBExtent@Box@Gu@physx@@QEBA?AVPxVec3@3@XZ 000000018001c390 f i ConvexHullUtils.obj
 0001:0001b450       ?computeBoxPoints@Box@Gu@physx@@QEBAXPEIAVPxVec3@3@@Z 000000018001c450 f i ConvexHullUtils.obj
 0001:0001b490       ?copy@?$Array@VPxPlane@physx@@V?$ReflectionAllocator@VPxPlane@physx@@@shdfnd@2@@shdfnd@physx@@KAXPEAVPxPlane@3@0PEBV43@@Z 000000018001c490 f i ConvexHullUtils.obj
 0001:0001b590       ?getInverse@PxMat33@physx@@QEBA?BV12@XZ 000000018001c590 f i ConvexHullUtils.obj
 0001:0001b7e0       ?getTransform@Box@Gu@physx@@QEBA?AVPxTransform@3@XZ 000000018001c7e0 f i ConvexHullUtils.obj
 0001:0001b840       ?growAndPushBack@?$Array@VHalfEdge@ConvexHull@physx@@V?$ReflectionAllocator@VHalfEdge@ConvexHull@physx@@@shdfnd@3@@shdfnd@physx@@IEAAAEAVHalfEdge@ConvexHull@3@AEBV453@@Z 000000018001c840 f i ConvexHullUtils.obj
 0001:0001b900       ?growAndPushBack@?$Array@VPxPlane@physx@@V?$ReflectionAllocator@VPxPlane@physx@@@shdfnd@2@@shdfnd@physx@@IEAAAEAVPxPlane@3@AEBV43@@Z 000000018001c900 f i ConvexHullUtils.obj
 0001:0001b9c0       ?isValid@Box@Gu@physx@@QEBA_NXZ 000000018001c9c0 f i ConvexHullUtils.obj
 0001:0001b9e0       ?recreate@?$Array@VHalfEdge@ConvexHull@physx@@V?$ReflectionAllocator@VHalfEdge@ConvexHull@physx@@@shdfnd@3@@shdfnd@physx@@IEAAXI@Z 000000018001c9e0 f i ConvexHullUtils.obj
 0001:0001ba80       ?recreate@?$Array@VPxPlane@physx@@V?$ReflectionAllocator@VPxPlane@physx@@@shdfnd@2@@shdfnd@physx@@IEAAXI@Z 000000018001ca80 f i ConvexHullUtils.obj
 0001:0001bb10       ?resize@?$Array@VHalfEdge@ConvexHull@physx@@V?$ReflectionAllocator@VHalfEdge@ConvexHull@physx@@@shdfnd@3@@shdfnd@physx@@QEAAXIAEBVHalfEdge@ConvexHull@3@@Z 000000018001cb10 f i ConvexHullUtils.obj
 0001:0001bbd0       ?resize@?$Array@VPxPlane@physx@@V?$ReflectionAllocator@VPxPlane@physx@@@shdfnd@2@@shdfnd@physx@@QEAAXIAEBVPxPlane@3@@Z 000000018001cbd0 f i ConvexHullUtils.obj
 0001:0001bcf0       ?resize@?$Array@VPxVec3@physx@@V?$ReflectionAllocator@VPxVec3@physx@@@shdfnd@2@@shdfnd@physx@@QEAAXIAEBVPxVec3@3@@Z 000000018001ccf0 f i ConvexHullUtils.obj
 0001:0001bde0       ?rotate@Box@Gu@physx@@QEBA?AVPxVec3@3@AEBV43@@Z 000000018001cde0 f i ConvexHullUtils.obj
 0001:0001be70       ?rotateInv@Box@Gu@physx@@QEBA?AVPxVec3@3@AEBV43@@Z 000000018001ce70 f i ConvexHullUtils.obj
 0001:0001bf00       ?setAxes@Box@Gu@physx@@QEAAXAEBVPxVec3@3@00@Z 000000018001cf00 f i ConvexHullUtils.obj
 0001:0001bf40       ?setEmpty@Box@Gu@physx@@QEAAXXZ 000000018001cf40 f i ConvexHullUtils.obj
 0001:0001bf80       ?transform@Box@Gu@physx@@QEBA?AVPxVec3@3@AEBV43@@Z 000000018001cf80 f i ConvexHullUtils.obj
 0001:0001c020       ??0ConvexMeshBuilder@physx@@QEAA@_N@Z 000000018001d020 f   ConvexMeshBuilder.obj
 0001:0001c090       ??1ConvexMeshBuilder@physx@@QEAA@XZ 000000018001d090 f   ConvexMeshBuilder.obj
 0001:0001c0f0       ?build@ConvexMeshBuilder@physx@@QEAA_NAEBVPxConvexMeshDesc@2@I_NPEAVConvexHullLib@2@@Z 000000018001d0f0 f   ConvexMeshBuilder.obj
 0001:0001c410       ?save@ConvexMeshBuilder@physx@@QEBA_NAEAVPxOutputStream@2@_N@Z 000000018001d410 f   ConvexMeshBuilder.obj
 0001:0001c630       ?copy@ConvexMeshBuilder@physx@@QEAA_NAEAUConvexHullInitData@Gu@2@@Z 000000018001d630 f   ConvexMeshBuilder.obj
 0001:0001c760       ?loadConvexHull@ConvexMeshBuilder@physx@@QEAA_NAEBVPxConvexMeshDesc@2@PEAVConvexHullLib@2@@Z 000000018001d760 f   ConvexMeshBuilder.obj
 0001:0001c9e0       ?computeHullPolygons@ConvexMeshBuilder@physx@@QEAA_NAEBIPEBVPxVec3@2@0PEBIAEAVPxAllocatorCallback@2@AEAIAEAPEAV32@4AEAPEAI4AEAPEAUPxHullPolygon@2@@Z 000000018001d9e0 f   ConvexMeshBuilder.obj
 0001:0001cc00       ?computeGaussMaps@ConvexMeshBuilder@physx@@QEAA_NXZ 000000018001dc00 f   ConvexMeshBuilder.obj
 0001:0001ccf0       ?computeMassInfo@ConvexMeshBuilder@physx@@QEAAX_N@Z 000000018001dcf0 f   ConvexMeshBuilder.obj
 0001:0001d0c0       ?computeInternalObjects@ConvexMeshBuilder@physx@@QEAAXXZ 000000018001e0c0 f   ConvexMeshBuilder.obj
 0001:0001d540       ?isFinite@PxVec3@physx@@QEBA_NXZ 000000018001e540 f i ConvexMeshBuilder.obj
 0001:0001d5a0       ??0ConvexPolygonsBuilder@physx@@QEAA@PEAUConvexHullData@Gu@1@_N@Z 000000018001e5a0 f   ConvexPolygonsBuilder.obj
 0001:0001d5d0       ??1ConvexPolygonsBuilder@physx@@QEAA@XZ 000000018001e5d0 f   ConvexPolygonsBuilder.obj
 0001:0001d620       ?computeHullPolygons@ConvexPolygonsBuilder@physx@@QEAA_NAEBIPEBVPxVec3@2@0PEBI@Z 000000018001e620 f   ConvexPolygonsBuilder.obj
 0001:0001e700       ?createPolygonData@ConvexPolygonsBuilder@physx@@AEAA_NXZ 000000018001f700 f   ConvexPolygonsBuilder.obj
 0001:0001f0c0       ?createTrianglesFromPolygons@ConvexPolygonsBuilder@physx@@AEAA_NXZ 00000001800200c0 f   ConvexPolygonsBuilder.obj
 0001:0001f9e0       ??$copy@V?$ReflectionAllocator@VPair@@@shdfnd@physx@@@?$Array@VPair@@V?$ReflectionAllocator@VPair@@@shdfnd@physx@@@shdfnd@physx@@IEAAXAEBV012@@Z 00000001800209e0 f i ConvexPolygonsBuilder.obj
 0001:00020260       ?allocate@?$Array@IV?$ReflectionAllocator@I@shdfnd@physx@@@shdfnd@physx@@IEAAPEAII@Z 0000000180021260 f i ConvexPolygonsBuilder.obj
 0001:00020300       ?allocate@?$Array@VPair@@V?$ReflectionAllocator@VPair@@@shdfnd@physx@@@shdfnd@physx@@IEAAPEAVPair@@I@Z 0000000180021300 f i ConvexPolygonsBuilder.obj
 0001:00021a90       ?growAndPushBack@?$Array@VPair@@V?$ReflectionAllocator@VPair@@@shdfnd@physx@@@shdfnd@physx@@IEAAAEAVPair@@AEBV4@@Z 0000000180022a90 f i ConvexPolygonsBuilder.obj
 0001:00021b60       ??0QuickHullConvexHullLib@physx@@QEAA@AEBVPxConvexMeshDesc@1@AEBUPxCookingParams@1@@Z 0000000180022b60 f   QuickHullConvexHullLib.obj
 0001:00021c50       ??1QuickHullConvexHullLib@physx@@UEAA@XZ 0000000180022c50 f   QuickHullConvexHullLib.obj
 0001:00021d20       ?createConvexHull@QuickHullConvexHullLib@physx@@UEAA?AW4Enum@PxConvexMeshCookingResult@2@XZ 0000000180022d20 f   QuickHullConvexHullLib.obj
 0001:00022130       ?fillConvexMeshDesc@QuickHullConvexHullLib@physx@@UEAAXAEAVPxConvexMeshDesc@2@@Z 0000000180023130 f   QuickHullConvexHullLib.obj
 0001:00022180       ?createEdgeList@QuickHullConvexHullLib@physx@@UEAA_NIPEBEPEAPEAEPEAPEAG2@Z 0000000180023180 f   QuickHullConvexHullLib.obj
 0001:000223d0       ?expandHullOBB@QuickHullConvexHullLib@physx@@IEAA?AW4Enum@PxConvexMeshCookingResult@2@XZ 00000001800233d0 f   QuickHullConvexHullLib.obj
 0001:000227e0       ?expandHull@QuickHullConvexHullLib@physx@@IEAA?AW4Enum@PxConvexMeshCookingResult@2@XZ 00000001800237e0 f   QuickHullConvexHullLib.obj
 0001:00023120       ?cleanupForSimplex@QuickHullConvexHullLib@physx@@IEAA_NPEAVPxVec3@2@IPEAUQuickHullVertex@local@@1AEAM2@Z 0000000180024120 f   QuickHullConvexHullLib.obj
 0001:00023d50       ?fillConvexMeshDescFromQuickHull@QuickHullConvexHullLib@physx@@IEAAXAEAVPxConvexMeshDesc@2@@Z 0000000180024d50 f   QuickHullConvexHullLib.obj
 0001:000240d0       ?fillConvexMeshDescFromCroppedHull@QuickHullConvexHullLib@physx@@IEAAXAEAVPxConvexMeshDesc@2@@Z 00000001800250d0 f   QuickHullConvexHullLib.obj
 0001:000242d0       ?getOppositeFaceDistance@QuickHullHalfEdge@local@@QEBAMXZ 00000001800252d0 f   QuickHullConvexHullLib.obj
 0001:00024310       ?mergeAdjacentFace@QuickHullFace@local@@QEAA_NPEAUQuickHullHalfEdge@2@AEAV?$Array@PEAUQuickHullFace@local@@V?$ReflectionAllocator@PEAUQuickHullFace@local@@@shdfnd@physx@@@shdfnd@physx@@@Z 0000000180025310 f   QuickHullConvexHullLib.obj
 0001:00024760       ?checkFaceConsistency@QuickHullFace@local@@QEAA_NXZ 0000000180025760 f   QuickHullConvexHullLib.obj
 0001:00024770       ?connectHalfEdges@QuickHullFace@local@@AEAAPEAU12@PEAUQuickHullHalfEdge@2@0@Z 0000000180025770 f   QuickHullConvexHullLib.obj
 0001:00024af0       ??0QuickHull@local@@QEAA@AEBUPxCookingParams@physx@@AEBVPxConvexMeshDesc@3@@Z 0000000180025af0 f   QuickHullConvexHullLib.obj
 0001:00024ba0       ??1QuickHull@local@@QEAA@XZ 0000000180025ba0 f   QuickHullConvexHullLib.obj
 0001:00024cf0       ?preallocate@QuickHull@local@@QEAAXI@Z 0000000180025cf0 f   QuickHullConvexHullLib.obj
 0001:00024e30       ?parseInputVertices@QuickHull@local@@QEAAXPEBVPxVec3@physx@@I@Z 0000000180025e30 f   QuickHullConvexHullLib.obj
 0001:00024fb0       ?releaseHull@QuickHull@local@@QEAAXXZ 0000000180025fb0 f   QuickHullConvexHullLib.obj
 0001:00025010       ?setPrecomputedMinMax@QuickHull@local@@QEAAXPEBUQuickHullVertex@2@0MM@Z 0000000180026010 f   QuickHullConvexHullLib.obj
 0001:000251a0       ?buildHull@QuickHull@local@@QEAA?AW4Enum@QuickHullResult@2@XZ 00000001800261a0 f   QuickHullConvexHullLib.obj
 0001:000253c0       ?maxNumVertsPerFace@QuickHull@local@@QEBAIXZ 00000001800263c0 f   QuickHullConvexHullLib.obj
 0001:00025400       ?computeMinMaxVerts@QuickHull@local@@IEAAXXZ 0000000180026400 f   QuickHullConvexHullLib.obj
 0001:000257e0       ?findSimplex@QuickHull@local@@IEAA_NXZ 00000001800267e0 f   QuickHullConvexHullLib.obj
 0001:00026490       ?addSimplex@QuickHull@local@@IEAAXPEAUQuickHullVertex@2@_N@Z 0000000180027490 f   QuickHullConvexHullLib.obj
 0001:00026960       ?nextPointToAdd@QuickHull@local@@IEAAPEAUQuickHullVertex@2@AEAPEAUQuickHullFace@2@@Z 0000000180027960 f   QuickHullConvexHullLib.obj
 0001:00026ae0       ?addPointToHull@QuickHull@local@@IEAA_NPEBUQuickHullVertex@2@AEAUQuickHullFace@2@AEA_N@Z 0000000180027ae0 f   QuickHullConvexHullLib.obj
 0001:00026db0       ?createTriangle@QuickHull@local@@IEAAPEAUQuickHullFace@2@AEBUQuickHullVertex@2@00@Z 0000000180027db0 f   QuickHullConvexHullLib.obj
 0001:000271a0       ?addPointToFace@QuickHull@local@@IEAAXAEAUQuickHullFace@2@PEAUQuickHullVertex@2@M@Z 00000001800281a0 f   QuickHullConvexHullLib.obj
 0001:000271f0       ?removeEyePointFromFace@QuickHull@local@@IEAAXAEAUQuickHullFace@2@PEBUQuickHullVertex@2@@Z 00000001800281f0 f   QuickHullConvexHullLib.obj
 0001:00027210       ?calculateHorizon@QuickHull@local@@IEAAXAEBVPxVec3@physx@@PEAUQuickHullHalfEdge@2@AEAUQuickHullFace@2@AEAV?$Array@PEAUQuickHullHalfEdge@local@@V?$ReflectionAllocator@PEAUQuickHullHalfEdge@local@@@shdfnd@physx@@@shdfnd@4@AEAV?$Array@PEAUQuickHullFace@local@@V?$ReflectionAllocator@PEAUQuickHullFace@local@@@shdfnd@physx@@@84@@Z 0000000180028210 f   QuickHullConvexHullLib.obj
 0001:000273d0       ?addNewFacesFromHorizon@QuickHull@local@@IEAAXPEBUQuickHullVertex@2@AEBV?$Array@PEAUQuickHullHalfEdge@local@@V?$ReflectionAllocator@PEAUQuickHullHalfEdge@local@@@shdfnd@physx@@@shdfnd@physx@@AEAV?$Array@PEAUQuickHullFace@local@@V?$ReflectionAllocator@PEAUQuickHullFace@local@@@shdfnd@physx@@@56@@Z 00000001800283d0 f   QuickHullConvexHullLib.obj
 0001:00027520       ?doAdjacentMerge@QuickHull@local@@IEAA_NAEAUQuickHullFace@2@_NAEA_N@Z 0000000180028520 f   QuickHullConvexHullLib.obj
 0001:00027870       ?doPostAdjacentMerge@QuickHull@local@@IEAA_NAEAUQuickHullFace@2@M@Z 0000000180028870 f   QuickHullConvexHullLib.obj
 0001:00027a90       ?deleteFacePoints@QuickHull@local@@IEAAXAEAUQuickHullFace@2@PEAU32@@Z 0000000180028a90 f   QuickHullConvexHullLib.obj
 0001:00027bb0       ?resolveUnclaimedPoints@QuickHull@local@@IEAAXAEBV?$Array@PEAUQuickHullFace@local@@V?$ReflectionAllocator@PEAUQuickHullFace@local@@@shdfnd@physx@@@shdfnd@physx@@@Z 0000000180028bb0 f   QuickHullConvexHullLib.obj
 0001:00027e30       ?postMergeHull@QuickHull@local@@IEAAXXZ 0000000180028e30 f   QuickHullConvexHullLib.obj
 0001:00028090       ?canMergeFaces@QuickHull@local@@IEAA_NAEBUQuickHullHalfEdge@2@@Z 0000000180029090 f   QuickHullConvexHullLib.obj
 0001:000288c0       ?getExpandPoint@local@@YAXAEBUQuickHullHalfEdge@1@AEAUExpandPoint@1@PEBV?$Array@IV?$ReflectionAllocator@I@shdfnd@physx@@@shdfnd@physx@@@Z 00000001800298c0 f   QuickHullConvexHullLib.obj
 0001:00028990       ?addExpandPoint@local@@YAXAEBUExpandPoint@1@AEAV?$Array@UExpandPoint@local@@V?$ReflectionAllocator@UExpandPoint@local@@@shdfnd@physx@@@shdfnd@physx@@@Z 0000000180029990 f   QuickHullConvexHullLib.obj
 0001:00028a60       ??0PxPlane@physx@@QEAA@AEBV01@@Z 0000000180029a60 f i QuickHullConvexHullLib.obj
 0001:00028a80       ??0QuickHullVertex@local@@QEAA@XZ 0000000180029a80 f i QuickHullConvexHullLib.obj
 0001:00028a90       ??1?$MemBlock@UQuickHullFace@local@@$00@local@@QEAA@XZ 0000000180029a90 f i QuickHullConvexHullLib.obj
 0001:00028b20       ??1?$MemBlock@UQuickHullHalfEdge@local@@$0A@@local@@QEAA@XZ 0000000180029b20 f i QuickHullConvexHullLib.obj
 0001:00028bb0       ??_GConvexHull@physx@@QEAAPEAXI@Z 0000000180029bb0 f i QuickHullConvexHullLib.obj
 0001:00028c90       ??_EQuickHullConvexHullLib@physx@@UEAAPEAXI@Z 0000000180029c90 f i QuickHullConvexHullLib.obj
 0001:00028c90       ??_GQuickHullConvexHullLib@physx@@UEAAPEAXI@Z 0000000180029c90 f i QuickHullConvexHullLib.obj
 0001:00028d90       ??__G@YAXPEAX0_K1P6APEAX00@Z@Z 0000000180029d90 f i QuickHullConvexHullLib.obj
 0001:00028df0       ?allocate@?$Array@PEAUQuickHullFace@local@@V?$ReflectionAllocator@PEAUQuickHullFace@local@@@shdfnd@physx@@@shdfnd@physx@@IEAAPEAPEAUQuickHullFace@local@@I@Z 0000000180029df0 f i QuickHullConvexHullLib.obj
 0001:00028e90       ?allocate@?$Array@PEAUQuickHullHalfEdge@local@@V?$ReflectionAllocator@PEAUQuickHullHalfEdge@local@@@shdfnd@physx@@@shdfnd@physx@@IEAAPEAPEAUQuickHullHalfEdge@local@@I@Z 0000000180029e90 f i QuickHullConvexHullLib.obj
 0001:00028f30       ?allocate@?$Array@PEAUQuickHullVertex@local@@V?$ReflectionAllocator@PEAUQuickHullVertex@local@@@shdfnd@physx@@@shdfnd@physx@@IEAAPEAPEAUQuickHullVertex@local@@I@Z 0000000180029f30 f i QuickHullConvexHullLib.obj
 0001:00028fd0       ?allocate@?$Array@UExpandPoint@local@@V?$ReflectionAllocator@UExpandPoint@local@@@shdfnd@physx@@@shdfnd@physx@@IEAAPEAUExpandPoint@local@@I@Z 0000000180029fd0 f i QuickHullConvexHullLib.obj
 0001:00029070       ?copy@?$Array@UExpandPoint@local@@V?$ReflectionAllocator@UExpandPoint@local@@@shdfnd@physx@@@shdfnd@physx@@KAXPEAUExpandPoint@local@@0PEBU45@@Z 000000018002a070 f i QuickHullConvexHullLib.obj
 0001:00029120       ?getFreeItem@?$MemBlock@UQuickHullFace@local@@$00@local@@QEAAPEAUQuickHullFace@2@XZ 000000018002a120 f i QuickHullConvexHullLib.obj
 0001:00029250       ?getFreeItem@?$MemBlock@UQuickHullHalfEdge@local@@$0A@@local@@QEAAPEAUQuickHullHalfEdge@2@XZ 000000018002a250 f i QuickHullConvexHullLib.obj
 0001:00029320       ?growAndPushBack@?$Array@PEAUQuickHullFace@local@@V?$ReflectionAllocator@PEAUQuickHullFace@local@@@shdfnd@physx@@@shdfnd@physx@@IEAAAEAPEAUQuickHullFace@local@@AEBQEAU45@@Z 000000018002a320 f i QuickHullConvexHullLib.obj
 0001:000293e0       ?growAndPushBack@?$Array@PEAUQuickHullHalfEdge@local@@V?$ReflectionAllocator@PEAUQuickHullHalfEdge@local@@@shdfnd@physx@@@shdfnd@physx@@IEAAAEAPEAUQuickHullHalfEdge@local@@AEBQEAU45@@Z 000000018002a3e0 f i QuickHullConvexHullLib.obj
 0001:000294a0       ?growAndPushBack@?$Array@PEAUQuickHullVertex@local@@V?$ReflectionAllocator@PEAUQuickHullVertex@local@@@shdfnd@physx@@@shdfnd@physx@@IEAAAEAPEAUQuickHullVertex@local@@AEBQEAU45@@Z 000000018002a4a0 f i QuickHullConvexHullLib.obj
 0001:00029560       ?growAndPushBack@?$Array@UExpandPoint@local@@V?$ReflectionAllocator@UExpandPoint@local@@@shdfnd@physx@@@shdfnd@physx@@IEAAAEAUExpandPoint@local@@AEBU45@@Z 000000018002a560 f i QuickHullConvexHullLib.obj
 0001:00029660       ?init@?$MemBlock@UQuickHullFace@local@@$00@local@@QEAAXI@Z 000000018002a660 f i QuickHullConvexHullLib.obj
 0001:00029750       ?init@?$MemBlock@UQuickHullHalfEdge@local@@$0A@@local@@QEAAXI@Z 000000018002a750 f i QuickHullConvexHullLib.obj
 0001:000297f0       ?recreate@?$Array@PEAUQuickHullFace@local@@V?$ReflectionAllocator@PEAUQuickHullFace@local@@@shdfnd@physx@@@shdfnd@physx@@IEAAXI@Z 000000018002a7f0 f i QuickHullConvexHullLib.obj
 0001:00029890       ?recreate@?$Array@PEAUQuickHullHalfEdge@local@@V?$ReflectionAllocator@PEAUQuickHullHalfEdge@local@@@shdfnd@physx@@@shdfnd@physx@@IEAAXI@Z 000000018002a890 f i QuickHullConvexHullLib.obj
 0001:00029930       ?recreate@?$Array@PEAUQuickHullVertex@local@@V?$ReflectionAllocator@PEAUQuickHullVertex@local@@@shdfnd@physx@@@shdfnd@physx@@IEAAXI@Z 000000018002a930 f i QuickHullConvexHullLib.obj
 0001:000299d0       ?recreate@?$Array@UExpandPoint@local@@V?$ReflectionAllocator@UExpandPoint@local@@@shdfnd@physx@@@shdfnd@physx@@IEAAXI@Z 000000018002a9d0 f i QuickHullConvexHullLib.obj
 0001:00029a60       ?computeVolumeIntegrals@physx@@YA_NAEBVPxSimpleTriangleMesh@1@MAEAUPxIntegrals@1@@Z 000000018002aa60 f   VolumeIntegration.obj
 0001:00029ad0       ?computeVolumeIntegralsEberly@physx@@YA_NAEBVPxConvexMeshDesc@1@MAEAUPxIntegrals@1@AEBVPxVec3@1@@Z 000000018002aad0 f   VolumeIntegration.obj
 0001:00029b20       ?computeVolumeIntegralsEberlySIMD@physx@@YA_NAEBVPxConvexMeshDesc@1@MAEAUPxIntegrals@1@AEBVPxVec3@1@@Z 000000018002ab20 f   VolumeIntegration.obj
 0001:0002bd50       PxSetPhysXCookingDelayLoadHook 000000018002cd50 f   WindowsCookingDelayLoadHook.obj
 0001:0002bd60       ?cookingDelayHook@@YAP6A_JXZIPEAUDelayLoadInfo@@@Z 000000018002cd60 f   WindowsCookingDelayLoadHook.obj
 0001:0002be38       __imp_load_??0RadixSortBuffered@Cm@physx@@QEAA@XZ 000000018002ce38 f   PhysXCommon_64:PhysXCommon_64.dll
 0001:0002be44       ??0RadixSortBuffered@Cm@physx@@QEAA@XZ 000000018002ce44 f   PhysXCommon_64:PhysXCommon_64.dll
 0001:0002be4a       __tailMerge_physxcommon_64_dll 000000018002ce4a     PhysXCommon_64:PhysXCommon_64.dll
 0001:0002bec3       __imp_load_??1RadixSortBuffered@Cm@physx@@UEAA@XZ 000000018002cec3 f   PhysXCommon_64:PhysXCommon_64.dll
 0001:0002becf       ??1RadixSortBuffered@Cm@physx@@UEAA@XZ 000000018002cecf f   PhysXCommon_64:PhysXCommon_64.dll
 0001:0002bed5       __imp_load_?Sort@RadixSortBuffered@Cm@physx@@QEAAAEAV123@PEBIIW4RadixHint@23@@Z 000000018002ced5 f   PhysXCommon_64:PhysXCommon_64.dll
 0001:0002bee1       ?Sort@RadixSortBuffered@Cm@physx@@QEAAAEAV123@PEBIIW4RadixHint@23@@Z 000000018002cee1 f   PhysXCommon_64:PhysXCommon_64.dll
 0001:0002bee7       __imp_load_?readDword@physx@@YAI_NAEAVPxInputStream@1@@Z 000000018002cee7 f   PhysXCommon_64:PhysXCommon_64.dll
 0001:0002bef3       ?readDword@physx@@YAI_NAEAVPxInputStream@1@@Z 000000018002cef3 f   PhysXCommon_64:PhysXCommon_64.dll
 0001:0002bef9       __imp_load_?ReadHeader@Gu@physx@@YA_NEEEEAEAIAEA_NAEAVPxInputStream@2@@Z 000000018002cef9 f   PhysXCommon_64:PhysXCommon_64.dll
 0001:0002bf05       ?ReadHeader@Gu@physx@@YA_NEEEEAEAIAEA_NAEAVPxInputStream@2@@Z 000000018002cf05 f   PhysXCommon_64:PhysXCommon_64.dll
 0001:0002bf0b       __imp_load_??0HeightField@Gu@physx@@QEAA@PEAVGuMeshFactory@2@@Z 000000018002cf0b f   PhysXCommon_64:PhysXCommon_64.dll
 0001:0002bf17       ??0HeightField@Gu@physx@@QEAA@PEAVGuMeshFactory@2@@Z 000000018002cf17 f   PhysXCommon_64:PhysXCommon_64.dll
 0001:0002bf1d       __imp_load_?loadFromDesc@HeightField@Gu@physx@@QEAA_NAEBVPxHeightFieldDesc@3@@Z 000000018002cf1d f   PhysXCommon_64:PhysXCommon_64.dll
 0001:0002bf29       ?loadFromDesc@HeightField@Gu@physx@@QEAA_NAEBVPxHeightFieldDesc@3@@Z 000000018002cf29 f   PhysXCommon_64:PhysXCommon_64.dll
 0001:0002bf2f       __imp_load_?computeCellCoordinates@HeightField@Gu@physx@@QEBAIMMAEAM0@Z 000000018002cf2f f   PhysXCommon_64:PhysXCommon_64.dll
 0001:0002bf3b       ?computeCellCoordinates@HeightField@Gu@physx@@QEBAIMMAEAM0@Z 000000018002cf3b f   PhysXCommon_64:PhysXCommon_64.dll
 0001:0002bf41       __imp_load_?releaseMemory@HeightField@Gu@physx@@QEAAXXZ 000000018002cf41 f   PhysXCommon_64:PhysXCommon_64.dll
 0001:0002bf4d       ?releaseMemory@HeightField@Gu@physx@@QEAAXXZ 000000018002cf4d f   PhysXCommon_64:PhysXCommon_64.dll
 0001:0002bf53       __imp_load_??1HeightField@Gu@physx@@UEAA@XZ 000000018002cf53 f   PhysXCommon_64:PhysXCommon_64.dll
 0001:0002bf5f       ??1HeightField@Gu@physx@@UEAA@XZ 000000018002cf5f f   PhysXCommon_64:PhysXCommon_64.dll
 0001:0002bf65       __imp_load_??0NodeAllocator@Gu@physx@@QEAA@XZ 000000018002cf65 f   PhysXCommon_64:PhysXCommon_64.dll
 0001:0002bf71       ??0NodeAllocator@Gu@physx@@QEAA@XZ 000000018002cf71 f   PhysXCommon_64:PhysXCommon_64.dll
 0001:0002bf77       __imp_load_??1NodeAllocator@Gu@physx@@QEAA@XZ 000000018002cf77 f   PhysXCommon_64:PhysXCommon_64.dll
 0001:0002bf83       ??1NodeAllocator@Gu@physx@@QEAA@XZ 000000018002cf83 f   PhysXCommon_64:PhysXCommon_64.dll
 0001:0002bf89       __imp_load_?release@NodeAllocator@Gu@physx@@QEAAXXZ 000000018002cf89 f   PhysXCommon_64:PhysXCommon_64.dll
 0001:0002bf95       ?release@NodeAllocator@Gu@physx@@QEAAXXZ 000000018002cf95 f   PhysXCommon_64:PhysXCommon_64.dll
 0001:0002bf9b       __imp_load_?buildAABBTree@Gu@physx@@YA_NAEAVAABBTreeBuildParams@12@AEAVNodeAllocator@12@AEAUBuildStats@12@AEAPEAI@Z 000000018002cf9b f   PhysXCommon_64:PhysXCommon_64.dll
 0001:0002bfa7       ?buildAABBTree@Gu@physx@@YA_NAEAVAABBTreeBuildParams@12@AEAVNodeAllocator@12@AEAUBuildStats@12@AEAPEAI@Z 000000018002cfa7 f   PhysXCommon_64:PhysXCommon_64.dll
 0001:0002bfad       __imp_load_?writeDword@physx@@YAXI_NAEAVPxOutputStream@1@@Z 000000018002cfad f   PhysXCommon_64:PhysXCommon_64.dll
 0001:0002bfb9       ?writeDword@physx@@YAXI_NAEAVPxOutputStream@1@@Z 000000018002cfb9 f   PhysXCommon_64:PhysXCommon_64.dll
 0001:0002bfbf       __imp_load_?writeFloatBuffer@physx@@YAXPEBMI_NAEAVPxOutputStream@1@@Z 000000018002cfbf f   PhysXCommon_64:PhysXCommon_64.dll
 0001:0002bfcb       ?writeFloatBuffer@physx@@YAXPEBMI_NAEAVPxOutputStream@1@@Z 000000018002cfcb f   PhysXCommon_64:PhysXCommon_64.dll
 0001:0002bfd1       __imp_load_?writeHeader@physx@@YA_NCCCCI_NAEAVPxOutputStream@1@@Z 000000018002cfd1 f   PhysXCommon_64:PhysXCommon_64.dll
 0001:0002bfdd       ?writeHeader@physx@@YA_NCCCCI_NAEAVPxOutputStream@1@@Z 000000018002cfdd f   PhysXCommon_64:PhysXCommon_64.dll
 0001:0002bfe3       __imp_load_?writeWord@physx@@YAXG_NAEAVPxOutputStream@1@@Z 000000018002cfe3 f   PhysXCommon_64:PhysXCommon_64.dll
 0001:0002bfef       ?writeWord@physx@@YAXG_NAEAVPxOutputStream@1@@Z 000000018002cfef f   PhysXCommon_64:PhysXCommon_64.dll
 0001:0002bff5       __imp_load_?writeFloat@physx@@YAXM_NAEAVPxOutputStream@1@@Z 000000018002cff5 f   PhysXCommon_64:PhysXCommon_64.dll
 0001:0002c001       ?writeFloat@physx@@YAXM_NAEAVPxOutputStream@1@@Z 000000018002d001 f   PhysXCommon_64:PhysXCommon_64.dll
 0001:0002c007       __imp_load_?computeBoundsAroundVertices@Gu@physx@@YAXAEAVPxBounds3@2@IPEIBVPxVec3@2@@Z 000000018002d007 f   PhysXCommon_64:PhysXCommon_64.dll
 0001:0002c013       ?computeBoundsAroundVertices@Gu@physx@@YAXAEAVPxBounds3@2@IPEIBVPxVec3@2@@Z 000000018002d013 f   PhysXCommon_64:PhysXCommon_64.dll
 0001:0002c019       __imp_load_??0SourceMesh@Gu@physx@@QEAA@XZ 000000018002d019 f   PhysXCommon_64:PhysXCommon_64.dll
 0001:0002c025       ??0SourceMesh@Gu@physx@@QEAA@XZ 000000018002d025 f   PhysXCommon_64:PhysXCommon_64.dll
 0001:0002c02b       __imp_load_??1SourceMesh@Gu@physx@@QEAA@XZ 000000018002d02b f   PhysXCommon_64:PhysXCommon_64.dll
 0001:0002c037       ??1SourceMesh@Gu@physx@@QEAA@XZ 000000018002d037 f   PhysXCommon_64:PhysXCommon_64.dll
 0001:0002c03d       __imp_load_??0BV4Tree@Gu@physx@@QEAA@XZ 000000018002d03d f   PhysXCommon_64:PhysXCommon_64.dll
 0001:0002c049       ??0BV4Tree@Gu@physx@@QEAA@XZ 000000018002d049 f   PhysXCommon_64:PhysXCommon_64.dll
 0001:0002c04f       __imp_load_??1BV4Tree@Gu@physx@@QEAA@XZ 000000018002d04f f   PhysXCommon_64:PhysXCommon_64.dll
 0001:0002c05b       ??1BV4Tree@Gu@physx@@QEAA@XZ 000000018002d05b f   PhysXCommon_64:PhysXCommon_64.dll
 0001:0002c061       __imp_load_??0BV32Tree@Gu@physx@@QEAA@XZ 000000018002d061 f   PhysXCommon_64:PhysXCommon_64.dll
 0001:0002c06d       ??0BV32Tree@Gu@physx@@QEAA@XZ 000000018002d06d f   PhysXCommon_64:PhysXCommon_64.dll
 0001:0002c073       __imp_load_??1BV32Tree@Gu@physx@@QEAA@XZ 000000018002d073 f   PhysXCommon_64:PhysXCommon_64.dll
 0001:0002c07f       ??1BV32Tree@Gu@physx@@QEAA@XZ 000000018002d07f f   PhysXCommon_64:PhysXCommon_64.dll
 0001:0002c085       __imp_load_?writeWordBuffer@physx@@YAXPEBGI_NAEAVPxOutputStream@1@@Z 000000018002d085 f   PhysXCommon_64:PhysXCommon_64.dll
 0001:0002c091       ?writeWordBuffer@physx@@YAXPEBGI_NAEAVPxOutputStream@1@@Z 000000018002d091 f   PhysXCommon_64:PhysXCommon_64.dll
 0001:0002c097       __imp_load_?computeMaxIndex@physx@@YAIPEBII@Z 000000018002d097 f   PhysXCommon_64:PhysXCommon_64.dll
 0001:0002c0a3       ?computeMaxIndex@physx@@YAIPEBII@Z 000000018002d0a3 f   PhysXCommon_64:PhysXCommon_64.dll
 0001:0002c0a9       __imp_load_?storeIndices@physx@@YAXIIPEBIAEAVPxOutputStream@1@_N@Z 000000018002d0a9 f   PhysXCommon_64:PhysXCommon_64.dll
 0001:0002c0b5       ?storeIndices@physx@@YAXIIPEBIAEAVPxOutputStream@1@_N@Z 000000018002d0b5 f   PhysXCommon_64:PhysXCommon_64.dll
 0001:0002c0bb       __imp_load_?BuildBV4Ex@Gu@physx@@YA_NAEAVBV4Tree@12@AEAVSourceMesh@12@MI@Z 000000018002d0bb f   PhysXCommon_64:PhysXCommon_64.dll
 0001:0002c0c7       ?BuildBV4Ex@Gu@physx@@YA_NAEAVBV4Tree@12@AEAVSourceMesh@12@MI@Z 000000018002d0c7 f   PhysXCommon_64:PhysXCommon_64.dll
 0001:0002c0cd       __imp_load_?BuildBV32Ex@Gu@physx@@YA_NAEAVBV32Tree@12@AEAVSourceMesh@12@MI@Z 000000018002d0cd f   PhysXCommon_64:PhysXCommon_64.dll
 0001:0002c0d9       ?BuildBV32Ex@Gu@physx@@YA_NAEAVBV32Tree@12@AEAVSourceMesh@12@MI@Z 000000018002d0d9 f   PhysXCommon_64:PhysXCommon_64.dll
 0001:0002c0df       __imp_load_?computeMaxIndex@physx@@YAGPEBGI@Z 000000018002d0df f   PhysXCommon_64:PhysXCommon_64.dll
 0001:0002c0eb       ?computeMaxIndex@physx@@YAGPEBGI@Z 000000018002d0eb f   PhysXCommon_64:PhysXCommon_64.dll
 0001:0002c0f1       __imp_load_?WriteHeader@Gu@physx@@YA_NEEEEI_NAEAVPxOutputStream@2@@Z 000000018002d0f1 f   PhysXCommon_64:PhysXCommon_64.dll
 0001:0002c0fd       ?WriteHeader@Gu@physx@@YA_NEEEEI_NAEAVPxOutputStream@2@@Z 000000018002d0fd f   PhysXCommon_64:PhysXCommon_64.dll
 0001:0002c103       __imp_load_?StoreIndices@Gu@physx@@YAXGIPEBGAEAVPxOutputStream@2@_N@Z 000000018002d103 f   PhysXCommon_64:PhysXCommon_64.dll
 0001:0002c10f       ?StoreIndices@Gu@physx@@YAXGIPEBGAEAVPxOutputStream@2@_N@Z 000000018002d10f f   PhysXCommon_64:PhysXCommon_64.dll
 0001:0002c115       __imp_load_?CreateOffsets@BigConvexData@physx@@IEAAXXZ 000000018002d115 f   PhysXCommon_64:PhysXCommon_64.dll
 0001:0002c121       ?CreateOffsets@BigConvexData@physx@@IEAAXXZ 000000018002d121 f   PhysXCommon_64:PhysXCommon_64.dll
 0001:0002c127       __imp_load_?computeOBBPoints@Gu@physx@@YAXPEIAVPxVec3@2@AEBV32@1111@Z 000000018002d127 f   PhysXCommon_64:PhysXCommon_64.dll
 0001:0002c133       ?computeOBBPoints@Gu@physx@@YAXPEIAVPxVec3@2@AEBV32@1111@Z 000000018002d133 f   PhysXCommon_64:PhysXCommon_64.dll
 0001:0002c139       __imp_load_??0BigConvexData@physx@@QEAA@XZ 000000018002d139 f   PhysXCommon_64:PhysXCommon_64.dll
 0001:0002c145       ??0BigConvexData@physx@@QEAA@XZ 000000018002d145 f   PhysXCommon_64:PhysXCommon_64.dll
 0001:0002c14b       __imp_load_??1BigConvexData@physx@@QEAA@XZ 000000018002d14b f   PhysXCommon_64:PhysXCommon_64.dll
 0001:0002c157       ??1BigConvexData@physx@@QEAA@XZ 000000018002d157 f   PhysXCommon_64:PhysXCommon_64.dll
 0001:0002c15d       __imp_load_PxGetFoundation 000000018002d15d f   PhysXFoundation_64:PhysXFoundation_64.dll
 0001:0002c169       PxGetFoundation            000000018002d169 f   PhysXFoundation_64:PhysXFoundation_64.dll
 0001:0002c16f       __tailMerge_physxfoundation_64_dll 000000018002d16f     PhysXFoundation_64:PhysXFoundation_64.dll
 0001:0002c1e8       __imp_load_?getAllocator@shdfnd@physx@@YAAEAVPxAllocatorCallback@2@XZ 000000018002d1e8 f   PhysXFoundation_64:PhysXFoundation_64.dll
 0001:0002c1f4       ?getAllocator@shdfnd@physx@@YAAEAVPxAllocatorCallback@2@XZ 000000018002d1f4 f   PhysXFoundation_64:PhysXFoundation_64.dll
 0001:0002c1fa       __imp_load_?getInstance@Foundation@shdfnd@physx@@SAAEAV123@XZ 000000018002d1fa f   PhysXFoundation_64:PhysXFoundation_64.dll
 0001:0002c206       ?getInstance@Foundation@shdfnd@physx@@SAAEAV123@XZ 000000018002d206 f   PhysXFoundation_64:PhysXFoundation_64.dll
 0001:0002c20c       __imp_load_?error@Foundation@shdfnd@physx@@QEAAXW4Enum@PxErrorCode@3@PEBDH1ZZ 000000018002d20c f   PhysXFoundation_64:PhysXFoundation_64.dll
 0001:0002c218       ?error@Foundation@shdfnd@physx@@QEAAXW4Enum@PxErrorCode@3@PEBDH1ZZ 000000018002d218 f   PhysXFoundation_64:PhysXFoundation_64.dll
 0001:0002c21e       __imp_load_?incRefCount@Foundation@shdfnd@physx@@SAXXZ 000000018002d21e f   PhysXFoundation_64:PhysXFoundation_64.dll
 0001:0002c22a       ?incRefCount@Foundation@shdfnd@physx@@SAXXZ 000000018002d22a f   PhysXFoundation_64:PhysXFoundation_64.dll
 0001:0002c230       __imp_load_?decRefCount@Foundation@shdfnd@physx@@SAXXZ 000000018002d230 f   PhysXFoundation_64:PhysXFoundation_64.dll
 0001:0002c23c       ?decRefCount@Foundation@shdfnd@physx@@SAXXZ 000000018002d23c f   PhysXFoundation_64:PhysXFoundation_64.dll
 0001:0002c242       __imp_load_??0FPUGuard@shdfnd@physx@@QEAA@XZ 000000018002d242 f   PhysXFoundation_64:PhysXFoundation_64.dll
 0001:0002c24e       ??0FPUGuard@shdfnd@physx@@QEAA@XZ 000000018002d24e f   PhysXFoundation_64:PhysXFoundation_64.dll
 0001:0002c254       __imp_load_??1FPUGuard@shdfnd@physx@@QEAA@XZ 000000018002d254 f   PhysXFoundation_64:PhysXFoundation_64.dll
 0001:0002c260       ??1FPUGuard@shdfnd@physx@@QEAA@XZ 000000018002d260 f   PhysXFoundation_64:PhysXFoundation_64.dll
 0001:0002c266       __imp_load_?allocate@TempAllocator@shdfnd@physx@@QEAAPEAX_KPEBDH@Z 000000018002d266 f   PhysXFoundation_64:PhysXFoundation_64.dll
 0001:0002c272       ?allocate@TempAllocator@shdfnd@physx@@QEAAPEAX_KPEBDH@Z 000000018002d272 f   PhysXFoundation_64:PhysXFoundation_64.dll
 0001:0002c278       __imp_load_?deallocate@TempAllocator@shdfnd@physx@@QEAAXPEAX@Z 000000018002d278 f   PhysXFoundation_64:PhysXFoundation_64.dll
 0001:0002c284       ?deallocate@TempAllocator@shdfnd@physx@@QEAAXPEAX@Z 000000018002d284 f   PhysXFoundation_64:PhysXFoundation_64.dll
 0001:0002c28a       __imp_load_?PxDiagonalize@physx@@YA?AVPxVec3@1@AEBVPxMat33@1@AEAVPxQuat@1@@Z 000000018002d28a f   PhysXFoundation_64:PhysXFoundation_64.dll
 0001:0002c296       ?PxDiagonalize@physx@@YA?AVPxVec3@1@AEBVPxMat33@1@AEAVPxQuat@1@@Z 000000018002d296 f   PhysXFoundation_64:PhysXFoundation_64.dll
 0001:0002c29c       LoadLibraryA               000000018002d29c f   kernel32:KERNEL32.dll
 0001:0002c2a4       ??$PFromRva@PEAP6A_JXZ@@YAPEAP6A_JXZK@Z 000000018002d2a4 f i Delayimp:delayhlp.obj
 0001:0002c2b4       ??$PFromRva@PEAPEAUHINSTANCE__@@@@YAPEAPEAUHINSTANCE__@@K@Z 000000018002d2b4 f i Delayimp:delayhlp.obj
 0001:0002c2c4       ??$PFromRva@PEAU_IMAGE_IMPORT_BY_NAME@@@@YAPEAU_IMAGE_IMPORT_BY_NAME@@K@Z 000000018002d2c4 f i Delayimp:delayhlp.obj
 0001:0002c2d4       ??$PFromRva@PEAU_IMAGE_THUNK_DATA64@@@@YAPEAU_IMAGE_THUNK_DATA64@@K@Z 000000018002d2d4 f i Delayimp:delayhlp.obj
 0001:0002c2e4       ??$PFromRva@PEBD@@YAPEBDK@Z 000000018002d2e4 f i Delayimp:delayhlp.obj
 0001:0002c2f4       ??$PFromRva@PEBUImgDelayDescr@@@@YAPEBUImgDelayDescr@@K@Z 000000018002d2f4 f i Delayimp:delayhlp.obj
 0001:0002c304       ??$PFromRva@PEBU_IMAGE_THUNK_DATA64@@@@YAPEBU_IMAGE_THUNK_DATA64@@K@Z 000000018002d304 f i Delayimp:delayhlp.obj
 0001:0002c314       ?CountOfImports@@YAIPEBU_IMAGE_THUNK_DATA64@@@Z 000000018002d314 f i Delayimp:delayhlp.obj
 0001:0002c328       ?DloadAcquireSectionWriteAccess@@YAXXZ 000000018002d328 f i Delayimp:delayhlp.obj
 0001:0002c3d4       ?DloadGetSRWLockFunctionPointers@@YAEXZ 000000018002d3d4 f i Delayimp:delayhlp.obj
 0001:0002c474       ?DloadLock@@YAXXZ          000000018002d474 f i Delayimp:delayhlp.obj
 0001:0002c4bc       ?DloadMakePermanentImageCommit@@YAXPEAX_K@Z 000000018002d4bc f i Delayimp:delayhlp.obj
 0001:0002c554       ?DloadObtainSection@@YAPEAXPEAK0@Z 000000018002d554 f i Delayimp:delayhlp.obj
 0001:0002c5f0       ?DloadProtectSection@@YAXKPEAK@Z 000000018002d5f0 f i Delayimp:delayhlp.obj
 0001:0002c680       ?DloadReleaseSectionWriteAccess@@YAXXZ 000000018002d680 f i Delayimp:delayhlp.obj
 0001:0002c714       ?DloadUnlock@@YAXXZ        000000018002d714 f i Delayimp:delayhlp.obj
 0001:0002c754       ?IndexFromPImgThunkData@@YAIPEBU_IMAGE_THUNK_DATA64@@0@Z 000000018002d754 f i Delayimp:delayhlp.obj
 0001:0002c89c       HRESULT_FROM_WIN32         000000018002d89c f i Delayimp:delayhlp.obj
 0001:0002c8ac       ReadAcquire64              000000018002d8ac f i Delayimp:delayhlp.obj
 0001:0002c8b0       ReadPointerAcquire         000000018002d8b0 f i Delayimp:delayhlp.obj
 0001:0002c8b4       WritePointerRelease        000000018002d8b4 f i Delayimp:delayhlp.obj
 0001:0002c8b8       WriteRelease64             000000018002d8b8 f i Delayimp:delayhlp.obj
 0001:0002c8bc       __FUnloadDelayLoadedDLL2   000000018002d8bc f   Delayimp:delayhlp.obj
 0001:0002c978       __HrLoadAllImportsForDll   000000018002d978 f   Delayimp:delayhlp.obj
 0001:0002c9ec       __delayLoadHelper2         000000018002d9ec f   Delayimp:delayhlp.obj
 0001:0002ccc4       ??3@YAXPEAX_K@Z            000000018002dcc4 f   LIBCMT:delete_scalar_size.obj
 0001:0002cccc       ??_V@YAXPEAX_K@Z           000000018002dccc f   LIBCMT:delete_array_size.obj
 0001:0002ccd4       ??1type_info@@UEAA@XZ      000000018002dcd4 f   LIBCMT:std_type_info_static.obj
 0001:0002cce0       ??_Etype_info@@UEAAPEAXI@Z 000000018002dce0 f i LIBCMT:std_type_info_static.obj
 0001:0002cce0       ??_Gtype_info@@UEAAPEAXI@Z 000000018002dce0 f i LIBCMT:std_type_info_static.obj
 0001:0002cd0c       ?__scrt_initialize_type_info@@YAXXZ 000000018002dd0c f   LIBCMT:tncleanup.obj
 0001:0002cd1c       ?__scrt_uninitialize_type_info@@YAXXZ 000000018002dd1c f   LIBCMT:tncleanup.obj
 0001:0002cd40       __chkstk                   000000018002dd40 f   LIBCMT:chkstk.obj
 0001:0002cd40       _alloca_probe              000000018002dd40 f   LIBCMT:chkstk.obj
 0001:0002cd90       ??3@YAXPEAX@Z              000000018002dd90 f   LIBCMT:delete_scalar.obj
 0001:0002cd98       ??_V@YAXPEAX@Z             000000018002dd98 f   LIBCMT:delete_array.obj
 0001:0002cda0       __vdecl_sinf4              000000018002dda0 f   LIBCMT:svml_ssinf4_dispatch.obj
 0001:0002cdc0       __libm_sse2_sincosf_       000000018002ddc0 f   LIBCMT:svml_ssinf4_dispatch.obj
 0001:0002ce03       __libm_sse2_sincosf4_      000000018002de03 f   LIBCMT:svml_ssinf4_dispatch.obj
 0001:0002d14c       _CRT_INIT                  000000018002e14c f   LIBCMT:dll_dllmain.obj
 0001:0002d154       _DllMainCRTStartup         000000018002e154 f   LIBCMT:dll_dllmain.obj
 0001:0002d194       _guard_check_icall_nop     000000018002e194 f i LIBCMT:guard_support.obj
 0001:0002d198       ReadNoFence64              000000018002e198 f i LIBCMT:guard_support.obj
 0001:0002d19c       ReadPointerNoFence         000000018002e19c f i LIBCMT:guard_support.obj
 0001:0002d1a0       __castguard_check_failure_debugbreak 000000018002e1a0 f i LIBCMT:guard_support.obj
 0001:0002d1bc       __castguard_check_failure_fastfail 000000018002e1bc f i LIBCMT:guard_support.obj
 0001:0002d1e0       __castguard_check_failure_nop 000000018002e1e0 f i LIBCMT:guard_support.obj
 0001:0002d1e4       __castguard_check_failure_os_handled 000000018002e1e4 f i LIBCMT:guard_support.obj
 0001:0002d260       __castguard_slow_path_check_debugbreak 000000018002e260 f i LIBCMT:guard_support.obj
 0001:0002d294       __castguard_slow_path_check_fastfail 000000018002e294 f i LIBCMT:guard_support.obj
 0001:0002d2d0       __castguard_slow_path_check_nop 000000018002e2d0 f i LIBCMT:guard_support.obj
 0001:0002d2d4       __castguard_slow_path_check_os_handled 000000018002e2d4 f i LIBCMT:guard_support.obj
 0001:0002d344       _guard_icall_checks_enforced 000000018002e344 f i LIBCMT:guard_support.obj
 0001:0002d35c       _guard_rf_checks_enforced  000000018002e35c f i LIBCMT:guard_support.obj
 0001:0002d360       __isa_available_init       000000018002e360 f   LIBCMT:cpu_disp.obj
 0001:0002d510       __sse2_sinf4@@16           000000018002e510 f   LIBCMT:svml_ssinf4_sse2.obj
 0001:0002de50       __sse4_sinf4@@16           000000018002ee50 f   LIBCMT:svml_ssinf4_sse4.obj
 0001:0002e630       __security_init_cookie     000000018002f630 f   LIBCMT:gs_support.obj
 0001:0002e6dc       DllMain                    000000018002f6dc f   LIBCMT:dll_dllmain_stub.obj
 0001:0002e6e4       __local_stdio_printf_options 000000018002f6e4 f i LIBCMT:default_local_stdio_options.obj
 0001:0002e6ec       __local_stdio_scanf_options 000000018002f6ec f i LIBCMT:default_local_stdio_options.obj
 0001:0002e6f4       __scrt_initialize_default_local_stdio_options 000000018002f6f4 f   LIBCMT:default_local_stdio_options.obj
 0001:0002e710       ?configure_argv@__scrt_narrow_argv_policy@@SAHXZ 000000018002f710 f i LIBCMT:utility.obj
 0001:0002e770       ?initialize_environment@__scrt_narrow_environment_policy@@SAHXZ 000000018002f770 f i LIBCMT:utility.obj
 0001:0002e7a8       NtCurrentTeb               000000018002f7a8 f i LIBCMT:utility.obj
 0001:0002e7b4       __scrt_acquire_startup_lock 000000018002f7b4 f   LIBCMT:utility.obj
 0001:0002e7f0       __scrt_dllmain_after_initialize_c 000000018002f7f0 f   LIBCMT:utility.obj
 0001:0002e824       __scrt_dllmain_before_initialize_c 000000018002f824 f   LIBCMT:utility.obj
 0001:0002e83c       __scrt_dllmain_crt_thread_attach 000000018002f83c f   LIBCMT:utility.obj
 0001:0002e864       __scrt_dllmain_crt_thread_detach 000000018002f864 f   LIBCMT:utility.obj
 0001:0002e87c       __scrt_dllmain_exception_filter 000000018002f87c f   LIBCMT:utility.obj
 0001:0002e8dc       __scrt_dllmain_uninitialize_c 000000018002f8dc f   LIBCMT:utility.obj
 0001:0002e90c       __scrt_dllmain_uninitialize_critical 000000018002f90c f   LIBCMT:utility.obj
 0001:0002e920       __scrt_initialize_crt      000000018002f920 f   LIBCMT:utility.obj
 0001:0002e96c       __scrt_initialize_onexit_tables 000000018002f96c f   LIBCMT:utility.obj
 0001:0002e9f8       __scrt_is_nonwritable_in_current_image 000000018002f9f8 f   LIBCMT:utility.obj
 0001:0002ea90       __scrt_release_startup_lock 000000018002fa90 f   LIBCMT:utility.obj
 0001:0002eab4       __scrt_uninitialize_crt    000000018002fab4 f   LIBCMT:utility.obj
 0001:0002eae0       _onexit                    000000018002fae0 f   LIBCMT:utility.obj
 0001:0002eb1c       at_quick_exit              000000018002fb1c f   LIBCMT:utility.obj
 0001:0002eb3c       atexit                     000000018002fb3c f   LIBCMT:utility.obj
 0001:0002eb54       __scrt_get_dyn_tls_init_callback 000000018002fb54 f   LIBCMT:dyn_tls_init.obj
 0001:0002eb5c       __crt_debugger_hook        000000018002fb5c f   LIBCMT:utility_desktop.obj
 0001:0002eb64       __scrt_fastfail            000000018002fb64 f   LIBCMT:utility_desktop.obj
 0001:0002ecb0       __scrt_get_show_window_mode 000000018002fcb0 f   LIBCMT:utility_desktop.obj
 0001:0002ecec       __scrt_initialize_mta      000000018002fcec f   LIBCMT:utility_desktop.obj
 0001:0002ecf4       __scrt_initialize_winrt    000000018002fcf4 f   LIBCMT:utility_desktop.obj
 0001:0002ecf8       __scrt_is_managed_app      000000018002fcf8 f   LIBCMT:utility_desktop.obj
 0001:0002ed4c       __scrt_set_unhandled_exception_filter 000000018002fd4c f   LIBCMT:utility_desktop.obj
 0001:0002ed5c       __scrt_exe_initialize_mta  000000018002fd5c f   LIBCMT:utility_desktop.obj
 0001:0002ed5c       __scrt_stub_for_initialize_mta 000000018002fd5c f   LIBCMT:utility_desktop.obj
 0001:0002ed60       __scrt_unhandled_exception_filter 000000018002fd60 f   LIBCMT:utility_desktop.obj
 0001:0002edbc       _RTC_Initialize            000000018002fdbc f   LIBCMT:initsect.obj
 0001:0002edf8       _RTC_Terminate             000000018002fdf8 f   LIBCMT:initsect.obj
 0001:0002ee40       __common_ssin_cout_rare    000000018002fe40 f   LIBCMT:svml_s_sin_cout.obj
 0001:0002eeb0       _get_startup_argv_mode     000000018002feb0 f   LIBCMT:argv_mode.obj
 0001:0002eeb8       __scrt_is_ucrt_dll_in_use  000000018002feb8 f   LIBCMT:ucrt_detection.obj
 0001:0002eec4       ??$__crt_interlocked_exchange_pointer@$$A6AXXZP6AXXZ@@YAP6AXXZPEDS6AXXZQ6AXXZ@Z 000000018002fec4 f i libvcruntime:purevirt.obj
 0001:0002eecc       ??$__crt_interlocked_read_pointer@$$A6AXXZ@@YAP6AXXZPEDS6AXXZ@Z 000000018002fecc f i libvcruntime:purevirt.obj
 0001:0002eed4       ?__crt_interlocked_read_64@@YA_JPED_J@Z 000000018002fed4 f i libvcruntime:purevirt.obj
 0001:0002eedc       _get_purecall_handler      000000018002fedc f   libvcruntime:purevirt.obj
 0001:0002eee8       _purecall                  000000018002fee8 f   libvcruntime:purevirt.obj
 0001:0002ef04       _set_purecall_handler      000000018002ff04 f   libvcruntime:purevirt.obj
 0001:0002ef20       ??$?RD@__crt_internal_free_policy@@QEBAXQEBD@Z 000000018002ff20 f i libvcruntime:std_type_info.obj
 0001:0002ef28       ??$?RX@__crt_internal_free_policy@@QEBAXQEBX@Z 000000018002ff28 f i libvcruntime:std_type_info.obj
 0001:0002ef30       ??$__crt_interlocked_compare_exchange_pointer@$$CBDPEAD$$T@@YAPEBDPEDSEBDQEAD$$T@Z 000000018002ff30 f i libvcruntime:std_type_info.obj
 0001:0002ef3c       ??$__crt_interlocked_read_pointer@$$CBD@@YAPEBDPEDSEBD@Z 000000018002ff3c f i libvcruntime:std_type_info.obj
 0001:0002ef44       ??0?$__crt_unique_heap_ptr@DU__crt_internal_free_policy@@@@QEAA@QEAD@Z 000000018002ff44 f i libvcruntime:std_type_info.obj
 0001:0002ef4c       ??0?$__crt_unique_heap_ptr@XU__crt_internal_free_policy@@@@QEAA@QEAX@Z 000000018002ff4c f i libvcruntime:std_type_info.obj
 0001:0002ef54       ??1?$__crt_unique_heap_ptr@DU__crt_internal_free_policy@@@@QEAA@XZ 000000018002ff54 f i libvcruntime:std_type_info.obj
 0001:0002ef70       ??1?$__crt_unique_heap_ptr@XU__crt_internal_free_policy@@@@QEAA@XZ 000000018002ff70 f i libvcruntime:std_type_info.obj
 0001:0002ef8c       ??B?$__crt_unique_heap_ptr@DU__crt_internal_free_policy@@@@QEBA_NXZ 000000018002ff8c f i libvcruntime:std_type_info.obj
 0001:0002ef94       ??B?$__crt_unique_heap_ptr@XU__crt_internal_free_policy@@@@QEBA_NXZ 000000018002ff94 f i libvcruntime:std_type_info.obj
 0001:0002efac       ?detach@?$__crt_unique_heap_ptr@XU__crt_internal_free_policy@@@@QEAAPEAXXZ 000000018002ffac f i libvcruntime:std_type_info.obj
 0001:0002efb4       ?get@?$__crt_unique_heap_ptr@DU__crt_internal_free_policy@@@@QEBAPEADXZ 000000018002ffb4 f i libvcruntime:std_type_info.obj
 0001:0002efb8       ?get@?$__crt_unique_heap_ptr@XU__crt_internal_free_policy@@@@QEBAPEAXXZ 000000018002ffb8 f i libvcruntime:std_type_info.obj
 0001:0002efbc       ?is_valid@?$__crt_unique_heap_ptr@DU__crt_internal_free_policy@@@@QEBA_NXZ 000000018002ffbc f i libvcruntime:std_type_info.obj
 0001:0002efc4       ?is_valid@?$__crt_unique_heap_ptr@XU__crt_internal_free_policy@@@@QEBA_NXZ 000000018002ffc4 f i libvcruntime:std_type_info.obj
 0001:0002efcc       ?release@?$__crt_unique_heap_ptr@DU__crt_internal_free_policy@@@@QEAAXXZ 000000018002ffcc f i libvcruntime:std_type_info.obj
 0001:0002efe8       ?release@?$__crt_unique_heap_ptr@XU__crt_internal_free_policy@@@@QEAAXXZ 000000018002ffe8 f i libvcruntime:std_type_info.obj
 0001:0002f004       __std_type_info_compare    0000000180030004 f   libvcruntime:std_type_info.obj
 0001:0002f02c       __std_type_info_destroy_list 000000018003002c f   libvcruntime:std_type_info.obj
 0001:0002f058       __std_type_info_hash       0000000180030058 f   libvcruntime:std_type_info.obj
 0001:0002f090       __std_type_info_name       0000000180030090 f   libvcruntime:std_type_info.obj
 0001:0002f1c0       memset_repstos             00000001800301c0 f   libvcruntime:memset.obj
 0001:0002f1e0       memset                     00000001800301e0 f   libvcruntime:memset.obj
 0001:0002f580       memcpy_repmovs             0000000180030580 f   libvcruntime:memcpy.obj
 0001:0002f5a0       memcpy                     00000001800305a0 f   libvcruntime:memcpy.obj
 0001:0002f5a0       memmove                    00000001800305a0 f   libvcruntime:memcpy.obj
 0001:0002fc18       strstr                     0000000180030c18 f   libvcruntime:strstr.obj
 0001:0002fe10       __C_specific_handler       0000000180030e10 f   libvcruntime:riscchandler.obj
 0001:00030008       __vcrt_initialize          0000000180031008 f   libvcruntime:initialization.obj
 0001:00030030       __vcrt_thread_attach       0000000180031030 f   libvcruntime:initialization.obj
 0001:00030044       __vcrt_thread_detach       0000000180031044 f   libvcruntime:initialization.obj
 0001:00030058       __vcrt_uninitialize        0000000180031058 f   libvcruntime:initialization.obj
 0001:00030074       __vcrt_uninitialize_critical 0000000180031074 f   libvcruntime:initialization.obj
 0001:00030088       __DestructExceptionObject  0000000180031088 f   libvcruntime:ehhelpers.obj
 0001:000300f8       ?_CallMemberFunction0@@YAXQEAX0@Z 00000001800310f8 f i libvcruntime:ehhelpers.obj
 0001:00030154       ?raw_name@type_info@@QEBAPEBDXZ 0000000180031154 f i libvcruntime:ehhelpers.obj
 0001:0003015c       _IsExceptionObjectToBeDestroyed 000000018003115c f   libvcruntime:ehhelpers.obj
 0001:0003018c       _SetWinRTOutOfMemoryExceptionCallback 000000018003118c f   libvcruntime:ehhelpers.obj
 0001:00030194       __AdjustPointer            0000000180031194 f   libvcruntime:ehhelpers.obj
 0001:000301b8       __FrameUnwindFilter        00000001800311b8 f   libvcruntime:ehhelpers.obj
 0001:00030220       __GetPlatformExceptionInfo 0000000180031220 f   libvcruntime:ehhelpers.obj
 0001:0003027c       __current_exception        000000018003127c f   libvcruntime:ehhelpers.obj
 0001:00030290       __current_exception_context 0000000180031290 f   libvcruntime:ehhelpers.obj
 0001:000302a4       __processing_throw         00000001800312a4 f   libvcruntime:ehhelpers.obj
 0001:000302b8       __std_terminate            00000001800312b8 f   libvcruntime:ehhelpers.obj
 0001:000302c4       _is_exception_typeof       00000001800312c4 f   libvcruntime:ehhelpers.obj
 0001:0003036c       ??$?0$00@DName@@QEAA@PEBDU?$StringLifeSelector@$00@@@Z 000000018003136c f i libvcruntime:undname.obj
 0001:000303ac       ??$?0$00@pcharNode@@QEAA@PEBDHU?$StringLifeSelector@$00@@@Z 00000001800313ac f i libvcruntime:undname.obj
 0001:000303c4       ??$?0$01@DName@@QEAA@PEBDU?$StringLifeSelector@$01@@@Z 00000001800313c4 f i libvcruntime:undname.obj
 0001:00030404       ??$?0$01@pcharNode@@QEAA@PEBDHU?$StringLifeSelector@$01@@@Z 0000000180031404 f i libvcruntime:undname.obj
 0001:00030478       ??$?0$0A@@DName@@QEAA@PEBDU?$StringLifeSelector@$0A@@@@Z 0000000180031478 f i libvcruntime:undname.obj
 0001:000304b8       ??$?0$0A@@pcharNode@@QEAA@PEBDHU?$StringLifeSelector@$0A@@@@Z 00000001800314b8 f i libvcruntime:undname.obj
 0001:0003052c       ??$?0_K$0A@@?$optional@_K@std@@QEAA@$$QEA_K@Z 000000018003152c f i libvcruntime:undname.obj
 0001:0003053c       ??$?0_K@?$_Optional_construct_base@_K@std@@QEAA@Uin_place_t@1@$$QEA_K@Z 000000018003153c f i libvcruntime:undname.obj
 0001:0003054c       ??$?0_K@?$_Optional_destruct_base@_K$00@std@@QEAA@Uin_place_t@1@$$QEA_K@Z 000000018003154c f i libvcruntime:undname.obj
 0001:0003055c       ??$append@VDNameNode@@@DName@@AEAAXPEBVDNameNode@@@Z 000000018003155c f i libvcruntime:undname.obj
 0001:000305c0       ??$append@VDNameStatusNode@@@DName@@AEAAXPEBVDNameStatusNode@@@Z 00000001800315c0 f i libvcruntime:undname.obj
 0001:00030624       ??$append@VcharNode@@@DName@@AEAAXPEBVcharNode@@@Z 0000000180031624 f i libvcruntime:undname.obj
 0001:00030688       ??$append@VpDNameNode@@@DName@@AEAAXPEBVpDNameNode@@@Z 0000000180031688 f i libvcruntime:undname.obj
 0001:000306ec       ??$append@VpcharNode@@@DName@@AEAAXPEBVpcharNode@@@Z 00000001800316ec f i libvcruntime:undname.obj
 0001:00030750       ??$doPchar@$00@DName@@AEAAXPEBDH@Z 0000000180031750 f i libvcruntime:undname.obj
 0001:000307f4       ??$doPchar@$01@DName@@AEAAXPEBDH@Z 00000001800317f4 f i libvcruntime:undname.obj
 0001:0003088c       ??$doPchar@$0A@@DName@@AEAAXPEBDH@Z 000000018003188c f i libvcruntime:undname.obj
 0001:00030924       ??$forward@_K@std@@YA$$QEA_KAEA_K@Z 0000000180031924 f i libvcruntime:undname.obj
 0001:00030a44       ??$size@D$04@std@@YA_KAEAY04$$CBD@Z 0000000180031a44 f i libvcruntime:undname.obj
 0001:00030a4c       ??0?$_Optional_construct_base@_K@std@@QEAA@XZ 0000000180031a4c f i libvcruntime:undname.obj
 0001:00030a54       ??0?$_Optional_destruct_base@_K$00@std@@QEAA@XZ 0000000180031a54 f i libvcruntime:undname.obj
 0001:00030a5c       ??0?$optional@_K@std@@QEAA@XZ 0000000180031a5c f i libvcruntime:undname.obj
 0001:00030a64       ??0Block@_HeapManager@@QEAA@XZ 0000000180031a64 f i libvcruntime:undname.obj
 0001:00030a6c       ??0DName@@QEAA@AEAPEBDD@Z  0000000180031a6c f   libvcruntime:undname.obj
 0001:00030b1c       ??0DName@@QEAA@AEBUStringLiteral@@@Z 0000000180031b1c f   libvcruntime:undname.obj
 0001:00030b48       ??0DName@@QEAA@AEBV0@@Z    0000000180031b48 f i libvcruntime:undname.obj
 0001:00030b58       ??0DName@@QEAA@D@Z         0000000180031b58 f   libvcruntime:undname.obj
 0001:00030b78       ??0DName@@QEAA@PEAV0@@Z    0000000180031b78 f   libvcruntime:undname.obj
 0001:00030bfc       ??0DName@@QEAA@W4DNameStatus@@@Z 0000000180031bfc f   libvcruntime:undname.obj
 0001:00030c2c       ??0DName@@QEAA@XZ          0000000180031c2c f i libvcruntime:undname.obj
 0001:00030c38       ??0DName@@QEAA@_J@Z        0000000180031c38 f   libvcruntime:undname.obj
 0001:00030ce0       ??0DName@@QEAA@_K@Z        0000000180031ce0 f   libvcruntime:undname.obj
 0001:00030d68       ??0DNameNode@@IEAA@XZ      0000000180031d68 f i libvcruntime:undname.obj
 0001:00030d78       ??0Replicator@@QEAA@XZ     0000000180031d78 f i libvcruntime:undname.obj
 0001:00030d8c       ??0UnDecorator@@QEAA@PEBDP6APEADJ@ZK@Z 0000000180031d8c f i libvcruntime:undname.obj
 0001:00030ddc       ??0_Nontrivial_dummy_type@std@@QEAA@XZ 0000000180031ddc f i libvcruntime:undname.obj
 0001:00030de0       ??0charNode@@QEAA@D@Z      0000000180031de0 f i libvcruntime:undname.obj
 0001:00030df4       ??0pDNameNode@@QEAA@PEAVDName@@@Z 0000000180031df4 f   libvcruntime:undname.obj
 0001:00030e1c       ??0pairNode@@QEAA@PEBVDNameNode@@0@Z 0000000180031e1c f i libvcruntime:undname.obj
 0001:00030e40       ??2@YAPEAX_KAEAV_HeapManager@@H@Z 0000000180031e40 f   libvcruntime:undname.obj
 0001:00030e6c       ??4DName@@QEAAAEAV0@AEBUStringLiteral@@@Z 0000000180031e6c f   libvcruntime:undname.obj
 0001:00030e94       ??4DName@@QEAAAEAV0@AEBV0@@Z 0000000180031e94 f   libvcruntime:undname.obj
 0001:00030ea4       ??4DName@@QEAAAEAV0@D@Z    0000000180031ea4 f i libvcruntime:undname.obj
 0001:00030ec4       ??4DName@@QEAAAEAV0@PEAV0@@Z 0000000180031ec4 f   libvcruntime:undname.obj
 0001:00030f3c       ??4DName@@QEAAAEAV0@W4DNameStatus@@@Z 0000000180031f3c f   libvcruntime:undname.obj
 0001:00030f6c       ??AReplicator@@QEBA?AVDName@@H@Z 0000000180031f6c f   libvcruntime:undname.obj
 0001:00030fac       ??B?$optional@_K@std@@QEBA_NXZ 0000000180031fac f i libvcruntime:undname.obj
 0001:00030fb0       ??D?$_Optional_construct_base@_K@std@@QEGAAAEA_KXZ 0000000180031fb0 f i libvcruntime:undname.obj
 0001:00030fb4       ??H@YA?AVDName@@AEBUStringLiteral@@AEBV0@@Z 0000000180031fb4 f i libvcruntime:undname.obj
 0001:00030fec       ??H@YA?AVDName@@DAEBV0@@Z  0000000180031fec f i libvcruntime:undname.obj
 0001:00031030       ??H@YA?AVDName@@W4DNameStatus@@AEBV0@@Z 0000000180032030 f i libvcruntime:undname.obj
 0001:0003107c       ??HDName@@QEBA?AV0@AEBUStringLiteral@@@Z 000000018003207c f   libvcruntime:undname.obj
 0001:000310a8       ??HDName@@QEBA?AV0@AEBV0@@Z 00000001800320a8 f   libvcruntime:undname.obj
 0001:000310d4       ??HDName@@QEBA?AV0@D@Z     00000001800320d4 f   libvcruntime:undname.obj
 0001:00031100       ??HDName@@QEBA?AV0@PEAV0@@Z 0000000180032100 f   libvcruntime:undname.obj
 0001:0003112c       ??HDName@@QEBA?AV0@W4DNameStatus@@@Z 000000018003212c f   libvcruntime:undname.obj
 0001:00031158       ??HStringLiteral@@QEBA?AU0@H@Z 0000000180032158 f i libvcruntime:undname.obj
 0001:00031170       ??YDName@@QEAAAEAV0@AEBUStringLiteral@@@Z 0000000180032170 f   libvcruntime:undname.obj
 0001:000311f0       ??YDName@@QEAAAEAV0@AEBV0@@Z 00000001800321f0 f   libvcruntime:undname.obj
 0001:00031248       ??YDName@@QEAAAEAV0@D@Z    0000000180032248 f   libvcruntime:undname.obj
 0001:000312b4       ??YDName@@QEAAAEAV0@PEAV0@@Z 00000001800322b4 f   libvcruntime:undname.obj
 0001:00031348       ??YDName@@QEAAAEAV0@W4DNameStatus@@@Z 0000000180032348 f   libvcruntime:undname.obj
 0001:000313a0       ??YReplicator@@QEAAAEAV0@AEBVDName@@@Z 00000001800323a0 f   libvcruntime:undname.obj
 0001:000313f8       ??_5DName@@QEAAAEAV0@AEBV0@@Z 00000001800323f8 f   libvcruntime:undname.obj
 0001:00031410       ??__K_l@@YA?AUStringLiteral@@PEBD_K@Z 0000000180032410 f i libvcruntime:undname.obj
 0001:0003141c       ?Constructor@_HeapManager@@QEAAXP6APEAX_K@ZP6AXPEAX@Z@Z 000000018003241c f i libvcruntime:undname.obj
 0001:00031434       ?Destructor@_HeapManager@@QEAAXXZ 0000000180032434 f i libvcruntime:undname.obj
 0001:00031480       ?UScore@UnDecorator@@SA?AUStringLiteral@@W4Tokens@@@Z 0000000180032480 f   libvcruntime:undname.obj
 0001:000314cc       ?composeDeclaration@UnDecorator@@CA?AVDName@@AEBV2@@Z 00000001800324cc f i libvcruntime:undname.obj
 0001:000323c0       ?doAccessSpecifiers@UnDecorator@@SAHXZ 00000001800333c0 f i libvcruntime:undname.obj
 0001:000323d0       ?doAllocationLanguage@UnDecorator@@SAHXZ 00000001800333d0 f i libvcruntime:undname.obj
 0001:000323e0       ?doAllocationModel@UnDecorator@@SAHXZ 00000001800333e0 f i libvcruntime:undname.obj
 0001:000323f0       ?doEcsu@UnDecorator@@SAHXZ 00000001800333f0 f i libvcruntime:undname.obj
 0001:00032400       ?doEllipsis@UnDecorator@@SAHXZ 0000000180033400 f i libvcruntime:undname.obj
 0001:00032410       ?doFunctionReturns@UnDecorator@@SAHXZ 0000000180033410 f i libvcruntime:undname.obj
 0001:00032420       ?doMSKeywords@UnDecorator@@SAHXZ 0000000180033420 f i libvcruntime:undname.obj
 0001:00032430       ?doMemberTypes@UnDecorator@@SAHXZ 0000000180033430 f i libvcruntime:undname.obj
 0001:00032440       ?doNameOnly@UnDecorator@@SAHXZ 0000000180033440 f i libvcruntime:undname.obj
 0001:0003244c       ?doNoIdentCharCheck@UnDecorator@@SAHXZ 000000018003344c f i libvcruntime:undname.obj
 0001:00032458       ?doPchar@DName@@AEAAXD@Z   0000000180033458 f   libvcruntime:undname.obj
 0001:000324a8       ?doPtr64@UnDecorator@@SAHXZ 00000001800334a8 f i libvcruntime:undname.obj
 0001:000324b8       ?doRestrictionSpec@UnDecorator@@SAHXZ 00000001800334b8 f i libvcruntime:undname.obj
 0001:000324c8       ?doThisTypes@UnDecorator@@SAHXZ 00000001800334c8 f i libvcruntime:undname.obj
 0001:000324dc       ?doThrowTypes@UnDecorator@@SAHXZ 00000001800334dc f i libvcruntime:undname.obj
 0001:000324ec       ?doTypeOnly@UnDecorator@@SAHXZ 00000001800334ec f i libvcruntime:undname.obj
 0001:000324f8       ?doUnderScore@UnDecorator@@SAHXZ 00000001800334f8 f i libvcruntime:undname.obj
 0001:00032504       ?getAddressOf@UnDecorator@@CA?AVDName@@XZ 0000000180033504 f   libvcruntime:undname.obj
 0001:00032594       ?getArgumentList@UnDecorator@@CA?AVDName@@XZ 0000000180033594 f   libvcruntime:undname.obj
 0001:00032748       ?getArgumentTypes@UnDecorator@@CA?AVDName@@XZ 0000000180033748 f   libvcruntime:undname.obj
 0001:00032894       ?getArrayAccess@UnDecorator@@CA?AVDName@@XZ 0000000180033894 f   libvcruntime:undname.obj
 0001:00032930       ?getArrayObject@UnDecorator@@CA?AVDName@@XZ 0000000180033930 f   libvcruntime:undname.obj
 0001:000329ec       ?getArrayType@UnDecorator@@CA?AVDName@@AEBV2@@Z 00000001800339ec f i libvcruntime:undname.obj
 0001:00032c34       ?getBasedType@UnDecorator@@CA?AVDName@@XZ 0000000180033c34 f   libvcruntime:undname.obj
 0001:00032d2c       ?getBasicDataType@UnDecorator@@CA?AVDName@@AEBV2@@Z 0000000180033d2c f   libvcruntime:undname.obj
 0001:00033330       ?getCHPEName@UnDecorator@@QEAAPEADPEADH@Z 0000000180034330 f i libvcruntime:undname.obj
 0001:00033450       ?getCallIndex@UnDecorator@@CA?AVDName@@XZ 0000000180034450 f i libvcruntime:undname.obj
 0001:0003346c       ?getCallingConvention@UnDecorator@@CA?AVDName@@XZ 000000018003446c f   libvcruntime:undname.obj
 0001:000335a4       ?getDataIndirectType@UnDecorator@@CA?AVDName@@AEBV2@W4IndirectionKind@@0H@Z 00000001800345a4 f   libvcruntime:undname.obj
 0001:00033ec8       ?getDataIndirectType@UnDecorator@@CA?AVDName@@XZ 0000000180034ec8 f i libvcruntime:undname.obj
 0001:00033f04       ?getDataType@UnDecorator@@CA?AVDName@@PEAV2@@Z 0000000180034f04 f   libvcruntime:undname.obj
 0001:00034018       ?getDecoratedName@UnDecorator@@CA?AVDName@@XZ 0000000180035018 f   libvcruntime:undname.obj
 0001:00034300       ?getDimension@UnDecorator@@CA?AVDName@@_N@Z 0000000180035300 f   libvcruntime:undname.obj
 0001:00034448       ?getDispatchTarget@UnDecorator@@CA?AVDName@@XZ 0000000180035448 f   libvcruntime:undname.obj
 0001:000344a8       ?getDisplacement@UnDecorator@@CA?AVDName@@XZ 00000001800354a8 f i libvcruntime:undname.obj
 0001:000344c4       ?getECSUDataType@UnDecorator@@CA?AVDName@@XZ 00000001800354c4 f   libvcruntime:undname.obj
 0001:000346c0       ?getECSUName@UnDecorator@@CA?AVDName@@XZ 00000001800356c0 f i libvcruntime:undname.obj
 0001:000346d8       ?getEnumType@UnDecorator@@CA?AVDName@@XZ 00000001800356d8 f i libvcruntime:undname.obj
 0001:00034808       ?getExtendedDataIndirectType@UnDecorator@@CA?AVDName@@AEAW4IndirectionKind@@AEA_NH@Z 0000000180035808 f   libvcruntime:undname.obj
 0001:00034a0c       ?getExternalDataType@UnDecorator@@CA?AVDName@@AEBV2@@Z 0000000180035a0c f i libvcruntime:undname.obj
 0001:00034acc       ?getFloatingPoint@UnDecorator@@CA?AVDName@@H@Z 0000000180035acc f   libvcruntime:undname.obj
 0001:00034c34       ?getFunctionIndirectType@UnDecorator@@CA?AVDName@@AEBV2@@Z 0000000180035c34 f   libvcruntime:undname.obj
 0001:00035168       ?getGuardNumber@UnDecorator@@CA?AVDName@@XZ 0000000180036168 f i libvcruntime:undname.obj
 0001:00035184       ?getLastChar@DName@@QEBADXZ 0000000180036184 f i libvcruntime:undname.obj
 0001:000351a0       ?getLastChar@DNameStatusNode@@UEBADXZ 00000001800361a0 f i libvcruntime:undname.obj
 0001:000351ac       ?getLastChar@charNode@@UEBADXZ 00000001800361ac f i libvcruntime:undname.obj
 0001:000351b0       ?getLastChar@pDNameNode@@UEBADXZ 00000001800361b0 f i libvcruntime:undname.obj
 0001:000351dc       ?getLastChar@pairNode@@UEBADXZ 00000001800361dc f i libvcruntime:undname.obj
 0001:00035214       ?getLastChar@pcharNode@@UEBADXZ 0000000180036214 f i libvcruntime:undname.obj
 0001:00035228       ?getLexicalFrame@UnDecorator@@CA?AVDName@@XZ 0000000180036228 f i libvcruntime:undname.obj
 0001:0003528c       ?getMemberAccess@UnDecorator@@CA?AVDName@@XZ 000000018003628c f   libvcruntime:undname.obj
 0001:00035320       ?getMemoryWithBuffer@_HeapManager@@QEAAPEAX_K@Z 0000000180036320 f   libvcruntime:undname.obj
 0001:000353b0       ?getMemoryWithoutBuffer@_HeapManager@@QEAAPEAX_K@Z 00000001800363b0 f   libvcruntime:undname.obj
 0001:000353c4       ?getNoexcept@UnDecorator@@CA?AVDName@@XZ 00000001800363c4 f   libvcruntime:undname.obj
 0001:00035428       ?getNumberOfDimensions@UnDecorator@@CAHXZ 0000000180036428 f   libvcruntime:undname.obj
 0001:00035490       ?getOperatorName@UnDecorator@@CA?AVDName@@_NPEA_N@Z 0000000180036490 f i libvcruntime:undname.obj
 0001:00035e40       ?getPointerToMember@UnDecorator@@CA?AVDName@@XZ 0000000180036e40 f   libvcruntime:undname.obj
 0001:00035f38       ?getPointerType@UnDecorator@@CA?AVDName@@AEBV2@0@Z 0000000180036f38 f i libvcruntime:undname.obj
 0001:00035f58       ?getPointerTypeArray@UnDecorator@@CA?AVDName@@AEBV2@0@Z 0000000180036f58 f i libvcruntime:undname.obj
 0001:00035f74       ?getPrimaryDataType@UnDecorator@@CA?AVDName@@AEBV2@@Z 0000000180036f74 f   libvcruntime:undname.obj
 0001:0003622c       ?getPtrRefDataType@UnDecorator@@CA?AVDName@@AEBV2@H@Z 000000018003722c f   libvcruntime:undname.obj
 0001:000363f8       ?getPtrRefType@UnDecorator@@CA?AVDName@@AEBV2@0W4IndirectionKind@@@Z 00000001800373f8 f   libvcruntime:undname.obj
 0001:000365d0       ?getReferenceType@UnDecorator@@CA?AVDName@@AEBV2@0W4IndirectionKind@@@Z 00000001800375d0 f i libvcruntime:undname.obj
 0001:000365e8       ?getRestrictionSpec@UnDecorator@@CA?AVDName@@XZ 00000001800375e8 f   libvcruntime:undname.obj
 0001:000367c4       ?getReturnType@UnDecorator@@CA?AVDName@@PEAV2@@Z 00000001800377c4 f   libvcruntime:undname.obj
 0001:000367f8       ?getScope@UnDecorator@@CA?AVDName@@XZ 00000001800377f8 f   libvcruntime:undname.obj
 0001:00036cb4       ?getScopedName@UnDecorator@@CA?AVDName@@XZ 0000000180037cb4 f   libvcruntime:undname.obj
 0001:00036df4       ?getSignedDimension@UnDecorator@@CA?AVDName@@XZ 0000000180037df4 f   libvcruntime:undname.obj
 0001:00036e7c       ?getStorageConvention@UnDecorator@@CA?AVDName@@XZ 0000000180037e7c f i libvcruntime:undname.obj
 0001:00036eb8       ?getString@DName@@QEBAPEADPEAD0@Z 0000000180037eb8 f i libvcruntime:undname.obj
 0001:00036ed4       ?getString@DName@@QEBAPEADPEADH@Z 0000000180037ed4 f i libvcruntime:undname.obj
 0001:00036f68       ?getString@DNameStatusNode@@UEBAPEADPEAD0@Z 0000000180037f68 f i libvcruntime:undname.obj
 0001:00036fb0       ?getString@charNode@@UEBAPEADPEAD0@Z 0000000180037fb0 f i libvcruntime:undname.obj
 0001:00036fc4       ?getString@pDNameNode@@UEBAPEADPEAD0@Z 0000000180037fc4 f i libvcruntime:undname.obj
 0001:00036ff4       ?getString@pairNode@@UEBAPEADPEAD0@Z 0000000180037ff4 f i libvcruntime:undname.obj
 0001:00037040       ?getString@pcharNode@@UEBAPEADPEAD0@Z 0000000180038040 f i libvcruntime:undname.obj
 0001:00037078       ?getStringEncoding@UnDecorator@@CA?AVDName@@W4PrefixKind@@H@Z 0000000180038078 f   libvcruntime:undname.obj
 0001:00037188       ?getStringHelper@@YAPEADPEADPEBD1H@Z 0000000180038188 f i libvcruntime:undname.obj
 0001:000371b8       ?getStringObject@UnDecorator@@CA?AVDName@@XZ 00000001800381b8 f   libvcruntime:undname.obj
 0001:00037220       ?getSymbolName@UnDecorator@@CA?AVDName@@XZ 0000000180038220 f i libvcruntime:undname.obj
 0001:0003726c       ?getTemplateArgumentList@UnDecorator@@CA?AVDName@@XZ 000000018003826c f   libvcruntime:undname.obj
 0001:00037488       ?getTemplateName@UnDecorator@@CA?AVDName@@_N@Z 0000000180038488 f   libvcruntime:undname.obj
 0001:0003771c       ?getTemplateNonTypeArgument@UnDecorator@@CA?AVDName@@XZ 000000018003871c f   libvcruntime:undname.obj
 0001:00037c6c       ?getTemplateTypeArgument@UnDecorator@@CA?AVDName@@XZ 0000000180038c6c f   libvcruntime:undname.obj
 0001:00037dd4       ?getThisType@UnDecorator@@CA?AVDName@@XZ 0000000180038dd4 f i libvcruntime:undname.obj
 0001:00037e14       ?getThrowTypes@UnDecorator@@CA?AVDName@@XZ 0000000180038e14 f   libvcruntime:undname.obj
 0001:00037e38       ?getTypeEncoding@UnDecorator@@CAHXZ 0000000180038e38 f i libvcruntime:undname.obj
 0001:000381f4       ?getUndecoratedName@UnDecorator@@QEAAPEADPEADH@Z 00000001800391f4 f i libvcruntime:undname.obj
 0001:00038348       ?getUnionObject@UnDecorator@@CA?AVDName@@XZ 0000000180039348 f   libvcruntime:undname.obj
 0001:00038420       ?getVCallThunkType@UnDecorator@@CA?AVDName@@XZ 0000000180039420 f i libvcruntime:undname.obj
 0001:00038498       ?getValue@UnDecorator@@CA?AV?$optional@_K@std@@XZ 0000000180039498 f   libvcruntime:undname.obj
 0001:0003850c       ?getValueObject@UnDecorator@@CA?AVDName@@XZ 000000018003950c f   libvcruntime:undname.obj
 0001:0003864c       ?getVbTableType@UnDecorator@@CA?AVDName@@AEBV2@@Z 000000018003964c f i libvcruntime:undname.obj
 0001:00038664       ?getVdispMapType@UnDecorator@@CA?AVDName@@AEBV2@@Z 0000000180039664 f i libvcruntime:undname.obj
 0001:000386e0       ?getVfTableType@UnDecorator@@CA?AVDName@@AEBV2@@Z 00000001800396e0 f i libvcruntime:undname.obj
 0001:000388ec       ?getZName@UnDecorator@@CA?AVDName@@_N0@Z 00000001800398ec f   libvcruntime:undname.obj
 0001:00038bc0       ?get_current_character_and_increment_buffer@UnDecorator@@CADXZ 0000000180039bc0 f i libvcruntime:undname.obj
 0001:00038bd8       ?haveTemplateParameters@UnDecorator@@SAHXZ 0000000180039bd8 f i libvcruntime:undname.obj
 0001:00038be4       ?increment_buffer@UnDecorator@@CA_N_K@Z 0000000180039be4 f i libvcruntime:undname.obj
 0001:00038c10       ?increment_buffer_no_check@UnDecorator@@CAXXZ 0000000180039c10 f i libvcruntime:undname.obj
 0001:00038c18       ?increment_buffer_no_check@UnDecorator@@CAX_K@Z 0000000180039c18 f i libvcruntime:undname.obj
 0001:00038c20       ?isArray@DName@@QEBAHXZ    0000000180039c20 f i libvcruntime:undname.obj
 0001:00038c2c       ?isComArray@DName@@QEBAHXZ 0000000180039c2c f i libvcruntime:undname.obj
 0001:00038c38       ?isEmpty@DName@@QEBAHXZ    0000000180039c38 f i libvcruntime:undname.obj
 0001:00038c44       ?isFull@Replicator@@QEBAHXZ 0000000180039c44 f i libvcruntime:undname.obj
 0001:00038c50       ?isNoTE@DName@@QEBAHXZ     0000000180039c50 f i libvcruntime:undname.obj
 0001:00038c5c       ?isPinPtr@DName@@QEBAHXZ   0000000180039c5c f i libvcruntime:undname.obj
 0001:00038c68       ?isPtrRef@DName@@QEBAHXZ   0000000180039c68 f i libvcruntime:undname.obj
 0001:00038c74       ?isUDC@DName@@QEBAHXZ      0000000180039c74 f i libvcruntime:undname.obj
 0001:00038c8c       ?isUDTThunk@DName@@QEBAHXZ 0000000180039c8c f i libvcruntime:undname.obj
 0001:00038ca4       ?isVCallThunk@DName@@QEBAHXZ 0000000180039ca4 f i libvcruntime:undname.obj
 0001:00038cb0       ?isValid@DName@@QEBAHXZ    0000000180039cb0 f i libvcruntime:undname.obj
 0001:00038cbc       ?length@DName@@QEBAHXZ     0000000180039cbc f i libvcruntime:undname.obj
 0001:00038cd4       ?length@DNameStatusNode@@UEBAHXZ 0000000180039cd4 f i libvcruntime:undname.obj
 0001:00038cd8       ?length@charNode@@UEBAHXZ  0000000180039cd8 f i libvcruntime:undname.obj
 0001:00038ce0       ?length@pDNameNode@@UEBAHXZ 0000000180039ce0 f i libvcruntime:undname.obj
 0001:00038d08       ?length@pairNode@@UEBAHXZ  0000000180039d08 f i libvcruntime:undname.obj
 0001:00038d50       ?length@pcharNode@@UEBAHXZ 0000000180039d50 f i libvcruntime:undname.obj
 0001:00038d54       ?make@DNameStatusNode@@SAPEBV1@W4DNameStatus@@@Z 0000000180039d54 f i libvcruntime:undname.obj
 0001:00038d74       ?parseDecoratedName@UnDecorator@@CA?AVDName@@XZ 0000000180039d74 f   libvcruntime:undname.obj
 0001:00038e8c       ?raw_length@DNameStatusNode@@UEBAHXZ 0000000180039e8c f i libvcruntime:undname.obj
 0001:00038e90       ?raw_length@charNode@@UEBAHXZ 0000000180039e90 f i libvcruntime:undname.obj
 0001:00038e98       ?raw_length@pDNameNode@@UEBAHXZ 0000000180039e98 f i libvcruntime:undname.obj
 0001:00038e9c       ?raw_length@pairNode@@UEBAHXZ 0000000180039e9c f i libvcruntime:undname.obj
 0001:00038ea0       ?raw_length@pcharNode@@UEBAHXZ 0000000180039ea0 f i libvcruntime:undname.obj
 0001:00038ea4       ?setIsArray@DName@@QEAAXXZ 0000000180039ea4 f i libvcruntime:undname.obj
 0001:00038eac       ?setIsComArray@DName@@QEAAXXZ 0000000180039eac f i libvcruntime:undname.obj
 0001:00038eb4       ?setIsNoTE@DName@@QEAAXXZ  0000000180039eb4 f i libvcruntime:undname.obj
 0001:00038ebc       ?setIsPinPtr@DName@@QEAAXXZ 0000000180039ebc f i libvcruntime:undname.obj
 0001:00038ec4       ?setIsUDC@DName@@QEAAXXZ   0000000180039ec4 f i libvcruntime:undname.obj
 0001:00038ed0       ?setIsVCallThunk@DName@@QEAAXXZ 0000000180039ed0 f i libvcruntime:undname.obj
 0001:00038ed8       ?setPtrRef@DName@@QEAAAEAV1@XZ 0000000180039ed8 f i libvcruntime:undname.obj
 0001:00038ee4       ?status@DName@@QEBA?AW4DNameStatus@@XZ 0000000180039ee4 f i libvcruntime:undname.obj
 0001:00038f48       __unDName                  0000000180039f48 f   libvcruntime:undname.obj
 0001:00038f70       __unDNameEx                0000000180039f70 f   libvcruntime:undname.obj
 0001:000390a4       _vsprintf_s_l              000000018003a0a4 f i libvcruntime:undname.obj
 0001:00039108       snprintf                   000000018003a108 f i libvcruntime:undname.obj
 0001:00039160       sprintf_s                  000000018003a160 f i libvcruntime:undname.obj
 0001:000391b4       unDNameGenerateCHPE        000000018003a1b4 f   libvcruntime:undname.obj
 0001:000392bc       vsnprintf                  000000018003a2bc f i libvcruntime:undname.obj
 0001:00039330       _NLG_Notify                000000018003a330 f   libvcruntime:notify.obj
 0001:00039350       __NLG_Dispatch2            000000018003a350 f   libvcruntime:notify.obj
 0001:00039360       __NLG_Return2              000000018003a360 f   libvcruntime:notify.obj
 0001:0003936c       __except_validate_context_record 000000018003a36c f   libvcruntime:jbcxrval.obj
 0001:000393a4       __except_validate_jump_buffer 000000018003a3a4 f   libvcruntime:jbcxrval.obj
 0001:000393e4       __except_validate_jump_buffer_common 000000018003a3e4 f i libvcruntime:jbcxrval.obj
 0001:00039440       ??$?RU__vcrt_ptd@@@__crt_internal_free_policy@@QEBAXQEBU__vcrt_ptd@@@Z 000000018003a440 f i libvcruntime:per_thread_data.obj
 0001:00039448       ??0?$__crt_unique_heap_ptr@U__vcrt_ptd@@U__crt_internal_free_policy@@@@QEAA@QEAU__vcrt_ptd@@@Z 000000018003a448 f i libvcruntime:per_thread_data.obj
 0001:0003946c       ??1?$__crt_unique_heap_ptr@U__vcrt_ptd@@U__crt_internal_free_policy@@@@QEAA@XZ 000000018003a46c f i libvcruntime:per_thread_data.obj
 0001:00039494       ??B?$__crt_unique_heap_ptr@U__vcrt_ptd@@U__crt_internal_free_policy@@@@QEBA_NXZ 000000018003a494 f i libvcruntime:per_thread_data.obj
 0001:0003949c       ?detach@?$__crt_unique_heap_ptr@U__vcrt_ptd@@U__crt_internal_free_policy@@@@QEAAPEAU__vcrt_ptd@@XZ 000000018003a49c f i libvcruntime:per_thread_data.obj
 0001:000394a4       ?get@?$__crt_unique_heap_ptr@U__vcrt_ptd@@U__crt_internal_free_policy@@@@QEBAPEAU__vcrt_ptd@@XZ 000000018003a4a4 f i libvcruntime:per_thread_data.obj
 0001:000394a8       ?is_valid@?$__crt_unique_heap_ptr@U__vcrt_ptd@@U__crt_internal_free_policy@@@@QEBA_NXZ 000000018003a4a8 f i libvcruntime:per_thread_data.obj
 0001:000394b0       ?release@?$__crt_unique_heap_ptr@U__vcrt_ptd@@U__crt_internal_free_policy@@@@QEAAXXZ 000000018003a4b0 f i libvcruntime:per_thread_data.obj
 0001:000394f8       __vcrt_freefls             000000018003a4f8 f   libvcruntime:per_thread_data.obj
 0001:00039518       __vcrt_freeptd             000000018003a518 f   libvcruntime:per_thread_data.obj
 0001:00039568       __vcrt_getptd              000000018003a568 f   libvcruntime:per_thread_data.obj
 0001:00039584       __vcrt_getptd_noexit       000000018003a584 f   libvcruntime:per_thread_data.obj
 0001:00039644       __vcrt_getptd_noinit       000000018003a644 f   libvcruntime:per_thread_data.obj
 0001:00039694       __vcrt_initialize_ptd      000000018003a694 f   libvcruntime:per_thread_data.obj
 0001:000396dc       __vcrt_uninitialize_ptd    000000018003a6dc f   libvcruntime:per_thread_data.obj
 0001:00039700       __vcrt_initialize_locks    000000018003a700 f   libvcruntime:locks.obj
 0001:00039748       __vcrt_lock                000000018003a748 f   libvcruntime:locks.obj
 0001:00039764       __vcrt_uninitialize_locks  000000018003a764 f   libvcruntime:locks.obj
 0001:0003979c       __vcrt_unlock              000000018003a79c f   libvcruntime:locks.obj
 0001:000397b8       ??$?0AEAViterator@TryBlockMap4@FH4@@AEAV012@$0A@@?$pair@Viterator@TryBlockMap4@FH4@@V123@@std@@QEAA@AEAViterator@TryBlockMap4@FH4@@0@Z 000000018003a7b8 f i libvcruntime:risctrnsctrl.obj
 0001:000397cc       ??$?0AEAViterator@TryBlockMap@__FrameHandler3@@AEAV012@$0A@@?$pair@Viterator@TryBlockMap@__FrameHandler3@@V123@@std@@QEAA@AEAViterator@TryBlockMap@__FrameHandler3@@0@Z 000000018003a7cc f i libvcruntime:risctrnsctrl.obj
 0001:00039950       ??$_CallSETranslator@V__FrameHandler3@@@@YAHPEAUEHExceptionRecord@@PEA_KPEAU_CONTEXT@@PEAU_xDISPATCHER_CONTEXT@@PEBU_s_FuncInfo@@K1H@Z 000000018003a950 f i libvcruntime:risctrnsctrl.obj
 0001:000399a4       ??$_CallSETranslator@V__FrameHandler4@@@@YAHPEAUEHExceptionRecord@@PEA_KPEAU_CONTEXT@@PEAU_xDISPATCHER_CONTEXT@@PEAUFuncInfo4@FH4@@K1H@Z 000000018003a9a4 f i libvcruntime:risctrnsctrl.obj
 0001:000399f8       ??$forward@AEAViterator@TryBlockMap4@FH4@@@std@@YAAEAViterator@TryBlockMap4@FH4@@AEAV123@@Z 000000018003a9f8 f i libvcruntime:risctrnsctrl.obj
 0001:000399fc       ??$forward@AEAViterator@TryBlockMap@__FrameHandler3@@@std@@YAAEAViterator@TryBlockMap@__FrameHandler3@@AEAV123@@Z 000000018003a9fc f i libvcruntime:risctrnsctrl.obj
 0001:00039a00       ??0FuncInfo4@FH4@@QEAA@XZ  000000018003aa00 f i libvcruntime:risctrnsctrl.obj
 0001:00039a14       ??0FuncInfoHeader@FH4@@QEAA@XZ 000000018003aa14 f i libvcruntime:risctrnsctrl.obj
 0001:00039a1c       ??0iterator@TryBlockMap4@FH4@@QEAA@AEAV12@I@Z 000000018003aa1c f i libvcruntime:risctrnsctrl.obj
 0001:00039a28       ??0iterator@TryBlockMap@__FrameHandler3@@QEAA@AEAV12@I@Z 000000018003aa28 f i libvcruntime:risctrnsctrl.obj
 0001:00039a34       ??4iterator@TryBlockMap4@FH4@@QEAAAEAV012@AEBV012@@Z 000000018003aa34 f i libvcruntime:risctrnsctrl.obj
 0001:00039a40       ??9iterator@TryBlockMap4@FH4@@QEBA_NAEBV012@@Z 000000018003aa40 f i libvcruntime:risctrnsctrl.obj
 0001:00039a4c       ??Diterator@TryBlockMap4@FH4@@QEAA?AUTryBlockMapEntry4@2@XZ 000000018003aa4c f i libvcruntime:risctrnsctrl.obj
 0001:00039a5c       ??Eiterator@TryBlockMap4@FH4@@QEAAAEAV012@XZ 000000018003aa5c f i libvcruntime:risctrnsctrl.obj
 0001:00039af8       ?CatchTryBlock@__FrameHandler3@@SAPEBU_s_TryBlockMapEntry@@PEBU_s_FuncInfo@@H@Z 000000018003aaf8 f   libvcruntime:risctrnsctrl.obj
 0001:00039b5c       ?DecompFuncInfo@FH4@@YA_JPEAEAEAUFuncInfo4@1@_KH@Z 000000018003ab5c f i libvcruntime:risctrnsctrl.obj
 0001:00039b70       ?DecompFuncInfo@FH4@@YA_JPEAEAEAUFuncInfo4@1@_KH_N@Z 000000018003ab70 f i libvcruntime:risctrnsctrl.obj
 0001:00039c94       ?DecompTryBlock@TryBlockMap4@FH4@@AEAAXXZ 000000018003ac94 f i libvcruntime:risctrnsctrl.obj
 0001:00039d28       ?ExecutionInCatch@__FrameHandler3@@SA_NPEAU_xDISPATCHER_CONTEXT@@PEBU_s_FuncInfo@@@Z 000000018003ad28 f   libvcruntime:risctrnsctrl.obj
 0001:00039d54       ?ExecutionInCatch@__FrameHandler4@@SA_NPEAU_xDISPATCHER_CONTEXT@@PEAUFuncInfo4@FH4@@@Z 000000018003ad54 f   libvcruntime:risctrnsctrl.obj
 0001:00039d5c       ?FrameUnwindToEmptyState@__FrameHandler3@@SAXPEA_KPEAU_xDISPATCHER_CONTEXT@@PEBU_s_FuncInfo@@@Z 000000018003ad5c f   libvcruntime:risctrnsctrl.obj
 0001:00039dc0       ?FrameUnwindToEmptyState@__FrameHandler4@@SAXPEA_KPEAU_xDISPATCHER_CONTEXT@@PEAUFuncInfo4@FH4@@@Z 000000018003adc0 f   libvcruntime:risctrnsctrl.obj
 0001:00039df4       ?GetEstablisherFrame@__FrameHandler3@@SAPEA_KPEA_KPEAU_xDISPATCHER_CONTEXT@@PEBU_s_FuncInfo@@0@Z 000000018003adf4 f   libvcruntime:risctrnsctrl.obj
 0001:00039ec0       ?GetEstablisherFrame@__FrameHandler4@@SAPEA_KPEA_KPEAU_xDISPATCHER_CONTEXT@@PEAUFuncInfo4@FH4@@0@Z 000000018003aec0 f   libvcruntime:risctrnsctrl.obj
 0001:00039ee4       ?GetRangeOfTrysToCheck@__FrameHandler3@@SA?AU?$pair@Viterator@TryBlockMap@__FrameHandler3@@V123@@std@@AEAVTryBlockMap@1@HPEAU_xDISPATCHER_CONTEXT@@PEBU_s_FuncInfo@@H@Z 000000018003aee4 f   libvcruntime:risctrnsctrl.obj
 0001:0003a024       ?GetRangeOfTrysToCheck@__FrameHandler4@@SA?AU?$pair@Viterator@TryBlockMap4@FH4@@V123@@std@@AEAVTryBlockMap4@FH4@@HPEAU_xDISPATCHER_CONTEXT@@PEAUFuncInfo4@5@H@Z 000000018003b024 f   libvcruntime:risctrnsctrl.obj
 0001:0003a190       ?ReadInt@FH4@@YAHPEAPEAE@Z 000000018003b190 f i libvcruntime:risctrnsctrl.obj
 0001:0003a1a0       ?ReadUnsigned@FH4@@YAIPEAPEAE@Z 000000018003b1a0 f i libvcruntime:risctrnsctrl.obj
 0001:0003a1d0       ?UnwindNestedFrames@__FrameHandler3@@SAXPEA_KPEAUEHExceptionRecord@@PEAU_CONTEXT@@0PEAXPEBU_s_FuncInfo@@HHPEBU_s_HandlerType@@PEAU_xDISPATCHER_CONTEXT@@E@Z 000000018003b1d0 f   libvcruntime:risctrnsctrl.obj
 0001:0003a2d4       ?UnwindNestedFrames@__FrameHandler4@@SAXPEA_KPEAUEHExceptionRecord@@PEAU_CONTEXT@@0PEAXPEAUFuncInfo4@FH4@@HHPEAUHandlerType4@5@PEAU_xDISPATCHER_CONTEXT@@E@Z 000000018003b2d4 f   libvcruntime:risctrnsctrl.obj
 0001:0003a3f4       ?begin@TryBlockMap4@FH4@@QEAA?AViterator@12@XZ 000000018003b3f4 f i libvcruntime:risctrnsctrl.obj
 0001:0003a400       ?end@TryBlockMap4@FH4@@QEAA?AViterator@12@XZ 000000018003b400 f i libvcruntime:risctrnsctrl.obj
 0001:0003a40c       ?imageRelToByteBuffer@FH4@@YAPEAE_KH@Z 000000018003b40c f i libvcruntime:risctrnsctrl.obj
 0001:0003a414       ?incrementToSentinel@iterator@TryBlockMap4@FH4@@QEAAXXZ 000000018003b414 f i libvcruntime:risctrnsctrl.obj
 0001:0003a418       ?setBuffer@TryBlockMap4@FH4@@QEAAXViterator@12@@Z 000000018003b418 f i libvcruntime:risctrnsctrl.obj
 0001:0003a5dc       _CreateFrameInfo           000000018003b5dc f   libvcruntime:risctrnsctrl.obj
 0001:0003a618       _FindAndUnlinkFrame        000000018003b618 f   libvcruntime:risctrnsctrl.obj
 0001:0003a66c       _GetImageBase              000000018003b66c f   libvcruntime:risctrnsctrl.obj
 0001:0003a680       _GetThrowImageBase         000000018003b680 f   libvcruntime:risctrnsctrl.obj
 0001:0003a694       _SetImageBase              000000018003b694 f   libvcruntime:risctrnsctrl.obj
 0001:0003a6ac       _SetThrowImageBase         000000018003b6ac f   libvcruntime:risctrnsctrl.obj
 0001:0003a6c4       __CxxFrameHandler          000000018003b6c4 f   libvcruntime:risctrnsctrl.obj
 0001:0003a6cc       __CxxFrameHandler2         000000018003b6cc f   libvcruntime:risctrnsctrl.obj
 0001:0003a6d4       __CxxFrameHandler3         000000018003b6d4 f   libvcruntime:risctrnsctrl.obj
 0001:0003a75c       __CxxFrameHandler4         000000018003b75c f   libvcruntime:risctrnsctrl.obj
 0001:0003a81c       ??$__crt_interlocked_exchange_pointer@UHINSTANCE__@@PEAU1@@@YAPEAUHINSTANCE__@@PEDSEAU0@QEAU0@@Z 000000018003b81c f i libvcruntime:winapi_downlevel.obj
 0001:0003a824       ??$__crt_interlocked_exchange_pointer@UHINSTANCE__@@PEAX@@YAPEAUHINSTANCE__@@PEDSEAU0@QEAX@Z 000000018003b824 f i libvcruntime:winapi_downlevel.obj
 0001:0003a82c       ??$__crt_interlocked_exchange_pointer@XPEAX@@YAPEAXPEDSEAXQEAX@Z 000000018003b82c f i libvcruntime:winapi_downlevel.obj
 0001:0003a834       ??$__crt_interlocked_read_pointer@UHINSTANCE__@@@@YAPEAUHINSTANCE__@@PEDSEAU0@@Z 000000018003b834 f i libvcruntime:winapi_downlevel.obj
 0001:0003a83c       ??$__crt_interlocked_read_pointer@X@@YAPEAXPEDSEAX@Z 000000018003b83c f i libvcruntime:winapi_downlevel.obj
 0001:0003ad7c       __vcrt_FlsAlloc            000000018003bd7c f   libvcruntime:winapi_downlevel.obj
 0001:0003adc4       __vcrt_FlsFree             000000018003bdc4 f   libvcruntime:winapi_downlevel.obj
 0001:0003ae0c       __vcrt_FlsGetValue         000000018003be0c f   libvcruntime:winapi_downlevel.obj
 0001:0003ae54       __vcrt_FlsSetValue         000000018003be54 f   libvcruntime:winapi_downlevel.obj
 0001:0003aea8       __vcrt_InitializeCriticalSectionEx 000000018003bea8 f   libvcruntime:winapi_downlevel.obj
 0001:0003af0c       ?GetCurrentState@__FrameHandler3@@SAHPEA_KPEAU_xDISPATCHER_CONTEXT@@PEBU_s_FuncInfo@@@Z 000000018003bf0c f   libvcruntime:ehstate.obj
 0001:0003af34       ?GetUnwindTryBlock@__FrameHandler3@@SAHPEA_KPEAU_xDISPATCHER_CONTEXT@@PEBU_s_FuncInfo@@@Z 000000018003bf34 f   libvcruntime:ehstate.obj
 0001:0003af60       ?SetState@__FrameHandler3@@SAXPEA_KPEBU_s_FuncInfo@@H@Z 000000018003bf60 f   libvcruntime:ehstate.obj
 0001:0003af6c       ?SetUnwindTryBlock@__FrameHandler3@@SAXPEA_KPEAU_xDISPATCHER_CONTEXT@@PEBU_s_FuncInfo@@H@Z 000000018003bf6c f   libvcruntime:ehstate.obj
 0001:0003afa8       ?StateFromControlPc@__FrameHandler3@@SAHPEBU_s_FuncInfo@@PEAU_xDISPATCHER_CONTEXT@@@Z 000000018003bfa8 f   libvcruntime:ehstate.obj
 0001:0003afb0       ?StateFromControlPc@__FrameHandler4@@SAHPEAUFuncInfo4@FH4@@PEAU_xDISPATCHER_CONTEXT@@@Z 000000018003bfb0 f   libvcruntime:ehstate.obj
 0001:0003afb8       ?StateFromIp@__FrameHandler3@@SAHPEBU_s_FuncInfo@@PEAU_xDISPATCHER_CONTEXT@@_K@Z 000000018003bfb8 f   libvcruntime:ehstate.obj
 0001:0003b020       ?StateFromIp@__FrameHandler4@@SAHPEAUFuncInfo4@FH4@@PEAU_xDISPATCHER_CONTEXT@@_K@Z 000000018003c020 f   libvcruntime:ehstate.obj
 0001:0003b110       ?__FuncRelToRealOffset@@YA_KPEAU_xDISPATCHER_CONTEXT@@I@Z 000000018003c110 f i libvcruntime:ehstate.obj
 0001:0003b120       ?__RVAtoRealOffset@@YA_KPEAU_xDISPATCHER_CONTEXT@@H@Z 000000018003c120 f i libvcruntime:ehstate.obj
 0001:0003c73c       ??$TypeMatchHelper@V__FrameHandler3@@@@YAHPEBU_s_HandlerType@@PEBU_s_CatchableType@@PEBU_s_ThrowInfo@@@Z 000000018003d73c f i libvcruntime:frame.obj
 0001:0003c87c       ??$TypeMatchHelper@V__FrameHandler4@@@@YAHPEAUHandlerType4@FH4@@PEBU_s_CatchableType@@PEBU_s_ThrowInfo@@@Z 000000018003d87c f i libvcruntime:frame.obj
 0001:0003c9c0       ??$__InternalCxxFrameHandler@V__FrameHandler3@@@@YA?AW4_EXCEPTION_DISPOSITION@@PEAUEHExceptionRecord@@PEA_KPEAU_CONTEXT@@PEAU_xDISPATCHER_CONTEXT@@PEBU_s_FuncInfo@@H1E@Z 000000018003d9c0 f i libvcruntime:frame.obj
 0001:0003cbf8       ??$__InternalCxxFrameHandler@V__FrameHandler4@@@@YA?AW4_EXCEPTION_DISPOSITION@@PEAUEHExceptionRecord@@PEA_KPEAU_CONTEXT@@PEAU_xDISPATCHER_CONTEXT@@PEAUFuncInfo4@FH4@@H1E@Z 000000018003dbf8 f i libvcruntime:frame.obj
 0001:0003ce8c       ??$__InternalCxxFrameHandlerWrapper@V__FrameHandler3@@@@YA?AW4_EXCEPTION_DISPOSITION@@PEAUEHExceptionRecord@@PEA_KPEAU_CONTEXT@@PEAU_xDISPATCHER_CONTEXT@@PEBU_s_FuncInfo@@H1E@Z 000000018003de8c f i libvcruntime:frame.obj
 0001:0003ce94       ??$__InternalCxxFrameHandlerWrapper@V__FrameHandler4@@@@YA?AW4_EXCEPTION_DISPOSITION@@PEAUEHExceptionRecord@@PEA_KPEAU_CONTEXT@@PEAU_xDISPATCHER_CONTEXT@@PEAUFuncInfo4@FH4@@H1E@Z 000000018003de94 f i libvcruntime:frame.obj
 0001:0003cef0       ??0HandlerMap4@FH4@@QEAA@PEBUTryBlockMapEntry4@1@_KH@Z 000000018003def0 f i libvcruntime:frame.obj
 0001:0003cf6c       ??0HandlerMap@__FrameHandler3@@QEAA@PEBU_s_TryBlockMapEntry@@_KI@Z 000000018003df6c f i libvcruntime:frame.obj
 0001:0003cf80       ??0HandlerType4@FH4@@QEAA@XZ 000000018003df80 f i libvcruntime:frame.obj
 0001:0003cf98       ??0TryBlockMap4@FH4@@QEAA@PEBUFuncInfo4@1@_K@Z 000000018003df98 f i libvcruntime:frame.obj
 0001:0003d070       ??0TryBlockMap@__FrameHandler3@@QEAA@PEBU_s_FuncInfo@@_K@Z 000000018003e070 f i libvcruntime:frame.obj
 0001:0003d07c       ??0UWMap4@FH4@@QEAA@PEBUFuncInfo4@1@_K@Z 000000018003e07c f i libvcruntime:frame.obj
 0001:0003d0c0       ??0bad_exception@std@@QEAA@AEBV01@@Z 000000018003e0c0 f i libvcruntime:frame.obj
 0001:0003d0fc       ??0bad_exception@std@@QEAA@XZ 000000018003e0fc f i libvcruntime:frame.obj
 0001:0003d11c       ??0exception@std@@QEAA@AEBV01@@Z 000000018003e11c f i libvcruntime:frame.obj
 0001:0003d150       ??0exception@std@@QEAA@QEBDH@Z 000000018003e150 f i libvcruntime:frame.obj
 0001:0003d168       ??0iterator@HandlerMap4@FH4@@QEAA@AEAV12@I@Z 000000018003e168 f i libvcruntime:frame.obj
 0001:0003d174       ??0iterator@HandlerMap@__FrameHandler3@@QEAA@AEAV12@I@Z 000000018003e174 f i libvcruntime:frame.obj
 0001:0003d180       ??0iterator@UWMap4@FH4@@QEAA@AEAV12@PEAE@Z 000000018003e180 f i libvcruntime:frame.obj
 0001:0003d18c       ??1bad_exception@std@@UEAA@XZ 000000018003e18c f i libvcruntime:frame.obj
 0001:0003d1a0       ??1exception@std@@UEAA@XZ  000000018003e1a0 f i libvcruntime:frame.obj
 0001:0003d1b4       ??4iterator@UWMap4@FH4@@QEAAAEAV012@AEBV012@@Z 000000018003e1b4 f i libvcruntime:frame.obj
 0001:0003d1d4       ??8iterator@HandlerMap4@FH4@@QEBA_NAEBV012@@Z 000000018003e1d4 f i libvcruntime:frame.obj
 0001:0003d1e0       ??8iterator@HandlerMap@__FrameHandler3@@QEBA_NAEBV012@@Z 000000018003e1e0 f i libvcruntime:frame.obj
 0001:0003d1ec       ??8type_info@@QEBA_NAEBV0@@Z 000000018003e1ec f i libvcruntime:frame.obj
 0001:0003d208       ??9iterator@HandlerMap4@FH4@@QEBA_NAEBV012@@Z 000000018003e208 f i libvcruntime:frame.obj
 0001:0003d214       ??9iterator@HandlerMap@__FrameHandler3@@QEBA_NAEBV012@@Z 000000018003e214 f i libvcruntime:frame.obj
 0001:0003d220       ??Diterator@HandlerMap4@FH4@@QEAA?AUHandlerType4@2@XZ 000000018003e220 f i libvcruntime:frame.obj
 0001:0003d240       ??Diterator@HandlerMap@__FrameHandler3@@QEAA?BU_s_HandlerType@@XZ 000000018003e240 f i libvcruntime:frame.obj
 0001:0003d264       ??Diterator@TryBlockMap@__FrameHandler3@@QEAA?BU_s_TryBlockMapEntry@@XZ 000000018003e264 f i libvcruntime:frame.obj
 0001:0003d294       ??Diterator@UWMap4@FH4@@QEAA?AUUnwindMapEntry4@2@XZ 000000018003e294 f i libvcruntime:frame.obj
 0001:0003d2e8       ??Eiterator@HandlerMap4@FH4@@QEAAAEAV012@XZ 000000018003e2e8 f i libvcruntime:frame.obj
 0001:0003d308       ??Eiterator@HandlerMap@__FrameHandler3@@QEAAAEAV012@XZ 000000018003e308 f i libvcruntime:frame.obj
 0001:0003d310       ??Eiterator@TryBlockMap@__FrameHandler3@@QEAAAEAV012@XZ 000000018003e310 f i libvcruntime:frame.obj
 0001:0003d318       ??Eiterator@UWMap4@FH4@@QEAAAEAV012@XZ 000000018003e318 f i libvcruntime:frame.obj
 0001:0003d338       ??Giterator@UWMap4@FH4@@QEBA_JAEBV012@@Z 000000018003e338 f i libvcruntime:frame.obj
 0001:0003d344       ??Miterator@TryBlockMap4@FH4@@QEBA_NAEBV012@@Z 000000018003e344 f i libvcruntime:frame.obj
 0001:0003d350       ??Miterator@TryBlockMap@__FrameHandler3@@QEBA_NAEBV012@@Z 000000018003e350 f i libvcruntime:frame.obj
 0001:0003d35c       ??Oiterator@UWMap4@FH4@@QEBA_NAEBV012@@Z 000000018003e35c f i libvcruntime:frame.obj
 0001:0003d368       ??Piterator@UWMap4@FH4@@QEBA_NAEBV012@@Z 000000018003e368 f i libvcruntime:frame.obj
 0001:0003d374       ??_Ebad_exception@std@@UEAAPEAXI@Z 000000018003e374 f i libvcruntime:frame.obj
 0001:0003d374       ??_Gbad_exception@std@@UEAAPEAXI@Z 000000018003e374 f i libvcruntime:frame.obj
 0001:0003d3b8       ??_Eexception@std@@UEAAPEAXI@Z 000000018003e3b8 f i libvcruntime:frame.obj
 0001:0003d3b8       ??_Gexception@std@@UEAAPEAXI@Z 000000018003e3b8 f i libvcruntime:frame.obj
 0001:0003d3fc       ?BuildCatchObject@__FrameHandler3@@SAXPEAUEHExceptionRecord@@PEAXPEBU_s_HandlerType@@PEBU_s_CatchableType@@@Z 000000018003e3fc f   libvcruntime:frame.obj
 0001:0003d404       ?BuildCatchObject@__FrameHandler4@@SAXPEAUEHExceptionRecord@@PEAXPEAUHandlerType4@FH4@@PEBU_s_CatchableType@@@Z 000000018003e404 f   libvcruntime:frame.obj
 0001:0003d40c       ?BuildCatchObjectHelper@__FrameHandler3@@SAHPEAUEHExceptionRecord@@PEAXPEBU_s_HandlerType@@PEBU_s_CatchableType@@@Z 000000018003e40c f   libvcruntime:frame.obj
 0001:0003d414       ?BuildCatchObjectHelper@__FrameHandler4@@SAHPEAUEHExceptionRecord@@PEAXPEAUHandlerType4@FH4@@PEBU_s_CatchableType@@@Z 000000018003e414 f   libvcruntime:frame.obj
 0001:0003d41c       ?CxxCallCatchBlock@__FrameHandler3@@SAPEAXPEAU_EXCEPTION_RECORD@@@Z 000000018003e41c f   libvcruntime:frame.obj
 0001:0003d608       ?CxxCallCatchBlock@__FrameHandler4@@SAPEAXPEAU_EXCEPTION_RECORD@@@Z 000000018003e608 f   libvcruntime:frame.obj
 0001:0003d858       ?DecompHandler@HandlerMap4@FH4@@AEAAXXZ 000000018003e858 f i libvcruntime:frame.obj
 0001:0003daa4       ?FrameUnwindToState@__FrameHandler3@@SAXPEA_KPEAU_xDISPATCHER_CONTEXT@@PEBU_s_FuncInfo@@H@Z 000000018003eaa4 f   libvcruntime:frame.obj
 0001:0003dc30       ?FrameUnwindToState@__FrameHandler4@@SAXPEA_KPEAU_xDISPATCHER_CONTEXT@@PEAUFuncInfo4@FH4@@H@Z 000000018003ec30 f   libvcruntime:frame.obj
 0001:0003df2c       ?GetHandlerSearchState@__FrameHandler3@@SAHPEA_KPEAU_xDISPATCHER_CONTEXT@@PEBU_s_FuncInfo@@@Z 000000018003ef2c f i libvcruntime:frame.obj
 0001:0003dfc4       ?GetHandlerSearchState@__FrameHandler4@@SAHPEA_KPEAU_xDISPATCHER_CONTEXT@@PEAUFuncInfo4@FH4@@@Z 000000018003efc4 f i libvcruntime:frame.obj
 0001:0003e028       ?GetMaxState@__FrameHandler3@@SAHPEAU_xDISPATCHER_CONTEXT@@PEBU_s_FuncInfo@@@Z 000000018003f028 f i libvcruntime:frame.obj
 0001:0003e02c       ?GetMaxState@__FrameHandler4@@SAHPEAU_xDISPATCHER_CONTEXT@@PEAUFuncInfo4@FH4@@@Z 000000018003f02c f i libvcruntime:frame.obj
 0001:0003e1dc       ?ReadEntry@UWMap4@FH4@@AEAAXPEAPEAE@Z 000000018003f1dc f i libvcruntime:frame.obj
 0001:0003e278       ?TypeMatch@__FrameHandler3@@SAHPEBU_s_HandlerType@@PEBU_s_CatchableType@@PEBU_s_ThrowInfo@@@Z 000000018003f278 f   libvcruntime:frame.obj
 0001:0003e280       ?TypeMatch@__FrameHandler4@@SAHPEAUHandlerType4@FH4@@PEBU_s_CatchableType@@PEBU_s_ThrowInfo@@@Z 000000018003f280 f   libvcruntime:frame.obj
 0001:0003e288       ?WalkBack@UWMap4@FH4@@AEAAXPEAPEAE@Z 000000018003f288 f i libvcruntime:frame.obj
 0001:0003e2c0       ?WalkBack@iterator@UWMap4@FH4@@QEAAXXZ 000000018003f2c0 f i libvcruntime:frame.obj
 0001:0003e300       ?WalkForward@UWMap4@FH4@@AEAAXPEAPEAE@Z 000000018003f300 f i libvcruntime:frame.obj
 0001:0003e308       ?_CallMemberFunction1@@YAXQEAX00@Z 000000018003f308 f i libvcruntime:frame.obj
 0001:0003e314       ?_CallMemberFunction2@@YAXQEAX00H@Z 000000018003f314 f i libvcruntime:frame.obj
 0001:0003e338       ?begin@HandlerMap4@FH4@@QEAA?AViterator@12@XZ 000000018003f338 f i libvcruntime:frame.obj
 0001:0003e344       ?begin@HandlerMap@__FrameHandler3@@QEAA?AViterator@12@XZ 000000018003f344 f i libvcruntime:frame.obj
 0001:0003e350       ?begin@UWMap4@FH4@@QEAA?AViterator@12@XZ 000000018003f350 f i libvcruntime:frame.obj
 0001:0003e360       ?end@HandlerMap4@FH4@@QEAA?AViterator@12@XZ 000000018003f360 f i libvcruntime:frame.obj
 0001:0003e36c       ?end@HandlerMap@__FrameHandler3@@QEAA?AViterator@12@XZ 000000018003f36c f i libvcruntime:frame.obj
 0001:0003e378       ?getESTypes@__FrameHandler3@@SAPEBU_s_ESTypeList@@PEBU_s_FuncInfo@@@Z 000000018003f378 f i libvcruntime:frame.obj
 0001:0003e3a0       ?getESTypes@__FrameHandler4@@SAPEBU_s_ESTypeList@@PEAUFuncInfo4@FH4@@@Z 000000018003f3a0 f i libvcruntime:frame.obj
 0001:0003e3a4       ?getLastEntry@HandlerMap4@FH4@@QEAAPEAUHandlerType4@2@XZ 000000018003f3a4 f i libvcruntime:frame.obj
 0001:0003e3f4       ?getLastEntry@HandlerMap@__FrameHandler3@@QEAAPEBU_s_HandlerType@@XZ 000000018003f3f4 f i libvcruntime:frame.obj
 0001:0003e408       ?getMagicNum@__FrameHandler3@@SAIPEBU_s_FuncInfo@@@Z 000000018003f408 f i libvcruntime:frame.obj
 0001:0003e410       ?getMagicNum@__FrameHandler4@@SAIPEAUFuncInfo4@FH4@@@Z 000000018003f410 f i libvcruntime:frame.obj
 0001:0003e418       ?getNumTryBlocks@TryBlockMap4@FH4@@QEAAIXZ 000000018003f418 f i libvcruntime:frame.obj
 0001:0003e41c       ?getNumTryBlocks@TryBlockMap@__FrameHandler3@@QEAAIXZ 000000018003f41c f i libvcruntime:frame.obj
 0001:0003e424       ?getStartStop@UWMap4@FH4@@QEAAXHHAEAViterator@12@0@Z 000000018003f424 f i libvcruntime:frame.obj
 0001:0003e4f4       ?getStateFromIterators@UWMap4@FH4@@SAHAEBViterator@12@H0H0@Z 000000018003f4f4 f i libvcruntime:frame.obj
 0001:0003e5a4       ?isEHs@__FrameHandler3@@SA_NPEBU_s_FuncInfo@@@Z 000000018003f5a4 f i libvcruntime:frame.obj
 0001:0003e5ac       ?isEHs@__FrameHandler4@@SA_NPEAUFuncInfo4@FH4@@@Z 000000018003f5ac f i libvcruntime:frame.obj
 0001:0003e5b4       ?isNoExcept@__FrameHandler3@@SA_NPEBU_s_FuncInfo@@@Z 000000018003f5b4 f i libvcruntime:frame.obj
 0001:0003e5c0       ?isNoExcept@__FrameHandler4@@SA_NPEAUFuncInfo4@FH4@@@Z 000000018003f5c0 f i libvcruntime:frame.obj
 0001:0003e5c8       ?reset@HandlerType4@FH4@@QEAAXXZ 000000018003f5c8 f i libvcruntime:frame.obj
 0001:0003e5dc       ?resetBuffer@HandlerMap4@FH4@@QEAAXXZ 000000018003f5dc f i libvcruntime:frame.obj
 0001:0003e5ec       ?setBuffer@HandlerMap4@FH4@@QEAAXI@Z 000000018003f5ec f i libvcruntime:frame.obj
 0001:0003e628       ?what@exception@std@@UEBAPEBDXZ 000000018003f628 f i libvcruntime:frame.obj
 0001:0003e63c       __BuildCatchObject         000000018003f63c f   libvcruntime:frame.obj
 0001:0003e644       __BuildCatchObjectHelper   000000018003f644 f   libvcruntime:frame.obj
 0001:0003e64c       __TypeMatch                000000018003f64c f   libvcruntime:frame.obj
 0001:0003e654       __vcrt_EncodePointer       000000018003f654 f i libvcruntime:frame.obj
 0001:0003e670       _CallSettingFrame          000000018003f670 f   libvcruntime:handlers.obj
 0001:0003e6c0       _CallSettingFrame_LookupContinuationIndex 000000018003f6c0 f   libvcruntime:handlers.obj
 0001:0003e6f0       _CallSettingFrame_NotifyContinuationAddr 000000018003f6f0 f   libvcruntime:handlers.obj
 0001:0003e720       _CallSettingFrameEncoded   000000018003f720 f   libvcruntime:handlers.obj
 0001:0003e768       ??$?RD@__crt_public_free_policy@@QEBAXQEBD@Z 000000018003f768 f i libvcruntime:std_exception.obj
 0001:0003e770       ??0?$__crt_unique_heap_ptr@DU__crt_public_free_policy@@@@QEAA@QEAD@Z 000000018003f770 f i libvcruntime:std_exception.obj
 0001:0003e778       ??1?$__crt_unique_heap_ptr@DU__crt_public_free_policy@@@@QEAA@XZ 000000018003f778 f i libvcruntime:std_exception.obj
 0001:0003e794       ??B?$__crt_unique_heap_ptr@DU__crt_public_free_policy@@@@QEBA_NXZ 000000018003f794 f i libvcruntime:std_exception.obj
 0001:0003e79c       ?detach@?$__crt_unique_heap_ptr@DU__crt_public_free_policy@@@@QEAAPEADXZ 000000018003f79c f i libvcruntime:std_exception.obj
 0001:0003e7a4       ?get@?$__crt_unique_heap_ptr@DU__crt_public_free_policy@@@@QEBAPEADXZ 000000018003f7a4 f i libvcruntime:std_exception.obj
 0001:0003e7a8       ?is_valid@?$__crt_unique_heap_ptr@DU__crt_public_free_policy@@@@QEBA_NXZ 000000018003f7a8 f i libvcruntime:std_exception.obj
 0001:0003e7b0       ?release@?$__crt_unique_heap_ptr@DU__crt_public_free_policy@@@@QEAAXXZ 000000018003f7b0 f i libvcruntime:std_exception.obj
 0001:0003e7cc       __std_exception_copy       000000018003f7cc f   libvcruntime:std_exception.obj
 0001:0003e85c       __std_exception_destroy    000000018003f85c f   libvcruntime:std_exception.obj
 0001:0003e884       _CxxThrowException         000000018003f884 f   libvcruntime:throw.obj
 0001:0003e924       _local_unwind              000000018003f924 f   libvcruntime:jmpuwind.obj
 0001:0003e960       strcmp                     000000018003f960 f   libucrt:strcmp.obj
 0001:0003e9c8       atan2f                     000000018003f9c8 f   libucrt:atan2f.obj
 0001:0003ef10       cosf                       000000018003ff10 f   libucrt:cosf.obj
 0001:0003f410       sinf                       0000000180040410 f   libucrt:sinf.obj
 0001:0003fb08       _fpclass                   0000000180040b08 f   libucrt:ieeemisc.obj
 0001:0003fb90       _fpclassf                  0000000180040b90 f   libucrt:ieeemisc.obj
 0001:0003fbfc       _isnan                     0000000180040bfc f   libucrt:ieeemisc.obj
 0001:0003fc28       _isnanf                    0000000180040c28 f   libucrt:ieeemisc.obj
 0001:0003fc44       _nextafter                 0000000180040c44 f   libucrt:ieeemisc.obj
 0001:0003fc4c       _nextafterf                0000000180040c4c f   libucrt:ieeemisc.obj
 0001:0003fc54       _scalb                     0000000180040c54 f   libucrt:ieeemisc.obj
 0001:0003fe00       _scalbf                    0000000180040e00 f   libucrt:ieeemisc.obj
 0001:0003ffa0       free                       0000000180040fa0 f   libucrt:free.obj
 0001:0003ffb4       _initterm                  0000000180040fb4 f   libucrt:initterm.obj
 0001:0003fff8       _initterm_e                0000000180040ff8 f   libucrt:initterm.obj
 0001:00040060       _seh_filter_dll            0000000180041060 f   libucrt:exception_filter.obj
 0001:00040074       _seh_filter_exe            0000000180041074 f   libucrt:exception_filter.obj
 0001:000401f8       ??$?B$$A6AXPEAXK0@Z@__crt_fast_encoded_nullptr_t@@QEBAP6AXPEAXK0@ZXZ 00000001800411f8 f i libucrt:exit.obj
 0001:00040268       ??$__crt_fast_decode_pointer@P6AXPEAXK0@Z@@YAP6AXPEAXK0@ZQ6AX0K0@Z@Z 0000000180041268 f i libucrt:exit.obj
 0001:00040280       ??$__crt_fast_encode_pointer@P6AXPEAXK0@Z@@YAP6AXPEAXK0@ZQ6AX0K0@Z@Z 0000000180041280 f i libucrt:exit.obj
 0001:000402a0       ??$__crt_get_proc_address@P6AXI@Z@@YAP6AXI@ZQEAUHINSTANCE__@@QEBD@Z 00000001800412a0 f i libucrt:exit.obj
 0001:000402a8       ??$__crt_interlocked_read@J@@YAJPEDJ@Z 00000001800412a8 f i libucrt:exit.obj
 0001:000402cc       ??0?$__crt_unique_handle_t@U__crt_hmodule_traits@@@@QEAA@QEAUHINSTANCE__@@@Z 00000001800412cc f i libucrt:exit.obj
 0001:000402d4       ??1?$__crt_unique_handle_t@U__crt_hmodule_traits@@@@QEAA@XZ 00000001800412d4 f i libucrt:exit.obj
 0001:000403d4       ?__acrt_select_exit_lock@@YA?AW4__acrt_lock_id@@XZ 00000001800413d4 f i libucrt:exit.obj
 0001:000403dc       ?__crt_fast_encode_pointer@@YA?AU__crt_fast_encoded_nullptr_t@@$$T@Z 00000001800413dc f i libucrt:exit.obj
 0001:000403e4       ?__crt_interlocked_read_32@@YAHPEDH@Z 00000001800413e4 f i libucrt:exit.obj
 0001:000403e8       ?__crt_rotate_pointer_value@@YA_K_KH@Z 00000001800413e8 f i libucrt:exit.obj
 0001:00040400       ?close@?$__crt_unique_handle_t@U__crt_hmodule_traits@@@@QEAAXXZ 0000000180041400 f i libucrt:exit.obj
 0001:00040424       ?close@__crt_hmodule_traits@@SA_NPEAUHINSTANCE__@@@Z 0000000180041424 f i libucrt:exit.obj
 0001:00040534       ?get@?$__crt_unique_handle_t@U__crt_hmodule_traits@@@@QEBAPEAUHINSTANCE__@@XZ 0000000180041534 f i libucrt:exit.obj
 0001:00040538       ?get_address_of@?$__crt_unique_handle_t@U__crt_hmodule_traits@@@@QEAAPEAPEAUHINSTANCE__@@XZ 0000000180041538 f i libucrt:exit.obj
 0001:0004053c       ?get_invalid_value@__crt_hmodule_traits@@SAPEAUHINSTANCE__@@XZ 000000018004153c f i libucrt:exit.obj
 0001:00040628       _Exit                      0000000180041628 f   libucrt:exit.obj
 0001:00040634       __acrt_initialize_thread_local_exit_callback 0000000180041634 f   libucrt:exit.obj
 0001:0004063c       _c_exit                    000000018004163c f   libucrt:exit.obj
 0001:0004064c       _cexit                     000000018004164c f   libucrt:exit.obj
 0001:0004065c       _exit                      000000018004165c f   libucrt:exit.obj
 0001:00040668       _is_c_termination_complete 0000000180041668 f   libucrt:exit.obj
 0001:00040670       _register_thread_local_exe_atexit_callback 0000000180041670 f   libucrt:exit.obj
 0001:000406b0       exit                       00000001800416b0 f   libucrt:exit.obj
 0001:000406bc       quick_exit                 00000001800416bc f   libucrt:exit.obj
 0001:000406c8       ??$?RE@__crt_internal_free_policy@@QEBAXQEBE@Z 00000001800416c8 f i libucrt:argv_parsing.obj
 0001:000406d0       ??$?RPEAD@__crt_internal_free_policy@@QEBAXQEBQEAD@Z 00000001800416d0 f i libucrt:argv_parsing.obj
 0001:000406d8       ??$?RPEA_W@__crt_internal_free_policy@@QEBAXQEBQEA_W@Z 00000001800416d8 f i libucrt:argv_parsing.obj
 0001:000409d4       ??$get_module_file_name@$$TAEAY0BAF@DH@?$__crt_char_traits@D@@SAK$$QEA$$TAEAY0BAF@D$$QEAH@Z 00000001800419d4 f i libucrt:argv_parsing.obj
 0001:000409e0       ??$get_module_file_name@$$TAEAY0BAF@_WH@?$__crt_char_traits@_W@@SAK$$QEA$$TAEAY0BAF@_W$$QEAH@Z 00000001800419e0 f i libucrt:argv_parsing.obj
 0001:00040d5c       ??$set_program_name@PEAD@?$__crt_char_traits@D@@SAX$$QEAPEAD@Z 0000000180041d5c f i libucrt:argv_parsing.obj
 0001:00040d68       ??$set_program_name@PEA_W@?$__crt_char_traits@_W@@SAX$$QEAPEA_W@Z 0000000180041d68 f i libucrt:argv_parsing.obj
 0001:00040d84       ??0?$__crt_unique_heap_ptr@EU__crt_internal_free_policy@@@@QEAA@QEAE@Z 0000000180041d84 f i libucrt:argv_parsing.obj
 0001:00040d8c       ??0?$__crt_unique_heap_ptr@PEADU__crt_internal_free_policy@@@@QEAA@QEAPEAD@Z 0000000180041d8c f i libucrt:argv_parsing.obj
 0001:00040d94       ??0?$__crt_unique_heap_ptr@PEA_WU__crt_internal_free_policy@@@@QEAA@QEAPEA_W@Z 0000000180041d94 f i libucrt:argv_parsing.obj
 0001:00040d9c       ??1?$__crt_unique_heap_ptr@EU__crt_internal_free_policy@@@@QEAA@XZ 0000000180041d9c f i libucrt:argv_parsing.obj
 0001:00040db8       ??1?$__crt_unique_heap_ptr@PEADU__crt_internal_free_policy@@@@QEAA@XZ 0000000180041db8 f i libucrt:argv_parsing.obj
 0001:00040dd4       ??1?$__crt_unique_heap_ptr@PEA_WU__crt_internal_free_policy@@@@QEAA@XZ 0000000180041dd4 f i libucrt:argv_parsing.obj
 0001:00040df0       ??B?$__crt_unique_heap_ptr@EU__crt_internal_free_policy@@@@QEBA_NXZ 0000000180041df0 f i libucrt:argv_parsing.obj
 0001:00040e30       ?detach@?$__crt_unique_heap_ptr@EU__crt_internal_free_policy@@@@QEAAPEAEXZ 0000000180041e30 f i libucrt:argv_parsing.obj
 0001:00040e38       ?detach@?$__crt_unique_heap_ptr@PEADU__crt_internal_free_policy@@@@QEAAPEAPEADXZ 0000000180041e38 f i libucrt:argv_parsing.obj
 0001:00040e40       ?detach@?$__crt_unique_heap_ptr@PEA_WU__crt_internal_free_policy@@@@QEAAPEAPEA_WXZ 0000000180041e40 f i libucrt:argv_parsing.obj
 0001:00040e64       ?get@?$__crt_unique_heap_ptr@EU__crt_internal_free_policy@@@@QEBAPEAEXZ 0000000180041e64 f i libucrt:argv_parsing.obj
 0001:00040e68       ?get@?$__crt_unique_heap_ptr@PEADU__crt_internal_free_policy@@@@QEBAPEAPEADXZ 0000000180041e68 f i libucrt:argv_parsing.obj
 0001:00040e6c       ?get@?$__crt_unique_heap_ptr@PEA_WU__crt_internal_free_policy@@@@QEBAPEAPEA_WXZ 0000000180041e6c f i libucrt:argv_parsing.obj
 0001:00040e70       ?get_address_of@?$__crt_unique_heap_ptr@PEADU__crt_internal_free_policy@@@@QEAAPEAPEAPEADXZ 0000000180041e70 f i libucrt:argv_parsing.obj
 0001:00040e74       ?get_address_of@?$__crt_unique_heap_ptr@PEA_WU__crt_internal_free_policy@@@@QEAAPEAPEAPEA_WXZ 0000000180041e74 f i libucrt:argv_parsing.obj
 0001:00040e98       ?is_valid@?$__crt_unique_heap_ptr@EU__crt_internal_free_policy@@@@QEBA_NXZ 0000000180041e98 f i libucrt:argv_parsing.obj
 0001:00040ea0       ?release@?$__crt_unique_heap_ptr@EU__crt_internal_free_policy@@@@QEAAXXZ 0000000180041ea0 f i libucrt:argv_parsing.obj
 0001:00040ebc       ?release@?$__crt_unique_heap_ptr@PEADU__crt_internal_free_policy@@@@QEAAXXZ 0000000180041ebc f i libucrt:argv_parsing.obj
 0001:00040ed8       ?release@?$__crt_unique_heap_ptr@PEA_WU__crt_internal_free_policy@@@@QEAAXXZ 0000000180041ed8 f i libucrt:argv_parsing.obj
 0001:00040f10       __acrt_allocate_buffer_for_argv 0000000180041f10 f   libucrt:argv_parsing.obj
 0001:00040f70       _configure_narrow_argv     0000000180041f70 f   libucrt:argv_parsing.obj
 0001:000410f8       _configure_wide_argv       00000001800420f8 f   libucrt:argv_parsing.obj
 0001:0004127c       _set_pgmptr                000000018004227c f i libucrt:argv_parsing.obj
 0001:00041284       _set_wpgmptr               0000000180042284 f i libucrt:argv_parsing.obj
 0001:0004128c       ??$?R_W@__crt_internal_free_policy@@QEBAXQEB_W@Z 000000018004228c f i libucrt:environment_initialization.obj
 0001:000417b4       ??$get_environment_from_os@$$V@?$__crt_char_traits@D@@SAPEADXZ 00000001800427b4 f i libucrt:environment_initialization.obj
 0001:000417bc       ??$get_environment_from_os@$$V@?$__crt_char_traits@_W@@SAPEA_WXZ 00000001800427bc f i libucrt:environment_initialization.obj
 0001:00041960       ??$set_variable_in_environment_nolock@PEADH@?$__crt_char_traits@D@@SAH$$QEAPEAD$$QEAH@Z 0000000180042960 f i libucrt:environment_initialization.obj
 0001:0004196c       ??$set_variable_in_environment_nolock@PEA_WH@?$__crt_char_traits@_W@@SAH$$QEAPEA_W$$QEAH@Z 000000018004296c f i libucrt:environment_initialization.obj
 0001:00041978       ??$tcscpy_s@PEADAEB_KAEAPEAD@?$__crt_char_traits@D@@SAH$$QEAPEADAEB_KAEAPEAD@Z 0000000180042978 f i libucrt:environment_initialization.obj
 0001:00041988       ??$tcscpy_s@PEA_WAEB_KAEAPEA_W@?$__crt_char_traits@_W@@SAH$$QEAPEA_WAEB_KAEAPEA_W@Z 0000000180042988 f i libucrt:environment_initialization.obj
 0001:00041998       ??$tcslen@AEAPEAD@?$__crt_char_traits@D@@SA_KAEAPEAD@Z 0000000180042998 f i libucrt:environment_initialization.obj
 0001:000419ac       ??$tcslen@AEAPEA_W@?$__crt_char_traits@_W@@SA_KAEAPEA_W@Z 00000001800429ac f i libucrt:environment_initialization.obj
 0001:000419c0       ??$uninitialize@A6AXAEAPEAPEAD@_E@?$dual_state_global@PEAPEAD@__crt_state_management@@QEAAXA6AXAEAPEAPEAD@_E@Z 00000001800429c0 f i libucrt:environment_initialization.obj
 0001:00041a18       ??$uninitialize@A6AXAEAPEAPEA_W@_E@?$dual_state_global@PEAPEA_W@__crt_state_management@@QEAAXA6AXAEAPEAPEA_W@_E@Z 0000000180042a18 f i libucrt:environment_initialization.obj
 0001:00041aa8       ??0?$__crt_unique_heap_ptr@_WU__crt_internal_free_policy@@@@QEAA@QEA_W@Z 0000000180042aa8 f i libucrt:environment_initialization.obj
 0001:00041ab0       ??1?$__crt_unique_heap_ptr@_WU__crt_internal_free_policy@@@@QEAA@XZ 0000000180042ab0 f i libucrt:environment_initialization.obj
 0001:00041acc       ??B?$__crt_unique_heap_ptr@PEADU__crt_internal_free_policy@@@@QEBA_NXZ 0000000180042acc f i libucrt:environment_initialization.obj
 0001:00041ad4       ??B?$__crt_unique_heap_ptr@PEA_WU__crt_internal_free_policy@@@@QEBA_NXZ 0000000180042ad4 f i libucrt:environment_initialization.obj
 0001:00041adc       ??B?$__crt_unique_heap_ptr@_WU__crt_internal_free_policy@@@@QEBA_NXZ 0000000180042adc f i libucrt:environment_initialization.obj
 0001:00041ae4       ?__crt_compute_required_transform_buffer_count@@YA_KIQEBD@Z 0000000180042ae4 f i libucrt:environment_initialization.obj
 0001:00041b08       ?__crt_compute_required_transform_buffer_count@@YA_KIQEB_W@Z 0000000180042b08 f i libucrt:environment_initialization.obj
 0001:00041b38       ?__crt_transform_string@@YA_KIQEBDQEA_W_K@Z 0000000180042b38 f i libucrt:environment_initialization.obj
 0001:00041b5c       ?__crt_transform_string@@YA_KIQEB_WQEAD_K@Z 0000000180042b5c f i libucrt:environment_initialization.obj
 0001:00041b8c       ?detach@?$__crt_unique_heap_ptr@DU__crt_internal_free_policy@@@@QEAAPEADXZ 0000000180042b8c f i libucrt:environment_initialization.obj
 0001:00041b94       ?detach@?$__crt_unique_heap_ptr@_WU__crt_internal_free_policy@@@@QEAAPEA_WXZ 0000000180042b94 f i libucrt:environment_initialization.obj
 0001:00041b9c       ?get@?$__crt_unique_heap_ptr@_WU__crt_internal_free_policy@@@@QEBAPEA_WXZ 0000000180042b9c f i libucrt:environment_initialization.obj
 0001:00041ba0       ?get_current_state_index@__crt_state_management@@YA_KXZ 0000000180042ba0 f i libucrt:environment_initialization.obj
 0001:00041bd4       ?initialize@?$dual_state_global@PEAPEAD@__crt_state_management@@QEAAXQEAPEAD@Z 0000000180042bd4 f i libucrt:environment_initialization.obj
 0001:00041be4       ?initialize@?$dual_state_global@PEAPEA_W@__crt_state_management@@QEAAXQEAPEA_W@Z 0000000180042be4 f i libucrt:environment_initialization.obj
 0001:00041bf4       ?is_valid@?$__crt_unique_heap_ptr@PEADU__crt_internal_free_policy@@@@QEBA_NXZ 0000000180042bf4 f i libucrt:environment_initialization.obj
 0001:00041bfc       ?is_valid@?$__crt_unique_heap_ptr@PEA_WU__crt_internal_free_policy@@@@QEBA_NXZ 0000000180042bfc f i libucrt:environment_initialization.obj
 0001:00041c04       ?is_valid@?$__crt_unique_heap_ptr@_WU__crt_internal_free_policy@@@@QEBA_NXZ 0000000180042c04 f i libucrt:environment_initialization.obj
 0001:00041c18       ?release@?$__crt_unique_heap_ptr@_WU__crt_internal_free_policy@@@@QEAAXXZ 0000000180042c18 f i libucrt:environment_initialization.obj
 0001:00041c34       ?value@?$dual_state_global@PEAPEAD@__crt_state_management@@QEAAAEAPEAPEADXZ 0000000180042c34 f i libucrt:environment_initialization.obj
 0001:00041c38       ?value@?$dual_state_global@PEAPEA_W@__crt_state_management@@QEAAAEAPEAPEA_WXZ 0000000180042c38 f i libucrt:environment_initialization.obj
 0001:00041c3c       __dcrt_get_or_create_narrow_environment_nolock 0000000180042c3c f   libucrt:environment_initialization.obj
 0001:00041c78       __dcrt_get_or_create_wide_environment_nolock 0000000180042c78 f   libucrt:environment_initialization.obj
 0001:00041cb4       __dcrt_uninitialize_environments_nolock 0000000180042cb4 f   libucrt:environment_initialization.obj
 0001:00041cf8       __p__environ               0000000180042cf8 f   libucrt:environment_initialization.obj
 0001:00041d00       __p__wenviron              0000000180042d00 f   libucrt:environment_initialization.obj
 0001:00041d08       _get_initial_narrow_environment 0000000180042d08 f   libucrt:environment_initialization.obj
 0001:00041d58       _get_initial_wide_environment 0000000180042d58 f   libucrt:environment_initialization.obj
 0001:00041da8       _initialize_narrow_environment 0000000180042da8 f   libucrt:environment_initialization.obj
 0001:00041db0       _initialize_wide_environment 0000000180042db0 f   libucrt:environment_initialization.obj
 0001:00041db8       _invoke_watson_if_error    0000000180042db8 f i libucrt:environment_initialization.obj
 0001:00041dec       ??$?B$$A6AXXZ@__crt_fast_encoded_nullptr_t@@QEBAP6AXXZXZ 0000000180042dec f i libucrt:onexit.obj
 0001:00041df4       ??$?BP6AXXZ@__crt_fast_encoded_nullptr_t@@QEBAPEAP6AXXZXZ 0000000180042df4 f i libucrt:onexit.obj
 0001:00041dfc       ??$?RP6AXXZ@__crt_internal_free_policy@@QEBAXQEBQ6AXXZ@Z 0000000180042dfc f i libucrt:onexit.obj
 0001:00041ed4       ??$__crt_fast_decode_pointer@P6AXXZ@@YAP6AXXZQ6AXXZ@Z 0000000180042ed4 f i libucrt:onexit.obj
 0001:00041eec       ??$__crt_fast_decode_pointer@PEAP6AXXZ@@YAPEAP6AXXZQEAP6AXXZ@Z 0000000180042eec f i libucrt:onexit.obj
 0001:00041f04       ??$__crt_fast_encode_pointer@P6AHXZ@@YAP6AHXZQ6AHXZ@Z 0000000180042f04 f i libucrt:onexit.obj
 0001:00041f24       ??$__crt_fast_encode_pointer@P6AXXZ@@YAP6AXXZQ6AXXZ@Z 0000000180042f24 f i libucrt:onexit.obj
 0001:00041f44       ??$__crt_fast_encode_pointer@PEAP6AXXZ@@YAPEAP6AXXZQEAP6AXXZ@Z 0000000180042f44 f i libucrt:onexit.obj
 0001:00041f98       ??0?$__crt_unique_heap_ptr@P6AXXZU__crt_internal_free_policy@@@@QEAA@QEAP6AXXZ@Z 0000000180042f98 f i libucrt:onexit.obj
 0001:00041fa0       ??1?$__crt_unique_heap_ptr@P6AXXZU__crt_internal_free_policy@@@@QEAA@XZ 0000000180042fa0 f i libucrt:onexit.obj
 0001:00041fbc       ??1scoped_global_state_reset@__crt_state_management@@QEAA@XZ 0000000180042fbc f i libucrt:onexit.obj
 0001:000422b0       ?detach@?$__crt_unique_heap_ptr@P6AXXZU__crt_internal_free_policy@@@@QEAAPEAP6AXXZXZ 00000001800432b0 f i libucrt:onexit.obj
 0001:000422b8       ?release@?$__crt_unique_heap_ptr@P6AXXZU__crt_internal_free_policy@@@@QEAAXXZ 00000001800432b8 f i libucrt:onexit.obj
 0001:000422d4       _crt_at_quick_exit         00000001800432d4 f   libucrt:onexit.obj
 0001:000422e4       _crt_atexit                00000001800432e4 f   libucrt:onexit.obj
 0001:000422f4       _execute_onexit_table      00000001800432f4 f   libucrt:onexit.obj
 0001:00042338       _initialize_onexit_table   0000000180043338 f   libucrt:onexit.obj
 0001:00042360       _register_onexit_function  0000000180043360 f   libucrt:onexit.obj
 0001:000424e8       ??$?BX@__crt_fast_encoded_nullptr_t@@QEBAPEAXXZ 00000001800434e8 f i libucrt:initialization.obj
 0001:000424f0       ??$__crt_fast_encode_pointer@PEAX@@YAPEAXQEAX@Z 00000001800434f0 f i libucrt:initialization.obj
 0001:000425ac       ?__acrt_stdio_is_initialized@@YA_NXZ 00000001800435ac f i libucrt:initialization.obj
 0001:000425b8       ?initialize@?$dual_state_global@PEAU__crt_locale_data@@@__crt_state_management@@QEAAXQEAU__crt_locale_data@@@Z 00000001800435b8 f i libucrt:initialization.obj
 0001:000425c8       __acrt_initialize          00000001800435c8 f   libucrt:initialization.obj
 0001:000425dc       __acrt_thread_attach       00000001800435dc f   libucrt:initialization.obj
 0001:000425f0       __acrt_thread_detach       00000001800435f0 f   libucrt:initialization.obj
 0001:00042600       __acrt_uninitialize        0000000180043600 f   libucrt:initialization.obj
 0001:00042638       __acrt_uninitialize_critical 0000000180043638 f   libucrt:initialization.obj
 0001:0004265c       _get_terminate             000000018004365c f   libucrt:terminate.obj
 0001:00042680       set_terminate              0000000180043680 f   libucrt:terminate.obj
 0001:000426ac       terminate                  00000001800436ac f   libucrt:terminate.obj
 0001:000426d8       _set_abort_behavior        00000001800436d8 f   libucrt:abort.obj
 0001:000426f4       abort                      00000001800436f4 f   libucrt:abort.obj
 0001:0004274c       malloc                     000000018004374c f   libucrt:malloc.obj
 0001:000427b8       strcpy_s                   00000001800437b8 f   libucrt:strcpy_s.obj
 0001:00042818       ??$?0AEBV?$stream_output_adapter@D@__crt_stdio_output@@AEB_KAEBQEBDAEAV__crt_cached_ptd_host@@AEBQEAD@?$format_validation_base@DV?$stream_output_adapter@D@__crt_stdio_output@@@__crt_stdio_output@@IEAA@AEBV?$stream_output_adapter@D@1@AEB_KAEBQEBDAEAV__crt_cached_ptd_host@@AEBQEAD@Z 0000000180043818 f i libucrt:output.obj
 0001:00042888       ??$?0AEBV?$stream_output_adapter@D@__crt_stdio_output@@AEB_KAEBQEBDAEAV__crt_cached_ptd_host@@AEBQEAD@?$positional_parameter_base@DV?$stream_output_adapter@D@__crt_stdio_output@@@__crt_stdio_output@@IEAA@AEBV?$stream_output_adapter@D@1@AEB_KAEBQEBDAEAV__crt_cached_ptd_host@@AEBQEAD@Z 0000000180043888 f i libucrt:output.obj
 0001:00042918       ??$?0AEBV?$stream_output_adapter@D@__crt_stdio_output@@AEB_KAEBQEBDAEAV__crt_cached_ptd_host@@AEBQEAD@?$standard_base@DV?$stream_output_adapter@D@__crt_stdio_output@@@__crt_stdio_output@@IEAA@AEBV?$stream_output_adapter@D@1@AEB_KAEBQEBDAEAV__crt_cached_ptd_host@@AEBQEAD@Z 0000000180043918 f i libucrt:output.obj
 0001:00042988       ??$?0AEBV?$stream_output_adapter@_W@__crt_stdio_output@@AEB_KAEBQEB_WAEAV__crt_cached_ptd_host@@AEBQEAD@?$format_validation_base@_WV?$stream_output_adapter@_W@__crt_stdio_output@@@__crt_stdio_output@@IEAA@AEBV?$stream_output_adapter@_W@1@AEB_KAEBQEB_WAEAV__crt_cached_ptd_host@@AEBQEAD@Z 0000000180043988 f i libucrt:output.obj
 0001:000429fc       ??$?0AEBV?$stream_output_adapter@_W@__crt_stdio_output@@AEB_KAEBQEB_WAEAV__crt_cached_ptd_host@@AEBQEAD@?$positional_parameter_base@_WV?$stream_output_adapter@_W@__crt_stdio_output@@@__crt_stdio_output@@IEAA@AEBV?$stream_output_adapter@_W@1@AEB_KAEBQEB_WAEAV__crt_cached_ptd_host@@AEBQEAD@Z 00000001800439fc f i libucrt:output.obj
 0001:00042a90       ??$?0AEBV?$stream_output_adapter@_W@__crt_stdio_output@@AEB_KAEBQEB_WAEAV__crt_cached_ptd_host@@AEBQEAD@?$standard_base@_WV?$stream_output_adapter@_W@__crt_stdio_output@@@__crt_stdio_output@@IEAA@AEBV?$stream_output_adapter@_W@1@AEB_KAEBQEB_WAEAV__crt_cached_ptd_host@@AEBQEAD@Z 0000000180043a90 f i libucrt:output.obj
 0001:00042b04       ??$?0AEBV?$string_output_adapter@D@__crt_stdio_output@@AEB_KAEBQEBDAEAV__crt_cached_ptd_host@@AEBQEAD@?$format_validation_base@DV?$string_output_adapter@D@__crt_stdio_output@@@__crt_stdio_output@@IEAA@AEBV?$string_output_adapter@D@1@AEB_KAEBQEBDAEAV__crt_cached_ptd_host@@AEBQEAD@Z 0000000180043b04 f i libucrt:output.obj
 0001:00042b74       ??$?0AEBV?$string_output_adapter@D@__crt_stdio_output@@AEB_KAEBQEBDAEAV__crt_cached_ptd_host@@AEBQEAD@?$positional_parameter_base@DV?$string_output_adapter@D@__crt_stdio_output@@@__crt_stdio_output@@IEAA@AEBV?$string_output_adapter@D@1@AEB_KAEBQEBDAEAV__crt_cached_ptd_host@@AEBQEAD@Z 0000000180043b74 f i libucrt:output.obj
 0001:00042c04       ??$?0AEBV?$string_output_adapter@D@__crt_stdio_output@@AEB_KAEBQEBDAEAV__crt_cached_ptd_host@@AEBQEAD@?$standard_base@DV?$string_output_adapter@D@__crt_stdio_output@@@__crt_stdio_output@@IEAA@AEBV?$string_output_adapter@D@1@AEB_KAEBQEBDAEAV__crt_cached_ptd_host@@AEBQEAD@Z 0000000180043c04 f i libucrt:output.obj
 0001:00042c74       ??$?0AEBV?$string_output_adapter@_W@__crt_stdio_output@@AEB_KAEBQEB_WAEAV__crt_cached_ptd_host@@AEBQEAD@?$format_validation_base@_WV?$string_output_adapter@_W@__crt_stdio_output@@@__crt_stdio_output@@IEAA@AEBV?$string_output_adapter@_W@1@AEB_KAEBQEB_WAEAV__crt_cached_ptd_host@@AEBQEAD@Z 0000000180043c74 f i libucrt:output.obj
 0001:00042ce8       ??$?0AEBV?$string_output_adapter@_W@__crt_stdio_output@@AEB_KAEBQEB_WAEAV__crt_cached_ptd_host@@AEBQEAD@?$positional_parameter_base@_WV?$string_output_adapter@_W@__crt_stdio_output@@@__crt_stdio_output@@IEAA@AEBV?$string_output_adapter@_W@1@AEB_KAEBQEB_WAEAV__crt_cached_ptd_host@@AEBQEAD@Z 0000000180043ce8 f i libucrt:output.obj
 0001:00042d7c       ??$?0AEBV?$string_output_adapter@_W@__crt_stdio_output@@AEB_KAEBQEB_WAEAV__crt_cached_ptd_host@@AEBQEAD@?$standard_base@_WV?$string_output_adapter@_W@__crt_stdio_output@@@__crt_stdio_output@@IEAA@AEBV?$string_output_adapter@_W@1@AEB_KAEBQEB_WAEAV__crt_cached_ptd_host@@AEBQEAD@Z 0000000180043d7c f i libucrt:output.obj
 0001:00043060       ??$_tcstol_internal@DPEAPEAD$0A@@@YAJAEAV__crt_cached_ptd_host@@QEBDQEAPEADH@Z 0000000180044060 f i libucrt:output.obj
 0001:00043090       ??$_tcstol_internal@_WPEAPEA_W$0A@@@YAJAEAV__crt_cached_ptd_host@@QEB_WQEAPEA_WH@Z 0000000180044090 f i libucrt:output.obj
 0001:000441d0       ??$count@D@formatting_buffer@__crt_stdio_output@@QEBA_KXZ 00000001800451d0 f i libucrt:output.obj
 0001:000441ec       ??$count@_W@formatting_buffer@__crt_stdio_output@@QEBA_KXZ 00000001800451ec f i libucrt:output.obj
 0001:00044208       ??$data@D@formatting_buffer@__crt_stdio_output@@QEAAPEADXZ 0000000180045208 f i libucrt:output.obj
 0001:00044218       ??$data@_W@formatting_buffer@__crt_stdio_output@@QEAAPEA_WXZ 0000000180045218 f i libucrt:output.obj
 0001:00044228       ??$ensure_buffer_is_big_enough@D@formatting_buffer@__crt_stdio_output@@QEAA_N_KAEAV__crt_cached_ptd_host@@@Z 0000000180045228 f i libucrt:output.obj
 0001:000442d0       ??$ensure_buffer_is_big_enough@_W@formatting_buffer@__crt_stdio_output@@QEAA_N_KAEAV__crt_cached_ptd_host@@@Z 00000001800452d0 f i libucrt:output.obj
 0001:0004437c       ??$extract_argument_from_va_list@C_J@?$positional_parameter_base@DV?$stream_output_adapter@D@__crt_stdio_output@@@__crt_stdio_output@@IEAA_NAEA_J@Z 000000018004537c f i libucrt:output.obj
 0001:00044488       ??$extract_argument_from_va_list@C_J@?$positional_parameter_base@DV?$string_output_adapter@D@__crt_stdio_output@@@__crt_stdio_output@@IEAA_NAEA_J@Z 0000000180045488 f i libucrt:output.obj
 0001:00044594       ??$extract_argument_from_va_list@C_J@?$positional_parameter_base@_WV?$stream_output_adapter@_W@__crt_stdio_output@@@__crt_stdio_output@@IEAA_NAEA_J@Z 0000000180045594 f i libucrt:output.obj
 0001:000446a0       ??$extract_argument_from_va_list@C_J@?$positional_parameter_base@_WV?$string_output_adapter@_W@__crt_stdio_output@@@__crt_stdio_output@@IEAA_NAEA_J@Z 00000001800456a0 f i libucrt:output.obj
 0001:000447ac       ??$extract_argument_from_va_list@C_J@?$standard_base@DV?$stream_output_adapter@D@__crt_stdio_output@@@__crt_stdio_output@@IEAA_NAEA_J@Z 00000001800457ac f i libucrt:output.obj
 0001:000447c4       ??$extract_argument_from_va_list@C_J@?$standard_base@DV?$string_output_adapter@D@__crt_stdio_output@@@__crt_stdio_output@@IEAA_NAEA_J@Z 00000001800457c4 f i libucrt:output.obj
 0001:000447dc       ??$extract_argument_from_va_list@C_J@?$standard_base@_WV?$stream_output_adapter@_W@__crt_stdio_output@@@__crt_stdio_output@@IEAA_NAEA_J@Z 00000001800457dc f i libucrt:output.obj
 0001:000447f4       ??$extract_argument_from_va_list@C_J@?$standard_base@_WV?$string_output_adapter@_W@__crt_stdio_output@@@__crt_stdio_output@@IEAA_NAEA_J@Z 00000001800457f4 f i libucrt:output.obj
 0001:0004480c       ??$extract_argument_from_va_list@E_J@?$positional_parameter_base@DV?$stream_output_adapter@D@__crt_stdio_output@@@__crt_stdio_output@@IEAA_NAEA_J@Z 000000018004580c f i libucrt:output.obj
 0001:00044914       ??$extract_argument_from_va_list@E_J@?$positional_parameter_base@DV?$string_output_adapter@D@__crt_stdio_output@@@__crt_stdio_output@@IEAA_NAEA_J@Z 0000000180045914 f i libucrt:output.obj
 0001:00044a1c       ??$extract_argument_from_va_list@E_J@?$positional_parameter_base@_WV?$stream_output_adapter@_W@__crt_stdio_output@@@__crt_stdio_output@@IEAA_NAEA_J@Z 0000000180045a1c f i libucrt:output.obj
 0001:00044b28       ??$extract_argument_from_va_list@E_J@?$positional_parameter_base@_WV?$string_output_adapter@_W@__crt_stdio_output@@@__crt_stdio_output@@IEAA_NAEA_J@Z 0000000180045b28 f i libucrt:output.obj
 0001:00044c34       ??$extract_argument_from_va_list@E_J@?$standard_base@DV?$stream_output_adapter@D@__crt_stdio_output@@@__crt_stdio_output@@IEAA_NAEA_J@Z 0000000180045c34 f i libucrt:output.obj
 0001:00044c4c       ??$extract_argument_from_va_list@E_J@?$standard_base@DV?$string_output_adapter@D@__crt_stdio_output@@@__crt_stdio_output@@IEAA_NAEA_J@Z 0000000180045c4c f i libucrt:output.obj
 0001:00044c64       ??$extract_argument_from_va_list@E_J@?$standard_base@_WV?$stream_output_adapter@_W@__crt_stdio_output@@@__crt_stdio_output@@IEAA_NAEA_J@Z 0000000180045c64 f i libucrt:output.obj
 0001:00044c7c       ??$extract_argument_from_va_list@E_J@?$standard_base@_WV?$string_output_adapter@_W@__crt_stdio_output@@@__crt_stdio_output@@IEAA_NAEA_J@Z 0000000180045c7c f i libucrt:output.obj
 0001:00044c94       ??$extract_argument_from_va_list@F_J@?$positional_parameter_base@DV?$stream_output_adapter@D@__crt_stdio_output@@@__crt_stdio_output@@IEAA_NAEA_J@Z 0000000180045c94 f i libucrt:output.obj
 0001:00044da0       ??$extract_argument_from_va_list@F_J@?$positional_parameter_base@DV?$string_output_adapter@D@__crt_stdio_output@@@__crt_stdio_output@@IEAA_NAEA_J@Z 0000000180045da0 f i libucrt:output.obj
 0001:00044eac       ??$extract_argument_from_va_list@F_J@?$positional_parameter_base@_WV?$stream_output_adapter@_W@__crt_stdio_output@@@__crt_stdio_output@@IEAA_NAEA_J@Z 0000000180045eac f i libucrt:output.obj
 0001:00044fb8       ??$extract_argument_from_va_list@F_J@?$positional_parameter_base@_WV?$string_output_adapter@_W@__crt_stdio_output@@@__crt_stdio_output@@IEAA_NAEA_J@Z 0000000180045fb8 f i libucrt:output.obj
 0001:000450c4       ??$extract_argument_from_va_list@F_J@?$standard_base@DV?$stream_output_adapter@D@__crt_stdio_output@@@__crt_stdio_output@@IEAA_NAEA_J@Z 00000001800460c4 f i libucrt:output.obj
 0001:000450dc       ??$extract_argument_from_va_list@F_J@?$standard_base@DV?$string_output_adapter@D@__crt_stdio_output@@@__crt_stdio_output@@IEAA_NAEA_J@Z 00000001800460dc f i libucrt:output.obj
 0001:000450f4       ??$extract_argument_from_va_list@F_J@?$standard_base@_WV?$stream_output_adapter@_W@__crt_stdio_output@@@__crt_stdio_output@@IEAA_NAEA_J@Z 00000001800460f4 f i libucrt:output.obj
 0001:0004510c       ??$extract_argument_from_va_list@F_J@?$standard_base@_WV?$string_output_adapter@_W@__crt_stdio_output@@@__crt_stdio_output@@IEAA_NAEA_J@Z 000000018004610c f i libucrt:output.obj
 0001:00045124       ??$extract_argument_from_va_list@GD@?$positional_parameter_base@DV?$stream_output_adapter@D@__crt_stdio_output@@@__crt_stdio_output@@IEAA_NAEAD@Z 0000000180046124 f i libucrt:output.obj
 0001:00045228       ??$extract_argument_from_va_list@GD@?$positional_parameter_base@DV?$string_output_adapter@D@__crt_stdio_output@@@__crt_stdio_output@@IEAA_NAEAD@Z 0000000180046228 f i libucrt:output.obj
 0001:0004532c       ??$extract_argument_from_va_list@GD@?$standard_base@DV?$stream_output_adapter@D@__crt_stdio_output@@@__crt_stdio_output@@IEAA_NAEAD@Z 000000018004632c f i libucrt:output.obj
 0001:00045340       ??$extract_argument_from_va_list@GD@?$standard_base@DV?$string_output_adapter@D@__crt_stdio_output@@@__crt_stdio_output@@IEAA_NAEAD@Z 0000000180046340 f i libucrt:output.obj
 0001:00045354       ??$extract_argument_from_va_list@G_J@?$positional_parameter_base@DV?$stream_output_adapter@D@__crt_stdio_output@@@__crt_stdio_output@@IEAA_NAEA_J@Z 0000000180046354 f i libucrt:output.obj
 0001:0004545c       ??$extract_argument_from_va_list@G_J@?$positional_parameter_base@DV?$string_output_adapter@D@__crt_stdio_output@@@__crt_stdio_output@@IEAA_NAEA_J@Z 000000018004645c f i libucrt:output.obj
 0001:00045564       ??$extract_argument_from_va_list@G_J@?$positional_parameter_base@_WV?$stream_output_adapter@_W@__crt_stdio_output@@@__crt_stdio_output@@IEAA_NAEA_J@Z 0000000180046564 f i libucrt:output.obj
 0001:00045670       ??$extract_argument_from_va_list@G_J@?$positional_parameter_base@_WV?$string_output_adapter@_W@__crt_stdio_output@@@__crt_stdio_output@@IEAA_NAEA_J@Z 0000000180046670 f i libucrt:output.obj
 0001:0004577c       ??$extract_argument_from_va_list@G_J@?$standard_base@DV?$stream_output_adapter@D@__crt_stdio_output@@@__crt_stdio_output@@IEAA_NAEA_J@Z 000000018004677c f i libucrt:output.obj
 0001:00045794       ??$extract_argument_from_va_list@G_J@?$standard_base@DV?$string_output_adapter@D@__crt_stdio_output@@@__crt_stdio_output@@IEAA_NAEA_J@Z 0000000180046794 f i libucrt:output.obj
 0001:000457ac       ??$extract_argument_from_va_list@G_J@?$standard_base@_WV?$stream_output_adapter@_W@__crt_stdio_output@@@__crt_stdio_output@@IEAA_NAEA_J@Z 00000001800467ac f i libucrt:output.obj
 0001:000457c4       ??$extract_argument_from_va_list@G_J@?$standard_base@_WV?$string_output_adapter@_W@__crt_stdio_output@@@__crt_stdio_output@@IEAA_NAEA_J@Z 00000001800467c4 f i libucrt:output.obj
 0001:000457dc       ??$extract_argument_from_va_list@H_J@?$positional_parameter_base@DV?$stream_output_adapter@D@__crt_stdio_output@@@__crt_stdio_output@@IEAA_NAEA_J@Z 00000001800467dc f i libucrt:output.obj
 0001:000458e4       ??$extract_argument_from_va_list@H_J@?$positional_parameter_base@DV?$string_output_adapter@D@__crt_stdio_output@@@__crt_stdio_output@@IEAA_NAEA_J@Z 00000001800468e4 f i libucrt:output.obj
 0001:000459ec       ??$extract_argument_from_va_list@H_J@?$positional_parameter_base@_WV?$stream_output_adapter@_W@__crt_stdio_output@@@__crt_stdio_output@@IEAA_NAEA_J@Z 00000001800469ec f i libucrt:output.obj
 0001:00045af8       ??$extract_argument_from_va_list@H_J@?$positional_parameter_base@_WV?$string_output_adapter@_W@__crt_stdio_output@@@__crt_stdio_output@@IEAA_NAEA_J@Z 0000000180046af8 f i libucrt:output.obj
 0001:00045c04       ??$extract_argument_from_va_list@H_J@?$standard_base@DV?$stream_output_adapter@D@__crt_stdio_output@@@__crt_stdio_output@@IEAA_NAEA_J@Z 0000000180046c04 f i libucrt:output.obj
 0001:00045c1c       ??$extract_argument_from_va_list@H_J@?$standard_base@DV?$string_output_adapter@D@__crt_stdio_output@@@__crt_stdio_output@@IEAA_NAEA_J@Z 0000000180046c1c f i libucrt:output.obj
 0001:00045c34       ??$extract_argument_from_va_list@H_J@?$standard_base@_WV?$stream_output_adapter@_W@__crt_stdio_output@@@__crt_stdio_output@@IEAA_NAEA_J@Z 0000000180046c34 f i libucrt:output.obj
 0001:00045c4c       ??$extract_argument_from_va_list@H_J@?$standard_base@_WV?$string_output_adapter@_W@__crt_stdio_output@@@__crt_stdio_output@@IEAA_NAEA_J@Z 0000000180046c4c f i libucrt:output.obj
 0001:00045c64       ??$extract_argument_from_va_list@I_J@?$positional_parameter_base@DV?$stream_output_adapter@D@__crt_stdio_output@@@__crt_stdio_output@@IEAA_NAEA_J@Z 0000000180046c64 f i libucrt:output.obj
 0001:00045d6c       ??$extract_argument_from_va_list@I_J@?$positional_parameter_base@DV?$string_output_adapter@D@__crt_stdio_output@@@__crt_stdio_output@@IEAA_NAEA_J@Z 0000000180046d6c f i libucrt:output.obj
 0001:00045e74       ??$extract_argument_from_va_list@I_J@?$positional_parameter_base@_WV?$stream_output_adapter@_W@__crt_stdio_output@@@__crt_stdio_output@@IEAA_NAEA_J@Z 0000000180046e74 f i libucrt:output.obj
 0001:00045f7c       ??$extract_argument_from_va_list@I_J@?$positional_parameter_base@_WV?$string_output_adapter@_W@__crt_stdio_output@@@__crt_stdio_output@@IEAA_NAEA_J@Z 0000000180046f7c f i libucrt:output.obj
 0001:00046084       ??$extract_argument_from_va_list@I_J@?$standard_base@DV?$stream_output_adapter@D@__crt_stdio_output@@@__crt_stdio_output@@IEAA_NAEA_J@Z 0000000180047084 f i libucrt:output.obj
 0001:0004609c       ??$extract_argument_from_va_list@I_J@?$standard_base@DV?$string_output_adapter@D@__crt_stdio_output@@@__crt_stdio_output@@IEAA_NAEA_J@Z 000000018004709c f i libucrt:output.obj
 0001:000460b4       ??$extract_argument_from_va_list@I_J@?$standard_base@_WV?$stream_output_adapter@_W@__crt_stdio_output@@@__crt_stdio_output@@IEAA_NAEA_J@Z 00000001800470b4 f i libucrt:output.obj
 0001:000460cc       ??$extract_argument_from_va_list@I_J@?$standard_base@_WV?$string_output_adapter@_W@__crt_stdio_output@@@__crt_stdio_output@@IEAA_NAEA_J@Z 00000001800470cc f i libucrt:output.obj
 0001:000460e4       ??$extract_argument_from_va_list@PEADPEAD@?$positional_parameter_base@DV?$stream_output_adapter@D@__crt_stdio_output@@@__crt_stdio_output@@IEAA_NAEAPEAD@Z 00000001800470e4 f i libucrt:output.obj
 0001:000461ec       ??$extract_argument_from_va_list@PEADPEAD@?$positional_parameter_base@DV?$string_output_adapter@D@__crt_stdio_output@@@__crt_stdio_output@@IEAA_NAEAPEAD@Z 00000001800471ec f i libucrt:output.obj
 0001:000462f4       ??$extract_argument_from_va_list@PEADPEAD@?$positional_parameter_base@_WV?$stream_output_adapter@_W@__crt_stdio_output@@@__crt_stdio_output@@IEAA_NAEAPEAD@Z 00000001800472f4 f i libucrt:output.obj
 0001:00046400       ??$extract_argument_from_va_list@PEADPEAD@?$positional_parameter_base@_WV?$string_output_adapter@_W@__crt_stdio_output@@@__crt_stdio_output@@IEAA_NAEAPEAD@Z 0000000180047400 f i libucrt:output.obj
 0001:0004650c       ??$extract_argument_from_va_list@PEADPEAD@?$standard_base@DV?$stream_output_adapter@D@__crt_stdio_output@@@__crt_stdio_output@@IEAA_NAEAPEAD@Z 000000018004750c f i libucrt:output.obj
 0001:00046524       ??$extract_argument_from_va_list@PEADPEAD@?$standard_base@DV?$string_output_adapter@D@__crt_stdio_output@@@__crt_stdio_output@@IEAA_NAEAPEAD@Z 0000000180047524 f i libucrt:output.obj
 0001:0004653c       ??$extract_argument_from_va_list@PEADPEAD@?$standard_base@_WV?$stream_output_adapter@_W@__crt_stdio_output@@@__crt_stdio_output@@IEAA_NAEAPEAD@Z 000000018004753c f i libucrt:output.obj
 0001:00046554       ??$extract_argument_from_va_list@PEADPEAD@?$standard_base@_WV?$string_output_adapter@_W@__crt_stdio_output@@@__crt_stdio_output@@IEAA_NAEAPEAD@Z 0000000180047554 f i libucrt:output.obj
 0001:0004656c       ??$extract_argument_from_va_list@PEAUansi_string@?1??type_case_Z@?$output_processor@DV?$stream_output_adapter@D@__crt_stdio_output@@V?$format_validation_base@DV?$stream_output_adapter@D@__crt_stdio_output@@@2@@__crt_stdio_output@@AEAA_NXZ@PEAU1?1??234@AEAA_NXZ@@?$standard_base@DV?$stream_output_adapter@D@__crt_stdio_output@@@__crt_stdio_output@@IEAA_NAEAPEAUansi_string@?1??type_case_Z@?$output_processor@DV?$stream_output_adapter@D@__crt_stdio_output@@V?$format_validation_base@DV?$stream_output_adapter@D@__crt_stdio_output@@@2@@1@AEAA_NXZ@@Z 000000018004756c f i libucrt:output.obj
 0001:00046584       ??$extract_argument_from_va_list@PEAUansi_string@?1??type_case_Z@?$output_processor@DV?$stream_output_adapter@D@__crt_stdio_output@@V?$positional_parameter_base@DV?$stream_output_adapter@D@__crt_stdio_output@@@2@@__crt_stdio_output@@AEAA_NXZ@PEAU1?1??234@AEAA_NXZ@@?$positional_parameter_base@DV?$stream_output_adapter@D@__crt_stdio_output@@@__crt_stdio_output@@IEAA_NAEAPEAUansi_string@?1??type_case_Z@?$output_processor@DV?$stream_output_adapter@D@__crt_stdio_output@@V?$positional_parameter_base@DV?$stream_output_adapter@D@__crt_stdio_output@@@2@@1@AEAA_NXZ@@Z 0000000180047584 f i libucrt:output.obj
 0001:0004668c       ??$extract_argument_from_va_list@PEAUansi_string@?1??type_case_Z@?$output_processor@DV?$stream_output_adapter@D@__crt_stdio_output@@V?$positional_parameter_base@DV?$stream_output_adapter@D@__crt_stdio_output@@@2@@__crt_stdio_output@@AEAA_NXZ@PEAU1?1??234@AEAA_NXZ@@?$standard_base@DV?$stream_output_adapter@D@__crt_stdio_output@@@__crt_stdio_output@@IEAA_NAEAPEAUansi_string@?1??type_case_Z@?$output_processor@DV?$stream_output_adapter@D@__crt_stdio_output@@V?$positional_parameter_base@DV?$stream_output_adapter@D@__crt_stdio_output@@@2@@1@AEAA_NXZ@@Z 000000018004768c f i libucrt:output.obj
 0001:000466a4       ??$extract_argument_from_va_list@PEAUansi_string@?1??type_case_Z@?$output_processor@DV?$stream_output_adapter@D@__crt_stdio_output@@V?$standard_base@DV?$stream_output_adapter@D@__crt_stdio_output@@@2@@__crt_stdio_output@@AEAA_NXZ@PEAU1?1??234@AEAA_NXZ@@?$standard_base@DV?$stream_output_adapter@D@__crt_stdio_output@@@__crt_stdio_output@@IEAA_NAEAPEAUansi_string@?1??type_case_Z@?$output_processor@DV?$stream_output_adapter@D@__crt_stdio_output@@V?$standard_base@DV?$stream_output_adapter@D@__crt_stdio_output@@@2@@1@AEAA_NXZ@@Z 00000001800476a4 f i libucrt:output.obj
 0001:000466bc       ??$extract_argument_from_va_list@PEAUansi_string@?1??type_case_Z@?$output_processor@DV?$string_output_adapter@D@__crt_stdio_output@@V?$format_validation_base@DV?$string_output_adapter@D@__crt_stdio_output@@@2@@__crt_stdio_output@@AEAA_NXZ@PEAU1?1??234@AEAA_NXZ@@?$standard_base@DV?$string_output_adapter@D@__crt_stdio_output@@@__crt_stdio_output@@IEAA_NAEAPEAUansi_string@?1??type_case_Z@?$output_processor@DV?$string_output_adapter@D@__crt_stdio_output@@V?$format_validation_base@DV?$string_output_adapter@D@__crt_stdio_output@@@2@@1@AEAA_NXZ@@Z 00000001800476bc f i libucrt:output.obj
 0001:000466d4       ??$extract_argument_from_va_list@PEAUansi_string@?1??type_case_Z@?$output_processor@DV?$string_output_adapter@D@__crt_stdio_output@@V?$positional_parameter_base@DV?$string_output_adapter@D@__crt_stdio_output@@@2@@__crt_stdio_output@@AEAA_NXZ@PEAU1?1??234@AEAA_NXZ@@?$positional_parameter_base@DV?$string_output_adapter@D@__crt_stdio_output@@@__crt_stdio_output@@IEAA_NAEAPEAUansi_string@?1??type_case_Z@?$output_processor@DV?$string_output_adapter@D@__crt_stdio_output@@V?$positional_parameter_base@DV?$string_output_adapter@D@__crt_stdio_output@@@2@@1@AEAA_NXZ@@Z 00000001800476d4 f i libucrt:output.obj
 0001:000467dc       ??$extract_argument_from_va_list@PEAUansi_string@?1??type_case_Z@?$output_processor@DV?$string_output_adapter@D@__crt_stdio_output@@V?$positional_parameter_base@DV?$string_output_adapter@D@__crt_stdio_output@@@2@@__crt_stdio_output@@AEAA_NXZ@PEAU1?1??234@AEAA_NXZ@@?$standard_base@DV?$string_output_adapter@D@__crt_stdio_output@@@__crt_stdio_output@@IEAA_NAEAPEAUansi_string@?1??type_case_Z@?$output_processor@DV?$string_output_adapter@D@__crt_stdio_output@@V?$positional_parameter_base@DV?$string_output_adapter@D@__crt_stdio_output@@@2@@1@AEAA_NXZ@@Z 00000001800477dc f i libucrt:output.obj
 0001:000467f4       ??$extract_argument_from_va_list@PEAUansi_string@?1??type_case_Z@?$output_processor@DV?$string_output_adapter@D@__crt_stdio_output@@V?$standard_base@DV?$string_output_adapter@D@__crt_stdio_output@@@2@@__crt_stdio_output@@AEAA_NXZ@PEAU1?1??234@AEAA_NXZ@@?$standard_base@DV?$string_output_adapter@D@__crt_stdio_output@@@__crt_stdio_output@@IEAA_NAEAPEAUansi_string@?1??type_case_Z@?$output_processor@DV?$string_output_adapter@D@__crt_stdio_output@@V?$standard_base@DV?$string_output_adapter@D@__crt_stdio_output@@@2@@1@AEAA_NXZ@@Z 00000001800477f4 f i libucrt:output.obj
 0001:0004680c       ??$extract_argument_from_va_list@PEAUansi_string@?1??type_case_Z@?$output_processor@_WV?$stream_output_adapter@_W@__crt_stdio_output@@V?$format_validation_base@_WV?$stream_output_adapter@_W@__crt_stdio_output@@@2@@__crt_stdio_output@@AEAA_NXZ@PEAU1?1??234@AEAA_NXZ@@?$standard_base@_WV?$stream_output_adapter@_W@__crt_stdio_output@@@__crt_stdio_output@@IEAA_NAEAPEAUansi_string@?1??type_case_Z@?$output_processor@_WV?$stream_output_adapter@_W@__crt_stdio_output@@V?$format_validation_base@_WV?$stream_output_adapter@_W@__crt_stdio_output@@@2@@1@AEAA_NXZ@@Z 000000018004780c f i libucrt:output.obj
 0001:00046824       ??$extract_argument_from_va_list@PEAUansi_string@?1??type_case_Z@?$output_processor@_WV?$stream_output_adapter@_W@__crt_stdio_output@@V?$positional_parameter_base@_WV?$stream_output_adapter@_W@__crt_stdio_output@@@2@@__crt_stdio_output@@AEAA_NXZ@PEAU1?1??234@AEAA_NXZ@@?$positional_parameter_base@_WV?$stream_output_adapter@_W@__crt_stdio_output@@@__crt_stdio_output@@IEAA_NAEAPEAUansi_string@?1??type_case_Z@?$output_processor@_WV?$stream_output_adapter@_W@__crt_stdio_output@@V?$positional_parameter_base@_WV?$stream_output_adapter@_W@__crt_stdio_output@@@2@@1@AEAA_NXZ@@Z 0000000180047824 f i libucrt:output.obj
 0001:00046930       ??$extract_argument_from_va_list@PEAUansi_string@?1??type_case_Z@?$output_processor@_WV?$stream_output_adapter@_W@__crt_stdio_output@@V?$positional_parameter_base@_WV?$stream_output_adapter@_W@__crt_stdio_output@@@2@@__crt_stdio_output@@AEAA_NXZ@PEAU1?1??234@AEAA_NXZ@@?$standard_base@_WV?$stream_output_adapter@_W@__crt_stdio_output@@@__crt_stdio_output@@IEAA_NAEAPEAUansi_string@?1??type_case_Z@?$output_processor@_WV?$stream_output_adapter@_W@__crt_stdio_output@@V?$positional_parameter_base@_WV?$stream_output_adapter@_W@__crt_stdio_output@@@2@@1@AEAA_NXZ@@Z 0000000180047930 f i libucrt:output.obj
 0001:00046948       ??$extract_argument_from_va_list@PEAUansi_string@?1??type_case_Z@?$output_processor@_WV?$stream_output_adapter@_W@__crt_stdio_output@@V?$standard_base@_WV?$stream_output_adapter@_W@__crt_stdio_output@@@2@@__crt_stdio_output@@AEAA_NXZ@PEAU1?1??234@AEAA_NXZ@@?$standard_base@_WV?$stream_output_adapter@_W@__crt_stdio_output@@@__crt_stdio_output@@IEAA_NAEAPEAUansi_string@?1??type_case_Z@?$output_processor@_WV?$stream_output_adapter@_W@__crt_stdio_output@@V?$standard_base@_WV?$stream_output_adapter@_W@__crt_stdio_output@@@2@@1@AEAA_NXZ@@Z 0000000180047948 f i libucrt:output.obj
 0001:00046960       ??$extract_argument_from_va_list@PEAUansi_string@?1??type_case_Z@?$output_processor@_WV?$string_output_adapter@_W@__crt_stdio_output@@V?$format_validation_base@_WV?$string_output_adapter@_W@__crt_stdio_output@@@2@@__crt_stdio_output@@AEAA_NXZ@PEAU1?1??234@AEAA_NXZ@@?$standard_base@_WV?$string_output_adapter@_W@__crt_stdio_output@@@__crt_stdio_output@@IEAA_NAEAPEAUansi_string@?1??type_case_Z@?$output_processor@_WV?$string_output_adapter@_W@__crt_stdio_output@@V?$format_validation_base@_WV?$string_output_adapter@_W@__crt_stdio_output@@@2@@1@AEAA_NXZ@@Z 0000000180047960 f i libucrt:output.obj
 0001:00046978       ??$extract_argument_from_va_list@PEAUansi_string@?1??type_case_Z@?$output_processor@_WV?$string_output_adapter@_W@__crt_stdio_output@@V?$positional_parameter_base@_WV?$string_output_adapter@_W@__crt_stdio_output@@@2@@__crt_stdio_output@@AEAA_NXZ@PEAU1?1??234@AEAA_NXZ@@?$positional_parameter_base@_WV?$string_output_adapter@_W@__crt_stdio_output@@@__crt_stdio_output@@IEAA_NAEAPEAUansi_string@?1??type_case_Z@?$output_processor@_WV?$string_output_adapter@_W@__crt_stdio_output@@V?$positional_parameter_base@_WV?$string_output_adapter@_W@__crt_stdio_output@@@2@@1@AEAA_NXZ@@Z 0000000180047978 f i libucrt:output.obj
 0001:00046a84       ??$extract_argument_from_va_list@PEAUansi_string@?1??type_case_Z@?$output_processor@_WV?$string_output_adapter@_W@__crt_stdio_output@@V?$positional_parameter_base@_WV?$string_output_adapter@_W@__crt_stdio_output@@@2@@__crt_stdio_output@@AEAA_NXZ@PEAU1?1??234@AEAA_NXZ@@?$standard_base@_WV?$string_output_adapter@_W@__crt_stdio_output@@@__crt_stdio_output@@IEAA_NAEAPEAUansi_string@?1??type_case_Z@?$output_processor@_WV?$string_output_adapter@_W@__crt_stdio_output@@V?$positional_parameter_base@_WV?$string_output_adapter@_W@__crt_stdio_output@@@2@@1@AEAA_NXZ@@Z 0000000180047a84 f i libucrt:output.obj
 0001:00046a9c       ??$extract_argument_from_va_list@PEAUansi_string@?1??type_case_Z@?$output_processor@_WV?$string_output_adapter@_W@__crt_stdio_output@@V?$standard_base@_WV?$string_output_adapter@_W@__crt_stdio_output@@@2@@__crt_stdio_output@@AEAA_NXZ@PEAU1?1??234@AEAA_NXZ@@?$standard_base@_WV?$string_output_adapter@_W@__crt_stdio_output@@@__crt_stdio_output@@IEAA_NAEAPEAUansi_string@?1??type_case_Z@?$output_processor@_WV?$string_output_adapter@_W@__crt_stdio_output@@V?$standard_base@_WV?$string_output_adapter@_W@__crt_stdio_output@@@2@@1@AEAA_NXZ@@Z 0000000180047a9c f i libucrt:output.obj
 0001:00046ab4       ??$extract_argument_from_va_list@PEAXPEAX@?$positional_parameter_base@DV?$stream_output_adapter@D@__crt_stdio_output@@@__crt_stdio_output@@IEAA_NAEAPEAX@Z 0000000180047ab4 f i libucrt:output.obj
 0001:00046bbc       ??$extract_argument_from_va_list@PEAXPEAX@?$positional_parameter_base@DV?$string_output_adapter@D@__crt_stdio_output@@@__crt_stdio_output@@IEAA_NAEAPEAX@Z 0000000180047bbc f i libucrt:output.obj
 0001:00046cc4       ??$extract_argument_from_va_list@PEAXPEAX@?$positional_parameter_base@_WV?$stream_output_adapter@_W@__crt_stdio_output@@@__crt_stdio_output@@IEAA_NAEAPEAX@Z 0000000180047cc4 f i libucrt:output.obj
 0001:00046dd0       ??$extract_argument_from_va_list@PEAXPEAX@?$positional_parameter_base@_WV?$string_output_adapter@_W@__crt_stdio_output@@@__crt_stdio_output@@IEAA_NAEAPEAX@Z 0000000180047dd0 f i libucrt:output.obj
 0001:00046edc       ??$extract_argument_from_va_list@PEAXPEAX@?$standard_base@DV?$stream_output_adapter@D@__crt_stdio_output@@@__crt_stdio_output@@IEAA_NAEAPEAX@Z 0000000180047edc f i libucrt:output.obj
 0001:00046ef4       ??$extract_argument_from_va_list@PEAXPEAX@?$standard_base@DV?$string_output_adapter@D@__crt_stdio_output@@@__crt_stdio_output@@IEAA_NAEAPEAX@Z 0000000180047ef4 f i libucrt:output.obj
 0001:00046f0c       ??$extract_argument_from_va_list@PEAXPEAX@?$standard_base@_WV?$stream_output_adapter@_W@__crt_stdio_output@@@__crt_stdio_output@@IEAA_NAEAPEAX@Z 0000000180047f0c f i libucrt:output.obj
 0001:00046f24       ??$extract_argument_from_va_list@PEAXPEAX@?$standard_base@_WV?$string_output_adapter@_W@__crt_stdio_output@@@__crt_stdio_output@@IEAA_NAEAPEAX@Z 0000000180047f24 f i libucrt:output.obj
 0001:00046f3c       ??$extract_argument_from_va_list@U_CRT_DOUBLE@@U1@@?$positional_parameter_base@DV?$stream_output_adapter@D@__crt_stdio_output@@@__crt_stdio_output@@IEAA_NAEAU_CRT_DOUBLE@@@Z 0000000180047f3c f i libucrt:output.obj
 0001:00047044       ??$extract_argument_from_va_list@U_CRT_DOUBLE@@U1@@?$positional_parameter_base@DV?$string_output_adapter@D@__crt_stdio_output@@@__crt_stdio_output@@IEAA_NAEAU_CRT_DOUBLE@@@Z 0000000180048044 f i libucrt:output.obj
 0001:0004714c       ??$extract_argument_from_va_list@U_CRT_DOUBLE@@U1@@?$positional_parameter_base@_WV?$stream_output_adapter@_W@__crt_stdio_output@@@__crt_stdio_output@@IEAA_NAEAU_CRT_DOUBLE@@@Z 000000018004814c f i libucrt:output.obj
 0001:00047258       ??$extract_argument_from_va_list@U_CRT_DOUBLE@@U1@@?$positional_parameter_base@_WV?$string_output_adapter@_W@__crt_stdio_output@@@__crt_stdio_output@@IEAA_NAEAU_CRT_DOUBLE@@@Z 0000000180048258 f i libucrt:output.obj
 0001:00047364       ??$extract_argument_from_va_list@U_CRT_DOUBLE@@U1@@?$standard_base@DV?$stream_output_adapter@D@__crt_stdio_output@@@__crt_stdio_output@@IEAA_NAEAU_CRT_DOUBLE@@@Z 0000000180048364 f i libucrt:output.obj
 0001:0004737c       ??$extract_argument_from_va_list@U_CRT_DOUBLE@@U1@@?$standard_base@DV?$string_output_adapter@D@__crt_stdio_output@@@__crt_stdio_output@@IEAA_NAEAU_CRT_DOUBLE@@@Z 000000018004837c f i libucrt:output.obj
 0001:00047394       ??$extract_argument_from_va_list@U_CRT_DOUBLE@@U1@@?$standard_base@_WV?$stream_output_adapter@_W@__crt_stdio_output@@@__crt_stdio_output@@IEAA_NAEAU_CRT_DOUBLE@@@Z 0000000180048394 f i libucrt:output.obj
 0001:000473ac       ??$extract_argument_from_va_list@U_CRT_DOUBLE@@U1@@?$standard_base@_WV?$string_output_adapter@_W@__crt_stdio_output@@@__crt_stdio_output@@IEAA_NAEAU_CRT_DOUBLE@@@Z 00000001800483ac f i libucrt:output.obj
 0001:000473c4       ??$extract_argument_from_va_list@_J_J@?$positional_parameter_base@DV?$stream_output_adapter@D@__crt_stdio_output@@@__crt_stdio_output@@IEAA_NAEA_J@Z 00000001800483c4 f i libucrt:output.obj
 0001:000474cc       ??$extract_argument_from_va_list@_J_J@?$positional_parameter_base@DV?$string_output_adapter@D@__crt_stdio_output@@@__crt_stdio_output@@IEAA_NAEA_J@Z 00000001800484cc f i libucrt:output.obj
 0001:000475d4       ??$extract_argument_from_va_list@_J_J@?$positional_parameter_base@_WV?$stream_output_adapter@_W@__crt_stdio_output@@@__crt_stdio_output@@IEAA_NAEA_J@Z 00000001800485d4 f i libucrt:output.obj
 0001:000476e0       ??$extract_argument_from_va_list@_J_J@?$positional_parameter_base@_WV?$string_output_adapter@_W@__crt_stdio_output@@@__crt_stdio_output@@IEAA_NAEA_J@Z 00000001800486e0 f i libucrt:output.obj
 0001:000477ec       ??$extract_argument_from_va_list@_J_J@?$standard_base@DV?$stream_output_adapter@D@__crt_stdio_output@@@__crt_stdio_output@@IEAA_NAEA_J@Z 00000001800487ec f i libucrt:output.obj
 0001:00047804       ??$extract_argument_from_va_list@_J_J@?$standard_base@DV?$string_output_adapter@D@__crt_stdio_output@@@__crt_stdio_output@@IEAA_NAEA_J@Z 0000000180048804 f i libucrt:output.obj
 0001:0004781c       ??$extract_argument_from_va_list@_J_J@?$standard_base@_WV?$stream_output_adapter@_W@__crt_stdio_output@@@__crt_stdio_output@@IEAA_NAEA_J@Z 000000018004881c f i libucrt:output.obj
 0001:00047834       ??$extract_argument_from_va_list@_J_J@?$standard_base@_WV?$string_output_adapter@_W@__crt_stdio_output@@@__crt_stdio_output@@IEAA_NAEA_J@Z 0000000180048834 f i libucrt:output.obj
 0001:0004784c       ??$extract_argument_from_va_list@_K_J@?$positional_parameter_base@DV?$stream_output_adapter@D@__crt_stdio_output@@@__crt_stdio_output@@IEAA_NAEA_J@Z 000000018004884c f i libucrt:output.obj
 0001:00047954       ??$extract_argument_from_va_list@_K_J@?$positional_parameter_base@DV?$string_output_adapter@D@__crt_stdio_output@@@__crt_stdio_output@@IEAA_NAEA_J@Z 0000000180048954 f i libucrt:output.obj
 0001:00047a5c       ??$extract_argument_from_va_list@_K_J@?$positional_parameter_base@_WV?$stream_output_adapter@_W@__crt_stdio_output@@@__crt_stdio_output@@IEAA_NAEA_J@Z 0000000180048a5c f i libucrt:output.obj
 0001:00047b68       ??$extract_argument_from_va_list@_K_J@?$positional_parameter_base@_WV?$string_output_adapter@_W@__crt_stdio_output@@@__crt_stdio_output@@IEAA_NAEA_J@Z 0000000180048b68 f i libucrt:output.obj
 0001:00047c74       ??$extract_argument_from_va_list@_K_J@?$standard_base@DV?$stream_output_adapter@D@__crt_stdio_output@@@__crt_stdio_output@@IEAA_NAEA_J@Z 0000000180048c74 f i libucrt:output.obj
 0001:00047c8c       ??$extract_argument_from_va_list@_K_J@?$standard_base@DV?$string_output_adapter@D@__crt_stdio_output@@@__crt_stdio_output@@IEAA_NAEA_J@Z 0000000180048c8c f i libucrt:output.obj
 0001:00047ca4       ??$extract_argument_from_va_list@_K_J@?$standard_base@_WV?$stream_output_adapter@_W@__crt_stdio_output@@@__crt_stdio_output@@IEAA_NAEA_J@Z 0000000180048ca4 f i libucrt:output.obj
 0001:00047cbc       ??$extract_argument_from_va_list@_K_J@?$standard_base@_WV?$string_output_adapter@_W@__crt_stdio_output@@@__crt_stdio_output@@IEAA_NAEA_J@Z 0000000180048cbc f i libucrt:output.obj
 0001:00047cd4       ??$extract_argument_from_va_list@_W_W@?$positional_parameter_base@DV?$stream_output_adapter@D@__crt_stdio_output@@@__crt_stdio_output@@IEAA_NAEA_W@Z 0000000180048cd4 f i libucrt:output.obj
 0001:00047ddc       ??$extract_argument_from_va_list@_W_W@?$positional_parameter_base@DV?$string_output_adapter@D@__crt_stdio_output@@@__crt_stdio_output@@IEAA_NAEA_W@Z 0000000180048ddc f i libucrt:output.obj
 0001:00047ee4       ??$extract_argument_from_va_list@_W_W@?$positional_parameter_base@_WV?$stream_output_adapter@_W@__crt_stdio_output@@@__crt_stdio_output@@IEAA_NAEA_W@Z 0000000180048ee4 f i libucrt:output.obj
 0001:00047ff0       ??$extract_argument_from_va_list@_W_W@?$positional_parameter_base@_WV?$string_output_adapter@_W@__crt_stdio_output@@@__crt_stdio_output@@IEAA_NAEA_W@Z 0000000180048ff0 f i libucrt:output.obj
 0001:000480fc       ??$extract_argument_from_va_list@_W_W@?$standard_base@DV?$stream_output_adapter@D@__crt_stdio_output@@@__crt_stdio_output@@IEAA_NAEA_W@Z 00000001800490fc f i libucrt:output.obj
 0001:00048114       ??$extract_argument_from_va_list@_W_W@?$standard_base@DV?$string_output_adapter@D@__crt_stdio_output@@@__crt_stdio_output@@IEAA_NAEA_W@Z 0000000180049114 f i libucrt:output.obj
 0001:0004812c       ??$extract_argument_from_va_list@_W_W@?$standard_base@_WV?$stream_output_adapter@_W@__crt_stdio_output@@@__crt_stdio_output@@IEAA_NAEA_W@Z 000000018004912c f i libucrt:output.obj
 0001:00048144       ??$extract_argument_from_va_list@_W_W@?$standard_base@_WV?$string_output_adapter@_W@__crt_stdio_output@@@__crt_stdio_output@@IEAA_NAEA_W@Z 0000000180049144 f i libucrt:output.obj
 0001:0004815c       ??$get_parameter_type@D@?$positional_parameter_base@DV?$stream_output_adapter@D@__crt_stdio_output@@@__crt_stdio_output@@CA?AW4parameter_type@01@PEAD@Z 000000018004915c f i libucrt:output.obj
 0001:00048164       ??$get_parameter_type@D@?$positional_parameter_base@DV?$string_output_adapter@D@__crt_stdio_output@@@__crt_stdio_output@@CA?AW4parameter_type@01@PEAD@Z 0000000180049164 f i libucrt:output.obj
 0001:0004816c       ??$get_parameter_type@D@?$positional_parameter_base@_WV?$stream_output_adapter@_W@__crt_stdio_output@@@__crt_stdio_output@@CA?AW4parameter_type@01@PEAD@Z 000000018004916c f i libucrt:output.obj
 0001:00048174       ??$get_parameter_type@D@?$positional_parameter_base@_WV?$string_output_adapter@_W@__crt_stdio_output@@@__crt_stdio_output@@CA?AW4parameter_type@01@PEAD@Z 0000000180049174 f i libucrt:output.obj
 0001:0004817c       ??$get_parameter_type@Uansi_string@?1??type_case_Z@?$output_processor@DV?$stream_output_adapter@D@__crt_stdio_output@@V?$positional_parameter_base@DV?$stream_output_adapter@D@__crt_stdio_output@@@2@@__crt_stdio_output@@AEAA_NXZ@@?$positional_parameter_base@DV?$stream_output_adapter@D@__crt_stdio_output@@@__crt_stdio_output@@CA?AW4parameter_type@01@PEAUansi_string@?1??type_case_Z@?$output_processor@DV?$stream_output_adapter@D@__crt_stdio_output@@V?$positional_parameter_base@DV?$stream_output_adapter@D@__crt_stdio_output@@@2@@1@AEAA_NXZ@@Z 000000018004917c f i libucrt:output.obj
 0001:00048184       ??$get_parameter_type@Uansi_string@?1??type_case_Z@?$output_processor@DV?$string_output_adapter@D@__crt_stdio_output@@V?$positional_parameter_base@DV?$string_output_adapter@D@__crt_stdio_output@@@2@@__crt_stdio_output@@AEAA_NXZ@@?$positional_parameter_base@DV?$string_output_adapter@D@__crt_stdio_output@@@__crt_stdio_output@@CA?AW4parameter_type@01@PEAUansi_string@?1??type_case_Z@?$output_processor@DV?$string_output_adapter@D@__crt_stdio_output@@V?$positional_parameter_base@DV?$string_output_adapter@D@__crt_stdio_output@@@2@@1@AEAA_NXZ@@Z 0000000180049184 f i libucrt:output.obj
 0001:0004818c       ??$get_parameter_type@Uansi_string@?1??type_case_Z@?$output_processor@_WV?$stream_output_adapter@_W@__crt_stdio_output@@V?$positional_parameter_base@_WV?$stream_output_adapter@_W@__crt_stdio_output@@@2@@__crt_stdio_output@@AEAA_NXZ@@?$positional_parameter_base@_WV?$stream_output_adapter@_W@__crt_stdio_output@@@__crt_stdio_output@@CA?AW4parameter_type@01@PEAUansi_string@?1??type_case_Z@?$output_processor@_WV?$stream_output_adapter@_W@__crt_stdio_output@@V?$positional_parameter_base@_WV?$stream_output_adapter@_W@__crt_stdio_output@@@2@@1@AEAA_NXZ@@Z 000000018004918c f i libucrt:output.obj
 0001:00048194       ??$get_parameter_type@Uansi_string@?1??type_case_Z@?$output_processor@_WV?$string_output_adapter@_W@__crt_stdio_output@@V?$positional_parameter_base@_WV?$string_output_adapter@_W@__crt_stdio_output@@@2@@__crt_stdio_output@@AEAA_NXZ@@?$positional_parameter_base@_WV?$string_output_adapter@_W@__crt_stdio_output@@@__crt_stdio_output@@CA?AW4parameter_type@01@PEAUansi_string@?1??type_case_Z@?$output_processor@_WV?$string_output_adapter@_W@__crt_stdio_output@@V?$positional_parameter_base@_WV?$string_output_adapter@_W@__crt_stdio_output@@@2@@1@AEAA_NXZ@@Z 0000000180049194 f i libucrt:output.obj
 0001:0004819c       ??$get_parameter_type@X@?$positional_parameter_base@DV?$stream_output_adapter@D@__crt_stdio_output@@@__crt_stdio_output@@CA?AW4parameter_type@01@PEAX@Z 000000018004919c f i libucrt:output.obj
 0001:000481a4       ??$get_parameter_type@X@?$positional_parameter_base@DV?$string_output_adapter@D@__crt_stdio_output@@@__crt_stdio_output@@CA?AW4parameter_type@01@PEAX@Z 00000001800491a4 f i libucrt:output.obj
 0001:000481ac       ??$get_parameter_type@X@?$positional_parameter_base@_WV?$stream_output_adapter@_W@__crt_stdio_output@@@__crt_stdio_output@@CA?AW4parameter_type@01@PEAX@Z 00000001800491ac f i libucrt:output.obj
 0001:000481b4       ??$get_parameter_type@X@?$positional_parameter_base@_WV?$string_output_adapter@_W@__crt_stdio_output@@@__crt_stdio_output@@CA?AW4parameter_type@01@PEAX@Z 00000001800491b4 f i libucrt:output.obj
 0001:000481bc       ??$is_character_specifier@D@?$positional_parameter_base@DV?$stream_output_adapter@D@__crt_stdio_output@@@__crt_stdio_output@@CA_ND@Z 00000001800491bc f i libucrt:output.obj
 0001:000481c8       ??$is_character_specifier@D@?$positional_parameter_base@DV?$string_output_adapter@D@__crt_stdio_output@@@__crt_stdio_output@@CA_ND@Z 00000001800491c8 f i libucrt:output.obj
 0001:000481d4       ??$is_character_specifier@_W@?$positional_parameter_base@_WV?$stream_output_adapter@_W@__crt_stdio_output@@@__crt_stdio_output@@CA_N_W@Z 00000001800491d4 f i libucrt:output.obj
 0001:000481e4       ??$is_character_specifier@_W@?$positional_parameter_base@_WV?$string_output_adapter@_W@__crt_stdio_output@@@__crt_stdio_output@@CA_N_W@Z 00000001800491e4 f i libucrt:output.obj
 0001:000481f4       ??$is_integral_specifier@D@?$positional_parameter_base@DV?$stream_output_adapter@D@__crt_stdio_output@@@__crt_stdio_output@@CA_ND@Z 00000001800491f4 f i libucrt:output.obj
 0001:00048218       ??$is_integral_specifier@D@?$positional_parameter_base@DV?$string_output_adapter@D@__crt_stdio_output@@@__crt_stdio_output@@CA_ND@Z 0000000180049218 f i libucrt:output.obj
 0001:0004823c       ??$is_integral_specifier@_W@?$positional_parameter_base@_WV?$stream_output_adapter@_W@__crt_stdio_output@@@__crt_stdio_output@@CA_N_W@Z 000000018004923c f i libucrt:output.obj
 0001:00048264       ??$is_integral_specifier@_W@?$positional_parameter_base@_WV?$string_output_adapter@_W@__crt_stdio_output@@@__crt_stdio_output@@CA_N_W@Z 0000000180049264 f i libucrt:output.obj
 0001:0004828c       ??$is_overflow_condition@K@__crt_strtox@@YA_NIK@Z 000000018004928c f i libucrt:output.obj
 0001:000482b4       ??$is_pointer_specifier@D@?$positional_parameter_base@DV?$stream_output_adapter@D@__crt_stdio_output@@@__crt_stdio_output@@CA_ND@Z 00000001800492b4 f i libucrt:output.obj
 0001:000482bc       ??$is_pointer_specifier@D@?$positional_parameter_base@DV?$string_output_adapter@D@__crt_stdio_output@@@__crt_stdio_output@@CA_ND@Z 00000001800492bc f i libucrt:output.obj
 0001:000482c4       ??$is_pointer_specifier@_W@?$positional_parameter_base@_WV?$stream_output_adapter@_W@__crt_stdio_output@@@__crt_stdio_output@@CA_N_W@Z 00000001800492c4 f i libucrt:output.obj
 0001:000482cc       ??$is_pointer_specifier@_W@?$positional_parameter_base@_WV?$string_output_adapter@_W@__crt_stdio_output@@@__crt_stdio_output@@CA_N_W@Z 00000001800492cc f i libucrt:output.obj
 0001:000482d4       ??$is_string_specifier@D@?$positional_parameter_base@DV?$stream_output_adapter@D@__crt_stdio_output@@@__crt_stdio_output@@CA_ND@Z 00000001800492d4 f i libucrt:output.obj
 0001:000482e0       ??$is_string_specifier@D@?$positional_parameter_base@DV?$string_output_adapter@D@__crt_stdio_output@@@__crt_stdio_output@@CA_ND@Z 00000001800492e0 f i libucrt:output.obj
 0001:000482ec       ??$is_string_specifier@_W@?$positional_parameter_base@_WV?$stream_output_adapter@_W@__crt_stdio_output@@@__crt_stdio_output@@CA_N_W@Z 00000001800492ec f i libucrt:output.obj
 0001:000482fc       ??$is_string_specifier@_W@?$positional_parameter_base@_WV?$string_output_adapter@_W@__crt_stdio_output@@@__crt_stdio_output@@CA_N_W@Z 00000001800492fc f i libucrt:output.obj
 0001:0004830c       ??$is_wide_character_specifier@D@__crt_stdio_output@@YA_N_KDW4length_modifier@0@@Z 000000018004930c f i libucrt:output.obj
 0001:00048334       ??$is_wide_character_specifier@_W@__crt_stdio_output@@YA_N_K_WW4length_modifier@0@@Z 0000000180049334 f i libucrt:output.obj
 0001:00048374       ??$make_c_string_character_source@DPEAPEAD@__crt_strtox@@YA?AV?$c_string_character_source@D@0@QEBDQEAPEAD@Z 0000000180049374 f i libucrt:output.obj
 0001:00048388       ??$make_c_string_character_source@_WPEAPEA_W@__crt_strtox@@YA?AV?$c_string_character_source@_W@0@QEB_WQEAPEA_W@Z 0000000180049388 f i libucrt:output.obj
 0001:0004839c       ??$parse_integer@KV?$c_string_character_source@D@__crt_strtox@@$0A@@__crt_strtox@@YAKAEAV__crt_cached_ptd_host@@V?$c_string_character_source@D@0@H_N@Z 000000018004939c f i libucrt:output.obj
 0001:00048650       ??$parse_integer@KV?$c_string_character_source@_W@__crt_strtox@@$0A@@__crt_strtox@@YAKAEAV__crt_cached_ptd_host@@V?$c_string_character_source@_W@0@H_N@Z 0000000180049650 f i libucrt:output.obj
 0001:00048dc8       ??$peek_va_arg@C@__crt_stdio_output@@YACPEAD@Z 0000000180049dc8 f i libucrt:output.obj
 0001:00048dcc       ??$peek_va_arg@E@__crt_stdio_output@@YAEPEAD@Z 0000000180049dcc f i libucrt:output.obj
 0001:00048dd0       ??$peek_va_arg@F@__crt_stdio_output@@YAFPEAD@Z 0000000180049dd0 f i libucrt:output.obj
 0001:00048dd4       ??$peek_va_arg@G@__crt_stdio_output@@YAGPEAD@Z 0000000180049dd4 f i libucrt:output.obj
 0001:00048dd8       ??$peek_va_arg@H@__crt_stdio_output@@YAHPEAD@Z 0000000180049dd8 f i libucrt:output.obj
 0001:00048ddc       ??$peek_va_arg@I@__crt_stdio_output@@YAIPEAD@Z 0000000180049ddc f i libucrt:output.obj
 0001:00048de0       ??$peek_va_arg@PEAD@__crt_stdio_output@@YAPEADPEAD@Z 0000000180049de0 f i libucrt:output.obj
 0001:00048de4       ??$peek_va_arg@PEAUansi_string@?1??type_case_Z@?$output_processor@DV?$stream_output_adapter@D@__crt_stdio_output@@V?$positional_parameter_base@DV?$stream_output_adapter@D@__crt_stdio_output@@@2@@__crt_stdio_output@@AEAA_NXZ@@__crt_stdio_output@@YAPEAUansi_string@?1??type_case_Z@?$output_processor@DV?$stream_output_adapter@D@__crt_stdio_output@@V?$positional_parameter_base@DV?$stream_output_adapter@D@__crt_stdio_output@@@2@@0@AEAA_NXZ@PEAD@Z 0000000180049de4 f i libucrt:output.obj
 0001:00048de8       ??$peek_va_arg@PEAUansi_string@?1??type_case_Z@?$output_processor@DV?$string_output_adapter@D@__crt_stdio_output@@V?$positional_parameter_base@DV?$string_output_adapter@D@__crt_stdio_output@@@2@@__crt_stdio_output@@AEAA_NXZ@@__crt_stdio_output@@YAPEAUansi_string@?1??type_case_Z@?$output_processor@DV?$string_output_adapter@D@__crt_stdio_output@@V?$positional_parameter_base@DV?$string_output_adapter@D@__crt_stdio_output@@@2@@0@AEAA_NXZ@PEAD@Z 0000000180049de8 f i libucrt:output.obj
 0001:00048dec       ??$peek_va_arg@PEAUansi_string@?1??type_case_Z@?$output_processor@_WV?$stream_output_adapter@_W@__crt_stdio_output@@V?$positional_parameter_base@_WV?$stream_output_adapter@_W@__crt_stdio_output@@@2@@__crt_stdio_output@@AEAA_NXZ@@__crt_stdio_output@@YAPEAUansi_string@?1??type_case_Z@?$output_processor@_WV?$stream_output_adapter@_W@__crt_stdio_output@@V?$positional_parameter_base@_WV?$stream_output_adapter@_W@__crt_stdio_output@@@2@@0@AEAA_NXZ@PEAD@Z 0000000180049dec f i libucrt:output.obj
 0001:00048df0       ??$peek_va_arg@PEAUansi_string@?1??type_case_Z@?$output_processor@_WV?$string_output_adapter@_W@__crt_stdio_output@@V?$positional_parameter_base@_WV?$string_output_adapter@_W@__crt_stdio_output@@@2@@__crt_stdio_output@@AEAA_NXZ@@__crt_stdio_output@@YAPEAUansi_string@?1??type_case_Z@?$output_processor@_WV?$string_output_adapter@_W@__crt_stdio_output@@V?$positional_parameter_base@_WV?$string_output_adapter@_W@__crt_stdio_output@@@2@@0@AEAA_NXZ@PEAD@Z 0000000180049df0 f i libucrt:output.obj
 0001:00048df4       ??$peek_va_arg@PEAX@__crt_stdio_output@@YAPEAXPEAD@Z 0000000180049df4 f i libucrt:output.obj
 0001:00048df8       ??$peek_va_arg@U_CRT_DOUBLE@@@__crt_stdio_output@@YA?AU_CRT_DOUBLE@@PEAD@Z 0000000180049df8 f i libucrt:output.obj
 0001:00048dfc       ??$peek_va_arg@_J@__crt_stdio_output@@YA_JPEAD@Z 0000000180049dfc f i libucrt:output.obj
 0001:00048e00       ??$peek_va_arg@_K@__crt_stdio_output@@YA_KPEAD@Z 0000000180049e00 f i libucrt:output.obj
 0001:00048e04       ??$peek_va_arg@_W@__crt_stdio_output@@YA_WPEAD@Z 0000000180049e04 f i libucrt:output.obj
 0001:00048e08       ??$puttc_nolock_internal@AEBDPEAU_iobuf@@AEAV__crt_cached_ptd_host@@@?$__crt_char_traits@D@@SAHAEBD$$QEAPEAU_iobuf@@AEAV__crt_cached_ptd_host@@@Z 0000000180049e08 f i libucrt:output.obj
 0001:00048e14       ??$puttc_nolock_internal@AEB_WPEAU_iobuf@@AEAV__crt_cached_ptd_host@@@?$__crt_char_traits@_W@@SAGAEB_W$$QEAPEAU_iobuf@@AEAV__crt_cached_ptd_host@@@Z 0000000180049e14 f i libucrt:output.obj
 0001:00048e20       ??$read_va_arg@C@__crt_stdio_output@@YACAEAPEAD@Z 0000000180049e20 f i libucrt:output.obj
 0001:00048e30       ??$read_va_arg@E@__crt_stdio_output@@YAEAEAPEAD@Z 0000000180049e30 f i libucrt:output.obj
 0001:00048e40       ??$read_va_arg@F@__crt_stdio_output@@YAFAEAPEAD@Z 0000000180049e40 f i libucrt:output.obj
 0001:00048e50       ??$read_va_arg@G@__crt_stdio_output@@YAGAEAPEAD@Z 0000000180049e50 f i libucrt:output.obj
 0001:00048e60       ??$read_va_arg@H@__crt_stdio_output@@YAHAEAPEAD@Z 0000000180049e60 f i libucrt:output.obj
 0001:00048e70       ??$read_va_arg@I@__crt_stdio_output@@YAIAEAPEAD@Z 0000000180049e70 f i libucrt:output.obj
 0001:00048e80       ??$read_va_arg@PEAD@__crt_stdio_output@@YAPEADAEAPEAD@Z 0000000180049e80 f i libucrt:output.obj
 0001:00048e90       ??$read_va_arg@PEAUansi_string@?1??type_case_Z@?$output_processor@DV?$stream_output_adapter@D@__crt_stdio_output@@V?$format_validation_base@DV?$stream_output_adapter@D@__crt_stdio_output@@@2@@__crt_stdio_output@@AEAA_NXZ@@__crt_stdio_output@@YAPEAUansi_string@?1??type_case_Z@?$output_processor@DV?$stream_output_adapter@D@__crt_stdio_output@@V?$format_validation_base@DV?$stream_output_adapter@D@__crt_stdio_output@@@2@@0@AEAA_NXZ@AEAPEAD@Z 0000000180049e90 f i libucrt:output.obj
 0001:00048ea0       ??$read_va_arg@PEAUansi_string@?1??type_case_Z@?$output_processor@DV?$stream_output_adapter@D@__crt_stdio_output@@V?$positional_parameter_base@DV?$stream_output_adapter@D@__crt_stdio_output@@@2@@__crt_stdio_output@@AEAA_NXZ@@__crt_stdio_output@@YAPEAUansi_string@?1??type_case_Z@?$output_processor@DV?$stream_output_adapter@D@__crt_stdio_output@@V?$positional_parameter_base@DV?$stream_output_adapter@D@__crt_stdio_output@@@2@@0@AEAA_NXZ@AEAPEAD@Z 0000000180049ea0 f i libucrt:output.obj
 0001:00048eb0       ??$read_va_arg@PEAUansi_string@?1??type_case_Z@?$output_processor@DV?$stream_output_adapter@D@__crt_stdio_output@@V?$standard_base@DV?$stream_output_adapter@D@__crt_stdio_output@@@2@@__crt_stdio_output@@AEAA_NXZ@@__crt_stdio_output@@YAPEAUansi_string@?1??type_case_Z@?$output_processor@DV?$stream_output_adapter@D@__crt_stdio_output@@V?$standard_base@DV?$stream_output_adapter@D@__crt_stdio_output@@@2@@0@AEAA_NXZ@AEAPEAD@Z 0000000180049eb0 f i libucrt:output.obj
 0001:00048ec0       ??$read_va_arg@PEAUansi_string@?1??type_case_Z@?$output_processor@DV?$string_output_adapter@D@__crt_stdio_output@@V?$format_validation_base@DV?$string_output_adapter@D@__crt_stdio_output@@@2@@__crt_stdio_output@@AEAA_NXZ@@__crt_stdio_output@@YAPEAUansi_string@?1??type_case_Z@?$output_processor@DV?$string_output_adapter@D@__crt_stdio_output@@V?$format_validation_base@DV?$string_output_adapter@D@__crt_stdio_output@@@2@@0@AEAA_NXZ@AEAPEAD@Z 0000000180049ec0 f i libucrt:output.obj
 0001:00048ed0       ??$read_va_arg@PEAUansi_string@?1??type_case_Z@?$output_processor@DV?$string_output_adapter@D@__crt_stdio_output@@V?$positional_parameter_base@DV?$string_output_adapter@D@__crt_stdio_output@@@2@@__crt_stdio_output@@AEAA_NXZ@@__crt_stdio_output@@YAPEAUansi_string@?1??type_case_Z@?$output_processor@DV?$string_output_adapter@D@__crt_stdio_output@@V?$positional_parameter_base@DV?$string_output_adapter@D@__crt_stdio_output@@@2@@0@AEAA_NXZ@AEAPEAD@Z 0000000180049ed0 f i libucrt:output.obj
 0001:00048ee0       ??$read_va_arg@PEAUansi_string@?1??type_case_Z@?$output_processor@DV?$string_output_adapter@D@__crt_stdio_output@@V?$standard_base@DV?$string_output_adapter@D@__crt_stdio_output@@@2@@__crt_stdio_output@@AEAA_NXZ@@__crt_stdio_output@@YAPEAUansi_string@?1??type_case_Z@?$output_processor@DV?$string_output_adapter@D@__crt_stdio_output@@V?$standard_base@DV?$string_output_adapter@D@__crt_stdio_output@@@2@@0@AEAA_NXZ@AEAPEAD@Z 0000000180049ee0 f i libucrt:output.obj
 0001:00048ef0       ??$read_va_arg@PEAUansi_string@?1??type_case_Z@?$output_processor@_WV?$stream_output_adapter@_W@__crt_stdio_output@@V?$format_validation_base@_WV?$stream_output_adapter@_W@__crt_stdio_output@@@2@@__crt_stdio_output@@AEAA_NXZ@@__crt_stdio_output@@YAPEAUansi_string@?1??type_case_Z@?$output_processor@_WV?$stream_output_adapter@_W@__crt_stdio_output@@V?$format_validation_base@_WV?$stream_output_adapter@_W@__crt_stdio_output@@@2@@0@AEAA_NXZ@AEAPEAD@Z 0000000180049ef0 f i libucrt:output.obj
 0001:00048f00       ??$read_va_arg@PEAUansi_string@?1??type_case_Z@?$output_processor@_WV?$stream_output_adapter@_W@__crt_stdio_output@@V?$positional_parameter_base@_WV?$stream_output_adapter@_W@__crt_stdio_output@@@2@@__crt_stdio_output@@AEAA_NXZ@@__crt_stdio_output@@YAPEAUansi_string@?1??type_case_Z@?$output_processor@_WV?$stream_output_adapter@_W@__crt_stdio_output@@V?$positional_parameter_base@_WV?$stream_output_adapter@_W@__crt_stdio_output@@@2@@0@AEAA_NXZ@AEAPEAD@Z 0000000180049f00 f i libucrt:output.obj
 0001:00048f10       ??$read_va_arg@PEAUansi_string@?1??type_case_Z@?$output_processor@_WV?$stream_output_adapter@_W@__crt_stdio_output@@V?$standard_base@_WV?$stream_output_adapter@_W@__crt_stdio_output@@@2@@__crt_stdio_output@@AEAA_NXZ@@__crt_stdio_output@@YAPEAUansi_string@?1??type_case_Z@?$output_processor@_WV?$stream_output_adapter@_W@__crt_stdio_output@@V?$standard_base@_WV?$stream_output_adapter@_W@__crt_stdio_output@@@2@@0@AEAA_NXZ@AEAPEAD@Z 0000000180049f10 f i libucrt:output.obj
 0001:00048f20       ??$read_va_arg@PEAUansi_string@?1??type_case_Z@?$output_processor@_WV?$string_output_adapter@_W@__crt_stdio_output@@V?$format_validation_base@_WV?$string_output_adapter@_W@__crt_stdio_output@@@2@@__crt_stdio_output@@AEAA_NXZ@@__crt_stdio_output@@YAPEAUansi_string@?1??type_case_Z@?$output_processor@_WV?$string_output_adapter@_W@__crt_stdio_output@@V?$format_validation_base@_WV?$string_output_adapter@_W@__crt_stdio_output@@@2@@0@AEAA_NXZ@AEAPEAD@Z 0000000180049f20 f i libucrt:output.obj
 0001:00048f30       ??$read_va_arg@PEAUansi_string@?1??type_case_Z@?$output_processor@_WV?$string_output_adapter@_W@__crt_stdio_output@@V?$positional_parameter_base@_WV?$string_output_adapter@_W@__crt_stdio_output@@@2@@__crt_stdio_output@@AEAA_NXZ@@__crt_stdio_output@@YAPEAUansi_string@?1??type_case_Z@?$output_processor@_WV?$string_output_adapter@_W@__crt_stdio_output@@V?$positional_parameter_base@_WV?$string_output_adapter@_W@__crt_stdio_output@@@2@@0@AEAA_NXZ@AEAPEAD@Z 0000000180049f30 f i libucrt:output.obj
 0001:00048f40       ??$read_va_arg@PEAUansi_string@?1??type_case_Z@?$output_processor@_WV?$string_output_adapter@_W@__crt_stdio_output@@V?$standard_base@_WV?$string_output_adapter@_W@__crt_stdio_output@@@2@@__crt_stdio_output@@AEAA_NXZ@@__crt_stdio_output@@YAPEAUansi_string@?1??type_case_Z@?$output_processor@_WV?$string_output_adapter@_W@__crt_stdio_output@@V?$standard_base@_WV?$string_output_adapter@_W@__crt_stdio_output@@@2@@0@AEAA_NXZ@AEAPEAD@Z 0000000180049f40 f i libucrt:output.obj
 0001:00048f50       ??$read_va_arg@PEAX@__crt_stdio_output@@YAPEAXAEAPEAD@Z 0000000180049f50 f i libucrt:output.obj
 0001:00048f60       ??$read_va_arg@U_CRT_DOUBLE@@@__crt_stdio_output@@YA?AU_CRT_DOUBLE@@AEAPEAD@Z 0000000180049f60 f i libucrt:output.obj
 0001:00048f70       ??$read_va_arg@_J@__crt_stdio_output@@YA_JAEAPEAD@Z 0000000180049f70 f i libucrt:output.obj
 0001:00048f80       ??$read_va_arg@_K@__crt_stdio_output@@YA_KAEAPEAD@Z 0000000180049f80 f i libucrt:output.obj
 0001:00048f90       ??$read_va_arg@_W@__crt_stdio_output@@YA_WAEAPEAD@Z 0000000180049f90 f i libucrt:output.obj
 0001:00048fa0       ??$scratch_count@D@formatting_buffer@__crt_stdio_output@@QEBA_KXZ 0000000180049fa0 f i libucrt:output.obj
 0001:00048fbc       ??$scratch_data@D@formatting_buffer@__crt_stdio_output@@QEAAPEADXZ 0000000180049fbc f i libucrt:output.obj
 0001:00048fe0       ??$type_case_integer@$07@?$output_processor@DV?$stream_output_adapter@D@__crt_stdio_output@@V?$format_validation_base@DV?$stream_output_adapter@D@__crt_stdio_output@@@2@@__crt_stdio_output@@AEAA_N_N@Z 0000000180049fe0 f i libucrt:output.obj
 0001:000491e4       ??$type_case_integer@$07@?$output_processor@DV?$stream_output_adapter@D@__crt_stdio_output@@V?$positional_parameter_base@DV?$stream_output_adapter@D@__crt_stdio_output@@@2@@__crt_stdio_output@@AEAA_N_N@Z 000000018004a1e4 f i libucrt:output.obj
 0001:00049410       ??$type_case_integer@$07@?$output_processor@DV?$stream_output_adapter@D@__crt_stdio_output@@V?$standard_base@DV?$stream_output_adapter@D@__crt_stdio_output@@@2@@__crt_stdio_output@@AEAA_N_N@Z 000000018004a410 f i libucrt:output.obj
 0001:00049614       ??$type_case_integer@$07@?$output_processor@DV?$string_output_adapter@D@__crt_stdio_output@@V?$format_validation_base@DV?$string_output_adapter@D@__crt_stdio_output@@@2@@__crt_stdio_output@@AEAA_N_N@Z 000000018004a614 f i libucrt:output.obj
 0001:00049818       ??$type_case_integer@$07@?$output_processor@DV?$string_output_adapter@D@__crt_stdio_output@@V?$positional_parameter_base@DV?$string_output_adapter@D@__crt_stdio_output@@@2@@__crt_stdio_output@@AEAA_N_N@Z 000000018004a818 f i libucrt:output.obj
 0001:00049a44       ??$type_case_integer@$07@?$output_processor@DV?$string_output_adapter@D@__crt_stdio_output@@V?$standard_base@DV?$string_output_adapter@D@__crt_stdio_output@@@2@@__crt_stdio_output@@AEAA_N_N@Z 000000018004aa44 f i libucrt:output.obj
 0001:00049c48       ??$type_case_integer@$07@?$output_processor@_WV?$stream_output_adapter@_W@__crt_stdio_output@@V?$format_validation_base@_WV?$stream_output_adapter@_W@__crt_stdio_output@@@2@@__crt_stdio_output@@AEAA_N_N@Z 000000018004ac48 f i libucrt:output.obj
 0001:00049e54       ??$type_case_integer@$07@?$output_processor@_WV?$stream_output_adapter@_W@__crt_stdio_output@@V?$positional_parameter_base@_WV?$stream_output_adapter@_W@__crt_stdio_output@@@2@@__crt_stdio_output@@AEAA_N_N@Z 000000018004ae54 f i libucrt:output.obj
 0001:0004a088       ??$type_case_integer@$07@?$output_processor@_WV?$stream_output_adapter@_W@__crt_stdio_output@@V?$standard_base@_WV?$stream_output_adapter@_W@__crt_stdio_output@@@2@@__crt_stdio_output@@AEAA_N_N@Z 000000018004b088 f i libucrt:output.obj
 0001:0004a294       ??$type_case_integer@$07@?$output_processor@_WV?$string_output_adapter@_W@__crt_stdio_output@@V?$format_validation_base@_WV?$string_output_adapter@_W@__crt_stdio_output@@@2@@__crt_stdio_output@@AEAA_N_N@Z 000000018004b294 f i libucrt:output.obj
 0001:0004a4a0       ??$type_case_integer@$07@?$output_processor@_WV?$string_output_adapter@_W@__crt_stdio_output@@V?$positional_parameter_base@_WV?$string_output_adapter@_W@__crt_stdio_output@@@2@@__crt_stdio_output@@AEAA_N_N@Z 000000018004b4a0 f i libucrt:output.obj
 0001:0004a6d4       ??$type_case_integer@$07@?$output_processor@_WV?$string_output_adapter@_W@__crt_stdio_output@@V?$standard_base@_WV?$string_output_adapter@_W@__crt_stdio_output@@@2@@__crt_stdio_output@@AEAA_N_N@Z 000000018004b6d4 f i libucrt:output.obj
 0001:0004a8e0       ??$type_case_integer@$09@?$output_processor@DV?$stream_output_adapter@D@__crt_stdio_output@@V?$format_validation_base@DV?$stream_output_adapter@D@__crt_stdio_output@@@2@@__crt_stdio_output@@AEAA_N_N@Z 000000018004b8e0 f i libucrt:output.obj
 0001:0004aae4       ??$type_case_integer@$09@?$output_processor@DV?$stream_output_adapter@D@__crt_stdio_output@@V?$positional_parameter_base@DV?$stream_output_adapter@D@__crt_stdio_output@@@2@@__crt_stdio_output@@AEAA_N_N@Z 000000018004bae4 f i libucrt:output.obj
 0001:0004ad10       ??$type_case_integer@$09@?$output_processor@DV?$stream_output_adapter@D@__crt_stdio_output@@V?$standard_base@DV?$stream_output_adapter@D@__crt_stdio_output@@@2@@__crt_stdio_output@@AEAA_N_N@Z 000000018004bd10 f i libucrt:output.obj
 0001:0004af14       ??$type_case_integer@$09@?$output_processor@DV?$string_output_adapter@D@__crt_stdio_output@@V?$format_validation_base@DV?$string_output_adapter@D@__crt_stdio_output@@@2@@__crt_stdio_output@@AEAA_N_N@Z 000000018004bf14 f i libucrt:output.obj
 0001:0004b118       ??$type_case_integer@$09@?$output_processor@DV?$string_output_adapter@D@__crt_stdio_output@@V?$positional_parameter_base@DV?$string_output_adapter@D@__crt_stdio_output@@@2@@__crt_stdio_output@@AEAA_N_N@Z 000000018004c118 f i libucrt:output.obj
 0001:0004b344       ??$type_case_integer@$09@?$output_processor@DV?$string_output_adapter@D@__crt_stdio_output@@V?$standard_base@DV?$string_output_adapter@D@__crt_stdio_output@@@2@@__crt_stdio_output@@AEAA_N_N@Z 000000018004c344 f i libucrt:output.obj
 0001:0004b548       ??$type_case_integer@$09@?$output_processor@_WV?$stream_output_adapter@_W@__crt_stdio_output@@V?$format_validation_base@_WV?$stream_output_adapter@_W@__crt_stdio_output@@@2@@__crt_stdio_output@@AEAA_N_N@Z 000000018004c548 f i libucrt:output.obj
 0001:0004b754       ??$type_case_integer@$09@?$output_processor@_WV?$stream_output_adapter@_W@__crt_stdio_output@@V?$positional_parameter_base@_WV?$stream_output_adapter@_W@__crt_stdio_output@@@2@@__crt_stdio_output@@AEAA_N_N@Z 000000018004c754 f i libucrt:output.obj
 0001:0004b988       ??$type_case_integer@$09@?$output_processor@_WV?$stream_output_adapter@_W@__crt_stdio_output@@V?$standard_base@_WV?$stream_output_adapter@_W@__crt_stdio_output@@@2@@__crt_stdio_output@@AEAA_N_N@Z 000000018004c988 f i libucrt:output.obj
 0001:0004bb94       ??$type_case_integer@$09@?$output_processor@_WV?$string_output_adapter@_W@__crt_stdio_output@@V?$format_validation_base@_WV?$string_output_adapter@_W@__crt_stdio_output@@@2@@__crt_stdio_output@@AEAA_N_N@Z 000000018004cb94 f i libucrt:output.obj
 0001:0004bda0       ??$type_case_integer@$09@?$output_processor@_WV?$string_output_adapter@_W@__crt_stdio_output@@V?$positional_parameter_base@_WV?$string_output_adapter@_W@__crt_stdio_output@@@2@@__crt_stdio_output@@AEAA_N_N@Z 000000018004cda0 f i libucrt:output.obj
 0001:0004bfd4       ??$type_case_integer@$09@?$output_processor@_WV?$string_output_adapter@_W@__crt_stdio_output@@V?$standard_base@_WV?$string_output_adapter@_W@__crt_stdio_output@@@2@@__crt_stdio_output@@AEAA_N_N@Z 000000018004cfd4 f i libucrt:output.obj
 0001:0004c1e0       ??$type_case_integer@$0BA@@?$output_processor@DV?$stream_output_adapter@D@__crt_stdio_output@@V?$format_validation_base@DV?$stream_output_adapter@D@__crt_stdio_output@@@2@@__crt_stdio_output@@AEAA_N_N@Z 000000018004d1e0 f i libucrt:output.obj
 0001:0004c3e4       ??$type_case_integer@$0BA@@?$output_processor@DV?$stream_output_adapter@D@__crt_stdio_output@@V?$positional_parameter_base@DV?$stream_output_adapter@D@__crt_stdio_output@@@2@@__crt_stdio_output@@AEAA_N_N@Z 000000018004d3e4 f i libucrt:output.obj
 0001:0004c610       ??$type_case_integer@$0BA@@?$output_processor@DV?$stream_output_adapter@D@__crt_stdio_output@@V?$standard_base@DV?$stream_output_adapter@D@__crt_stdio_output@@@2@@__crt_stdio_output@@AEAA_N_N@Z 000000018004d610 f i libucrt:output.obj
 0001:0004c814       ??$type_case_integer@$0BA@@?$output_processor@DV?$string_output_adapter@D@__crt_stdio_output@@V?$format_validation_base@DV?$string_output_adapter@D@__crt_stdio_output@@@2@@__crt_stdio_output@@AEAA_N_N@Z 000000018004d814 f i libucrt:output.obj
 0001:0004ca18       ??$type_case_integer@$0BA@@?$output_processor@DV?$string_output_adapter@D@__crt_stdio_output@@V?$positional_parameter_base@DV?$string_output_adapter@D@__crt_stdio_output@@@2@@__crt_stdio_output@@AEAA_N_N@Z 000000018004da18 f i libucrt:output.obj
 0001:0004cc44       ??$type_case_integer@$0BA@@?$output_processor@DV?$string_output_adapter@D@__crt_stdio_output@@V?$standard_base@DV?$string_output_adapter@D@__crt_stdio_output@@@2@@__crt_stdio_output@@AEAA_N_N@Z 000000018004dc44 f i libucrt:output.obj
 0001:0004ce48       ??$type_case_integer@$0BA@@?$output_processor@_WV?$stream_output_adapter@_W@__crt_stdio_output@@V?$format_validation_base@_WV?$stream_output_adapter@_W@__crt_stdio_output@@@2@@__crt_stdio_output@@AEAA_N_N@Z 000000018004de48 f i libucrt:output.obj
 0001:0004d054       ??$type_case_integer@$0BA@@?$output_processor@_WV?$stream_output_adapter@_W@__crt_stdio_output@@V?$positional_parameter_base@_WV?$stream_output_adapter@_W@__crt_stdio_output@@@2@@__crt_stdio_output@@AEAA_N_N@Z 000000018004e054 f i libucrt:output.obj
 0001:0004d288       ??$type_case_integer@$0BA@@?$output_processor@_WV?$stream_output_adapter@_W@__crt_stdio_output@@V?$standard_base@_WV?$stream_output_adapter@_W@__crt_stdio_output@@@2@@__crt_stdio_output@@AEAA_N_N@Z 000000018004e288 f i libucrt:output.obj
 0001:0004d494       ??$type_case_integer@$0BA@@?$output_processor@_WV?$string_output_adapter@_W@__crt_stdio_output@@V?$format_validation_base@_WV?$string_output_adapter@_W@__crt_stdio_output@@@2@@__crt_stdio_output@@AEAA_N_N@Z 000000018004e494 f i libucrt:output.obj
 0001:0004d6a0       ??$type_case_integer@$0BA@@?$output_processor@_WV?$string_output_adapter@_W@__crt_stdio_output@@V?$positional_parameter_base@_WV?$string_output_adapter@_W@__crt_stdio_output@@@2@@__crt_stdio_output@@AEAA_N_N@Z 000000018004e6a0 f i libucrt:output.obj
 0001:0004d8d4       ??$type_case_integer@$0BA@@?$output_processor@_WV?$string_output_adapter@_W@__crt_stdio_output@@V?$standard_base@_WV?$string_output_adapter@_W@__crt_stdio_output@@@2@@__crt_stdio_output@@AEAA_N_N@Z 000000018004e8d4 f i libucrt:output.obj
 0001:0004dae0       ??$type_case_integer_parse_into_buffer@I$07@?$output_processor@DV?$stream_output_adapter@D@__crt_stdio_output@@V?$format_validation_base@DV?$stream_output_adapter@D@__crt_stdio_output@@@2@@__crt_stdio_output@@AEAAXI_N@Z 000000018004eae0 f i libucrt:output.obj
 0001:0004db50       ??$type_case_integer_parse_into_buffer@I$07@?$output_processor@DV?$stream_output_adapter@D@__crt_stdio_output@@V?$positional_parameter_base@DV?$stream_output_adapter@D@__crt_stdio_output@@@2@@__crt_stdio_output@@AEAAXI_N@Z 000000018004eb50 f i libucrt:output.obj
 0001:0004dbc0       ??$type_case_integer_parse_into_buffer@I$07@?$output_processor@DV?$stream_output_adapter@D@__crt_stdio_output@@V?$standard_base@DV?$stream_output_adapter@D@__crt_stdio_output@@@2@@__crt_stdio_output@@AEAAXI_N@Z 000000018004ebc0 f i libucrt:output.obj
 0001:0004dc30       ??$type_case_integer_parse_into_buffer@I$07@?$output_processor@DV?$string_output_adapter@D@__crt_stdio_output@@V?$format_validation_base@DV?$string_output_adapter@D@__crt_stdio_output@@@2@@__crt_stdio_output@@AEAAXI_N@Z 000000018004ec30 f i libucrt:output.obj
 0001:0004dca0       ??$type_case_integer_parse_into_buffer@I$07@?$output_processor@DV?$string_output_adapter@D@__crt_stdio_output@@V?$positional_parameter_base@DV?$string_output_adapter@D@__crt_stdio_output@@@2@@__crt_stdio_output@@AEAAXI_N@Z 000000018004eca0 f i libucrt:output.obj
 0001:0004dd10       ??$type_case_integer_parse_into_buffer@I$07@?$output_processor@DV?$string_output_adapter@D@__crt_stdio_output@@V?$standard_base@DV?$string_output_adapter@D@__crt_stdio_output@@@2@@__crt_stdio_output@@AEAAXI_N@Z 000000018004ed10 f i libucrt:output.obj
 0001:0004dd80       ??$type_case_integer_parse_into_buffer@I$07@?$output_processor@_WV?$stream_output_adapter@_W@__crt_stdio_output@@V?$format_validation_base@_WV?$stream_output_adapter@_W@__crt_stdio_output@@@2@@__crt_stdio_output@@AEAAXI_N@Z 000000018004ed80 f i libucrt:output.obj
 0001:0004de04       ??$type_case_integer_parse_into_buffer@I$07@?$output_processor@_WV?$stream_output_adapter@_W@__crt_stdio_output@@V?$positional_parameter_base@_WV?$stream_output_adapter@_W@__crt_stdio_output@@@2@@__crt_stdio_output@@AEAAXI_N@Z 000000018004ee04 f i libucrt:output.obj
 0001:0004de88       ??$type_case_integer_parse_into_buffer@I$07@?$output_processor@_WV?$stream_output_adapter@_W@__crt_stdio_output@@V?$standard_base@_WV?$stream_output_adapter@_W@__crt_stdio_output@@@2@@__crt_stdio_output@@AEAAXI_N@Z 000000018004ee88 f i libucrt:output.obj
 0001:0004df0c       ??$type_case_integer_parse_into_buffer@I$07@?$output_processor@_WV?$string_output_adapter@_W@__crt_stdio_output@@V?$format_validation_base@_WV?$string_output_adapter@_W@__crt_stdio_output@@@2@@__crt_stdio_output@@AEAAXI_N@Z 000000018004ef0c f i libucrt:output.obj
 0001:0004df90       ??$type_case_integer_parse_into_buffer@I$07@?$output_processor@_WV?$string_output_adapter@_W@__crt_stdio_output@@V?$positional_parameter_base@_WV?$string_output_adapter@_W@__crt_stdio_output@@@2@@__crt_stdio_output@@AEAAXI_N@Z 000000018004ef90 f i libucrt:output.obj
 0001:0004e014       ??$type_case_integer_parse_into_buffer@I$07@?$output_processor@_WV?$string_output_adapter@_W@__crt_stdio_output@@V?$standard_base@_WV?$string_output_adapter@_W@__crt_stdio_output@@@2@@__crt_stdio_output@@AEAAXI_N@Z 000000018004f014 f i libucrt:output.obj
 0001:0004e098       ??$type_case_integer_parse_into_buffer@I$09@?$output_processor@DV?$stream_output_adapter@D@__crt_stdio_output@@V?$format_validation_base@DV?$stream_output_adapter@D@__crt_stdio_output@@@2@@__crt_stdio_output@@AEAAXI_N@Z 000000018004f098 f i libucrt:output.obj
 0001:0004e144       ??$type_case_integer_parse_into_buffer@I$09@?$output_processor@DV?$stream_output_adapter@D@__crt_stdio_output@@V?$positional_parameter_base@DV?$stream_output_adapter@D@__crt_stdio_output@@@2@@__crt_stdio_output@@AEAAXI_N@Z 000000018004f144 f i libucrt:output.obj
 0001:0004e1f0       ??$type_case_integer_parse_into_buffer@I$09@?$output_processor@DV?$stream_output_adapter@D@__crt_stdio_output@@V?$standard_base@DV?$stream_output_adapter@D@__crt_stdio_output@@@2@@__crt_stdio_output@@AEAAXI_N@Z 000000018004f1f0 f i libucrt:output.obj
 0001:0004e29c       ??$type_case_integer_parse_into_buffer@I$09@?$output_processor@DV?$string_output_adapter@D@__crt_stdio_output@@V?$format_validation_base@DV?$string_output_adapter@D@__crt_stdio_output@@@2@@__crt_stdio_output@@AEAAXI_N@Z 000000018004f29c f i libucrt:output.obj
 0001:0004e348       ??$type_case_integer_parse_into_buffer@I$09@?$output_processor@DV?$string_output_adapter@D@__crt_stdio_output@@V?$positional_parameter_base@DV?$string_output_adapter@D@__crt_stdio_output@@@2@@__crt_stdio_output@@AEAAXI_N@Z 000000018004f348 f i libucrt:output.obj
 0001:0004e3f4       ??$type_case_integer_parse_into_buffer@I$09@?$output_processor@DV?$string_output_adapter@D@__crt_stdio_output@@V?$standard_base@DV?$string_output_adapter@D@__crt_stdio_output@@@2@@__crt_stdio_output@@AEAAXI_N@Z 000000018004f3f4 f i libucrt:output.obj
 0001:0004e4a0       ??$type_case_integer_parse_into_buffer@I$09@?$output_processor@_WV?$stream_output_adapter@_W@__crt_stdio_output@@V?$format_validation_base@_WV?$stream_output_adapter@_W@__crt_stdio_output@@@2@@__crt_stdio_output@@AEAAXI_N@Z 000000018004f4a0 f i libucrt:output.obj
 0001:0004e560       ??$type_case_integer_parse_into_buffer@I$09@?$output_processor@_WV?$stream_output_adapter@_W@__crt_stdio_output@@V?$positional_parameter_base@_WV?$stream_output_adapter@_W@__crt_stdio_output@@@2@@__crt_stdio_output@@AEAAXI_N@Z 000000018004f560 f i libucrt:output.obj
 0001:0004e620       ??$type_case_integer_parse_into_buffer@I$09@?$output_processor@_WV?$stream_output_adapter@_W@__crt_stdio_output@@V?$standard_base@_WV?$stream_output_adapter@_W@__crt_stdio_output@@@2@@__crt_stdio_output@@AEAAXI_N@Z 000000018004f620 f i libucrt:output.obj
 0001:0004e6e0       ??$type_case_integer_parse_into_buffer@I$09@?$output_processor@_WV?$string_output_adapter@_W@__crt_stdio_output@@V?$format_validation_base@_WV?$string_output_adapter@_W@__crt_stdio_output@@@2@@__crt_stdio_output@@AEAAXI_N@Z 000000018004f6e0 f i libucrt:output.obj
 0001:0004e7a0       ??$type_case_integer_parse_into_buffer@I$09@?$output_processor@_WV?$string_output_adapter@_W@__crt_stdio_output@@V?$positional_parameter_base@_WV?$string_output_adapter@_W@__crt_stdio_output@@@2@@__crt_stdio_output@@AEAAXI_N@Z 000000018004f7a0 f i libucrt:output.obj
 0001:0004e860       ??$type_case_integer_parse_into_buffer@I$09@?$output_processor@_WV?$string_output_adapter@_W@__crt_stdio_output@@V?$standard_base@_WV?$string_output_adapter@_W@__crt_stdio_output@@@2@@__crt_stdio_output@@AEAAXI_N@Z 000000018004f860 f i libucrt:output.obj
 0001:0004e920       ??$type_case_integer_parse_into_buffer@I$0BA@@?$output_processor@DV?$stream_output_adapter@D@__crt_stdio_output@@V?$format_validation_base@DV?$stream_output_adapter@D@__crt_stdio_output@@@2@@__crt_stdio_output@@AEAAXI_N@Z 000000018004f920 f i libucrt:output.obj
 0001:0004e9a4       ??$type_case_integer_parse_into_buffer@I$0BA@@?$output_processor@DV?$stream_output_adapter@D@__crt_stdio_output@@V?$positional_parameter_base@DV?$stream_output_adapter@D@__crt_stdio_output@@@2@@__crt_stdio_output@@AEAAXI_N@Z 000000018004f9a4 f i libucrt:output.obj
 0001:0004ea28       ??$type_case_integer_parse_into_buffer@I$0BA@@?$output_processor@DV?$stream_output_adapter@D@__crt_stdio_output@@V?$standard_base@DV?$stream_output_adapter@D@__crt_stdio_output@@@2@@__crt_stdio_output@@AEAAXI_N@Z 000000018004fa28 f i libucrt:output.obj
 0001:0004eaac       ??$type_case_integer_parse_into_buffer@I$0BA@@?$output_processor@DV?$string_output_adapter@D@__crt_stdio_output@@V?$format_validation_base@DV?$string_output_adapter@D@__crt_stdio_output@@@2@@__crt_stdio_output@@AEAAXI_N@Z 000000018004faac f i libucrt:output.obj
 0001:0004eb30       ??$type_case_integer_parse_into_buffer@I$0BA@@?$output_processor@DV?$string_output_adapter@D@__crt_stdio_output@@V?$positional_parameter_base@DV?$string_output_adapter@D@__crt_stdio_output@@@2@@__crt_stdio_output@@AEAAXI_N@Z 000000018004fb30 f i libucrt:output.obj
 0001:0004ebb4       ??$type_case_integer_parse_into_buffer@I$0BA@@?$output_processor@DV?$string_output_adapter@D@__crt_stdio_output@@V?$standard_base@DV?$string_output_adapter@D@__crt_stdio_output@@@2@@__crt_stdio_output@@AEAAXI_N@Z 000000018004fbb4 f i libucrt:output.obj
 0001:0004ec38       ??$type_case_integer_parse_into_buffer@I$0BA@@?$output_processor@_WV?$stream_output_adapter@_W@__crt_stdio_output@@V?$format_validation_base@_WV?$stream_output_adapter@_W@__crt_stdio_output@@@2@@__crt_stdio_output@@AEAAXI_N@Z 000000018004fc38 f i libucrt:output.obj
 0001:0004ecd8       ??$type_case_integer_parse_into_buffer@I$0BA@@?$output_processor@_WV?$stream_output_adapter@_W@__crt_stdio_output@@V?$positional_parameter_base@_WV?$stream_output_adapter@_W@__crt_stdio_output@@@2@@__crt_stdio_output@@AEAAXI_N@Z 000000018004fcd8 f i libucrt:output.obj
 0001:0004ed78       ??$type_case_integer_parse_into_buffer@I$0BA@@?$output_processor@_WV?$stream_output_adapter@_W@__crt_stdio_output@@V?$standard_base@_WV?$stream_output_adapter@_W@__crt_stdio_output@@@2@@__crt_stdio_output@@AEAAXI_N@Z 000000018004fd78 f i libucrt:output.obj
 0001:0004ee18       ??$type_case_integer_parse_into_buffer@I$0BA@@?$output_processor@_WV?$string_output_adapter@_W@__crt_stdio_output@@V?$format_validation_base@_WV?$string_output_adapter@_W@__crt_stdio_output@@@2@@__crt_stdio_output@@AEAAXI_N@Z 000000018004fe18 f i libucrt:output.obj
 0001:0004eeb8       ??$type_case_integer_parse_into_buffer@I$0BA@@?$output_processor@_WV?$string_output_adapter@_W@__crt_stdio_output@@V?$positional_parameter_base@_WV?$string_output_adapter@_W@__crt_stdio_output@@@2@@__crt_stdio_output@@AEAAXI_N@Z 000000018004feb8 f i libucrt:output.obj
 0001:0004ef58       ??$type_case_integer_parse_into_buffer@I$0BA@@?$output_processor@_WV?$string_output_adapter@_W@__crt_stdio_output@@V?$standard_base@_WV?$string_output_adapter@_W@__crt_stdio_output@@@2@@__crt_stdio_output@@AEAAXI_N@Z 000000018004ff58 f i libucrt:output.obj
 0001:0004eff8       ??$type_case_integer_parse_into_buffer@_K$07@?$output_processor@DV?$stream_output_adapter@D@__crt_stdio_output@@V?$format_validation_base@DV?$stream_output_adapter@D@__crt_stdio_output@@@2@@__crt_stdio_output@@AEAAX_K_N@Z 000000018004fff8 f i libucrt:output.obj
 0001:0004f068       ??$type_case_integer_parse_into_buffer@_K$07@?$output_processor@DV?$stream_output_adapter@D@__crt_stdio_output@@V?$positional_parameter_base@DV?$stream_output_adapter@D@__crt_stdio_output@@@2@@__crt_stdio_output@@AEAAX_K_N@Z 0000000180050068 f i libucrt:output.obj
 0001:0004f0d8       ??$type_case_integer_parse_into_buffer@_K$07@?$output_processor@DV?$stream_output_adapter@D@__crt_stdio_output@@V?$standard_base@DV?$stream_output_adapter@D@__crt_stdio_output@@@2@@__crt_stdio_output@@AEAAX_K_N@Z 00000001800500d8 f i libucrt:output.obj
 0001:0004f148       ??$type_case_integer_parse_into_buffer@_K$07@?$output_processor@DV?$string_output_adapter@D@__crt_stdio_output@@V?$format_validation_base@DV?$string_output_adapter@D@__crt_stdio_output@@@2@@__crt_stdio_output@@AEAAX_K_N@Z 0000000180050148 f i libucrt:output.obj
 0001:0004f1b8       ??$type_case_integer_parse_into_buffer@_K$07@?$output_processor@DV?$string_output_adapter@D@__crt_stdio_output@@V?$positional_parameter_base@DV?$string_output_adapter@D@__crt_stdio_output@@@2@@__crt_stdio_output@@AEAAX_K_N@Z 00000001800501b8 f i libucrt:output.obj
 0001:0004f228       ??$type_case_integer_parse_into_buffer@_K$07@?$output_processor@DV?$string_output_adapter@D@__crt_stdio_output@@V?$standard_base@DV?$string_output_adapter@D@__crt_stdio_output@@@2@@__crt_stdio_output@@AEAAX_K_N@Z 0000000180050228 f i libucrt:output.obj
 0001:0004f298       ??$type_case_integer_parse_into_buffer@_K$07@?$output_processor@_WV?$stream_output_adapter@_W@__crt_stdio_output@@V?$format_validation_base@_WV?$stream_output_adapter@_W@__crt_stdio_output@@@2@@__crt_stdio_output@@AEAAX_K_N@Z 0000000180050298 f i libucrt:output.obj
 0001:0004f320       ??$type_case_integer_parse_into_buffer@_K$07@?$output_processor@_WV?$stream_output_adapter@_W@__crt_stdio_output@@V?$positional_parameter_base@_WV?$stream_output_adapter@_W@__crt_stdio_output@@@2@@__crt_stdio_output@@AEAAX_K_N@Z 0000000180050320 f i libucrt:output.obj
 0001:0004f3a8       ??$type_case_integer_parse_into_buffer@_K$07@?$output_processor@_WV?$stream_output_adapter@_W@__crt_stdio_output@@V?$standard_base@_WV?$stream_output_adapter@_W@__crt_stdio_output@@@2@@__crt_stdio_output@@AEAAX_K_N@Z 00000001800503a8 f i libucrt:output.obj
 0001:0004f430       ??$type_case_integer_parse_into_buffer@_K$07@?$output_processor@_WV?$string_output_adapter@_W@__crt_stdio_output@@V?$format_validation_base@_WV?$string_output_adapter@_W@__crt_stdio_output@@@2@@__crt_stdio_output@@AEAAX_K_N@Z 0000000180050430 f i libucrt:output.obj
 0001:0004f4b8       ??$type_case_integer_parse_into_buffer@_K$07@?$output_processor@_WV?$string_output_adapter@_W@__crt_stdio_output@@V?$positional_parameter_base@_WV?$string_output_adapter@_W@__crt_stdio_output@@@2@@__crt_stdio_output@@AEAAX_K_N@Z 00000001800504b8 f i libucrt:output.obj
 0001:0004f540       ??$type_case_integer_parse_into_buffer@_K$07@?$output_processor@_WV?$string_output_adapter@_W@__crt_stdio_output@@V?$standard_base@_WV?$string_output_adapter@_W@__crt_stdio_output@@@2@@__crt_stdio_output@@AEAAX_K_N@Z 0000000180050540 f i libucrt:output.obj
 0001:0004f5c8       ??$type_case_integer_parse_into_buffer@_K$09@?$output_processor@DV?$stream_output_adapter@D@__crt_stdio_output@@V?$format_validation_base@DV?$stream_output_adapter@D@__crt_stdio_output@@@2@@__crt_stdio_output@@AEAAX_K_N@Z 00000001800505c8 f i libucrt:output.obj
 0001:0004f678       ??$type_case_integer_parse_into_buffer@_K$09@?$output_processor@DV?$stream_output_adapter@D@__crt_stdio_output@@V?$positional_parameter_base@DV?$stream_output_adapter@D@__crt_stdio_output@@@2@@__crt_stdio_output@@AEAAX_K_N@Z 0000000180050678 f i libucrt:output.obj
 0001:0004f728       ??$type_case_integer_parse_into_buffer@_K$09@?$output_processor@DV?$stream_output_adapter@D@__crt_stdio_output@@V?$standard_base@DV?$stream_output_adapter@D@__crt_stdio_output@@@2@@__crt_stdio_output@@AEAAX_K_N@Z 0000000180050728 f i libucrt:output.obj
 0001:0004f7d8       ??$type_case_integer_parse_into_buffer@_K$09@?$output_processor@DV?$string_output_adapter@D@__crt_stdio_output@@V?$format_validation_base@DV?$string_output_adapter@D@__crt_stdio_output@@@2@@__crt_stdio_output@@AEAAX_K_N@Z 00000001800507d8 f i libucrt:output.obj
 0001:0004f888       ??$type_case_integer_parse_into_buffer@_K$09@?$output_processor@DV?$string_output_adapter@D@__crt_stdio_output@@V?$positional_parameter_base@DV?$string_output_adapter@D@__crt_stdio_output@@@2@@__crt_stdio_output@@AEAAX_K_N@Z 0000000180050888 f i libucrt:output.obj
 0001:0004f938       ??$type_case_integer_parse_into_buffer@_K$09@?$output_processor@DV?$string_output_adapter@D@__crt_stdio_output@@V?$standard_base@DV?$string_output_adapter@D@__crt_stdio_output@@@2@@__crt_stdio_output@@AEAAX_K_N@Z 0000000180050938 f i libucrt:output.obj
 0001:0004f9e8       ??$type_case_integer_parse_into_buffer@_K$09@?$output_processor@_WV?$stream_output_adapter@_W@__crt_stdio_output@@V?$format_validation_base@_WV?$stream_output_adapter@_W@__crt_stdio_output@@@2@@__crt_stdio_output@@AEAAX_K_N@Z 00000001800509e8 f i libucrt:output.obj
 0001:0004faac       ??$type_case_integer_parse_into_buffer@_K$09@?$output_processor@_WV?$stream_output_adapter@_W@__crt_stdio_output@@V?$positional_parameter_base@_WV?$stream_output_adapter@_W@__crt_stdio_output@@@2@@__crt_stdio_output@@AEAAX_K_N@Z 0000000180050aac f i libucrt:output.obj
 0001:0004fb70       ??$type_case_integer_parse_into_buffer@_K$09@?$output_processor@_WV?$stream_output_adapter@_W@__crt_stdio_output@@V?$standard_base@_WV?$stream_output_adapter@_W@__crt_stdio_output@@@2@@__crt_stdio_output@@AEAAX_K_N@Z 0000000180050b70 f i libucrt:output.obj
 0001:0004fc34       ??$type_case_integer_parse_into_buffer@_K$09@?$output_processor@_WV?$string_output_adapter@_W@__crt_stdio_output@@V?$format_validation_base@_WV?$string_output_adapter@_W@__crt_stdio_output@@@2@@__crt_stdio_output@@AEAAX_K_N@Z 0000000180050c34 f i libucrt:output.obj
 0001:0004fcf8       ??$type_case_integer_parse_into_buffer@_K$09@?$output_processor@_WV?$string_output_adapter@_W@__crt_stdio_output@@V?$positional_parameter_base@_WV?$string_output_adapter@_W@__crt_stdio_output@@@2@@__crt_stdio_output@@AEAAX_K_N@Z 0000000180050cf8 f i libucrt:output.obj
 0001:0004fdbc       ??$type_case_integer_parse_into_buffer@_K$09@?$output_processor@_WV?$string_output_adapter@_W@__crt_stdio_output@@V?$standard_base@_WV?$string_output_adapter@_W@__crt_stdio_output@@@2@@__crt_stdio_output@@AEAAX_K_N@Z 0000000180050dbc f i libucrt:output.obj
 0001:0004fe80       ??$type_case_integer_parse_into_buffer@_K$0BA@@?$output_processor@DV?$stream_output_adapter@D@__crt_stdio_output@@V?$format_validation_base@DV?$stream_output_adapter@D@__crt_stdio_output@@@2@@__crt_stdio_output@@AEAAX_K_N@Z 0000000180050e80 f i libucrt:output.obj
 0001:0004ff04       ??$type_case_integer_parse_into_buffer@_K$0BA@@?$output_processor@DV?$stream_output_adapter@D@__crt_stdio_output@@V?$positional_parameter_base@DV?$stream_output_adapter@D@__crt_stdio_output@@@2@@__crt_stdio_output@@AEAAX_K_N@Z 0000000180050f04 f i libucrt:output.obj
 0001:0004ff88       ??$type_case_integer_parse_into_buffer@_K$0BA@@?$output_processor@DV?$stream_output_adapter@D@__crt_stdio_output@@V?$standard_base@DV?$stream_output_adapter@D@__crt_stdio_output@@@2@@__crt_stdio_output@@AEAAX_K_N@Z 0000000180050f88 f i libucrt:output.obj
 0001:0005000c       ??$type_case_integer_parse_into_buffer@_K$0BA@@?$output_processor@DV?$string_output_adapter@D@__crt_stdio_output@@V?$format_validation_base@DV?$string_output_adapter@D@__crt_stdio_output@@@2@@__crt_stdio_output@@AEAAX_K_N@Z 000000018005100c f i libucrt:output.obj
 0001:00050090       ??$type_case_integer_parse_into_buffer@_K$0BA@@?$output_processor@DV?$string_output_adapter@D@__crt_stdio_output@@V?$positional_parameter_base@DV?$string_output_adapter@D@__crt_stdio_output@@@2@@__crt_stdio_output@@AEAAX_K_N@Z 0000000180051090 f i libucrt:output.obj
 0001:00050114       ??$type_case_integer_parse_into_buffer@_K$0BA@@?$output_processor@DV?$string_output_adapter@D@__crt_stdio_output@@V?$standard_base@DV?$string_output_adapter@D@__crt_stdio_output@@@2@@__crt_stdio_output@@AEAAX_K_N@Z 0000000180051114 f i libucrt:output.obj
 0001:00050198       ??$type_case_integer_parse_into_buffer@_K$0BA@@?$output_processor@_WV?$stream_output_adapter@_W@__crt_stdio_output@@V?$format_validation_base@_WV?$stream_output_adapter@_W@__crt_stdio_output@@@2@@__crt_stdio_output@@AEAAX_K_N@Z 0000000180051198 f i libucrt:output.obj
 0001:00050238       ??$type_case_integer_parse_into_buffer@_K$0BA@@?$output_processor@_WV?$stream_output_adapter@_W@__crt_stdio_output@@V?$positional_parameter_base@_WV?$stream_output_adapter@_W@__crt_stdio_output@@@2@@__crt_stdio_output@@AEAAX_K_N@Z 0000000180051238 f i libucrt:output.obj
 0001:000502d8       ??$type_case_integer_parse_into_buffer@_K$0BA@@?$output_processor@_WV?$stream_output_adapter@_W@__crt_stdio_output@@V?$standard_base@_WV?$stream_output_adapter@_W@__crt_stdio_output@@@2@@__crt_stdio_output@@AEAAX_K_N@Z 00000001800512d8 f i libucrt:output.obj
 0001:00050378       ??$type_case_integer_parse_into_buffer@_K$0BA@@?$output_processor@_WV?$string_output_adapter@_W@__crt_stdio_output@@V?$format_validation_base@_WV?$string_output_adapter@_W@__crt_stdio_output@@@2@@__crt_stdio_output@@AEAAX_K_N@Z 0000000180051378 f i libucrt:output.obj
 0001:00050418       ??$type_case_integer_parse_into_buffer@_K$0BA@@?$output_processor@_WV?$string_output_adapter@_W@__crt_stdio_output@@V?$positional_parameter_base@_WV?$string_output_adapter@_W@__crt_stdio_output@@@2@@__crt_stdio_output@@AEAAX_K_N@Z 0000000180051418 f i libucrt:output.obj
 0001:000504b8       ??$type_case_integer_parse_into_buffer@_K$0BA@@?$output_processor@_WV?$string_output_adapter@_W@__crt_stdio_output@@V?$standard_base@_WV?$string_output_adapter@_W@__crt_stdio_output@@@2@@__crt_stdio_output@@AEAAX_K_N@Z 00000001800514b8 f i libucrt:output.obj
 0001:00050558       ??$write_multiple_characters@V?$stream_output_adapter@D@__crt_stdio_output@@D@__crt_stdio_output@@YAXAEBV?$stream_output_adapter@D@0@DHQEAHAEAV__crt_cached_ptd_host@@@Z 0000000180051558 f i libucrt:output.obj
 0001:000505ec       ??$write_multiple_characters@V?$stream_output_adapter@_W@__crt_stdio_output@@D@__crt_stdio_output@@YAXAEBV?$stream_output_adapter@_W@0@DHQEAHAEAV__crt_cached_ptd_host@@@Z 00000001800515ec f i libucrt:output.obj
 0001:00050684       ??$write_multiple_characters@V?$string_output_adapter@D@__crt_stdio_output@@D@__crt_stdio_output@@YAXAEBV?$string_output_adapter@D@0@DHQEAHAEAV__crt_cached_ptd_host@@@Z 0000000180051684 f i libucrt:output.obj
 0001:000506fc       ??$write_multiple_characters@V?$string_output_adapter@_W@__crt_stdio_output@@D@__crt_stdio_output@@YAXAEBV?$string_output_adapter@_W@0@DHQEAHAEAV__crt_cached_ptd_host@@@Z 00000001800516fc f i libucrt:output.obj
 0001:000508dc       ??0?$c_string_character_source@D@__crt_strtox@@QEAA@QEBDQEAPEBD@Z 00000001800518dc f i libucrt:output.obj
 0001:000508f0       ??0?$c_string_character_source@_W@__crt_strtox@@QEAA@QEB_WQEAPEB_W@Z 00000001800518f0 f i libucrt:output.obj
 0001:00050904       ??0?$cached@H@__crt_cached_ptd_host@@QEAA@XZ 0000000180051904 f i libucrt:output.obj
 0001:0005090c       ??0?$cached@K@__crt_cached_ptd_host@@QEAA@XZ 000000018005190c f i libucrt:output.obj
 0001:00050914       ??0?$common_data@D@__crt_stdio_output@@IEAA@AEAV__crt_cached_ptd_host@@@Z 0000000180051914 f i libucrt:output.obj
 0001:00050950       ??0?$common_data@_W@__crt_stdio_output@@IEAA@AEAV__crt_cached_ptd_host@@@Z 0000000180051950 f i libucrt:output.obj
 0001:00050990       ??0?$output_adapter_data@DV?$stream_output_adapter@D@__crt_stdio_output@@@__crt_stdio_output@@IEAA@AEBV?$stream_output_adapter@D@1@_KQEBDAEAV__crt_cached_ptd_host@@QEAD@Z 0000000180051990 f i libucrt:output.obj
 0001:000509f0       ??0?$output_adapter_data@DV?$string_output_adapter@D@__crt_stdio_output@@@__crt_stdio_output@@IEAA@AEBV?$string_output_adapter@D@1@_KQEBDAEAV__crt_cached_ptd_host@@QEAD@Z 00000001800519f0 f i libucrt:output.obj
 0001:00050a50       ??0?$output_adapter_data@_WV?$stream_output_adapter@_W@__crt_stdio_output@@@__crt_stdio_output@@IEAA@AEBV?$stream_output_adapter@_W@1@_KQEB_WAEAV__crt_cached_ptd_host@@QEAD@Z 0000000180051a50 f i libucrt:output.obj
 0001:00050ab4       ??0?$output_adapter_data@_WV?$string_output_adapter@_W@__crt_stdio_output@@@__crt_stdio_output@@IEAA@AEBV?$string_output_adapter@_W@1@_KQEB_WAEAV__crt_cached_ptd_host@@QEAD@Z 0000000180051ab4 f i libucrt:output.obj
 0001:00050b18       ??0?$output_processor@DV?$stream_output_adapter@D@__crt_stdio_output@@V?$format_validation_base@DV?$stream_output_adapter@D@__crt_stdio_output@@@2@@__crt_stdio_output@@QEAA@AEBV?$stream_output_adapter@D@1@_KQEBDAEAV__crt_cached_ptd_host@@QEAD@Z 0000000180051b18 f i libucrt:output.obj
 0001:00050b80       ??0?$output_processor@DV?$stream_output_adapter@D@__crt_stdio_output@@V?$positional_parameter_base@DV?$stream_output_adapter@D@__crt_stdio_output@@@2@@__crt_stdio_output@@QEAA@AEBV?$stream_output_adapter@D@1@_KQEBDAEAV__crt_cached_ptd_host@@QEAD@Z 0000000180051b80 f i libucrt:output.obj
 0001:00050c04       ??0?$output_processor@DV?$stream_output_adapter@D@__crt_stdio_output@@V?$standard_base@DV?$stream_output_adapter@D@__crt_stdio_output@@@2@@__crt_stdio_output@@QEAA@AEBV?$stream_output_adapter@D@1@_KQEBDAEAV__crt_cached_ptd_host@@QEAD@Z 0000000180051c04 f i libucrt:output.obj
 0001:00050c6c       ??0?$output_processor@DV?$string_output_adapter@D@__crt_stdio_output@@V?$format_validation_base@DV?$string_output_adapter@D@__crt_stdio_output@@@2@@__crt_stdio_output@@QEAA@AEBV?$string_output_adapter@D@1@_KQEBDAEAV__crt_cached_ptd_host@@QEAD@Z 0000000180051c6c f i libucrt:output.obj
 0001:00050cd4       ??0?$output_processor@DV?$string_output_adapter@D@__crt_stdio_output@@V?$positional_parameter_base@DV?$string_output_adapter@D@__crt_stdio_output@@@2@@__crt_stdio_output@@QEAA@AEBV?$string_output_adapter@D@1@_KQEBDAEAV__crt_cached_ptd_host@@QEAD@Z 0000000180051cd4 f i libucrt:output.obj
 0001:00050d58       ??0?$output_processor@DV?$string_output_adapter@D@__crt_stdio_output@@V?$standard_base@DV?$string_output_adapter@D@__crt_stdio_output@@@2@@__crt_stdio_output@@QEAA@AEBV?$string_output_adapter@D@1@_KQEBDAEAV__crt_cached_ptd_host@@QEAD@Z 0000000180051d58 f i libucrt:output.obj
 0001:00050dc0       ??0?$output_processor@_WV?$stream_output_adapter@_W@__crt_stdio_output@@V?$format_validation_base@_WV?$stream_output_adapter@_W@__crt_stdio_output@@@2@@__crt_stdio_output@@QEAA@AEBV?$stream_output_adapter@_W@1@_KQEB_WAEAV__crt_cached_ptd_host@@QEAD@Z 0000000180051dc0 f i libucrt:output.obj
 0001:00050e2c       ??0?$output_processor@_WV?$stream_output_adapter@_W@__crt_stdio_output@@V?$positional_parameter_base@_WV?$stream_output_adapter@_W@__crt_stdio_output@@@2@@__crt_stdio_output@@QEAA@AEBV?$stream_output_adapter@_W@1@_KQEB_WAEAV__crt_cached_ptd_host@@QEAD@Z 0000000180051e2c f i libucrt:output.obj
 0001:00050eb4       ??0?$output_processor@_WV?$stream_output_adapter@_W@__crt_stdio_output@@V?$standard_base@_WV?$stream_output_adapter@_W@__crt_stdio_output@@@2@@__crt_stdio_output@@QEAA@AEBV?$stream_output_adapter@_W@1@_KQEB_WAEAV__crt_cached_ptd_host@@QEAD@Z 0000000180051eb4 f i libucrt:output.obj
 0001:00050f20       ??0?$output_processor@_WV?$string_output_adapter@_W@__crt_stdio_output@@V?$format_validation_base@_WV?$string_output_adapter@_W@__crt_stdio_output@@@2@@__crt_stdio_output@@QEAA@AEBV?$string_output_adapter@_W@1@_KQEB_WAEAV__crt_cached_ptd_host@@QEAD@Z 0000000180051f20 f i libucrt:output.obj
 0001:00050f8c       ??0?$output_processor@_WV?$string_output_adapter@_W@__crt_stdio_output@@V?$positional_parameter_base@_WV?$string_output_adapter@_W@__crt_stdio_output@@@2@@__crt_stdio_output@@QEAA@AEBV?$string_output_adapter@_W@1@_KQEB_WAEAV__crt_cached_ptd_host@@QEAD@Z 0000000180051f8c f i libucrt:output.obj
 0001:00051014       ??0?$output_processor@_WV?$string_output_adapter@_W@__crt_stdio_output@@V?$standard_base@_WV?$string_output_adapter@_W@__crt_stdio_output@@@2@@__crt_stdio_output@@QEAA@AEBV?$string_output_adapter@_W@1@_KQEB_WAEAV__crt_cached_ptd_host@@QEAD@Z 0000000180052014 f i libucrt:output.obj
 0001:00051080       ??0?$stream_output_adapter@D@__crt_stdio_output@@QEAA@QEAU_iobuf@@@Z 0000000180052080 f i libucrt:output.obj
 0001:00051088       ??0?$stream_output_adapter@_W@__crt_stdio_output@@QEAA@QEAU_iobuf@@@Z 0000000180052088 f i libucrt:output.obj
 0001:00051090       ??0?$string_output_adapter@D@__crt_stdio_output@@QEAA@QEAU?$string_output_adapter_context@D@1@@Z 0000000180052090 f i libucrt:output.obj
 0001:00051098       ??0?$string_output_adapter@_W@__crt_stdio_output@@QEAA@QEAU?$string_output_adapter_context@_W@1@@Z 0000000180052098 f i libucrt:output.obj
 0001:000510a0       ??0__acrt_stdio_temporary_buffering_guard@@QEAA@QEAU_iobuf@@AEAV__crt_cached_ptd_host@@@Z 00000001800520a0 f i libucrt:output.obj
 0001:000510d0       ??0__crt_cached_ptd_host@@QEAA@QEAU__crt_locale_pointers@@@Z 00000001800520d0 f i libucrt:output.obj
 0001:00051118       ??0__crt_scoped_get_last_error_reset@@QEAA@XZ 0000000180052118 f i libucrt:output.obj
 0001:00051134       ??0__crt_stdio_stream@@QEAA@QEAU_iobuf@@@Z 0000000180052134 f i libucrt:output.obj
 0001:0005113c       ??0formatting_buffer@__crt_stdio_output@@QEAA@XZ 000000018005213c f i libucrt:output.obj
 0001:00051150       ??0guard@?$cached@H@__crt_cached_ptd_host@@QEAA@AEAU12@@Z 0000000180052150 f i libucrt:output.obj
 0001:00051164       ??1?$c_string_character_source@D@__crt_strtox@@QEAA@XZ 0000000180052164 f i libucrt:output.obj
 0001:00051174       ??1?$c_string_character_source@_W@__crt_strtox@@QEAA@XZ 0000000180052174 f i libucrt:output.obj
 0001:00051184       ??1?$common_data@D@__crt_stdio_output@@QEAA@XZ 0000000180052184 f i libucrt:output.obj
 0001:000511a8       ??1?$common_data@_W@__crt_stdio_output@@QEAA@XZ 00000001800521a8 f i libucrt:output.obj
 0001:000511cc       ??1?$format_validation_base@DV?$stream_output_adapter@D@__crt_stdio_output@@@__crt_stdio_output@@QEAA@XZ 00000001800521cc f i libucrt:output.obj
 0001:000511f0       ??1?$format_validation_base@DV?$string_output_adapter@D@__crt_stdio_output@@@__crt_stdio_output@@QEAA@XZ 00000001800521f0 f i libucrt:output.obj
 0001:00051214       ??1?$format_validation_base@_WV?$stream_output_adapter@_W@__crt_stdio_output@@@__crt_stdio_output@@QEAA@XZ 0000000180052214 f i libucrt:output.obj
 0001:00051238       ??1?$format_validation_base@_WV?$string_output_adapter@_W@__crt_stdio_output@@@__crt_stdio_output@@QEAA@XZ 0000000180052238 f i libucrt:output.obj
 0001:0005125c       ??1?$output_adapter_data@DV?$stream_output_adapter@D@__crt_stdio_output@@@__crt_stdio_output@@QEAA@XZ 000000018005225c f i libucrt:output.obj
 0001:00051280       ??1?$output_adapter_data@DV?$string_output_adapter@D@__crt_stdio_output@@@__crt_stdio_output@@QEAA@XZ 0000000180052280 f i libucrt:output.obj
 0001:000512a4       ??1?$output_adapter_data@_WV?$stream_output_adapter@_W@__crt_stdio_output@@@__crt_stdio_output@@QEAA@XZ 00000001800522a4 f i libucrt:output.obj
 0001:000512c8       ??1?$output_adapter_data@_WV?$string_output_adapter@_W@__crt_stdio_output@@@__crt_stdio_output@@QEAA@XZ 00000001800522c8 f i libucrt:output.obj
 0001:000512ec       ??1?$output_processor@DV?$stream_output_adapter@D@__crt_stdio_output@@V?$format_validation_base@DV?$stream_output_adapter@D@__crt_stdio_output@@@2@@__crt_stdio_output@@QEAA@XZ 00000001800522ec f i libucrt:output.obj
 0001:00051310       ??1?$output_processor@DV?$stream_output_adapter@D@__crt_stdio_output@@V?$positional_parameter_base@DV?$stream_output_adapter@D@__crt_stdio_output@@@2@@__crt_stdio_output@@QEAA@XZ 0000000180052310 f i libucrt:output.obj
 0001:00051334       ??1?$output_processor@DV?$stream_output_adapter@D@__crt_stdio_output@@V?$standard_base@DV?$stream_output_adapter@D@__crt_stdio_output@@@2@@__crt_stdio_output@@QEAA@XZ 0000000180052334 f i libucrt:output.obj
 0001:00051358       ??1?$output_processor@DV?$string_output_adapter@D@__crt_stdio_output@@V?$format_validation_base@DV?$string_output_adapter@D@__crt_stdio_output@@@2@@__crt_stdio_output@@QEAA@XZ 0000000180052358 f i libucrt:output.obj
 0001:0005137c       ??1?$output_processor@DV?$string_output_adapter@D@__crt_stdio_output@@V?$positional_parameter_base@DV?$string_output_adapter@D@__crt_stdio_output@@@2@@__crt_stdio_output@@QEAA@XZ 000000018005237c f i libucrt:output.obj
 0001:000513a0       ??1?$output_processor@DV?$string_output_adapter@D@__crt_stdio_output@@V?$standard_base@DV?$string_output_adapter@D@__crt_stdio_output@@@2@@__crt_stdio_output@@QEAA@XZ 00000001800523a0 f i libucrt:output.obj
 0001:000513c4       ??1?$output_processor@_WV?$stream_output_adapter@_W@__crt_stdio_output@@V?$format_validation_base@_WV?$stream_output_adapter@_W@__crt_stdio_output@@@2@@__crt_stdio_output@@QEAA@XZ 00000001800523c4 f i libucrt:output.obj
 0001:000513e8       ??1?$output_processor@_WV?$stream_output_adapter@_W@__crt_stdio_output@@V?$positional_parameter_base@_WV?$stream_output_adapter@_W@__crt_stdio_output@@@2@@__crt_stdio_output@@QEAA@XZ 00000001800523e8 f i libucrt:output.obj
 0001:0005140c       ??1?$output_processor@_WV?$stream_output_adapter@_W@__crt_stdio_output@@V?$standard_base@_WV?$stream_output_adapter@_W@__crt_stdio_output@@@2@@__crt_stdio_output@@QEAA@XZ 000000018005240c f i libucrt:output.obj
 0001:00051430       ??1?$output_processor@_WV?$string_output_adapter@_W@__crt_stdio_output@@V?$format_validation_base@_WV?$string_output_adapter@_W@__crt_stdio_output@@@2@@__crt_stdio_output@@QEAA@XZ 0000000180052430 f i libucrt:output.obj
 0001:00051454       ??1?$output_processor@_WV?$string_output_adapter@_W@__crt_stdio_output@@V?$positional_parameter_base@_WV?$string_output_adapter@_W@__crt_stdio_output@@@2@@__crt_stdio_output@@QEAA@XZ 0000000180052454 f i libucrt:output.obj
 0001:00051478       ??1?$output_processor@_WV?$string_output_adapter@_W@__crt_stdio_output@@V?$standard_base@_WV?$string_output_adapter@_W@__crt_stdio_output@@@2@@__crt_stdio_output@@QEAA@XZ 0000000180052478 f i libucrt:output.obj
 0001:0005149c       ??1?$positional_parameter_base@DV?$stream_output_adapter@D@__crt_stdio_output@@@__crt_stdio_output@@QEAA@XZ 000000018005249c f i libucrt:output.obj
 0001:000514c0       ??1?$positional_parameter_base@DV?$string_output_adapter@D@__crt_stdio_output@@@__crt_stdio_output@@QEAA@XZ 00000001800524c0 f i libucrt:output.obj
 0001:000514e4       ??1?$positional_parameter_base@_WV?$stream_output_adapter@_W@__crt_stdio_output@@@__crt_stdio_output@@QEAA@XZ 00000001800524e4 f i libucrt:output.obj
 0001:00051508       ??1?$positional_parameter_base@_WV?$string_output_adapter@_W@__crt_stdio_output@@@__crt_stdio_output@@QEAA@XZ 0000000180052508 f i libucrt:output.obj
 0001:0005152c       ??1?$standard_base@DV?$stream_output_adapter@D@__crt_stdio_output@@@__crt_stdio_output@@QEAA@XZ 000000018005252c f i libucrt:output.obj
 0001:00051550       ??1?$standard_base@DV?$string_output_adapter@D@__crt_stdio_output@@@__crt_stdio_output@@QEAA@XZ 0000000180052550 f i libucrt:output.obj
 0001:00051574       ??1?$standard_base@_WV?$stream_output_adapter@_W@__crt_stdio_output@@@__crt_stdio_output@@QEAA@XZ 0000000180052574 f i libucrt:output.obj
 0001:00051598       ??1?$standard_base@_WV?$string_output_adapter@_W@__crt_stdio_output@@@__crt_stdio_output@@QEAA@XZ 0000000180052598 f i libucrt:output.obj
 0001:000515bc       ??1__acrt_stdio_temporary_buffering_guard@@QEAA@XZ 00000001800525bc f i libucrt:output.obj
 0001:000515d0       ??1__crt_cached_ptd_host@@QEAA@XZ 00000001800525d0 f i libucrt:output.obj
 0001:00051620       ??1__crt_scoped_get_last_error_reset@@QEAA@XZ 0000000180052620 f i libucrt:output.obj
 0001:0005162c       ??1formatting_buffer@__crt_stdio_output@@QEAA@XZ 000000018005262c f i libucrt:output.obj
 0001:00051650       ??1guard@?$cached@H@__crt_cached_ptd_host@@QEAA@XZ 0000000180052650 f i libucrt:output.obj
 0001:00051664       ??4?$__crt_unique_heap_ptr@DU__crt_internal_free_policy@@@@QEAAAEAV0@$$QEAV0@@Z 0000000180052664 f i libucrt:output.obj
 0001:00051698       ??A?$spectre_mitigated_lookup_table@Ustate_transition_pair@__crt_stdio_output@@$0IA@@__crt_stdio_output@@QEBAAEBUstate_transition_pair@1@_K@Z 0000000180052698 f i libucrt:output.obj
 0001:000516a0       ??C__crt_stdio_stream@@QEBAPEAU__crt_stdio_stream_data@@XZ 00000001800526a0 f i libucrt:output.obj
 0001:00051de8       ?adjust_hexit@?$output_processor@DV?$stream_output_adapter@D@__crt_stdio_output@@V?$format_validation_base@DV?$stream_output_adapter@D@__crt_stdio_output@@@2@@__crt_stdio_output@@CADH_N@Z 0000000180052de8 f i libucrt:output.obj
 0001:00051df4       ?adjust_hexit@?$output_processor@DV?$stream_output_adapter@D@__crt_stdio_output@@V?$positional_parameter_base@DV?$stream_output_adapter@D@__crt_stdio_output@@@2@@__crt_stdio_output@@CADH_N@Z 0000000180052df4 f i libucrt:output.obj
 0001:00051e00       ?adjust_hexit@?$output_processor@DV?$stream_output_adapter@D@__crt_stdio_output@@V?$standard_base@DV?$stream_output_adapter@D@__crt_stdio_output@@@2@@__crt_stdio_output@@CADH_N@Z 0000000180052e00 f i libucrt:output.obj
 0001:00051e0c       ?adjust_hexit@?$output_processor@DV?$string_output_adapter@D@__crt_stdio_output@@V?$format_validation_base@DV?$string_output_adapter@D@__crt_stdio_output@@@2@@__crt_stdio_output@@CADH_N@Z 0000000180052e0c f i libucrt:output.obj
 0001:00051e18       ?adjust_hexit@?$output_processor@DV?$string_output_adapter@D@__crt_stdio_output@@V?$positional_parameter_base@DV?$string_output_adapter@D@__crt_stdio_output@@@2@@__crt_stdio_output@@CADH_N@Z 0000000180052e18 f i libucrt:output.obj
 0001:00051e24       ?adjust_hexit@?$output_processor@DV?$string_output_adapter@D@__crt_stdio_output@@V?$standard_base@DV?$string_output_adapter@D@__crt_stdio_output@@@2@@__crt_stdio_output@@CADH_N@Z 0000000180052e24 f i libucrt:output.obj
 0001:00051e30       ?adjust_hexit@?$output_processor@_WV?$stream_output_adapter@_W@__crt_stdio_output@@V?$format_validation_base@_WV?$stream_output_adapter@_W@__crt_stdio_output@@@2@@__crt_stdio_output@@CADH_N@Z 0000000180052e30 f i libucrt:output.obj
 0001:00051e3c       ?adjust_hexit@?$output_processor@_WV?$stream_output_adapter@_W@__crt_stdio_output@@V?$positional_parameter_base@_WV?$stream_output_adapter@_W@__crt_stdio_output@@@2@@__crt_stdio_output@@CADH_N@Z 0000000180052e3c f i libucrt:output.obj
 0001:00051e48       ?adjust_hexit@?$output_processor@_WV?$stream_output_adapter@_W@__crt_stdio_output@@V?$standard_base@_WV?$stream_output_adapter@_W@__crt_stdio_output@@@2@@__crt_stdio_output@@CADH_N@Z 0000000180052e48 f i libucrt:output.obj
 0001:00051e54       ?adjust_hexit@?$output_processor@_WV?$string_output_adapter@_W@__crt_stdio_output@@V?$format_validation_base@_WV?$string_output_adapter@_W@__crt_stdio_output@@@2@@__crt_stdio_output@@CADH_N@Z 0000000180052e54 f i libucrt:output.obj
 0001:00051e60       ?adjust_hexit@?$output_processor@_WV?$string_output_adapter@_W@__crt_stdio_output@@V?$positional_parameter_base@_WV?$string_output_adapter@_W@__crt_stdio_output@@@2@@__crt_stdio_output@@CADH_N@Z 0000000180052e60 f i libucrt:output.obj
 0001:00051e6c       ?adjust_hexit@?$output_processor@_WV?$string_output_adapter@_W@__crt_stdio_output@@V?$standard_base@_WV?$string_output_adapter@_W@__crt_stdio_output@@@2@@__crt_stdio_output@@CADH_N@Z 0000000180052e6c f i libucrt:output.obj
 0001:00051e78       ?advance_to_next_pass@?$positional_parameter_base@DV?$stream_output_adapter@D@__crt_stdio_output@@@__crt_stdio_output@@IEAA_NXZ 0000000180052e78 f i libucrt:output.obj
 0001:00051ecc       ?advance_to_next_pass@?$positional_parameter_base@DV?$string_output_adapter@D@__crt_stdio_output@@@__crt_stdio_output@@IEAA_NXZ 0000000180052ecc f i libucrt:output.obj
 0001:00051f20       ?advance_to_next_pass@?$positional_parameter_base@_WV?$stream_output_adapter@_W@__crt_stdio_output@@@__crt_stdio_output@@IEAA_NXZ 0000000180052f20 f i libucrt:output.obj
 0001:00051f74       ?advance_to_next_pass@?$positional_parameter_base@_WV?$string_output_adapter@_W@__crt_stdio_output@@@__crt_stdio_output@@IEAA_NXZ 0000000180052f74 f i libucrt:output.obj
 0001:00051fc8       ?advance_to_next_pass@?$standard_base@DV?$stream_output_adapter@D@__crt_stdio_output@@@__crt_stdio_output@@IEAA_NXZ 0000000180052fc8 f i libucrt:output.obj
 0001:00051fdc       ?advance_to_next_pass@?$standard_base@DV?$string_output_adapter@D@__crt_stdio_output@@@__crt_stdio_output@@IEAA_NXZ 0000000180052fdc f i libucrt:output.obj
 0001:00051ff0       ?advance_to_next_pass@?$standard_base@_WV?$stream_output_adapter@_W@__crt_stdio_output@@@__crt_stdio_output@@IEAA_NXZ 0000000180052ff0 f i libucrt:output.obj
 0001:00052004       ?advance_to_next_pass@?$standard_base@_WV?$string_output_adapter@_W@__crt_stdio_output@@@__crt_stdio_output@@IEAA_NXZ 0000000180053004 f i libucrt:output.obj
 0001:00052018       ?check@?$cached@H@__crt_cached_ptd_host@@QEBA_NH@Z 0000000180053018 f i libucrt:output.obj
 0001:00052030       ?check_synchronize_global_state_index@__crt_cached_ptd_host@@AEAA_KAEBV__crt_scoped_get_last_error_reset@@@Z 0000000180053030 f i libucrt:output.obj
 0001:00052050       ?check_synchronize_per_thread_data@__crt_cached_ptd_host@@AEAAPEAU__acrt_ptd@@XZ 0000000180053050 f i libucrt:output.obj
 0001:000520b8       ?create_guard@?$cached@H@__crt_cached_ptd_host@@QEAA?AVguard@12@XZ 00000001800530b8 f i libucrt:output.obj
 0001:000520cc       ?crop_zeroes@__crt_stdio_output@@YAXPEADQEAU__crt_locale_pointers@@@Z 00000001800530cc f i libucrt:output.obj
 0001:00052138       ?disable@guard@?$cached@H@__crt_cached_ptd_host@@QEAAXXZ 0000000180053138 f i libucrt:output.obj
 0001:00052140       ?enable@guard@?$cached@H@__crt_cached_ptd_host@@QEAAXXZ 0000000180053140 f i libucrt:output.obj
 0001:00052148       ?find_next_state@?$output_processor@DV?$stream_output_adapter@D@__crt_stdio_output@@V?$format_validation_base@DV?$stream_output_adapter@D@__crt_stdio_output@@@2@@__crt_stdio_output@@AEBA?AW4state@2@DW432@@Z 0000000180053148 f i libucrt:output.obj
 0001:00052180       ?find_next_state@?$output_processor@DV?$stream_output_adapter@D@__crt_stdio_output@@V?$positional_parameter_base@DV?$stream_output_adapter@D@__crt_stdio_output@@@2@@__crt_stdio_output@@AEBA?AW4state@2@DW432@@Z 0000000180053180 f i libucrt:output.obj
 0001:000521b8       ?find_next_state@?$output_processor@DV?$stream_output_adapter@D@__crt_stdio_output@@V?$standard_base@DV?$stream_output_adapter@D@__crt_stdio_output@@@2@@__crt_stdio_output@@AEBA?AW4state@2@DW432@@Z 00000001800531b8 f i libucrt:output.obj
 0001:000521ec       ?find_next_state@?$output_processor@DV?$string_output_adapter@D@__crt_stdio_output@@V?$format_validation_base@DV?$string_output_adapter@D@__crt_stdio_output@@@2@@__crt_stdio_output@@AEBA?AW4state@2@DW432@@Z 00000001800531ec f i libucrt:output.obj
 0001:00052224       ?find_next_state@?$output_processor@DV?$string_output_adapter@D@__crt_stdio_output@@V?$positional_parameter_base@DV?$string_output_adapter@D@__crt_stdio_output@@@2@@__crt_stdio_output@@AEBA?AW4state@2@DW432@@Z 0000000180053224 f i libucrt:output.obj
 0001:0005225c       ?find_next_state@?$output_processor@DV?$string_output_adapter@D@__crt_stdio_output@@V?$standard_base@DV?$string_output_adapter@D@__crt_stdio_output@@@2@@__crt_stdio_output@@AEBA?AW4state@2@DW432@@Z 000000018005325c f i libucrt:output.obj
 0001:00052290       ?find_next_state@?$output_processor@_WV?$stream_output_adapter@_W@__crt_stdio_output@@V?$format_validation_base@_WV?$stream_output_adapter@_W@__crt_stdio_output@@@2@@__crt_stdio_output@@AEBA?AW4state@2@_WW432@@Z 0000000180053290 f i libucrt:output.obj
 0001:000522d0       ?find_next_state@?$output_processor@_WV?$stream_output_adapter@_W@__crt_stdio_output@@V?$positional_parameter_base@_WV?$stream_output_adapter@_W@__crt_stdio_output@@@2@@__crt_stdio_output@@AEBA?AW4state@2@_WW432@@Z 00000001800532d0 f i libucrt:output.obj
 0001:00052310       ?find_next_state@?$output_processor@_WV?$stream_output_adapter@_W@__crt_stdio_output@@V?$standard_base@_WV?$stream_output_adapter@_W@__crt_stdio_output@@@2@@__crt_stdio_output@@AEBA?AW4state@2@_WW432@@Z 0000000180053310 f i libucrt:output.obj
 0001:0005234c       ?find_next_state@?$output_processor@_WV?$string_output_adapter@_W@__crt_stdio_output@@V?$format_validation_base@_WV?$string_output_adapter@_W@__crt_stdio_output@@@2@@__crt_stdio_output@@AEBA?AW4state@2@_WW432@@Z 000000018005334c f i libucrt:output.obj
 0001:0005238c       ?find_next_state@?$output_processor@_WV?$string_output_adapter@_W@__crt_stdio_output@@V?$positional_parameter_base@_WV?$string_output_adapter@_W@__crt_stdio_output@@@2@@__crt_stdio_output@@AEBA?AW4state@2@_WW432@@Z 000000018005338c f i libucrt:output.obj
 0001:000523cc       ?find_next_state@?$output_processor@_WV?$string_output_adapter@_W@__crt_stdio_output@@V?$standard_base@_WV?$string_output_adapter@_W@__crt_stdio_output@@@2@@__crt_stdio_output@@AEBA?AW4state@2@_WW432@@Z 00000001800533cc f i libucrt:output.obj
 0001:00052408       ?force_decimal_point@__crt_stdio_output@@YAXPEADQEAU__crt_locale_pointers@@@Z 0000000180053408 f i libucrt:output.obj
 0001:00052470       ?force_synchronize_global_state_index@__crt_cached_ptd_host@@AEAA_KAEBV__crt_scoped_get_last_error_reset@@@Z 0000000180053470 f i libucrt:output.obj
 0001:00052480       ?force_synchronize_per_thread_data@__crt_cached_ptd_host@@AEAAPEAU__acrt_ptd@@XZ 0000000180053480 f i libucrt:output.obj
 0001:000524d8       ?get@?$c_string_character_source@D@__crt_strtox@@QEAADXZ 00000001800534d8 f i libucrt:output.obj
 0001:000524e4       ?get@?$c_string_character_source@_W@__crt_strtox@@QEAA_WXZ 00000001800534e4 f i libucrt:output.obj
 0001:000524f4       ?get_current_state_index@__crt_state_management@@YA_KAEBV__crt_scoped_get_last_error_reset@@@Z 00000001800534f4 f i libucrt:output.obj
 0001:00052500       ?get_errno@__crt_cached_ptd_host@@QEAA@XZ 0000000180053500 f i libucrt:output.obj
 0001:00052508       ?get_flags@__crt_stdio_stream@@QEBAJXZ 0000000180053508 f i libucrt:output.obj
 0001:00052510       ?get_locale@__crt_cached_ptd_host@@QEAAPEAU__crt_locale_pointers@@XZ 0000000180053510 f i libucrt:output.obj
 0001:00052538       ?get_parameter_type@?$positional_parameter_base@DV?$stream_output_adapter@D@__crt_stdio_output@@@__crt_stdio_output@@CA?AW4parameter_type@12@F@Z 0000000180053538 f i libucrt:output.obj
 0001:00052540       ?get_parameter_type@?$positional_parameter_base@DV?$stream_output_adapter@D@__crt_stdio_output@@@__crt_stdio_output@@CA?AW4parameter_type@12@G@Z 0000000180053540 f i libucrt:output.obj
 0001:00052548       ?get_parameter_type@?$positional_parameter_base@DV?$stream_output_adapter@D@__crt_stdio_output@@@__crt_stdio_output@@CA?AW4parameter_type@12@H@Z 0000000180053548 f i libucrt:output.obj
 0001:00052550       ?get_parameter_type@?$positional_parameter_base@DV?$stream_output_adapter@D@__crt_stdio_output@@@__crt_stdio_output@@CA?AW4parameter_type@12@I@Z 0000000180053550 f i libucrt:output.obj
 0001:00052558       ?get_parameter_type@?$positional_parameter_base@DV?$stream_output_adapter@D@__crt_stdio_output@@@__crt_stdio_output@@CA?AW4parameter_type@12@U_CRT_DOUBLE@@@Z 0000000180053558 f i libucrt:output.obj
 0001:00052560       ?get_parameter_type@?$positional_parameter_base@DV?$stream_output_adapter@D@__crt_stdio_output@@@__crt_stdio_output@@CA?AW4parameter_type@12@_J@Z 0000000180053560 f i libucrt:output.obj
 0001:00052568       ?get_parameter_type@?$positional_parameter_base@DV?$stream_output_adapter@D@__crt_stdio_output@@@__crt_stdio_output@@CA?AW4parameter_type@12@_K@Z 0000000180053568 f i libucrt:output.obj
 0001:00052570       ?get_parameter_type@?$positional_parameter_base@DV?$stream_output_adapter@D@__crt_stdio_output@@@__crt_stdio_output@@CA?AW4parameter_type@12@_W@Z 0000000180053570 f i libucrt:output.obj
 0001:00052578       ?get_parameter_type@?$positional_parameter_base@DV?$string_output_adapter@D@__crt_stdio_output@@@__crt_stdio_output@@CA?AW4parameter_type@12@F@Z 0000000180053578 f i libucrt:output.obj
 0001:00052580       ?get_parameter_type@?$positional_parameter_base@DV?$string_output_adapter@D@__crt_stdio_output@@@__crt_stdio_output@@CA?AW4parameter_type@12@G@Z 0000000180053580 f i libucrt:output.obj
 0001:00052588       ?get_parameter_type@?$positional_parameter_base@DV?$string_output_adapter@D@__crt_stdio_output@@@__crt_stdio_output@@CA?AW4parameter_type@12@H@Z 0000000180053588 f i libucrt:output.obj
 0001:00052590       ?get_parameter_type@?$positional_parameter_base@DV?$string_output_adapter@D@__crt_stdio_output@@@__crt_stdio_output@@CA?AW4parameter_type@12@I@Z 0000000180053590 f i libucrt:output.obj
 0001:00052598       ?get_parameter_type@?$positional_parameter_base@DV?$string_output_adapter@D@__crt_stdio_output@@@__crt_stdio_output@@CA?AW4parameter_type@12@U_CRT_DOUBLE@@@Z 0000000180053598 f i libucrt:output.obj
 0001:000525a0       ?get_parameter_type@?$positional_parameter_base@DV?$string_output_adapter@D@__crt_stdio_output@@@__crt_stdio_output@@CA?AW4parameter_type@12@_J@Z 00000001800535a0 f i libucrt:output.obj
 0001:000525a8       ?get_parameter_type@?$positional_parameter_base@DV?$string_output_adapter@D@__crt_stdio_output@@@__crt_stdio_output@@CA?AW4parameter_type@12@_K@Z 00000001800535a8 f i libucrt:output.obj
 0001:000525b0       ?get_parameter_type@?$positional_parameter_base@DV?$string_output_adapter@D@__crt_stdio_output@@@__crt_stdio_output@@CA?AW4parameter_type@12@_W@Z 00000001800535b0 f i libucrt:output.obj
 0001:000525b8       ?get_parameter_type@?$positional_parameter_base@_WV?$stream_output_adapter@_W@__crt_stdio_output@@@__crt_stdio_output@@CA?AW4parameter_type@12@F@Z 00000001800535b8 f i libucrt:output.obj
 0001:000525c0       ?get_parameter_type@?$positional_parameter_base@_WV?$stream_output_adapter@_W@__crt_stdio_output@@@__crt_stdio_output@@CA?AW4parameter_type@12@G@Z 00000001800535c0 f i libucrt:output.obj
 0001:000525c8       ?get_parameter_type@?$positional_parameter_base@_WV?$stream_output_adapter@_W@__crt_stdio_output@@@__crt_stdio_output@@CA?AW4parameter_type@12@H@Z 00000001800535c8 f i libucrt:output.obj
 0001:000525d0       ?get_parameter_type@?$positional_parameter_base@_WV?$stream_output_adapter@_W@__crt_stdio_output@@@__crt_stdio_output@@CA?AW4parameter_type@12@I@Z 00000001800535d0 f i libucrt:output.obj
 0001:000525d8       ?get_parameter_type@?$positional_parameter_base@_WV?$stream_output_adapter@_W@__crt_stdio_output@@@__crt_stdio_output@@CA?AW4parameter_type@12@U_CRT_DOUBLE@@@Z 00000001800535d8 f i libucrt:output.obj
 0001:000525e0       ?get_parameter_type@?$positional_parameter_base@_WV?$stream_output_adapter@_W@__crt_stdio_output@@@__crt_stdio_output@@CA?AW4parameter_type@12@_J@Z 00000001800535e0 f i libucrt:output.obj
 0001:000525e8       ?get_parameter_type@?$positional_parameter_base@_WV?$stream_output_adapter@_W@__crt_stdio_output@@@__crt_stdio_output@@CA?AW4parameter_type@12@_K@Z 00000001800535e8 f i libucrt:output.obj
 0001:000525f0       ?get_parameter_type@?$positional_parameter_base@_WV?$stream_output_adapter@_W@__crt_stdio_output@@@__crt_stdio_output@@CA?AW4parameter_type@12@_W@Z 00000001800535f0 f i libucrt:output.obj
 0001:000525f8       ?get_parameter_type@?$positional_parameter_base@_WV?$string_output_adapter@_W@__crt_stdio_output@@@__crt_stdio_output@@CA?AW4parameter_type@12@F@Z 00000001800535f8 f i libucrt:output.obj
 0001:00052600       ?get_parameter_type@?$positional_parameter_base@_WV?$string_output_adapter@_W@__crt_stdio_output@@@__crt_stdio_output@@CA?AW4parameter_type@12@G@Z 0000000180053600 f i libucrt:output.obj
 0001:00052608       ?get_parameter_type@?$positional_parameter_base@_WV?$string_output_adapter@_W@__crt_stdio_output@@@__crt_stdio_output@@CA?AW4parameter_type@12@H@Z 0000000180053608 f i libucrt:output.obj
 0001:00052610       ?get_parameter_type@?$positional_parameter_base@_WV?$string_output_adapter@_W@__crt_stdio_output@@@__crt_stdio_output@@CA?AW4parameter_type@12@I@Z 0000000180053610 f i libucrt:output.obj
 0001:00052618       ?get_parameter_type@?$positional_parameter_base@_WV?$string_output_adapter@_W@__crt_stdio_output@@@__crt_stdio_output@@CA?AW4parameter_type@12@U_CRT_DOUBLE@@@Z 0000000180053618 f i libucrt:output.obj
 0001:00052620       ?get_parameter_type@?$positional_parameter_base@_WV?$string_output_adapter@_W@__crt_stdio_output@@@__crt_stdio_output@@CA?AW4parameter_type@12@_J@Z 0000000180053620 f i libucrt:output.obj
 0001:00052628       ?get_parameter_type@?$positional_parameter_base@_WV?$string_output_adapter@_W@__crt_stdio_output@@@__crt_stdio_output@@CA?AW4parameter_type@12@_K@Z 0000000180053628 f i libucrt:output.obj
 0001:00052630       ?get_parameter_type@?$positional_parameter_base@_WV?$string_output_adapter@_W@__crt_stdio_output@@@__crt_stdio_output@@CA?AW4parameter_type@12@_W@Z 0000000180053630 f i libucrt:output.obj
 0001:00052640       ?get_raw_ptd@__crt_cached_ptd_host@@QEAAPEAU__acrt_ptd@@XZ 0000000180053640 f i libucrt:output.obj
 0001:000526a8       ?has_flag@?$output_processor@DV?$stream_output_adapter@D@__crt_stdio_output@@V?$format_validation_base@DV?$stream_output_adapter@D@__crt_stdio_output@@@2@@__crt_stdio_output@@AEBA_NI@Z 00000001800536a8 f i libucrt:output.obj
 0001:000526b0       ?has_flag@?$output_processor@DV?$stream_output_adapter@D@__crt_stdio_output@@V?$positional_parameter_base@DV?$stream_output_adapter@D@__crt_stdio_output@@@2@@__crt_stdio_output@@AEBA_NI@Z 00000001800536b0 f i libucrt:output.obj
 0001:000526b8       ?has_flag@?$output_processor@DV?$stream_output_adapter@D@__crt_stdio_output@@V?$standard_base@DV?$stream_output_adapter@D@__crt_stdio_output@@@2@@__crt_stdio_output@@AEBA_NI@Z 00000001800536b8 f i libucrt:output.obj
 0001:000526c0       ?has_flag@?$output_processor@DV?$string_output_adapter@D@__crt_stdio_output@@V?$format_validation_base@DV?$string_output_adapter@D@__crt_stdio_output@@@2@@__crt_stdio_output@@AEBA_NI@Z 00000001800536c0 f i libucrt:output.obj
 0001:000526c8       ?has_flag@?$output_processor@DV?$string_output_adapter@D@__crt_stdio_output@@V?$positional_parameter_base@DV?$string_output_adapter@D@__crt_stdio_output@@@2@@__crt_stdio_output@@AEBA_NI@Z 00000001800536c8 f i libucrt:output.obj
 0001:000526d0       ?has_flag@?$output_processor@DV?$string_output_adapter@D@__crt_stdio_output@@V?$standard_base@DV?$string_output_adapter@D@__crt_stdio_output@@@2@@__crt_stdio_output@@AEBA_NI@Z 00000001800536d0 f i libucrt:output.obj
 0001:000526d8       ?has_flag@?$output_processor@_WV?$stream_output_adapter@_W@__crt_stdio_output@@V?$format_validation_base@_WV?$stream_output_adapter@_W@__crt_stdio_output@@@2@@__crt_stdio_output@@AEBA_NI@Z 00000001800536d8 f i libucrt:output.obj
 0001:000526e0       ?has_flag@?$output_processor@_WV?$stream_output_adapter@_W@__crt_stdio_output@@V?$positional_parameter_base@_WV?$stream_output_adapter@_W@__crt_stdio_output@@@2@@__crt_stdio_output@@AEBA_NI@Z 00000001800536e0 f i libucrt:output.obj
 0001:000526e8       ?has_flag@?$output_processor@_WV?$stream_output_adapter@_W@__crt_stdio_output@@V?$standard_base@_WV?$stream_output_adapter@_W@__crt_stdio_output@@@2@@__crt_stdio_output@@AEBA_NI@Z 00000001800536e8 f i libucrt:output.obj
 0001:000526f0       ?has_flag@?$output_processor@_WV?$string_output_adapter@_W@__crt_stdio_output@@V?$format_validation_base@_WV?$string_output_adapter@_W@__crt_stdio_output@@@2@@__crt_stdio_output@@AEBA_NI@Z 00000001800536f0 f i libucrt:output.obj
 0001:000526f8       ?has_flag@?$output_processor@_WV?$string_output_adapter@_W@__crt_stdio_output@@V?$positional_parameter_base@_WV?$string_output_adapter@_W@__crt_stdio_output@@@2@@__crt_stdio_output@@AEBA_NI@Z 00000001800536f8 f i libucrt:output.obj
 0001:00052700       ?has_flag@?$output_processor@_WV?$string_output_adapter@_W@__crt_stdio_output@@V?$standard_base@_WV?$string_output_adapter@_W@__crt_stdio_output@@@2@@__crt_stdio_output@@AEBA_NI@Z 0000000180053700 f i libucrt:output.obj
 0001:00052708       ?is_positional_parameter_reappearance_consistent@?$positional_parameter_base@DV?$stream_output_adapter@D@__crt_stdio_output@@@__crt_stdio_output@@AEAA_NAEBUparameter_data@12@W4parameter_type@12@DW4length_modifier@2@@Z 0000000180053708 f i libucrt:output.obj
 0001:0005293c       ?is_positional_parameter_reappearance_consistent@?$positional_parameter_base@DV?$string_output_adapter@D@__crt_stdio_output@@@__crt_stdio_output@@AEAA_NAEBUparameter_data@12@W4parameter_type@12@DW4length_modifier@2@@Z 000000018005393c f i libucrt:output.obj
 0001:00052b70       ?is_positional_parameter_reappearance_consistent@?$positional_parameter_base@_WV?$stream_output_adapter@_W@__crt_stdio_output@@@__crt_stdio_output@@AEAA_NAEBUparameter_data@12@W4parameter_type@12@_WW4length_modifier@2@@Z 0000000180053b70 f i libucrt:output.obj
 0001:00052d74       ?is_positional_parameter_reappearance_consistent@?$positional_parameter_base@_WV?$string_output_adapter@_W@__crt_stdio_output@@@__crt_stdio_output@@AEAA_NAEBUparameter_data@12@W4parameter_type@12@_WW4length_modifier@2@@Z 0000000180053d74 f i libucrt:output.obj
 0001:00052f78       ?is_string_backed@__crt_stdio_stream@@QEBA_NXZ 0000000180053f78 f i libucrt:output.obj
 0001:00052f88       ?maximum_signed_value@__crt_strtox@@YAJK@Z 0000000180053f88 f i libucrt:output.obj
 0001:00052f90       ?minimum_signed_value@__crt_strtox@@YAJK@Z 0000000180053f90 f i libucrt:output.obj
 0001:00052f98       ?narrow_null_string@?$output_processor@DV?$stream_output_adapter@D@__crt_stdio_output@@V?$format_validation_base@DV?$stream_output_adapter@D@__crt_stdio_output@@@2@@__crt_stdio_output@@CAPEADXZ 0000000180053f98 f i libucrt:output.obj
 0001:00052fa0       ?narrow_null_string@?$output_processor@DV?$stream_output_adapter@D@__crt_stdio_output@@V?$positional_parameter_base@DV?$stream_output_adapter@D@__crt_stdio_output@@@2@@__crt_stdio_output@@CAPEADXZ 0000000180053fa0 f i libucrt:output.obj
 0001:00052fa8       ?narrow_null_string@?$output_processor@DV?$stream_output_adapter@D@__crt_stdio_output@@V?$standard_base@DV?$stream_output_adapter@D@__crt_stdio_output@@@2@@__crt_stdio_output@@CAPEADXZ 0000000180053fa8 f i libucrt:output.obj
 0001:00052fb0       ?narrow_null_string@?$output_processor@DV?$string_output_adapter@D@__crt_stdio_output@@V?$format_validation_base@DV?$string_output_adapter@D@__crt_stdio_output@@@2@@__crt_stdio_output@@CAPEADXZ 0000000180053fb0 f i libucrt:output.obj
 0001:00052fb8       ?narrow_null_string@?$output_processor@DV?$string_output_adapter@D@__crt_stdio_output@@V?$positional_parameter_base@DV?$string_output_adapter@D@__crt_stdio_output@@@2@@__crt_stdio_output@@CAPEADXZ 0000000180053fb8 f i libucrt:output.obj
 0001:00052fc0       ?narrow_null_string@?$output_processor@DV?$string_output_adapter@D@__crt_stdio_output@@V?$standard_base@DV?$string_output_adapter@D@__crt_stdio_output@@@2@@__crt_stdio_output@@CAPEADXZ 0000000180053fc0 f i libucrt:output.obj
 0001:00052fc8       ?narrow_null_string@?$output_processor@_WV?$stream_output_adapter@_W@__crt_stdio_output@@V?$format_validation_base@_WV?$stream_output_adapter@_W@__crt_stdio_output@@@2@@__crt_stdio_output@@CAPEADXZ 0000000180053fc8 f i libucrt:output.obj
 0001:00052fd0       ?narrow_null_string@?$output_processor@_WV?$stream_output_adapter@_W@__crt_stdio_output@@V?$positional_parameter_base@_WV?$stream_output_adapter@_W@__crt_stdio_output@@@2@@__crt_stdio_output@@CAPEADXZ 0000000180053fd0 f i libucrt:output.obj
 0001:00052fd8       ?narrow_null_string@?$output_processor@_WV?$stream_output_adapter@_W@__crt_stdio_output@@V?$standard_base@_WV?$stream_output_adapter@_W@__crt_stdio_output@@@2@@__crt_stdio_output@@CAPEADXZ 0000000180053fd8 f i libucrt:output.obj
 0001:00052fe0       ?narrow_null_string@?$output_processor@_WV?$string_output_adapter@_W@__crt_stdio_output@@V?$format_validation_base@_WV?$string_output_adapter@_W@__crt_stdio_output@@@2@@__crt_stdio_output@@CAPEADXZ 0000000180053fe0 f i libucrt:output.obj
 0001:00052fe8       ?narrow_null_string@?$output_processor@_WV?$string_output_adapter@_W@__crt_stdio_output@@V?$positional_parameter_base@_WV?$string_output_adapter@_W@__crt_stdio_output@@@2@@__crt_stdio_output@@CAPEADXZ 0000000180053fe8 f i libucrt:output.obj
 0001:00052ff0       ?narrow_null_string@?$output_processor@_WV?$string_output_adapter@_W@__crt_stdio_output@@V?$standard_base@_WV?$string_output_adapter@_W@__crt_stdio_output@@@2@@__crt_stdio_output@@CAPEADXZ 0000000180053ff0 f i libucrt:output.obj
 0001:00052ff8       ?parse_digit@__crt_strtox@@YAID@Z 0000000180053ff8 f i libucrt:output.obj
 0001:00053028       ?parse_digit@__crt_strtox@@YAI_W@Z 0000000180054028 f i libucrt:output.obj
 0001:000531e4       ?parse_int_from_format_string@?$output_processor@DV?$stream_output_adapter@D@__crt_stdio_output@@V?$format_validation_base@DV?$stream_output_adapter@D@__crt_stdio_output@@@2@@__crt_stdio_output@@AEAA_NQEAH@Z 00000001800541e4 f i libucrt:output.obj
 0001:00053274       ?parse_int_from_format_string@?$output_processor@DV?$stream_output_adapter@D@__crt_stdio_output@@V?$positional_parameter_base@DV?$stream_output_adapter@D@__crt_stdio_output@@@2@@__crt_stdio_output@@AEAA_NQEAH@Z 0000000180054274 f i libucrt:output.obj
 0001:00053304       ?parse_int_from_format_string@?$output_processor@DV?$stream_output_adapter@D@__crt_stdio_output@@V?$standard_base@DV?$stream_output_adapter@D@__crt_stdio_output@@@2@@__crt_stdio_output@@AEAA_NQEAH@Z 0000000180054304 f i libucrt:output.obj
 0001:00053394       ?parse_int_from_format_string@?$output_processor@DV?$string_output_adapter@D@__crt_stdio_output@@V?$format_validation_base@DV?$string_output_adapter@D@__crt_stdio_output@@@2@@__crt_stdio_output@@AEAA_NQEAH@Z 0000000180054394 f i libucrt:output.obj
 0001:00053424       ?parse_int_from_format_string@?$output_processor@DV?$string_output_adapter@D@__crt_stdio_output@@V?$positional_parameter_base@DV?$string_output_adapter@D@__crt_stdio_output@@@2@@__crt_stdio_output@@AEAA_NQEAH@Z 0000000180054424 f i libucrt:output.obj
 0001:000534b4       ?parse_int_from_format_string@?$output_processor@DV?$string_output_adapter@D@__crt_stdio_output@@V?$standard_base@DV?$string_output_adapter@D@__crt_stdio_output@@@2@@__crt_stdio_output@@AEAA_NQEAH@Z 00000001800544b4 f i libucrt:output.obj
 0001:00053544       ?parse_int_from_format_string@?$output_processor@_WV?$stream_output_adapter@_W@__crt_stdio_output@@V?$format_validation_base@_WV?$stream_output_adapter@_W@__crt_stdio_output@@@2@@__crt_stdio_output@@AEAA_NQEAH@Z 0000000180054544 f i libucrt:output.obj
 0001:000535d4       ?parse_int_from_format_string@?$output_processor@_WV?$stream_output_adapter@_W@__crt_stdio_output@@V?$positional_parameter_base@_WV?$stream_output_adapter@_W@__crt_stdio_output@@@2@@__crt_stdio_output@@AEAA_NQEAH@Z 00000001800545d4 f i libucrt:output.obj
 0001:00053664       ?parse_int_from_format_string@?$output_processor@_WV?$stream_output_adapter@_W@__crt_stdio_output@@V?$standard_base@_WV?$stream_output_adapter@_W@__crt_stdio_output@@@2@@__crt_stdio_output@@AEAA_NQEAH@Z 0000000180054664 f i libucrt:output.obj
 0001:000536f4       ?parse_int_from_format_string@?$output_processor@_WV?$string_output_adapter@_W@__crt_stdio_output@@V?$format_validation_base@_WV?$string_output_adapter@_W@__crt_stdio_output@@@2@@__crt_stdio_output@@AEAA_NQEAH@Z 00000001800546f4 f i libucrt:output.obj
 0001:00053784       ?parse_int_from_format_string@?$output_processor@_WV?$string_output_adapter@_W@__crt_stdio_output@@V?$positional_parameter_base@_WV?$string_output_adapter@_W@__crt_stdio_output@@@2@@__crt_stdio_output@@AEAA_NQEAH@Z 0000000180054784 f i libucrt:output.obj
 0001:00053814       ?parse_int_from_format_string@?$output_processor@_WV?$string_output_adapter@_W@__crt_stdio_output@@V?$standard_base@_WV?$string_output_adapter@_W@__crt_stdio_output@@@2@@__crt_stdio_output@@AEAA_NQEAH@Z 0000000180054814 f i libucrt:output.obj
 0001:000538a4       ?process@?$output_processor@DV?$stream_output_adapter@D@__crt_stdio_output@@V?$format_validation_base@DV?$stream_output_adapter@D@__crt_stdio_output@@@2@@__crt_stdio_output@@QEAAHXZ 00000001800548a4 f i libucrt:output.obj
 0001:00053c40       ?process@?$output_processor@DV?$stream_output_adapter@D@__crt_stdio_output@@V?$positional_parameter_base@DV?$stream_output_adapter@D@__crt_stdio_output@@@2@@__crt_stdio_output@@QEAAHXZ 0000000180054c40 f i libucrt:output.obj
 0001:00054074       ?process@?$output_processor@DV?$stream_output_adapter@D@__crt_stdio_output@@V?$standard_base@DV?$stream_output_adapter@D@__crt_stdio_output@@@2@@__crt_stdio_output@@QEAAHXZ 0000000180055074 f i libucrt:output.obj
 0001:0005440c       ?process@?$output_processor@DV?$string_output_adapter@D@__crt_stdio_output@@V?$format_validation_base@DV?$string_output_adapter@D@__crt_stdio_output@@@2@@__crt_stdio_output@@QEAAHXZ 000000018005540c f i libucrt:output.obj
 0001:00054790       ?process@?$output_processor@DV?$string_output_adapter@D@__crt_stdio_output@@V?$positional_parameter_base@DV?$string_output_adapter@D@__crt_stdio_output@@@2@@__crt_stdio_output@@QEAAHXZ 0000000180055790 f i libucrt:output.obj
 0001:00054ba8       ?process@?$output_processor@DV?$string_output_adapter@D@__crt_stdio_output@@V?$standard_base@DV?$string_output_adapter@D@__crt_stdio_output@@@2@@__crt_stdio_output@@QEAAHXZ 0000000180055ba8 f i libucrt:output.obj
 0001:00054f28       ?process@?$output_processor@_WV?$stream_output_adapter@_W@__crt_stdio_output@@V?$format_validation_base@_WV?$stream_output_adapter@_W@__crt_stdio_output@@@2@@__crt_stdio_output@@QEAAHXZ 0000000180055f28 f i libucrt:output.obj
 0001:00055208       ?process@?$output_processor@_WV?$stream_output_adapter@_W@__crt_stdio_output@@V?$positional_parameter_base@_WV?$stream_output_adapter@_W@__crt_stdio_output@@@2@@__crt_stdio_output@@QEAAHXZ 0000000180056208 f i libucrt:output.obj
 0001:00055578       ?process@?$output_processor@_WV?$stream_output_adapter@_W@__crt_stdio_output@@V?$standard_base@_WV?$stream_output_adapter@_W@__crt_stdio_output@@@2@@__crt_stdio_output@@QEAAHXZ 0000000180056578 f i libucrt:output.obj
 0001:00055848       ?process@?$output_processor@_WV?$string_output_adapter@_W@__crt_stdio_output@@V?$format_validation_base@_WV?$string_output_adapter@_W@__crt_stdio_output@@@2@@__crt_stdio_output@@QEAAHXZ 0000000180056848 f i libucrt:output.obj
 0001:00055b20       ?process@?$output_processor@_WV?$string_output_adapter@_W@__crt_stdio_output@@V?$positional_parameter_base@_WV?$string_output_adapter@_W@__crt_stdio_output@@@2@@__crt_stdio_output@@QEAAHXZ 0000000180056b20 f i libucrt:output.obj
 0001:00055e8c       ?process@?$output_processor@_WV?$string_output_adapter@_W@__crt_stdio_output@@V?$standard_base@_WV?$string_output_adapter@_W@__crt_stdio_output@@@2@@__crt_stdio_output@@QEAAHXZ 0000000180056e8c f i libucrt:output.obj
 0001:00056164       ?public_stream@__crt_stdio_stream@@QEBAPEAU_iobuf@@XZ 0000000180057164 f i libucrt:output.obj
 0001:00056168       ?restore_state@?$c_string_character_source@D@__crt_strtox@@QEAA_NQEBD@Z 0000000180057168 f i libucrt:output.obj
 0001:00056170       ?restore_state@?$c_string_character_source@_W@__crt_strtox@@QEAA_NQEB_W@Z 0000000180057170 f i libucrt:output.obj
 0001:00056178       ?save_state@?$c_string_character_source@D@__crt_strtox@@QEBAPEBDXZ 0000000180057178 f i libucrt:output.obj
 0001:0005617c       ?save_state@?$c_string_character_source@_W@__crt_strtox@@QEBAPEB_WXZ 000000018005717c f i libucrt:output.obj
 0001:00056180       ?set@?$cached@H@__crt_cached_ptd_host@@QEAAHH@Z 0000000180057180 f i libucrt:output.obj
 0001:0005618c       ?set_flag@?$output_processor@DV?$stream_output_adapter@D@__crt_stdio_output@@V?$format_validation_base@DV?$stream_output_adapter@D@__crt_stdio_output@@@2@@__crt_stdio_output@@AEAAXI@Z 000000018005718c f i libucrt:output.obj
 0001:00056190       ?set_flag@?$output_processor@DV?$stream_output_adapter@D@__crt_stdio_output@@V?$positional_parameter_base@DV?$stream_output_adapter@D@__crt_stdio_output@@@2@@__crt_stdio_output@@AEAAXI@Z 0000000180057190 f i libucrt:output.obj
 0001:00056194       ?set_flag@?$output_processor@DV?$stream_output_adapter@D@__crt_stdio_output@@V?$standard_base@DV?$stream_output_adapter@D@__crt_stdio_output@@@2@@__crt_stdio_output@@AEAAXI@Z 0000000180057194 f i libucrt:output.obj
 0001:00056198       ?set_flag@?$output_processor@DV?$string_output_adapter@D@__crt_stdio_output@@V?$format_validation_base@DV?$string_output_adapter@D@__crt_stdio_output@@@2@@__crt_stdio_output@@AEAAXI@Z 0000000180057198 f i libucrt:output.obj
 0001:0005619c       ?set_flag@?$output_processor@DV?$string_output_adapter@D@__crt_stdio_output@@V?$positional_parameter_base@DV?$string_output_adapter@D@__crt_stdio_output@@@2@@__crt_stdio_output@@AEAAXI@Z 000000018005719c f i libucrt:output.obj
 0001:000561a0       ?set_flag@?$output_processor@DV?$string_output_adapter@D@__crt_stdio_output@@V?$standard_base@DV?$string_output_adapter@D@__crt_stdio_output@@@2@@__crt_stdio_output@@AEAAXI@Z 00000001800571a0 f i libucrt:output.obj
 0001:000561a4       ?set_flag@?$output_processor@_WV?$stream_output_adapter@_W@__crt_stdio_output@@V?$format_validation_base@_WV?$stream_output_adapter@_W@__crt_stdio_output@@@2@@__crt_stdio_output@@AEAAXI@Z 00000001800571a4 f i libucrt:output.obj
 0001:000561a8       ?set_flag@?$output_processor@_WV?$stream_output_adapter@_W@__crt_stdio_output@@V?$positional_parameter_base@_WV?$stream_output_adapter@_W@__crt_stdio_output@@@2@@__crt_stdio_output@@AEAAXI@Z 00000001800571a8 f i libucrt:output.obj
 0001:000561ac       ?set_flag@?$output_processor@_WV?$stream_output_adapter@_W@__crt_stdio_output@@V?$standard_base@_WV?$stream_output_adapter@_W@__crt_stdio_output@@@2@@__crt_stdio_output@@AEAAXI@Z 00000001800571ac f i libucrt:output.obj
 0001:000561b0       ?set_flag@?$output_processor@_WV?$string_output_adapter@_W@__crt_stdio_output@@V?$format_validation_base@_WV?$string_output_adapter@_W@__crt_stdio_output@@@2@@__crt_stdio_output@@AEAAXI@Z 00000001800571b0 f i libucrt:output.obj
 0001:000561b4       ?set_flag@?$output_processor@_WV?$string_output_adapter@_W@__crt_stdio_output@@V?$positional_parameter_base@_WV?$string_output_adapter@_W@__crt_stdio_output@@@2@@__crt_stdio_output@@AEAAXI@Z 00000001800571b4 f i libucrt:output.obj
 0001:000561b8       ?set_flag@?$output_processor@_WV?$string_output_adapter@_W@__crt_stdio_output@@V?$standard_base@_WV?$string_output_adapter@_W@__crt_stdio_output@@@2@@__crt_stdio_output@@AEAAXI@Z 00000001800571b8 f i libucrt:output.obj
 0001:000561bc       ?should_format@?$positional_parameter_base@DV?$stream_output_adapter@D@__crt_stdio_output@@@__crt_stdio_output@@IEAA_NXZ 00000001800571bc f i libucrt:output.obj
 0001:000561d4       ?should_format@?$positional_parameter_base@DV?$string_output_adapter@D@__crt_stdio_output@@@__crt_stdio_output@@IEAA_NXZ 00000001800571d4 f i libucrt:output.obj
 0001:000561ec       ?should_format@?$positional_parameter_base@_WV?$stream_output_adapter@_W@__crt_stdio_output@@@__crt_stdio_output@@IEAA_NXZ 00000001800571ec f i libucrt:output.obj
 0001:00056204       ?should_format@?$positional_parameter_base@_WV?$string_output_adapter@_W@__crt_stdio_output@@@__crt_stdio_output@@IEAA_NXZ 0000000180057204 f i libucrt:output.obj
 0001:0005621c       ?should_format@?$standard_base@DV?$stream_output_adapter@D@__crt_stdio_output@@@__crt_stdio_output@@IEAA_NXZ 000000018005721c f i libucrt:output.obj
 0001:00056220       ?should_format@?$standard_base@DV?$string_output_adapter@D@__crt_stdio_output@@@__crt_stdio_output@@IEAA_NXZ 0000000180057220 f i libucrt:output.obj
 0001:00056224       ?should_format@?$standard_base@_WV?$stream_output_adapter@_W@__crt_stdio_output@@@__crt_stdio_output@@IEAA_NXZ 0000000180057224 f i libucrt:output.obj
 0001:00056228       ?should_format@?$standard_base@_WV?$string_output_adapter@_W@__crt_stdio_output@@@__crt_stdio_output@@IEAA_NXZ 0000000180057228 f i libucrt:output.obj
 0001:0005622c       ?should_skip_normal_state_processing@?$positional_parameter_base@DV?$stream_output_adapter@D@__crt_stdio_output@@@__crt_stdio_output@@IEAA_NXZ 000000018005722c f i libucrt:output.obj
 0001:00056258       ?should_skip_normal_state_processing@?$positional_parameter_base@DV?$string_output_adapter@D@__crt_stdio_output@@@__crt_stdio_output@@IEAA_NXZ 0000000180057258 f i libucrt:output.obj
 0001:00056284       ?should_skip_normal_state_processing@?$positional_parameter_base@_WV?$stream_output_adapter@_W@__crt_stdio_output@@@__crt_stdio_output@@IEAA_NXZ 0000000180057284 f i libucrt:output.obj
 0001:000562b0       ?should_skip_normal_state_processing@?$positional_parameter_base@_WV?$string_output_adapter@_W@__crt_stdio_output@@@__crt_stdio_output@@IEAA_NXZ 00000001800572b0 f i libucrt:output.obj
 0001:000562dc       ?should_skip_normal_state_processing@?$standard_base@DV?$stream_output_adapter@D@__crt_stdio_output@@@__crt_stdio_output@@IEAA_NXZ 00000001800572dc f i libucrt:output.obj
 0001:000562e0       ?should_skip_normal_state_processing@?$standard_base@DV?$string_output_adapter@D@__crt_stdio_output@@@__crt_stdio_output@@IEAA_NXZ 00000001800572e0 f i libucrt:output.obj
 0001:000562e4       ?should_skip_normal_state_processing@?$standard_base@_WV?$stream_output_adapter@_W@__crt_stdio_output@@@__crt_stdio_output@@IEAA_NXZ 00000001800572e4 f i libucrt:output.obj
 0001:000562e8       ?should_skip_normal_state_processing@?$standard_base@_WV?$string_output_adapter@_W@__crt_stdio_output@@@__crt_stdio_output@@IEAA_NXZ 00000001800572e8 f i libucrt:output.obj
 0001:000562ec       ?should_skip_type_state_output@?$positional_parameter_base@DV?$stream_output_adapter@D@__crt_stdio_output@@@__crt_stdio_output@@IEBA_NXZ 00000001800572ec f i libucrt:output.obj
 0001:00056308       ?should_skip_type_state_output@?$positional_parameter_base@DV?$string_output_adapter@D@__crt_stdio_output@@@__crt_stdio_output@@IEBA_NXZ 0000000180057308 f i libucrt:output.obj
 0001:00056324       ?should_skip_type_state_output@?$positional_parameter_base@_WV?$stream_output_adapter@_W@__crt_stdio_output@@@__crt_stdio_output@@IEBA_NXZ 0000000180057324 f i libucrt:output.obj
 0001:00056340       ?should_skip_type_state_output@?$positional_parameter_base@_WV?$string_output_adapter@_W@__crt_stdio_output@@@__crt_stdio_output@@IEBA_NXZ 0000000180057340 f i libucrt:output.obj
 0001:0005635c       ?should_skip_type_state_output@?$standard_base@DV?$stream_output_adapter@D@__crt_stdio_output@@@__crt_stdio_output@@IEBA_NXZ 000000018005735c f i libucrt:output.obj
 0001:00056360       ?should_skip_type_state_output@?$standard_base@DV?$string_output_adapter@D@__crt_stdio_output@@@__crt_stdio_output@@IEBA_NXZ 0000000180057360 f i libucrt:output.obj
 0001:00056364       ?should_skip_type_state_output@?$standard_base@_WV?$stream_output_adapter@_W@__crt_stdio_output@@@__crt_stdio_output@@IEBA_NXZ 0000000180057364 f i libucrt:output.obj
 0001:00056368       ?should_skip_type_state_output@?$standard_base@_WV?$string_output_adapter@_W@__crt_stdio_output@@@__crt_stdio_output@@IEBA_NXZ 0000000180057368 f i libucrt:output.obj
 0001:0005636c       ?state_case_dot@?$output_processor@DV?$stream_output_adapter@D@__crt_stdio_output@@V?$format_validation_base@DV?$stream_output_adapter@D@__crt_stdio_output@@@2@@__crt_stdio_output@@AEAA_NXZ 000000018005736c f i libucrt:output.obj
 0001:00056374       ?state_case_dot@?$output_processor@DV?$stream_output_adapter@D@__crt_stdio_output@@V?$positional_parameter_base@DV?$stream_output_adapter@D@__crt_stdio_output@@@2@@__crt_stdio_output@@AEAA_NXZ 0000000180057374 f i libucrt:output.obj
 0001:0005637c       ?state_case_dot@?$output_processor@DV?$stream_output_adapter@D@__crt_stdio_output@@V?$standard_base@DV?$stream_output_adapter@D@__crt_stdio_output@@@2@@__crt_stdio_output@@AEAA_NXZ 000000018005737c f i libucrt:output.obj
 0001:00056384       ?state_case_dot@?$output_processor@DV?$string_output_adapter@D@__crt_stdio_output@@V?$format_validation_base@DV?$string_output_adapter@D@__crt_stdio_output@@@2@@__crt_stdio_output@@AEAA_NXZ 0000000180057384 f i libucrt:output.obj
 0001:0005638c       ?state_case_dot@?$output_processor@DV?$string_output_adapter@D@__crt_stdio_output@@V?$positional_parameter_base@DV?$string_output_adapter@D@__crt_stdio_output@@@2@@__crt_stdio_output@@AEAA_NXZ 000000018005738c f i libucrt:output.obj
 0001:00056394       ?state_case_dot@?$output_processor@DV?$string_output_adapter@D@__crt_stdio_output@@V?$standard_base@DV?$string_output_adapter@D@__crt_stdio_output@@@2@@__crt_stdio_output@@AEAA_NXZ 0000000180057394 f i libucrt:output.obj
 0001:0005639c       ?state_case_dot@?$output_processor@_WV?$stream_output_adapter@_W@__crt_stdio_output@@V?$format_validation_base@_WV?$stream_output_adapter@_W@__crt_stdio_output@@@2@@__crt_stdio_output@@AEAA_NXZ 000000018005739c f i libucrt:output.obj
 0001:000563a4       ?state_case_dot@?$output_processor@_WV?$stream_output_adapter@_W@__crt_stdio_output@@V?$positional_parameter_base@_WV?$stream_output_adapter@_W@__crt_stdio_output@@@2@@__crt_stdio_output@@AEAA_NXZ 00000001800573a4 f i libucrt:output.obj
 0001:000563ac       ?state_case_dot@?$output_processor@_WV?$stream_output_adapter@_W@__crt_stdio_output@@V?$standard_base@_WV?$stream_output_adapter@_W@__crt_stdio_output@@@2@@__crt_stdio_output@@AEAA_NXZ 00000001800573ac f i libucrt:output.obj
 0001:000563b4       ?state_case_dot@?$output_processor@_WV?$string_output_adapter@_W@__crt_stdio_output@@V?$format_validation_base@_WV?$string_output_adapter@_W@__crt_stdio_output@@@2@@__crt_stdio_output@@AEAA_NXZ 00000001800573b4 f i libucrt:output.obj
 0001:000563bc       ?state_case_dot@?$output_processor@_WV?$string_output_adapter@_W@__crt_stdio_output@@V?$positional_parameter_base@_WV?$string_output_adapter@_W@__crt_stdio_output@@@2@@__crt_stdio_output@@AEAA_NXZ 00000001800573bc f i libucrt:output.obj
 0001:000563c4       ?state_case_dot@?$output_processor@_WV?$string_output_adapter@_W@__crt_stdio_output@@V?$standard_base@_WV?$string_output_adapter@_W@__crt_stdio_output@@@2@@__crt_stdio_output@@AEAA_NXZ 00000001800573c4 f i libucrt:output.obj
 0001:000563cc       ?state_case_flag@?$output_processor@DV?$stream_output_adapter@D@__crt_stdio_output@@V?$format_validation_base@DV?$stream_output_adapter@D@__crt_stdio_output@@@2@@__crt_stdio_output@@AEAA_NXZ 00000001800573cc f i libucrt:output.obj
 0001:00056404       ?state_case_flag@?$output_processor@DV?$stream_output_adapter@D@__crt_stdio_output@@V?$positional_parameter_base@DV?$stream_output_adapter@D@__crt_stdio_output@@@2@@__crt_stdio_output@@AEAA_NXZ 0000000180057404 f i libucrt:output.obj
 0001:0005643c       ?state_case_flag@?$output_processor@DV?$stream_output_adapter@D@__crt_stdio_output@@V?$standard_base@DV?$stream_output_adapter@D@__crt_stdio_output@@@2@@__crt_stdio_output@@AEAA_NXZ 000000018005743c f i libucrt:output.obj
 0001:00056474       ?state_case_flag@?$output_processor@DV?$string_output_adapter@D@__crt_stdio_output@@V?$format_validation_base@DV?$string_output_adapter@D@__crt_stdio_output@@@2@@__crt_stdio_output@@AEAA_NXZ 0000000180057474 f i libucrt:output.obj
 0001:000564ac       ?state_case_flag@?$output_processor@DV?$string_output_adapter@D@__crt_stdio_output@@V?$positional_parameter_base@DV?$string_output_adapter@D@__crt_stdio_output@@@2@@__crt_stdio_output@@AEAA_NXZ 00000001800574ac f i libucrt:output.obj
 0001:000564e4       ?state_case_flag@?$output_processor@DV?$string_output_adapter@D@__crt_stdio_output@@V?$standard_base@DV?$string_output_adapter@D@__crt_stdio_output@@@2@@__crt_stdio_output@@AEAA_NXZ 00000001800574e4 f i libucrt:output.obj
 0001:0005651c       ?state_case_flag@?$output_processor@_WV?$stream_output_adapter@_W@__crt_stdio_output@@V?$format_validation_base@_WV?$stream_output_adapter@_W@__crt_stdio_output@@@2@@__crt_stdio_output@@AEAA_NXZ 000000018005751c f i libucrt:output.obj
 0001:00056560       ?state_case_flag@?$output_processor@_WV?$stream_output_adapter@_W@__crt_stdio_output@@V?$positional_parameter_base@_WV?$stream_output_adapter@_W@__crt_stdio_output@@@2@@__crt_stdio_output@@AEAA_NXZ 0000000180057560 f i libucrt:output.obj
 0001:000565a4       ?state_case_flag@?$output_processor@_WV?$stream_output_adapter@_W@__crt_stdio_output@@V?$standard_base@_WV?$stream_output_adapter@_W@__crt_stdio_output@@@2@@__crt_stdio_output@@AEAA_NXZ 00000001800575a4 f i libucrt:output.obj
 0001:000565e8       ?state_case_flag@?$output_processor@_WV?$string_output_adapter@_W@__crt_stdio_output@@V?$format_validation_base@_WV?$string_output_adapter@_W@__crt_stdio_output@@@2@@__crt_stdio_output@@AEAA_NXZ 00000001800575e8 f i libucrt:output.obj
 0001:0005662c       ?state_case_flag@?$output_processor@_WV?$string_output_adapter@_W@__crt_stdio_output@@V?$positional_parameter_base@_WV?$string_output_adapter@_W@__crt_stdio_output@@@2@@__crt_stdio_output@@AEAA_NXZ 000000018005762c f i libucrt:output.obj
 0001:00056670       ?state_case_flag@?$output_processor@_WV?$string_output_adapter@_W@__crt_stdio_output@@V?$standard_base@_WV?$string_output_adapter@_W@__crt_stdio_output@@@2@@__crt_stdio_output@@AEAA_NXZ 0000000180057670 f i libucrt:output.obj
 0001:000566b4       ?state_case_normal@?$output_processor@DV?$stream_output_adapter@D@__crt_stdio_output@@V?$format_validation_base@DV?$stream_output_adapter@D@__crt_stdio_output@@@2@@__crt_stdio_output@@AEAA_NXZ 00000001800576b4 f i libucrt:output.obj
 0001:00056808       ?state_case_normal@?$output_processor@DV?$stream_output_adapter@D@__crt_stdio_output@@V?$positional_parameter_base@DV?$stream_output_adapter@D@__crt_stdio_output@@@2@@__crt_stdio_output@@AEAA_NXZ 0000000180057808 f i libucrt:output.obj
 0001:00056988       ?state_case_normal@?$output_processor@DV?$stream_output_adapter@D@__crt_stdio_output@@V?$standard_base@DV?$stream_output_adapter@D@__crt_stdio_output@@@2@@__crt_stdio_output@@AEAA_NXZ 0000000180057988 f i libucrt:output.obj
 0001:00056adc       ?state_case_normal@?$output_processor@DV?$string_output_adapter@D@__crt_stdio_output@@V?$format_validation_base@DV?$string_output_adapter@D@__crt_stdio_output@@@2@@__crt_stdio_output@@AEAA_NXZ 0000000180057adc f i libucrt:output.obj
 0001:00056c28       ?state_case_normal@?$output_processor@DV?$string_output_adapter@D@__crt_stdio_output@@V?$positional_parameter_base@DV?$string_output_adapter@D@__crt_stdio_output@@@2@@__crt_stdio_output@@AEAA_NXZ 0000000180057c28 f i libucrt:output.obj
 0001:00056da0       ?state_case_normal@?$output_processor@DV?$string_output_adapter@D@__crt_stdio_output@@V?$standard_base@DV?$string_output_adapter@D@__crt_stdio_output@@@2@@__crt_stdio_output@@AEAA_NXZ 0000000180057da0 f i libucrt:output.obj
 0001:00056eec       ?state_case_normal@?$output_processor@_WV?$stream_output_adapter@_W@__crt_stdio_output@@V?$format_validation_base@_WV?$stream_output_adapter@_W@__crt_stdio_output@@@2@@__crt_stdio_output@@AEAA_NXZ 0000000180057eec f i libucrt:output.obj
 0001:00056f4c       ?state_case_normal@?$output_processor@_WV?$stream_output_adapter@_W@__crt_stdio_output@@V?$positional_parameter_base@_WV?$stream_output_adapter@_W@__crt_stdio_output@@@2@@__crt_stdio_output@@AEAA_NXZ 0000000180057f4c f i libucrt:output.obj
 0001:00056fd0       ?state_case_normal@?$output_processor@_WV?$stream_output_adapter@_W@__crt_stdio_output@@V?$standard_base@_WV?$stream_output_adapter@_W@__crt_stdio_output@@@2@@__crt_stdio_output@@AEAA_NXZ 0000000180057fd0 f i libucrt:output.obj
 0001:00057030       ?state_case_normal@?$output_processor@_WV?$string_output_adapter@_W@__crt_stdio_output@@V?$format_validation_base@_WV?$string_output_adapter@_W@__crt_stdio_output@@@2@@__crt_stdio_output@@AEAA_NXZ 0000000180058030 f i libucrt:output.obj
 0001:00057084       ?state_case_normal@?$output_processor@_WV?$string_output_adapter@_W@__crt_stdio_output@@V?$positional_parameter_base@_WV?$string_output_adapter@_W@__crt_stdio_output@@@2@@__crt_stdio_output@@AEAA_NXZ 0000000180058084 f i libucrt:output.obj
 0001:000570fc       ?state_case_normal@?$output_processor@_WV?$string_output_adapter@_W@__crt_stdio_output@@V?$standard_base@_WV?$string_output_adapter@_W@__crt_stdio_output@@@2@@__crt_stdio_output@@AEAA_NXZ 00000001800580fc f i libucrt:output.obj
 0001:00057150       ?state_case_normal_common@?$output_processor@DV?$stream_output_adapter@D@__crt_stdio_output@@V?$format_validation_base@DV?$stream_output_adapter@D@__crt_stdio_output@@@2@@__crt_stdio_output@@AEAA_NXZ 0000000180058150 f i libucrt:output.obj
 0001:0005727c       ?state_case_normal_common@?$output_processor@DV?$stream_output_adapter@D@__crt_stdio_output@@V?$positional_parameter_base@DV?$stream_output_adapter@D@__crt_stdio_output@@@2@@__crt_stdio_output@@AEAA_NXZ 000000018005827c f i libucrt:output.obj
 0001:000573a8       ?state_case_normal_common@?$output_processor@DV?$stream_output_adapter@D@__crt_stdio_output@@V?$standard_base@DV?$stream_output_adapter@D@__crt_stdio_output@@@2@@__crt_stdio_output@@AEAA_NXZ 00000001800583a8 f i libucrt:output.obj
 0001:000574d4       ?state_case_normal_common@?$output_processor@DV?$string_output_adapter@D@__crt_stdio_output@@V?$format_validation_base@DV?$string_output_adapter@D@__crt_stdio_output@@@2@@__crt_stdio_output@@AEAA_NXZ 00000001800584d4 f i libucrt:output.obj
 0001:000575f8       ?state_case_normal_common@?$output_processor@DV?$string_output_adapter@D@__crt_stdio_output@@V?$positional_parameter_base@DV?$string_output_adapter@D@__crt_stdio_output@@@2@@__crt_stdio_output@@AEAA_NXZ 00000001800585f8 f i libucrt:output.obj
 0001:0005771c       ?state_case_normal_common@?$output_processor@DV?$string_output_adapter@D@__crt_stdio_output@@V?$standard_base@DV?$string_output_adapter@D@__crt_stdio_output@@@2@@__crt_stdio_output@@AEAA_NXZ 000000018005871c f i libucrt:output.obj
 0001:00057840       ?state_case_normal_common@?$output_processor@_WV?$stream_output_adapter@_W@__crt_stdio_output@@V?$format_validation_base@_WV?$stream_output_adapter@_W@__crt_stdio_output@@@2@@__crt_stdio_output@@AEAA_NXZ 0000000180058840 f i libucrt:output.obj
 0001:000578a0       ?state_case_normal_common@?$output_processor@_WV?$stream_output_adapter@_W@__crt_stdio_output@@V?$positional_parameter_base@_WV?$stream_output_adapter@_W@__crt_stdio_output@@@2@@__crt_stdio_output@@AEAA_NXZ 00000001800588a0 f i libucrt:output.obj
 0001:00057900       ?state_case_normal_common@?$output_processor@_WV?$stream_output_adapter@_W@__crt_stdio_output@@V?$standard_base@_WV?$stream_output_adapter@_W@__crt_stdio_output@@@2@@__crt_stdio_output@@AEAA_NXZ 0000000180058900 f i libucrt:output.obj
 0001:00057960       ?state_case_normal_common@?$output_processor@_WV?$string_output_adapter@_W@__crt_stdio_output@@V?$format_validation_base@_WV?$string_output_adapter@_W@__crt_stdio_output@@@2@@__crt_stdio_output@@AEAA_NXZ 0000000180058960 f i libucrt:output.obj
 0001:000579b4       ?state_case_normal_common@?$output_processor@_WV?$string_output_adapter@_W@__crt_stdio_output@@V?$positional_parameter_base@_WV?$string_output_adapter@_W@__crt_stdio_output@@@2@@__crt_stdio_output@@AEAA_NXZ 00000001800589b4 f i libucrt:output.obj
 0001:00057a08       ?state_case_normal_common@?$output_processor@_WV?$string_output_adapter@_W@__crt_stdio_output@@V?$standard_base@_WV?$string_output_adapter@_W@__crt_stdio_output@@@2@@__crt_stdio_output@@AEAA_NXZ 0000000180058a08 f i libucrt:output.obj
 0001:00057a5c       ?state_case_normal_tchar@?$output_processor@DV?$stream_output_adapter@D@__crt_stdio_output@@V?$format_validation_base@DV?$stream_output_adapter@D@__crt_stdio_output@@@2@@__crt_stdio_output@@AEAA_ND@Z 0000000180058a5c f i libucrt:output.obj
 0001:00057b3c       ?state_case_normal_tchar@?$output_processor@DV?$stream_output_adapter@D@__crt_stdio_output@@V?$positional_parameter_base@DV?$stream_output_adapter@D@__crt_stdio_output@@@2@@__crt_stdio_output@@AEAA_ND@Z 0000000180058b3c f i libucrt:output.obj
 0001:00057c1c       ?state_case_normal_tchar@?$output_processor@DV?$stream_output_adapter@D@__crt_stdio_output@@V?$standard_base@DV?$stream_output_adapter@D@__crt_stdio_output@@@2@@__crt_stdio_output@@AEAA_ND@Z 0000000180058c1c f i libucrt:output.obj
 0001:00057cfc       ?state_case_normal_tchar@?$output_processor@DV?$string_output_adapter@D@__crt_stdio_output@@V?$format_validation_base@DV?$string_output_adapter@D@__crt_stdio_output@@@2@@__crt_stdio_output@@AEAA_ND@Z 0000000180058cfc f i libucrt:output.obj
 0001:00057dd8       ?state_case_normal_tchar@?$output_processor@DV?$string_output_adapter@D@__crt_stdio_output@@V?$positional_parameter_base@DV?$string_output_adapter@D@__crt_stdio_output@@@2@@__crt_stdio_output@@AEAA_ND@Z 0000000180058dd8 f i libucrt:output.obj
 0001:00057eb4       ?state_case_normal_tchar@?$output_processor@DV?$string_output_adapter@D@__crt_stdio_output@@V?$standard_base@DV?$string_output_adapter@D@__crt_stdio_output@@@2@@__crt_stdio_output@@AEAA_ND@Z 0000000180058eb4 f i libucrt:output.obj
 0001:00057f90       ?state_case_normal_tchar@?$output_processor@_WV?$stream_output_adapter@_W@__crt_stdio_output@@V?$format_validation_base@_WV?$stream_output_adapter@_W@__crt_stdio_output@@@2@@__crt_stdio_output@@AEAA_N_W@Z 0000000180058f90 f i libucrt:output.obj
 0001:00057f98       ?state_case_normal_tchar@?$output_processor@_WV?$stream_output_adapter@_W@__crt_stdio_output@@V?$positional_parameter_base@_WV?$stream_output_adapter@_W@__crt_stdio_output@@@2@@__crt_stdio_output@@AEAA_N_W@Z 0000000180058f98 f i libucrt:output.obj
 0001:00057fa0       ?state_case_normal_tchar@?$output_processor@_WV?$stream_output_adapter@_W@__crt_stdio_output@@V?$standard_base@_WV?$stream_output_adapter@_W@__crt_stdio_output@@@2@@__crt_stdio_output@@AEAA_N_W@Z 0000000180058fa0 f i libucrt:output.obj
 0001:00057fa8       ?state_case_normal_tchar@?$output_processor@_WV?$string_output_adapter@_W@__crt_stdio_output@@V?$format_validation_base@_WV?$string_output_adapter@_W@__crt_stdio_output@@@2@@__crt_stdio_output@@AEAA_N_W@Z 0000000180058fa8 f i libucrt:output.obj
 0001:00057fb0       ?state_case_normal_tchar@?$output_processor@_WV?$string_output_adapter@_W@__crt_stdio_output@@V?$positional_parameter_base@_WV?$string_output_adapter@_W@__crt_stdio_output@@@2@@__crt_stdio_output@@AEAA_N_W@Z 0000000180058fb0 f i libucrt:output.obj
 0001:00057fb8       ?state_case_normal_tchar@?$output_processor@_WV?$string_output_adapter@_W@__crt_stdio_output@@V?$standard_base@_WV?$string_output_adapter@_W@__crt_stdio_output@@@2@@__crt_stdio_output@@AEAA_N_W@Z 0000000180058fb8 f i libucrt:output.obj
 0001:00057fc0       ?state_case_percent@?$output_processor@DV?$stream_output_adapter@D@__crt_stdio_output@@V?$format_validation_base@DV?$stream_output_adapter@D@__crt_stdio_output@@@2@@__crt_stdio_output@@AEAA_NXZ 0000000180058fc0 f i libucrt:output.obj
 0001:00057fd8       ?state_case_percent@?$output_processor@DV?$stream_output_adapter@D@__crt_stdio_output@@V?$positional_parameter_base@DV?$stream_output_adapter@D@__crt_stdio_output@@@2@@__crt_stdio_output@@AEAA_NXZ 0000000180058fd8 f i libucrt:output.obj
 0001:00057ff0       ?state_case_percent@?$output_processor@DV?$stream_output_adapter@D@__crt_stdio_output@@V?$standard_base@DV?$stream_output_adapter@D@__crt_stdio_output@@@2@@__crt_stdio_output@@AEAA_NXZ 0000000180058ff0 f i libucrt:output.obj
 0001:00058008       ?state_case_percent@?$output_processor@DV?$string_output_adapter@D@__crt_stdio_output@@V?$format_validation_base@DV?$string_output_adapter@D@__crt_stdio_output@@@2@@__crt_stdio_output@@AEAA_NXZ 0000000180059008 f i libucrt:output.obj
 0001:00058020       ?state_case_percent@?$output_processor@DV?$string_output_adapter@D@__crt_stdio_output@@V?$positional_parameter_base@DV?$string_output_adapter@D@__crt_stdio_output@@@2@@__crt_stdio_output@@AEAA_NXZ 0000000180059020 f i libucrt:output.obj
 0001:00058038       ?state_case_percent@?$output_processor@DV?$string_output_adapter@D@__crt_stdio_output@@V?$standard_base@DV?$string_output_adapter@D@__crt_stdio_output@@@2@@__crt_stdio_output@@AEAA_NXZ 0000000180059038 f i libucrt:output.obj
 0001:00058050       ?state_case_percent@?$output_processor@_WV?$stream_output_adapter@_W@__crt_stdio_output@@V?$format_validation_base@_WV?$stream_output_adapter@_W@__crt_stdio_output@@@2@@__crt_stdio_output@@AEAA_NXZ 0000000180059050 f i libucrt:output.obj
 0001:00058068       ?state_case_percent@?$output_processor@_WV?$stream_output_adapter@_W@__crt_stdio_output@@V?$positional_parameter_base@_WV?$stream_output_adapter@_W@__crt_stdio_output@@@2@@__crt_stdio_output@@AEAA_NXZ 0000000180059068 f i libucrt:output.obj
 0001:00058080       ?state_case_percent@?$output_processor@_WV?$stream_output_adapter@_W@__crt_stdio_output@@V?$standard_base@_WV?$stream_output_adapter@_W@__crt_stdio_output@@@2@@__crt_stdio_output@@AEAA_NXZ 0000000180059080 f i libucrt:output.obj
 0001:00058098       ?state_case_percent@?$output_processor@_WV?$string_output_adapter@_W@__crt_stdio_output@@V?$format_validation_base@_WV?$string_output_adapter@_W@__crt_stdio_output@@@2@@__crt_stdio_output@@AEAA_NXZ 0000000180059098 f i libucrt:output.obj
 0001:000580b0       ?state_case_percent@?$output_processor@_WV?$string_output_adapter@_W@__crt_stdio_output@@V?$positional_parameter_base@_WV?$string_output_adapter@_W@__crt_stdio_output@@@2@@__crt_stdio_output@@AEAA_NXZ 00000001800590b0 f i libucrt:output.obj
 0001:000580c8       ?state_case_percent@?$output_processor@_WV?$string_output_adapter@_W@__crt_stdio_output@@V?$standard_base@_WV?$string_output_adapter@_W@__crt_stdio_output@@@2@@__crt_stdio_output@@AEAA_NXZ 00000001800590c8 f i libucrt:output.obj
 0001:000580e0       ?state_case_precision@?$output_processor@DV?$stream_output_adapter@D@__crt_stdio_output@@V?$format_validation_base@DV?$stream_output_adapter@D@__crt_stdio_output@@@2@@__crt_stdio_output@@AEAA_NXZ 00000001800590e0 f i libucrt:output.obj
 0001:00058110       ?state_case_precision@?$output_processor@DV?$stream_output_adapter@D@__crt_stdio_output@@V?$positional_parameter_base@DV?$stream_output_adapter@D@__crt_stdio_output@@@2@@__crt_stdio_output@@AEAA_NXZ 0000000180059110 f i libucrt:output.obj
 0001:0005815c       ?state_case_precision@?$output_processor@DV?$stream_output_adapter@D@__crt_stdio_output@@V?$standard_base@DV?$stream_output_adapter@D@__crt_stdio_output@@@2@@__crt_stdio_output@@AEAA_NXZ 000000018005915c f i libucrt:output.obj
 0001:0005818c       ?state_case_precision@?$output_processor@DV?$string_output_adapter@D@__crt_stdio_output@@V?$format_validation_base@DV?$string_output_adapter@D@__crt_stdio_output@@@2@@__crt_stdio_output@@AEAA_NXZ 000000018005918c f i libucrt:output.obj
 0001:000581bc       ?state_case_precision@?$output_processor@DV?$string_output_adapter@D@__crt_stdio_output@@V?$positional_parameter_base@DV?$string_output_adapter@D@__crt_stdio_output@@@2@@__crt_stdio_output@@AEAA_NXZ 00000001800591bc f i libucrt:output.obj
 0001:00058208       ?state_case_precision@?$output_processor@DV?$string_output_adapter@D@__crt_stdio_output@@V?$standard_base@DV?$string_output_adapter@D@__crt_stdio_output@@@2@@__crt_stdio_output@@AEAA_NXZ 0000000180059208 f i libucrt:output.obj
 0001:00058238       ?state_case_precision@?$output_processor@_WV?$stream_output_adapter@_W@__crt_stdio_output@@V?$format_validation_base@_WV?$stream_output_adapter@_W@__crt_stdio_output@@@2@@__crt_stdio_output@@AEAA_NXZ 0000000180059238 f i libucrt:output.obj
 0001:0005826c       ?state_case_precision@?$output_processor@_WV?$stream_output_adapter@_W@__crt_stdio_output@@V?$positional_parameter_base@_WV?$stream_output_adapter@_W@__crt_stdio_output@@@2@@__crt_stdio_output@@AEAA_NXZ 000000018005926c f i libucrt:output.obj
 0001:000582b8       ?state_case_precision@?$output_processor@_WV?$stream_output_adapter@_W@__crt_stdio_output@@V?$standard_base@_WV?$stream_output_adapter@_W@__crt_stdio_output@@@2@@__crt_stdio_output@@AEAA_NXZ 00000001800592b8 f i libucrt:output.obj
 0001:000582ec       ?state_case_precision@?$output_processor@_WV?$string_output_adapter@_W@__crt_stdio_output@@V?$format_validation_base@_WV?$string_output_adapter@_W@__crt_stdio_output@@@2@@__crt_stdio_output@@AEAA_NXZ 00000001800592ec f i libucrt:output.obj
 0001:00058320       ?state_case_precision@?$output_processor@_WV?$string_output_adapter@_W@__crt_stdio_output@@V?$positional_parameter_base@_WV?$string_output_adapter@_W@__crt_stdio_output@@@2@@__crt_stdio_output@@AEAA_NXZ 0000000180059320 f i libucrt:output.obj
 0001:0005836c       ?state_case_precision@?$output_processor@_WV?$string_output_adapter@_W@__crt_stdio_output@@V?$standard_base@_WV?$string_output_adapter@_W@__crt_stdio_output@@@2@@__crt_stdio_output@@AEAA_NXZ 000000018005936c f i libucrt:output.obj
 0001:000583a0       ?state_case_size@?$output_processor@DV?$stream_output_adapter@D@__crt_stdio_output@@V?$format_validation_base@DV?$stream_output_adapter@D@__crt_stdio_output@@@2@@__crt_stdio_output@@AEAA_NXZ 00000001800593a0 f i libucrt:output.obj
 0001:00058528       ?state_case_size@?$output_processor@DV?$stream_output_adapter@D@__crt_stdio_output@@V?$positional_parameter_base@DV?$stream_output_adapter@D@__crt_stdio_output@@@2@@__crt_stdio_output@@AEAA_NXZ 0000000180059528 f i libucrt:output.obj
 0001:000586b0       ?state_case_size@?$output_processor@DV?$stream_output_adapter@D@__crt_stdio_output@@V?$standard_base@DV?$stream_output_adapter@D@__crt_stdio_output@@@2@@__crt_stdio_output@@AEAA_NXZ 00000001800596b0 f i libucrt:output.obj
 0001:00058838       ?state_case_size@?$output_processor@DV?$string_output_adapter@D@__crt_stdio_output@@V?$format_validation_base@DV?$string_output_adapter@D@__crt_stdio_output@@@2@@__crt_stdio_output@@AEAA_NXZ 0000000180059838 f i libucrt:output.obj
 0001:000589c0       ?state_case_size@?$output_processor@DV?$string_output_adapter@D@__crt_stdio_output@@V?$positional_parameter_base@DV?$string_output_adapter@D@__crt_stdio_output@@@2@@__crt_stdio_output@@AEAA_NXZ 00000001800599c0 f i libucrt:output.obj
 0001:00058b48       ?state_case_size@?$output_processor@DV?$string_output_adapter@D@__crt_stdio_output@@V?$standard_base@DV?$string_output_adapter@D@__crt_stdio_output@@@2@@__crt_stdio_output@@AEAA_NXZ 0000000180059b48 f i libucrt:output.obj
 0001:00058cd0       ?state_case_size@?$output_processor@_WV?$stream_output_adapter@_W@__crt_stdio_output@@V?$format_validation_base@_WV?$stream_output_adapter@_W@__crt_stdio_output@@@2@@__crt_stdio_output@@AEAA_NXZ 0000000180059cd0 f i libucrt:output.obj
 0001:00058e80       ?state_case_size@?$output_processor@_WV?$stream_output_adapter@_W@__crt_stdio_output@@V?$positional_parameter_base@_WV?$stream_output_adapter@_W@__crt_stdio_output@@@2@@__crt_stdio_output@@AEAA_NXZ 0000000180059e80 f i libucrt:output.obj
 0001:00059030       ?state_case_size@?$output_processor@_WV?$stream_output_adapter@_W@__crt_stdio_output@@V?$standard_base@_WV?$stream_output_adapter@_W@__crt_stdio_output@@@2@@__crt_stdio_output@@AEAA_NXZ 000000018005a030 f i libucrt:output.obj
 0001:000591e0       ?state_case_size@?$output_processor@_WV?$string_output_adapter@_W@__crt_stdio_output@@V?$format_validation_base@_WV?$string_output_adapter@_W@__crt_stdio_output@@@2@@__crt_stdio_output@@AEAA_NXZ 000000018005a1e0 f i libucrt:output.obj
 0001:00059390       ?state_case_size@?$output_processor@_WV?$string_output_adapter@_W@__crt_stdio_output@@V?$positional_parameter_base@_WV?$string_output_adapter@_W@__crt_stdio_output@@@2@@__crt_stdio_output@@AEAA_NXZ 000000018005a390 f i libucrt:output.obj
 0001:00059540       ?state_case_size@?$output_processor@_WV?$string_output_adapter@_W@__crt_stdio_output@@V?$standard_base@_WV?$string_output_adapter@_W@__crt_stdio_output@@@2@@__crt_stdio_output@@AEAA_NXZ 000000018005a540 f i libucrt:output.obj
 0001:000596f0       ?state_case_type@?$output_processor@DV?$stream_output_adapter@D@__crt_stdio_output@@V?$format_validation_base@DV?$stream_output_adapter@D@__crt_stdio_output@@@2@@__crt_stdio_output@@AEAA_NXZ 000000018005a6f0 f i libucrt:output.obj
 0001:00059b28       ?state_case_type@?$output_processor@DV?$stream_output_adapter@D@__crt_stdio_output@@V?$positional_parameter_base@DV?$stream_output_adapter@D@__crt_stdio_output@@@2@@__crt_stdio_output@@AEAA_NXZ 000000018005ab28 f i libucrt:output.obj
 0001:00059f90       ?state_case_type@?$output_processor@DV?$stream_output_adapter@D@__crt_stdio_output@@V?$standard_base@DV?$stream_output_adapter@D@__crt_stdio_output@@@2@@__crt_stdio_output@@AEAA_NXZ 000000018005af90 f i libucrt:output.obj
 0001:0005a3c8       ?state_case_type@?$output_processor@DV?$string_output_adapter@D@__crt_stdio_output@@V?$format_validation_base@DV?$string_output_adapter@D@__crt_stdio_output@@@2@@__crt_stdio_output@@AEAA_NXZ 000000018005b3c8 f i libucrt:output.obj
 0001:0005a7cc       ?state_case_type@?$output_processor@DV?$string_output_adapter@D@__crt_stdio_output@@V?$positional_parameter_base@DV?$string_output_adapter@D@__crt_stdio_output@@@2@@__crt_stdio_output@@AEAA_NXZ 000000018005b7cc f i libucrt:output.obj
 0001:0005abe4       ?state_case_type@?$output_processor@DV?$string_output_adapter@D@__crt_stdio_output@@V?$standard_base@DV?$string_output_adapter@D@__crt_stdio_output@@@2@@__crt_stdio_output@@AEAA_NXZ 000000018005bbe4 f i libucrt:output.obj
 0001:0005afe8       ?state_case_type@?$output_processor@_WV?$stream_output_adapter@_W@__crt_stdio_output@@V?$format_validation_base@_WV?$stream_output_adapter@_W@__crt_stdio_output@@@2@@__crt_stdio_output@@AEAA_NXZ 000000018005bfe8 f i libucrt:output.obj
 0001:0005b4ac       ?state_case_type@?$output_processor@_WV?$stream_output_adapter@_W@__crt_stdio_output@@V?$positional_parameter_base@_WV?$stream_output_adapter@_W@__crt_stdio_output@@@2@@__crt_stdio_output@@AEAA_NXZ 000000018005c4ac f i libucrt:output.obj
 0001:0005b988       ?state_case_type@?$output_processor@_WV?$stream_output_adapter@_W@__crt_stdio_output@@V?$standard_base@_WV?$stream_output_adapter@_W@__crt_stdio_output@@@2@@__crt_stdio_output@@AEAA_NXZ 000000018005c988 f i libucrt:output.obj
 0001:0005be4c       ?state_case_type@?$output_processor@_WV?$string_output_adapter@_W@__crt_stdio_output@@V?$format_validation_base@_WV?$string_output_adapter@_W@__crt_stdio_output@@@2@@__crt_stdio_output@@AEAA_NXZ 000000018005ce4c f i libucrt:output.obj
 0001:0005c2b0       ?state_case_type@?$output_processor@_WV?$string_output_adapter@_W@__crt_stdio_output@@V?$positional_parameter_base@_WV?$string_output_adapter@_W@__crt_stdio_output@@@2@@__crt_stdio_output@@AEAA_NXZ 000000018005d2b0 f i libucrt:output.obj
 0001:0005c740       ?state_case_type@?$output_processor@_WV?$string_output_adapter@_W@__crt_stdio_output@@V?$standard_base@_WV?$string_output_adapter@_W@__crt_stdio_output@@@2@@__crt_stdio_output@@AEAA_NXZ 000000018005d740 f i libucrt:output.obj
 0001:0005cba4       ?state_case_width@?$output_processor@DV?$stream_output_adapter@D@__crt_stdio_output@@V?$format_validation_base@DV?$stream_output_adapter@D@__crt_stdio_output@@@2@@__crt_stdio_output@@AEAA_NXZ 000000018005dba4 f i libucrt:output.obj
 0001:0005cbd8       ?state_case_width@?$output_processor@DV?$stream_output_adapter@D@__crt_stdio_output@@V?$positional_parameter_base@DV?$stream_output_adapter@D@__crt_stdio_output@@@2@@__crt_stdio_output@@AEAA_NXZ 000000018005dbd8 f i libucrt:output.obj
 0001:0005cc28       ?state_case_width@?$output_processor@DV?$stream_output_adapter@D@__crt_stdio_output@@V?$standard_base@DV?$stream_output_adapter@D@__crt_stdio_output@@@2@@__crt_stdio_output@@AEAA_NXZ 000000018005dc28 f i libucrt:output.obj
 0001:0005cc5c       ?state_case_width@?$output_processor@DV?$string_output_adapter@D@__crt_stdio_output@@V?$format_validation_base@DV?$string_output_adapter@D@__crt_stdio_output@@@2@@__crt_stdio_output@@AEAA_NXZ 000000018005dc5c f i libucrt:output.obj
 0001:0005cc90       ?state_case_width@?$output_processor@DV?$string_output_adapter@D@__crt_stdio_output@@V?$positional_parameter_base@DV?$string_output_adapter@D@__crt_stdio_output@@@2@@__crt_stdio_output@@AEAA_NXZ 000000018005dc90 f i libucrt:output.obj
 0001:0005cce0       ?state_case_width@?$output_processor@DV?$string_output_adapter@D@__crt_stdio_output@@V?$standard_base@DV?$string_output_adapter@D@__crt_stdio_output@@@2@@__crt_stdio_output@@AEAA_NXZ 000000018005dce0 f i libucrt:output.obj
 0001:0005cd14       ?state_case_width@?$output_processor@_WV?$stream_output_adapter@_W@__crt_stdio_output@@V?$format_validation_base@_WV?$stream_output_adapter@_W@__crt_stdio_output@@@2@@__crt_stdio_output@@AEAA_NXZ 000000018005dd14 f i libucrt:output.obj
 0001:0005cd48       ?state_case_width@?$output_processor@_WV?$stream_output_adapter@_W@__crt_stdio_output@@V?$positional_parameter_base@_WV?$stream_output_adapter@_W@__crt_stdio_output@@@2@@__crt_stdio_output@@AEAA_NXZ 000000018005dd48 f i libucrt:output.obj
 0001:0005cd9c       ?state_case_width@?$output_processor@_WV?$stream_output_adapter@_W@__crt_stdio_output@@V?$standard_base@_WV?$stream_output_adapter@_W@__crt_stdio_output@@@2@@__crt_stdio_output@@AEAA_NXZ 000000018005dd9c f i libucrt:output.obj
 0001:0005cdd0       ?state_case_width@?$output_processor@_WV?$string_output_adapter@_W@__crt_stdio_output@@V?$format_validation_base@_WV?$string_output_adapter@_W@__crt_stdio_output@@@2@@__crt_stdio_output@@AEAA_NXZ 000000018005ddd0 f i libucrt:output.obj
 0001:0005ce04       ?state_case_width@?$output_processor@_WV?$string_output_adapter@_W@__crt_stdio_output@@V?$positional_parameter_base@_WV?$string_output_adapter@_W@__crt_stdio_output@@@2@@__crt_stdio_output@@AEAA_NXZ 000000018005de04 f i libucrt:output.obj
 0001:0005ce58       ?state_case_width@?$output_processor@_WV?$string_output_adapter@_W@__crt_stdio_output@@V?$standard_base@_WV?$string_output_adapter@_W@__crt_stdio_output@@@2@@__crt_stdio_output@@AEAA_NXZ 000000018005de58 f i libucrt:output.obj
 0001:0005ce8c       ?state_count@?$format_validation_base@DV?$stream_output_adapter@D@__crt_stdio_output@@@__crt_stdio_output@@KAIXZ 000000018005de8c f i libucrt:output.obj
 0001:0005ce94       ?state_count@?$format_validation_base@DV?$string_output_adapter@D@__crt_stdio_output@@@__crt_stdio_output@@KAIXZ 000000018005de94 f i libucrt:output.obj
 0001:0005ce9c       ?state_count@?$format_validation_base@_WV?$stream_output_adapter@_W@__crt_stdio_output@@@__crt_stdio_output@@KAIXZ 000000018005de9c f i libucrt:output.obj
 0001:0005cea4       ?state_count@?$format_validation_base@_WV?$string_output_adapter@_W@__crt_stdio_output@@@__crt_stdio_output@@KAIXZ 000000018005dea4 f i libucrt:output.obj
 0001:0005ceac       ?state_count@?$standard_base@DV?$stream_output_adapter@D@__crt_stdio_output@@@__crt_stdio_output@@KAIXZ 000000018005deac f i libucrt:output.obj
 0001:0005ceb4       ?state_count@?$standard_base@DV?$string_output_adapter@D@__crt_stdio_output@@@__crt_stdio_output@@KAIXZ 000000018005deb4 f i libucrt:output.obj
 0001:0005cebc       ?state_count@?$standard_base@_WV?$stream_output_adapter@_W@__crt_stdio_output@@@__crt_stdio_output@@KAIXZ 000000018005debc f i libucrt:output.obj
 0001:0005cec4       ?state_count@?$standard_base@_WV?$string_output_adapter@_W@__crt_stdio_output@@@__crt_stdio_output@@KAIXZ 000000018005dec4 f i libucrt:output.obj
 0001:0005cecc       ?state_transition_table@?$format_validation_base@DV?$stream_output_adapter@D@__crt_stdio_output@@@__crt_stdio_output@@KAAEBV?$spectre_mitigated_lookup_table@Ustate_transition_pair@__crt_stdio_output@@$0IA@@2@XZ 000000018005decc f i libucrt:output.obj
 0001:0005ced4       ?state_transition_table@?$format_validation_base@DV?$string_output_adapter@D@__crt_stdio_output@@@__crt_stdio_output@@KAAEBV?$spectre_mitigated_lookup_table@Ustate_transition_pair@__crt_stdio_output@@$0IA@@2@XZ 000000018005ded4 f i libucrt:output.obj
 0001:0005cedc       ?state_transition_table@?$format_validation_base@_WV?$stream_output_adapter@_W@__crt_stdio_output@@@__crt_stdio_output@@KAAEBV?$spectre_mitigated_lookup_table@Ustate_transition_pair@__crt_stdio_output@@$0IA@@2@XZ 000000018005dedc f i libucrt:output.obj
 0001:0005cee4       ?state_transition_table@?$format_validation_base@_WV?$string_output_adapter@_W@__crt_stdio_output@@@__crt_stdio_output@@KAAEBV?$spectre_mitigated_lookup_table@Ustate_transition_pair@__crt_stdio_output@@$0IA@@2@XZ 000000018005dee4 f i libucrt:output.obj
 0001:0005ceec       ?state_transition_table@?$standard_base@DV?$stream_output_adapter@D@__crt_stdio_output@@@__crt_stdio_output@@KAAEBV?$spectre_mitigated_lookup_table@Ustate_transition_pair@__crt_stdio_output@@$0IA@@2@XZ 000000018005deec f i libucrt:output.obj
 0001:0005cef4       ?state_transition_table@?$standard_base@DV?$string_output_adapter@D@__crt_stdio_output@@@__crt_stdio_output@@KAAEBV?$spectre_mitigated_lookup_table@Ustate_transition_pair@__crt_stdio_output@@$0IA@@2@XZ 000000018005def4 f i libucrt:output.obj
 0001:0005cefc       ?state_transition_table@?$standard_base@_WV?$stream_output_adapter@_W@__crt_stdio_output@@@__crt_stdio_output@@KAAEBV?$spectre_mitigated_lookup_table@Ustate_transition_pair@__crt_stdio_output@@$0IA@@2@XZ 000000018005defc f i libucrt:output.obj
 0001:0005cf04       ?state_transition_table@?$standard_base@_WV?$string_output_adapter@_W@__crt_stdio_output@@@__crt_stdio_output@@KAAEBV?$spectre_mitigated_lookup_table@Ustate_transition_pair@__crt_stdio_output@@$0IA@@2@XZ 000000018005df04 f i libucrt:output.obj
 0001:0005cf0c       ?tchar_string@?$common_data@D@__crt_stdio_output@@IEAAAEAPEADD@Z 000000018005df0c f i libucrt:output.obj
 0001:0005cf14       ?tchar_string@?$common_data@D@__crt_stdio_output@@IEAAAEAPEADXZ 000000018005df14 f i libucrt:output.obj
 0001:0005cf1c       ?tchar_string@?$common_data@_W@__crt_stdio_output@@IEAAAEAPEA_WXZ 000000018005df1c f i libucrt:output.obj
 0001:0005cf24       ?tchar_string@?$common_data@_W@__crt_stdio_output@@IEAAAEAPEA_W_W@Z 000000018005df24 f i libucrt:output.obj
 0001:0005cf2c       ?to_integer_size@__crt_stdio_output@@YA_KW4length_modifier@1@@Z 000000018005df2c f i libucrt:output.obj
 0001:0005cf74       ?type_case_X@?$output_processor@DV?$stream_output_adapter@D@__crt_stdio_output@@V?$format_validation_base@DV?$stream_output_adapter@D@__crt_stdio_output@@@2@@__crt_stdio_output@@AEAA_NXZ 000000018005df74 f i libucrt:output.obj
 0001:0005cf7c       ?type_case_X@?$output_processor@DV?$stream_output_adapter@D@__crt_stdio_output@@V?$positional_parameter_base@DV?$stream_output_adapter@D@__crt_stdio_output@@@2@@__crt_stdio_output@@AEAA_NXZ 000000018005df7c f i libucrt:output.obj
 0001:0005cf84       ?type_case_X@?$output_processor@DV?$stream_output_adapter@D@__crt_stdio_output@@V?$standard_base@DV?$stream_output_adapter@D@__crt_stdio_output@@@2@@__crt_stdio_output@@AEAA_NXZ 000000018005df84 f i libucrt:output.obj
 0001:0005cf8c       ?type_case_X@?$output_processor@DV?$string_output_adapter@D@__crt_stdio_output@@V?$format_validation_base@DV?$string_output_adapter@D@__crt_stdio_output@@@2@@__crt_stdio_output@@AEAA_NXZ 000000018005df8c f i libucrt:output.obj
 0001:0005cf94       ?type_case_X@?$output_processor@DV?$string_output_adapter@D@__crt_stdio_output@@V?$positional_parameter_base@DV?$string_output_adapter@D@__crt_stdio_output@@@2@@__crt_stdio_output@@AEAA_NXZ 000000018005df94 f i libucrt:output.obj
 0001:0005cf9c       ?type_case_X@?$output_processor@DV?$string_output_adapter@D@__crt_stdio_output@@V?$standard_base@DV?$string_output_adapter@D@__crt_stdio_output@@@2@@__crt_stdio_output@@AEAA_NXZ 000000018005df9c f i libucrt:output.obj
 0001:0005cfa4       ?type_case_X@?$output_processor@_WV?$stream_output_adapter@_W@__crt_stdio_output@@V?$format_validation_base@_WV?$stream_output_adapter@_W@__crt_stdio_output@@@2@@__crt_stdio_output@@AEAA_NXZ 000000018005dfa4 f i libucrt:output.obj
 0001:0005cfac       ?type_case_X@?$output_processor@_WV?$stream_output_adapter@_W@__crt_stdio_output@@V?$positional_parameter_base@_WV?$stream_output_adapter@_W@__crt_stdio_output@@@2@@__crt_stdio_output@@AEAA_NXZ 000000018005dfac f i libucrt:output.obj
 0001:0005cfb4       ?type_case_X@?$output_processor@_WV?$stream_output_adapter@_W@__crt_stdio_output@@V?$standard_base@_WV?$stream_output_adapter@_W@__crt_stdio_output@@@2@@__crt_stdio_output@@AEAA_NXZ 000000018005dfb4 f i libucrt:output.obj
 0001:0005cfbc       ?type_case_X@?$output_processor@_WV?$string_output_adapter@_W@__crt_stdio_output@@V?$format_validation_base@_WV?$string_output_adapter@_W@__crt_stdio_output@@@2@@__crt_stdio_output@@AEAA_NXZ 000000018005dfbc f i libucrt:output.obj
 0001:0005cfc4       ?type_case_X@?$output_processor@_WV?$string_output_adapter@_W@__crt_stdio_output@@V?$positional_parameter_base@_WV?$string_output_adapter@_W@__crt_stdio_output@@@2@@__crt_stdio_output@@AEAA_NXZ 000000018005dfc4 f i libucrt:output.obj
 0001:0005cfcc       ?type_case_X@?$output_processor@_WV?$string_output_adapter@_W@__crt_stdio_output@@V?$standard_base@_WV?$string_output_adapter@_W@__crt_stdio_output@@@2@@__crt_stdio_output@@AEAA_NXZ 000000018005dfcc f i libucrt:output.obj
 0001:0005cfd4       ?type_case_Z@?$output_processor@DV?$stream_output_adapter@D@__crt_stdio_output@@V?$format_validation_base@DV?$stream_output_adapter@D@__crt_stdio_output@@@2@@__crt_stdio_output@@AEAA_NXZ 000000018005dfd4 f i libucrt:output.obj
 0001:0005d050       ?type_case_Z@?$output_processor@DV?$stream_output_adapter@D@__crt_stdio_output@@V?$positional_parameter_base@DV?$stream_output_adapter@D@__crt_stdio_output@@@2@@__crt_stdio_output@@AEAA_NXZ 000000018005e050 f i libucrt:output.obj
 0001:0005d0f8       ?type_case_Z@?$output_processor@DV?$stream_output_adapter@D@__crt_stdio_output@@V?$standard_base@DV?$stream_output_adapter@D@__crt_stdio_output@@@2@@__crt_stdio_output@@AEAA_NXZ 000000018005e0f8 f i libucrt:output.obj
 0001:0005d174       ?type_case_Z@?$output_processor@DV?$string_output_adapter@D@__crt_stdio_output@@V?$format_validation_base@DV?$string_output_adapter@D@__crt_stdio_output@@@2@@__crt_stdio_output@@AEAA_NXZ 000000018005e174 f i libucrt:output.obj
 0001:0005d1f0       ?type_case_Z@?$output_processor@DV?$string_output_adapter@D@__crt_stdio_output@@V?$positional_parameter_base@DV?$string_output_adapter@D@__crt_stdio_output@@@2@@__crt_stdio_output@@AEAA_NXZ 000000018005e1f0 f i libucrt:output.obj
 0001:0005d298       ?type_case_Z@?$output_processor@DV?$string_output_adapter@D@__crt_stdio_output@@V?$standard_base@DV?$string_output_adapter@D@__crt_stdio_output@@@2@@__crt_stdio_output@@AEAA_NXZ 000000018005e298 f i libucrt:output.obj
 0001:0005d314       ?type_case_Z@?$output_processor@_WV?$stream_output_adapter@_W@__crt_stdio_output@@V?$format_validation_base@_WV?$stream_output_adapter@_W@__crt_stdio_output@@@2@@__crt_stdio_output@@AEAA_NXZ 000000018005e314 f i libucrt:output.obj
 0001:0005d394       ?type_case_Z@?$output_processor@_WV?$stream_output_adapter@_W@__crt_stdio_output@@V?$positional_parameter_base@_WV?$stream_output_adapter@_W@__crt_stdio_output@@@2@@__crt_stdio_output@@AEAA_NXZ 000000018005e394 f i libucrt:output.obj
 0001:0005d42c       ?type_case_Z@?$output_processor@_WV?$stream_output_adapter@_W@__crt_stdio_output@@V?$standard_base@_WV?$stream_output_adapter@_W@__crt_stdio_output@@@2@@__crt_stdio_output@@AEAA_NXZ 000000018005e42c f i libucrt:output.obj
 0001:0005d4ac       ?type_case_Z@?$output_processor@_WV?$string_output_adapter@_W@__crt_stdio_output@@V?$format_validation_base@_WV?$string_output_adapter@_W@__crt_stdio_output@@@2@@__crt_stdio_output@@AEAA_NXZ 000000018005e4ac f i libucrt:output.obj
 0001:0005d52c       ?type_case_Z@?$output_processor@_WV?$string_output_adapter@_W@__crt_stdio_output@@V?$positional_parameter_base@_WV?$string_output_adapter@_W@__crt_stdio_output@@@2@@__crt_stdio_output@@AEAA_NXZ 000000018005e52c f i libucrt:output.obj
 0001:0005d5c4       ?type_case_Z@?$output_processor@_WV?$string_output_adapter@_W@__crt_stdio_output@@V?$standard_base@_WV?$string_output_adapter@_W@__crt_stdio_output@@@2@@__crt_stdio_output@@AEAA_NXZ 000000018005e5c4 f i libucrt:output.obj
 0001:0005d644       ?type_case_a@?$output_processor@DV?$stream_output_adapter@D@__crt_stdio_output@@V?$format_validation_base@DV?$stream_output_adapter@D@__crt_stdio_output@@@2@@__crt_stdio_output@@AEAA_NXZ 000000018005e644 f i libucrt:output.obj
 0001:0005d898       ?type_case_a@?$output_processor@DV?$stream_output_adapter@D@__crt_stdio_output@@V?$positional_parameter_base@DV?$stream_output_adapter@D@__crt_stdio_output@@@2@@__crt_stdio_output@@AEAA_NXZ 000000018005e898 f i libucrt:output.obj
 0001:0005db14       ?type_case_a@?$output_processor@DV?$stream_output_adapter@D@__crt_stdio_output@@V?$standard_base@DV?$stream_output_adapter@D@__crt_stdio_output@@@2@@__crt_stdio_output@@AEAA_NXZ 000000018005eb14 f i libucrt:output.obj
 0001:0005dd68       ?type_case_a@?$output_processor@DV?$string_output_adapter@D@__crt_stdio_output@@V?$format_validation_base@DV?$string_output_adapter@D@__crt_stdio_output@@@2@@__crt_stdio_output@@AEAA_NXZ 000000018005ed68 f i libucrt:output.obj
 0001:0005dfbc       ?type_case_a@?$output_processor@DV?$string_output_adapter@D@__crt_stdio_output@@V?$positional_parameter_base@DV?$string_output_adapter@D@__crt_stdio_output@@@2@@__crt_stdio_output@@AEAA_NXZ 000000018005efbc f i libucrt:output.obj
 0001:0005e238       ?type_case_a@?$output_processor@DV?$string_output_adapter@D@__crt_stdio_output@@V?$standard_base@DV?$string_output_adapter@D@__crt_stdio_output@@@2@@__crt_stdio_output@@AEAA_NXZ 000000018005f238 f i libucrt:output.obj
 0001:0005e48c       ?type_case_a@?$output_processor@_WV?$stream_output_adapter@_W@__crt_stdio_output@@V?$format_validation_base@_WV?$stream_output_adapter@_W@__crt_stdio_output@@@2@@__crt_stdio_output@@AEAA_NXZ 000000018005f48c f i libucrt:output.obj
 0001:0005e6f4       ?type_case_a@?$output_processor@_WV?$stream_output_adapter@_W@__crt_stdio_output@@V?$positional_parameter_base@_WV?$stream_output_adapter@_W@__crt_stdio_output@@@2@@__crt_stdio_output@@AEAA_NXZ 000000018005f6f4 f i libucrt:output.obj
 0001:0005e988       ?type_case_a@?$output_processor@_WV?$stream_output_adapter@_W@__crt_stdio_output@@V?$standard_base@_WV?$stream_output_adapter@_W@__crt_stdio_output@@@2@@__crt_stdio_output@@AEAA_NXZ 000000018005f988 f i libucrt:output.obj
 0001:0005ebf0       ?type_case_a@?$output_processor@_WV?$string_output_adapter@_W@__crt_stdio_output@@V?$format_validation_base@_WV?$string_output_adapter@_W@__crt_stdio_output@@@2@@__crt_stdio_output@@AEAA_NXZ 000000018005fbf0 f i libucrt:output.obj
 0001:0005ee58       ?type_case_a@?$output_processor@_WV?$string_output_adapter@_W@__crt_stdio_output@@V?$positional_parameter_base@_WV?$string_output_adapter@_W@__crt_stdio_output@@@2@@__crt_stdio_output@@AEAA_NXZ 000000018005fe58 f i libucrt:output.obj
 0001:0005f0ec       ?type_case_a@?$output_processor@_WV?$string_output_adapter@_W@__crt_stdio_output@@V?$standard_base@_WV?$string_output_adapter@_W@__crt_stdio_output@@@2@@__crt_stdio_output@@AEAA_NXZ 00000001800600ec f i libucrt:output.obj
 0001:0005f354       ?type_case_c@?$output_processor@DV?$stream_output_adapter@D@__crt_stdio_output@@V?$format_validation_base@DV?$stream_output_adapter@D@__crt_stdio_output@@@2@@__crt_stdio_output@@AEAA_NXZ 0000000180060354 f i libucrt:output.obj
 0001:0005f35c       ?type_case_c@?$output_processor@DV?$stream_output_adapter@D@__crt_stdio_output@@V?$positional_parameter_base@DV?$stream_output_adapter@D@__crt_stdio_output@@@2@@__crt_stdio_output@@AEAA_NXZ 000000018006035c f i libucrt:output.obj
 0001:0005f364       ?type_case_c@?$output_processor@DV?$stream_output_adapter@D@__crt_stdio_output@@V?$standard_base@DV?$stream_output_adapter@D@__crt_stdio_output@@@2@@__crt_stdio_output@@AEAA_NXZ 0000000180060364 f i libucrt:output.obj
 0001:0005f36c       ?type_case_c@?$output_processor@DV?$string_output_adapter@D@__crt_stdio_output@@V?$format_validation_base@DV?$string_output_adapter@D@__crt_stdio_output@@@2@@__crt_stdio_output@@AEAA_NXZ 000000018006036c f i libucrt:output.obj
 0001:0005f374       ?type_case_c@?$output_processor@DV?$string_output_adapter@D@__crt_stdio_output@@V?$positional_parameter_base@DV?$string_output_adapter@D@__crt_stdio_output@@@2@@__crt_stdio_output@@AEAA_NXZ 0000000180060374 f i libucrt:output.obj
 0001:0005f37c       ?type_case_c@?$output_processor@DV?$string_output_adapter@D@__crt_stdio_output@@V?$standard_base@DV?$string_output_adapter@D@__crt_stdio_output@@@2@@__crt_stdio_output@@AEAA_NXZ 000000018006037c f i libucrt:output.obj
 0001:0005f384       ?type_case_c@?$output_processor@_WV?$stream_output_adapter@_W@__crt_stdio_output@@V?$format_validation_base@_WV?$stream_output_adapter@_W@__crt_stdio_output@@@2@@__crt_stdio_output@@AEAA_NXZ 0000000180060384 f i libucrt:output.obj
 0001:0005f38c       ?type_case_c@?$output_processor@_WV?$stream_output_adapter@_W@__crt_stdio_output@@V?$positional_parameter_base@_WV?$stream_output_adapter@_W@__crt_stdio_output@@@2@@__crt_stdio_output@@AEAA_NXZ 000000018006038c f i libucrt:output.obj
 0001:0005f394       ?type_case_c@?$output_processor@_WV?$stream_output_adapter@_W@__crt_stdio_output@@V?$standard_base@_WV?$stream_output_adapter@_W@__crt_stdio_output@@@2@@__crt_stdio_output@@AEAA_NXZ 0000000180060394 f i libucrt:output.obj
 0001:0005f39c       ?type_case_c@?$output_processor@_WV?$string_output_adapter@_W@__crt_stdio_output@@V?$format_validation_base@_WV?$string_output_adapter@_W@__crt_stdio_output@@@2@@__crt_stdio_output@@AEAA_NXZ 000000018006039c f i libucrt:output.obj
 0001:0005f3a4       ?type_case_c@?$output_processor@_WV?$string_output_adapter@_W@__crt_stdio_output@@V?$positional_parameter_base@_WV?$string_output_adapter@_W@__crt_stdio_output@@@2@@__crt_stdio_output@@AEAA_NXZ 00000001800603a4 f i libucrt:output.obj
 0001:0005f3ac       ?type_case_c@?$output_processor@_WV?$string_output_adapter@_W@__crt_stdio_output@@V?$standard_base@_WV?$string_output_adapter@_W@__crt_stdio_output@@@2@@__crt_stdio_output@@AEAA_NXZ 00000001800603ac f i libucrt:output.obj
 0001:0005f3b4       ?type_case_c_tchar@?$output_processor@DV?$stream_output_adapter@D@__crt_stdio_output@@V?$format_validation_base@DV?$stream_output_adapter@D@__crt_stdio_output@@@2@@__crt_stdio_output@@AEAA_ND@Z 00000001800603b4 f i libucrt:output.obj
 0001:0005f488       ?type_case_c_tchar@?$output_processor@DV?$stream_output_adapter@D@__crt_stdio_output@@V?$positional_parameter_base@DV?$stream_output_adapter@D@__crt_stdio_output@@@2@@__crt_stdio_output@@AEAA_ND@Z 0000000180060488 f i libucrt:output.obj
 0001:0005f5a4       ?type_case_c_tchar@?$output_processor@DV?$stream_output_adapter@D@__crt_stdio_output@@V?$standard_base@DV?$stream_output_adapter@D@__crt_stdio_output@@@2@@__crt_stdio_output@@AEAA_ND@Z 00000001800605a4 f i libucrt:output.obj
 0001:0005f678       ?type_case_c_tchar@?$output_processor@DV?$string_output_adapter@D@__crt_stdio_output@@V?$format_validation_base@DV?$string_output_adapter@D@__crt_stdio_output@@@2@@__crt_stdio_output@@AEAA_ND@Z 0000000180060678 f i libucrt:output.obj
 0001:0005f74c       ?type_case_c_tchar@?$output_processor@DV?$string_output_adapter@D@__crt_stdio_output@@V?$positional_parameter_base@DV?$string_output_adapter@D@__crt_stdio_output@@@2@@__crt_stdio_output@@AEAA_ND@Z 000000018006074c f i libucrt:output.obj
 0001:0005f868       ?type_case_c_tchar@?$output_processor@DV?$string_output_adapter@D@__crt_stdio_output@@V?$standard_base@DV?$string_output_adapter@D@__crt_stdio_output@@@2@@__crt_stdio_output@@AEAA_ND@Z 0000000180060868 f i libucrt:output.obj
 0001:0005f93c       ?type_case_c_tchar@?$output_processor@_WV?$stream_output_adapter@_W@__crt_stdio_output@@V?$format_validation_base@_WV?$stream_output_adapter@_W@__crt_stdio_output@@@2@@__crt_stdio_output@@AEAA_N_W@Z 000000018006093c f i libucrt:output.obj
 0001:0005fa00       ?type_case_c_tchar@?$output_processor@_WV?$stream_output_adapter@_W@__crt_stdio_output@@V?$positional_parameter_base@_WV?$stream_output_adapter@_W@__crt_stdio_output@@@2@@__crt_stdio_output@@AEAA_N_W@Z 0000000180060a00 f i libucrt:output.obj
 0001:0005faf8       ?type_case_c_tchar@?$output_processor@_WV?$stream_output_adapter@_W@__crt_stdio_output@@V?$standard_base@_WV?$stream_output_adapter@_W@__crt_stdio_output@@@2@@__crt_stdio_output@@AEAA_N_W@Z 0000000180060af8 f i libucrt:output.obj
 0001:0005fbbc       ?type_case_c_tchar@?$output_processor@_WV?$string_output_adapter@_W@__crt_stdio_output@@V?$format_validation_base@_WV?$string_output_adapter@_W@__crt_stdio_output@@@2@@__crt_stdio_output@@AEAA_N_W@Z 0000000180060bbc f i libucrt:output.obj
 0001:0005fc80       ?type_case_c_tchar@?$output_processor@_WV?$string_output_adapter@_W@__crt_stdio_output@@V?$positional_parameter_base@_WV?$string_output_adapter@_W@__crt_stdio_output@@@2@@__crt_stdio_output@@AEAA_N_W@Z 0000000180060c80 f i libucrt:output.obj
 0001:0005fd78       ?type_case_c_tchar@?$output_processor@_WV?$string_output_adapter@_W@__crt_stdio_output@@V?$standard_base@_WV?$string_output_adapter@_W@__crt_stdio_output@@@2@@__crt_stdio_output@@AEAA_N_W@Z 0000000180060d78 f i libucrt:output.obj
 0001:0005fe3c       ?type_case_d@?$output_processor@DV?$stream_output_adapter@D@__crt_stdio_output@@V?$format_validation_base@DV?$stream_output_adapter@D@__crt_stdio_output@@@2@@__crt_stdio_output@@AEAA_NXZ 0000000180060e3c f i libucrt:output.obj
 0001:0005fe48       ?type_case_d@?$output_processor@DV?$stream_output_adapter@D@__crt_stdio_output@@V?$positional_parameter_base@DV?$stream_output_adapter@D@__crt_stdio_output@@@2@@__crt_stdio_output@@AEAA_NXZ 0000000180060e48 f i libucrt:output.obj
 0001:0005fe54       ?type_case_d@?$output_processor@DV?$stream_output_adapter@D@__crt_stdio_output@@V?$standard_base@DV?$stream_output_adapter@D@__crt_stdio_output@@@2@@__crt_stdio_output@@AEAA_NXZ 0000000180060e54 f i libucrt:output.obj
 0001:0005fe60       ?type_case_d@?$output_processor@DV?$string_output_adapter@D@__crt_stdio_output@@V?$format_validation_base@DV?$string_output_adapter@D@__crt_stdio_output@@@2@@__crt_stdio_output@@AEAA_NXZ 0000000180060e60 f i libucrt:output.obj
 0001:0005fe6c       ?type_case_d@?$output_processor@DV?$string_output_adapter@D@__crt_stdio_output@@V?$positional_parameter_base@DV?$string_output_adapter@D@__crt_stdio_output@@@2@@__crt_stdio_output@@AEAA_NXZ 0000000180060e6c f i libucrt:output.obj
 0001:0005fe78       ?type_case_d@?$output_processor@DV?$string_output_adapter@D@__crt_stdio_output@@V?$standard_base@DV?$string_output_adapter@D@__crt_stdio_output@@@2@@__crt_stdio_output@@AEAA_NXZ 0000000180060e78 f i libucrt:output.obj
 0001:0005fe84       ?type_case_d@?$output_processor@_WV?$stream_output_adapter@_W@__crt_stdio_output@@V?$format_validation_base@_WV?$stream_output_adapter@_W@__crt_stdio_output@@@2@@__crt_stdio_output@@AEAA_NXZ 0000000180060e84 f i libucrt:output.obj
 0001:0005fe90       ?type_case_d@?$output_processor@_WV?$stream_output_adapter@_W@__crt_stdio_output@@V?$positional_parameter_base@_WV?$stream_output_adapter@_W@__crt_stdio_output@@@2@@__crt_stdio_output@@AEAA_NXZ 0000000180060e90 f i libucrt:output.obj
 0001:0005fe9c       ?type_case_d@?$output_processor@_WV?$stream_output_adapter@_W@__crt_stdio_output@@V?$standard_base@_WV?$stream_output_adapter@_W@__crt_stdio_output@@@2@@__crt_stdio_output@@AEAA_NXZ 0000000180060e9c f i libucrt:output.obj
 0001:0005fea8       ?type_case_d@?$output_processor@_WV?$string_output_adapter@_W@__crt_stdio_output@@V?$format_validation_base@_WV?$string_output_adapter@_W@__crt_stdio_output@@@2@@__crt_stdio_output@@AEAA_NXZ 0000000180060ea8 f i libucrt:output.obj
 0001:0005feb4       ?type_case_d@?$output_processor@_WV?$string_output_adapter@_W@__crt_stdio_output@@V?$positional_parameter_base@_WV?$string_output_adapter@_W@__crt_stdio_output@@@2@@__crt_stdio_output@@AEAA_NXZ 0000000180060eb4 f i libucrt:output.obj
 0001:0005fec0       ?type_case_d@?$output_processor@_WV?$string_output_adapter@_W@__crt_stdio_output@@V?$standard_base@_WV?$string_output_adapter@_W@__crt_stdio_output@@@2@@__crt_stdio_output@@AEAA_NXZ 0000000180060ec0 f i libucrt:output.obj
 0001:0005fecc       ?type_case_n@?$output_processor@DV?$stream_output_adapter@D@__crt_stdio_output@@V?$format_validation_base@DV?$stream_output_adapter@D@__crt_stdio_output@@@2@@__crt_stdio_output@@AEAA_NXZ 0000000180060ecc f i libucrt:output.obj
 0001:0005ff84       ?type_case_n@?$output_processor@DV?$stream_output_adapter@D@__crt_stdio_output@@V?$positional_parameter_base@DV?$stream_output_adapter@D@__crt_stdio_output@@@2@@__crt_stdio_output@@AEAA_NXZ 0000000180060f84 f i libucrt:output.obj
 0001:00060068       ?type_case_n@?$output_processor@DV?$stream_output_adapter@D@__crt_stdio_output@@V?$standard_base@DV?$stream_output_adapter@D@__crt_stdio_output@@@2@@__crt_stdio_output@@AEAA_NXZ 0000000180061068 f i libucrt:output.obj
 0001:00060120       ?type_case_n@?$output_processor@DV?$string_output_adapter@D@__crt_stdio_output@@V?$format_validation_base@DV?$string_output_adapter@D@__crt_stdio_output@@@2@@__crt_stdio_output@@AEAA_NXZ 0000000180061120 f i libucrt:output.obj
 0001:000601d8       ?type_case_n@?$output_processor@DV?$string_output_adapter@D@__crt_stdio_output@@V?$positional_parameter_base@DV?$string_output_adapter@D@__crt_stdio_output@@@2@@__crt_stdio_output@@AEAA_NXZ 00000001800611d8 f i libucrt:output.obj
 0001:000602bc       ?type_case_n@?$output_processor@DV?$string_output_adapter@D@__crt_stdio_output@@V?$standard_base@DV?$string_output_adapter@D@__crt_stdio_output@@@2@@__crt_stdio_output@@AEAA_NXZ 00000001800612bc f i libucrt:output.obj
 0001:00060374       ?type_case_n@?$output_processor@_WV?$stream_output_adapter@_W@__crt_stdio_output@@V?$format_validation_base@_WV?$stream_output_adapter@_W@__crt_stdio_output@@@2@@__crt_stdio_output@@AEAA_NXZ 0000000180061374 f i libucrt:output.obj
 0001:0006042c       ?type_case_n@?$output_processor@_WV?$stream_output_adapter@_W@__crt_stdio_output@@V?$positional_parameter_base@_WV?$stream_output_adapter@_W@__crt_stdio_output@@@2@@__crt_stdio_output@@AEAA_NXZ 000000018006142c f i libucrt:output.obj
 0001:00060510       ?type_case_n@?$output_processor@_WV?$stream_output_adapter@_W@__crt_stdio_output@@V?$standard_base@_WV?$stream_output_adapter@_W@__crt_stdio_output@@@2@@__crt_stdio_output@@AEAA_NXZ 0000000180061510 f i libucrt:output.obj
 0001:000605c8       ?type_case_n@?$output_processor@_WV?$string_output_adapter@_W@__crt_stdio_output@@V?$format_validation_base@_WV?$string_output_adapter@_W@__crt_stdio_output@@@2@@__crt_stdio_output@@AEAA_NXZ 00000001800615c8 f i libucrt:output.obj
 0001:00060680       ?type_case_n@?$output_processor@_WV?$string_output_adapter@_W@__crt_stdio_output@@V?$positional_parameter_base@_WV?$string_output_adapter@_W@__crt_stdio_output@@@2@@__crt_stdio_output@@AEAA_NXZ 0000000180061680 f i libucrt:output.obj
 0001:00060764       ?type_case_n@?$output_processor@_WV?$string_output_adapter@_W@__crt_stdio_output@@V?$standard_base@_WV?$string_output_adapter@_W@__crt_stdio_output@@@2@@__crt_stdio_output@@AEAA_NXZ 0000000180061764 f i libucrt:output.obj
 0001:0006081c       ?type_case_o@?$output_processor@DV?$stream_output_adapter@D@__crt_stdio_output@@V?$format_validation_base@DV?$stream_output_adapter@D@__crt_stdio_output@@@2@@__crt_stdio_output@@AEAA_NXZ 000000018006181c f i libucrt:output.obj
 0001:00060838       ?type_case_o@?$output_processor@DV?$stream_output_adapter@D@__crt_stdio_output@@V?$positional_parameter_base@DV?$stream_output_adapter@D@__crt_stdio_output@@@2@@__crt_stdio_output@@AEAA_NXZ 0000000180061838 f i libucrt:output.obj
 0001:00060854       ?type_case_o@?$output_processor@DV?$stream_output_adapter@D@__crt_stdio_output@@V?$standard_base@DV?$stream_output_adapter@D@__crt_stdio_output@@@2@@__crt_stdio_output@@AEAA_NXZ 0000000180061854 f i libucrt:output.obj
 0001:00060870       ?type_case_o@?$output_processor@DV?$string_output_adapter@D@__crt_stdio_output@@V?$format_validation_base@DV?$string_output_adapter@D@__crt_stdio_output@@@2@@__crt_stdio_output@@AEAA_NXZ 0000000180061870 f i libucrt:output.obj
 0001:0006088c       ?type_case_o@?$output_processor@DV?$string_output_adapter@D@__crt_stdio_output@@V?$positional_parameter_base@DV?$string_output_adapter@D@__crt_stdio_output@@@2@@__crt_stdio_output@@AEAA_NXZ 000000018006188c f i libucrt:output.obj
 0001:000608a8       ?type_case_o@?$output_processor@DV?$string_output_adapter@D@__crt_stdio_output@@V?$standard_base@DV?$string_output_adapter@D@__crt_stdio_output@@@2@@__crt_stdio_output@@AEAA_NXZ 00000001800618a8 f i libucrt:output.obj
 0001:000608c4       ?type_case_o@?$output_processor@_WV?$stream_output_adapter@_W@__crt_stdio_output@@V?$format_validation_base@_WV?$stream_output_adapter@_W@__crt_stdio_output@@@2@@__crt_stdio_output@@AEAA_NXZ 00000001800618c4 f i libucrt:output.obj
 0001:000608e0       ?type_case_o@?$output_processor@_WV?$stream_output_adapter@_W@__crt_stdio_output@@V?$positional_parameter_base@_WV?$stream_output_adapter@_W@__crt_stdio_output@@@2@@__crt_stdio_output@@AEAA_NXZ 00000001800618e0 f i libucrt:output.obj
 0001:000608fc       ?type_case_o@?$output_processor@_WV?$stream_output_adapter@_W@__crt_stdio_output@@V?$standard_base@_WV?$stream_output_adapter@_W@__crt_stdio_output@@@2@@__crt_stdio_output@@AEAA_NXZ 00000001800618fc f i libucrt:output.obj
 0001:00060918       ?type_case_o@?$output_processor@_WV?$string_output_adapter@_W@__crt_stdio_output@@V?$format_validation_base@_WV?$string_output_adapter@_W@__crt_stdio_output@@@2@@__crt_stdio_output@@AEAA_NXZ 0000000180061918 f i libucrt:output.obj
 0001:00060934       ?type_case_o@?$output_processor@_WV?$string_output_adapter@_W@__crt_stdio_output@@V?$positional_parameter_base@_WV?$string_output_adapter@_W@__crt_stdio_output@@@2@@__crt_stdio_output@@AEAA_NXZ 0000000180061934 f i libucrt:output.obj
 0001:00060950       ?type_case_o@?$output_processor@_WV?$string_output_adapter@_W@__crt_stdio_output@@V?$standard_base@_WV?$string_output_adapter@_W@__crt_stdio_output@@@2@@__crt_stdio_output@@AEAA_NXZ 0000000180061950 f i libucrt:output.obj
 0001:0006096c       ?type_case_p@?$output_processor@DV?$stream_output_adapter@D@__crt_stdio_output@@V?$format_validation_base@DV?$stream_output_adapter@D@__crt_stdio_output@@@2@@__crt_stdio_output@@AEAA_NXZ 000000018006196c f i libucrt:output.obj
 0001:00060984       ?type_case_p@?$output_processor@DV?$stream_output_adapter@D@__crt_stdio_output@@V?$positional_parameter_base@DV?$stream_output_adapter@D@__crt_stdio_output@@@2@@__crt_stdio_output@@AEAA_NXZ 0000000180061984 f i libucrt:output.obj
 0001:0006099c       ?type_case_p@?$output_processor@DV?$stream_output_adapter@D@__crt_stdio_output@@V?$standard_base@DV?$stream_output_adapter@D@__crt_stdio_output@@@2@@__crt_stdio_output@@AEAA_NXZ 000000018006199c f i libucrt:output.obj
 0001:000609b4       ?type_case_p@?$output_processor@DV?$string_output_adapter@D@__crt_stdio_output@@V?$format_validation_base@DV?$string_output_adapter@D@__crt_stdio_output@@@2@@__crt_stdio_output@@AEAA_NXZ 00000001800619b4 f i libucrt:output.obj
 0001:000609cc       ?type_case_p@?$output_processor@DV?$string_output_adapter@D@__crt_stdio_output@@V?$positional_parameter_base@DV?$string_output_adapter@D@__crt_stdio_output@@@2@@__crt_stdio_output@@AEAA_NXZ 00000001800619cc f i libucrt:output.obj
 0001:000609e4       ?type_case_p@?$output_processor@DV?$string_output_adapter@D@__crt_stdio_output@@V?$standard_base@DV?$string_output_adapter@D@__crt_stdio_output@@@2@@__crt_stdio_output@@AEAA_NXZ 00000001800619e4 f i libucrt:output.obj
 0001:000609fc       ?type_case_p@?$output_processor@_WV?$stream_output_adapter@_W@__crt_stdio_output@@V?$format_validation_base@_WV?$stream_output_adapter@_W@__crt_stdio_output@@@2@@__crt_stdio_output@@AEAA_NXZ 00000001800619fc f i libucrt:output.obj
 0001:00060a14       ?type_case_p@?$output_processor@_WV?$stream_output_adapter@_W@__crt_stdio_output@@V?$positional_parameter_base@_WV?$stream_output_adapter@_W@__crt_stdio_output@@@2@@__crt_stdio_output@@AEAA_NXZ 0000000180061a14 f i libucrt:output.obj
 0001:00060a2c       ?type_case_p@?$output_processor@_WV?$stream_output_adapter@_W@__crt_stdio_output@@V?$standard_base@_WV?$stream_output_adapter@_W@__crt_stdio_output@@@2@@__crt_stdio_output@@AEAA_NXZ 0000000180061a2c f i libucrt:output.obj
 0001:00060a44       ?type_case_p@?$output_processor@_WV?$string_output_adapter@_W@__crt_stdio_output@@V?$format_validation_base@_WV?$string_output_adapter@_W@__crt_stdio_output@@@2@@__crt_stdio_output@@AEAA_NXZ 0000000180061a44 f i libucrt:output.obj
 0001:00060a5c       ?type_case_p@?$output_processor@_WV?$string_output_adapter@_W@__crt_stdio_output@@V?$positional_parameter_base@_WV?$string_output_adapter@_W@__crt_stdio_output@@@2@@__crt_stdio_output@@AEAA_NXZ 0000000180061a5c f i libucrt:output.obj
 0001:00060a74       ?type_case_p@?$output_processor@_WV?$string_output_adapter@_W@__crt_stdio_output@@V?$standard_base@_WV?$string_output_adapter@_W@__crt_stdio_output@@@2@@__crt_stdio_output@@AEAA_NXZ 0000000180061a74 f i libucrt:output.obj
 0001:00060a8c       ?type_case_s@?$output_processor@DV?$stream_output_adapter@D@__crt_stdio_output@@V?$format_validation_base@DV?$stream_output_adapter@D@__crt_stdio_output@@@2@@__crt_stdio_output@@AEAA_NXZ 0000000180061a8c f i libucrt:output.obj
 0001:00060b28       ?type_case_s@?$output_processor@DV?$stream_output_adapter@D@__crt_stdio_output@@V?$positional_parameter_base@DV?$stream_output_adapter@D@__crt_stdio_output@@@2@@__crt_stdio_output@@AEAA_NXZ 0000000180061b28 f i libucrt:output.obj
 0001:00060be4       ?type_case_s@?$output_processor@DV?$stream_output_adapter@D@__crt_stdio_output@@V?$standard_base@DV?$stream_output_adapter@D@__crt_stdio_output@@@2@@__crt_stdio_output@@AEAA_NXZ 0000000180061be4 f i libucrt:output.obj
 0001:00060c80       ?type_case_s@?$output_processor@DV?$string_output_adapter@D@__crt_stdio_output@@V?$format_validation_base@DV?$string_output_adapter@D@__crt_stdio_output@@@2@@__crt_stdio_output@@AEAA_NXZ 0000000180061c80 f i libucrt:output.obj
 0001:00060d1c       ?type_case_s@?$output_processor@DV?$string_output_adapter@D@__crt_stdio_output@@V?$positional_parameter_base@DV?$string_output_adapter@D@__crt_stdio_output@@@2@@__crt_stdio_output@@AEAA_NXZ 0000000180061d1c f i libucrt:output.obj
 0001:00060dd8       ?type_case_s@?$output_processor@DV?$string_output_adapter@D@__crt_stdio_output@@V?$standard_base@DV?$string_output_adapter@D@__crt_stdio_output@@@2@@__crt_stdio_output@@AEAA_NXZ 0000000180061dd8 f i libucrt:output.obj
 0001:00060e74       ?type_case_s@?$output_processor@_WV?$stream_output_adapter@_W@__crt_stdio_output@@V?$format_validation_base@_WV?$stream_output_adapter@_W@__crt_stdio_output@@@2@@__crt_stdio_output@@AEAA_NXZ 0000000180061e74 f i libucrt:output.obj
 0001:00060f10       ?type_case_s@?$output_processor@_WV?$stream_output_adapter@_W@__crt_stdio_output@@V?$positional_parameter_base@_WV?$stream_output_adapter@_W@__crt_stdio_output@@@2@@__crt_stdio_output@@AEAA_NXZ 0000000180061f10 f i libucrt:output.obj
 0001:00060fc4       ?type_case_s@?$output_processor@_WV?$stream_output_adapter@_W@__crt_stdio_output@@V?$standard_base@_WV?$stream_output_adapter@_W@__crt_stdio_output@@@2@@__crt_stdio_output@@AEAA_NXZ 0000000180061fc4 f i libucrt:output.obj
 0001:00061060       ?type_case_s@?$output_processor@_WV?$string_output_adapter@_W@__crt_stdio_output@@V?$format_validation_base@_WV?$string_output_adapter@_W@__crt_stdio_output@@@2@@__crt_stdio_output@@AEAA_NXZ 0000000180062060 f i libucrt:output.obj
 0001:000610fc       ?type_case_s@?$output_processor@_WV?$string_output_adapter@_W@__crt_stdio_output@@V?$positional_parameter_base@_WV?$string_output_adapter@_W@__crt_stdio_output@@@2@@__crt_stdio_output@@AEAA_NXZ 00000001800620fc f i libucrt:output.obj
 0001:000611b0       ?type_case_s@?$output_processor@_WV?$string_output_adapter@_W@__crt_stdio_output@@V?$standard_base@_WV?$string_output_adapter@_W@__crt_stdio_output@@@2@@__crt_stdio_output@@AEAA_NXZ 00000001800621b0 f i libucrt:output.obj
 0001:0006124c       ?type_case_s_compute_narrow_string_length@?$output_processor@DV?$stream_output_adapter@D@__crt_stdio_output@@V?$format_validation_base@DV?$stream_output_adapter@D@__crt_stdio_output@@@2@@__crt_stdio_output@@AEAAHHD@Z 000000018006224c f i libucrt:output.obj
 0001:00061258       ?type_case_s_compute_narrow_string_length@?$output_processor@DV?$stream_output_adapter@D@__crt_stdio_output@@V?$positional_parameter_base@DV?$stream_output_adapter@D@__crt_stdio_output@@@2@@__crt_stdio_output@@AEAAHHD@Z 0000000180062258 f i libucrt:output.obj
 0001:00061264       ?type_case_s_compute_narrow_string_length@?$output_processor@DV?$stream_output_adapter@D@__crt_stdio_output@@V?$standard_base@DV?$stream_output_adapter@D@__crt_stdio_output@@@2@@__crt_stdio_output@@AEAAHHD@Z 0000000180062264 f i libucrt:output.obj
 0001:00061270       ?type_case_s_compute_narrow_string_length@?$output_processor@DV?$string_output_adapter@D@__crt_stdio_output@@V?$format_validation_base@DV?$string_output_adapter@D@__crt_stdio_output@@@2@@__crt_stdio_output@@AEAAHHD@Z 0000000180062270 f i libucrt:output.obj
 0001:0006127c       ?type_case_s_compute_narrow_string_length@?$output_processor@DV?$string_output_adapter@D@__crt_stdio_output@@V?$positional_parameter_base@DV?$string_output_adapter@D@__crt_stdio_output@@@2@@__crt_stdio_output@@AEAAHHD@Z 000000018006227c f i libucrt:output.obj
 0001:00061288       ?type_case_s_compute_narrow_string_length@?$output_processor@DV?$string_output_adapter@D@__crt_stdio_output@@V?$standard_base@DV?$string_output_adapter@D@__crt_stdio_output@@@2@@__crt_stdio_output@@AEAAHHD@Z 0000000180062288 f i libucrt:output.obj
 0001:00061294       ?type_case_s_compute_narrow_string_length@?$output_processor@_WV?$stream_output_adapter@_W@__crt_stdio_output@@V?$format_validation_base@_WV?$stream_output_adapter@_W@__crt_stdio_output@@@2@@__crt_stdio_output@@AEAAHH_W@Z 0000000180062294 f i libucrt:output.obj
 0001:00061308       ?type_case_s_compute_narrow_string_length@?$output_processor@_WV?$stream_output_adapter@_W@__crt_stdio_output@@V?$positional_parameter_base@_WV?$stream_output_adapter@_W@__crt_stdio_output@@@2@@__crt_stdio_output@@AEAAHH_W@Z 0000000180062308 f i libucrt:output.obj
 0001:0006137c       ?type_case_s_compute_narrow_string_length@?$output_processor@_WV?$stream_output_adapter@_W@__crt_stdio_output@@V?$standard_base@_WV?$stream_output_adapter@_W@__crt_stdio_output@@@2@@__crt_stdio_output@@AEAAHH_W@Z 000000018006237c f i libucrt:output.obj
 0001:000613f0       ?type_case_s_compute_narrow_string_length@?$output_processor@_WV?$string_output_adapter@_W@__crt_stdio_output@@V?$format_validation_base@_WV?$string_output_adapter@_W@__crt_stdio_output@@@2@@__crt_stdio_output@@AEAAHH_W@Z 00000001800623f0 f i libucrt:output.obj
 0001:00061464       ?type_case_s_compute_narrow_string_length@?$output_processor@_WV?$string_output_adapter@_W@__crt_stdio_output@@V?$positional_parameter_base@_WV?$string_output_adapter@_W@__crt_stdio_output@@@2@@__crt_stdio_output@@AEAAHH_W@Z 0000000180062464 f i libucrt:output.obj
 0001:000614d8       ?type_case_s_compute_narrow_string_length@?$output_processor@_WV?$string_output_adapter@_W@__crt_stdio_output@@V?$standard_base@_WV?$string_output_adapter@_W@__crt_stdio_output@@@2@@__crt_stdio_output@@AEAAHH_W@Z 00000001800624d8 f i libucrt:output.obj
 0001:0006154c       ?type_case_u@?$output_processor@DV?$stream_output_adapter@D@__crt_stdio_output@@V?$format_validation_base@DV?$stream_output_adapter@D@__crt_stdio_output@@@2@@__crt_stdio_output@@AEAA_NXZ 000000018006254c f i libucrt:output.obj
 0001:00061554       ?type_case_u@?$output_processor@DV?$stream_output_adapter@D@__crt_stdio_output@@V?$positional_parameter_base@DV?$stream_output_adapter@D@__crt_stdio_output@@@2@@__crt_stdio_output@@AEAA_NXZ 0000000180062554 f i libucrt:output.obj
 0001:0006155c       ?type_case_u@?$output_processor@DV?$stream_output_adapter@D@__crt_stdio_output@@V?$standard_base@DV?$stream_output_adapter@D@__crt_stdio_output@@@2@@__crt_stdio_output@@AEAA_NXZ 000000018006255c f i libucrt:output.obj
 0001:00061564       ?type_case_u@?$output_processor@DV?$string_output_adapter@D@__crt_stdio_output@@V?$format_validation_base@DV?$string_output_adapter@D@__crt_stdio_output@@@2@@__crt_stdio_output@@AEAA_NXZ 0000000180062564 f i libucrt:output.obj
 0001:0006156c       ?type_case_u@?$output_processor@DV?$string_output_adapter@D@__crt_stdio_output@@V?$positional_parameter_base@DV?$string_output_adapter@D@__crt_stdio_output@@@2@@__crt_stdio_output@@AEAA_NXZ 000000018006256c f i libucrt:output.obj
 0001:00061574       ?type_case_u@?$output_processor@DV?$string_output_adapter@D@__crt_stdio_output@@V?$standard_base@DV?$string_output_adapter@D@__crt_stdio_output@@@2@@__crt_stdio_output@@AEAA_NXZ 0000000180062574 f i libucrt:output.obj
 0001:0006157c       ?type_case_u@?$output_processor@_WV?$stream_output_adapter@_W@__crt_stdio_output@@V?$format_validation_base@_WV?$stream_output_adapter@_W@__crt_stdio_output@@@2@@__crt_stdio_output@@AEAA_NXZ 000000018006257c f i libucrt:output.obj
 0001:00061584       ?type_case_u@?$output_processor@_WV?$stream_output_adapter@_W@__crt_stdio_output@@V?$positional_parameter_base@_WV?$stream_output_adapter@_W@__crt_stdio_output@@@2@@__crt_stdio_output@@AEAA_NXZ 0000000180062584 f i libucrt:output.obj
 0001:0006158c       ?type_case_u@?$output_processor@_WV?$stream_output_adapter@_W@__crt_stdio_output@@V?$standard_base@_WV?$stream_output_adapter@_W@__crt_stdio_output@@@2@@__crt_stdio_output@@AEAA_NXZ 000000018006258c f i libucrt:output.obj
 0001:00061594       ?type_case_u@?$output_processor@_WV?$string_output_adapter@_W@__crt_stdio_output@@V?$format_validation_base@_WV?$string_output_adapter@_W@__crt_stdio_output@@@2@@__crt_stdio_output@@AEAA_NXZ 0000000180062594 f i libucrt:output.obj
 0001:0006159c       ?type_case_u@?$output_processor@_WV?$string_output_adapter@_W@__crt_stdio_output@@V?$positional_parameter_base@_WV?$string_output_adapter@_W@__crt_stdio_output@@@2@@__crt_stdio_output@@AEAA_NXZ 000000018006259c f i libucrt:output.obj
 0001:000615a4       ?type_case_u@?$output_processor@_WV?$string_output_adapter@_W@__crt_stdio_output@@V?$standard_base@_WV?$string_output_adapter@_W@__crt_stdio_output@@@2@@__crt_stdio_output@@AEAA_NXZ 00000001800625a4 f i libucrt:output.obj
 0001:000615ac       ?type_case_x@?$output_processor@DV?$stream_output_adapter@D@__crt_stdio_output@@V?$format_validation_base@DV?$stream_output_adapter@D@__crt_stdio_output@@@2@@__crt_stdio_output@@AEAA_NXZ 00000001800625ac f i libucrt:output.obj
 0001:000615b4       ?type_case_x@?$output_processor@DV?$stream_output_adapter@D@__crt_stdio_output@@V?$positional_parameter_base@DV?$stream_output_adapter@D@__crt_stdio_output@@@2@@__crt_stdio_output@@AEAA_NXZ 00000001800625b4 f i libucrt:output.obj
 0001:000615bc       ?type_case_x@?$output_processor@DV?$stream_output_adapter@D@__crt_stdio_output@@V?$standard_base@DV?$stream_output_adapter@D@__crt_stdio_output@@@2@@__crt_stdio_output@@AEAA_NXZ 00000001800625bc f i libucrt:output.obj
 0001:000615c4       ?type_case_x@?$output_processor@DV?$string_output_adapter@D@__crt_stdio_output@@V?$format_validation_base@DV?$string_output_adapter@D@__crt_stdio_output@@@2@@__crt_stdio_output@@AEAA_NXZ 00000001800625c4 f i libucrt:output.obj
 0001:000615cc       ?type_case_x@?$output_processor@DV?$string_output_adapter@D@__crt_stdio_output@@V?$positional_parameter_base@DV?$string_output_adapter@D@__crt_stdio_output@@@2@@__crt_stdio_output@@AEAA_NXZ 00000001800625cc f i libucrt:output.obj
 0001:000615d4       ?type_case_x@?$output_processor@DV?$string_output_adapter@D@__crt_stdio_output@@V?$standard_base@DV?$string_output_adapter@D@__crt_stdio_output@@@2@@__crt_stdio_output@@AEAA_NXZ 00000001800625d4 f i libucrt:output.obj
 0001:000615dc       ?type_case_x@?$output_processor@_WV?$stream_output_adapter@_W@__crt_stdio_output@@V?$format_validation_base@_WV?$stream_output_adapter@_W@__crt_stdio_output@@@2@@__crt_stdio_output@@AEAA_NXZ 00000001800625dc f i libucrt:output.obj
 0001:000615e4       ?type_case_x@?$output_processor@_WV?$stream_output_adapter@_W@__crt_stdio_output@@V?$positional_parameter_base@_WV?$stream_output_adapter@_W@__crt_stdio_output@@@2@@__crt_stdio_output@@AEAA_NXZ 00000001800625e4 f i libucrt:output.obj
 0001:000615ec       ?type_case_x@?$output_processor@_WV?$stream_output_adapter@_W@__crt_stdio_output@@V?$standard_base@_WV?$stream_output_adapter@_W@__crt_stdio_output@@@2@@__crt_stdio_output@@AEAA_NXZ 00000001800625ec f i libucrt:output.obj
 0001:000615f4       ?type_case_x@?$output_processor@_WV?$string_output_adapter@_W@__crt_stdio_output@@V?$format_validation_base@_WV?$string_output_adapter@_W@__crt_stdio_output@@@2@@__crt_stdio_output@@AEAA_NXZ 00000001800625f4 f i libucrt:output.obj
 0001:000615fc       ?type_case_x@?$output_processor@_WV?$string_output_adapter@_W@__crt_stdio_output@@V?$positional_parameter_base@_WV?$string_output_adapter@_W@__crt_stdio_output@@@2@@__crt_stdio_output@@AEAA_NXZ 00000001800625fc f i libucrt:output.obj
 0001:00061604       ?type_case_x@?$output_processor@_WV?$string_output_adapter@_W@__crt_stdio_output@@V?$standard_base@_WV?$string_output_adapter@_W@__crt_stdio_output@@@2@@__crt_stdio_output@@AEAA_NXZ 0000000180062604 f i libucrt:output.obj
 0001:0006160c       ?unget@?$c_string_character_source@D@__crt_strtox@@QEAAXD@Z 000000018006260c f i libucrt:output.obj
 0001:00061638       ?unget@?$c_string_character_source@_W@__crt_strtox@@QEAAX_W@Z 0000000180062638 f i libucrt:output.obj
 0001:00061668       ?unsafe_value@?$cached@H@__crt_cached_ptd_host@@QEAAHXZ 0000000180062668 f i libucrt:output.obj
 0001:0006166c       ?unsafe_value@?$cached@K@__crt_cached_ptd_host@@QEAAKXZ 000000018006266c f i libucrt:output.obj
 0001:00061670       ?unset_flag@?$output_processor@DV?$stream_output_adapter@D@__crt_stdio_output@@V?$format_validation_base@DV?$stream_output_adapter@D@__crt_stdio_output@@@2@@__crt_stdio_output@@AEAAXI@Z 0000000180062670 f i libucrt:output.obj
 0001:00061678       ?unset_flag@?$output_processor@DV?$stream_output_adapter@D@__crt_stdio_output@@V?$positional_parameter_base@DV?$stream_output_adapter@D@__crt_stdio_output@@@2@@__crt_stdio_output@@AEAAXI@Z 0000000180062678 f i libucrt:output.obj
 0001:00061680       ?unset_flag@?$output_processor@DV?$stream_output_adapter@D@__crt_stdio_output@@V?$standard_base@DV?$stream_output_adapter@D@__crt_stdio_output@@@2@@__crt_stdio_output@@AEAAXI@Z 0000000180062680 f i libucrt:output.obj
 0001:00061688       ?unset_flag@?$output_processor@DV?$string_output_adapter@D@__crt_stdio_output@@V?$format_validation_base@DV?$string_output_adapter@D@__crt_stdio_output@@@2@@__crt_stdio_output@@AEAAXI@Z 0000000180062688 f i libucrt:output.obj
 0001:00061690       ?unset_flag@?$output_processor@DV?$string_output_adapter@D@__crt_stdio_output@@V?$positional_parameter_base@DV?$string_output_adapter@D@__crt_stdio_output@@@2@@__crt_stdio_output@@AEAAXI@Z 0000000180062690 f i libucrt:output.obj
 0001:00061698       ?unset_flag@?$output_processor@DV?$string_output_adapter@D@__crt_stdio_output@@V?$standard_base@DV?$string_output_adapter@D@__crt_stdio_output@@@2@@__crt_stdio_output@@AEAAXI@Z 0000000180062698 f i libucrt:output.obj
 0001:000616a0       ?unset_flag@?$output_processor@_WV?$stream_output_adapter@_W@__crt_stdio_output@@V?$format_validation_base@_WV?$stream_output_adapter@_W@__crt_stdio_output@@@2@@__crt_stdio_output@@AEAAXI@Z 00000001800626a0 f i libucrt:output.obj
 0001:000616a8       ?unset_flag@?$output_processor@_WV?$stream_output_adapter@_W@__crt_stdio_output@@V?$positional_parameter_base@_WV?$stream_output_adapter@_W@__crt_stdio_output@@@2@@__crt_stdio_output@@AEAAXI@Z 00000001800626a8 f i libucrt:output.obj
 0001:000616b0       ?unset_flag@?$output_processor@_WV?$stream_output_adapter@_W@__crt_stdio_output@@V?$standard_base@_WV?$stream_output_adapter@_W@__crt_stdio_output@@@2@@__crt_stdio_output@@AEAAXI@Z 00000001800626b0 f i libucrt:output.obj
 0001:000616b8       ?unset_flag@?$output_processor@_WV?$string_output_adapter@_W@__crt_stdio_output@@V?$format_validation_base@_WV?$string_output_adapter@_W@__crt_stdio_output@@@2@@__crt_stdio_output@@AEAAXI@Z 00000001800626b8 f i libucrt:output.obj
 0001:000616c0       ?unset_flag@?$output_processor@_WV?$string_output_adapter@_W@__crt_stdio_output@@V?$positional_parameter_base@_WV?$string_output_adapter@_W@__crt_stdio_output@@@2@@__crt_stdio_output@@AEAAXI@Z 00000001800626c0 f i libucrt:output.obj
 0001:000616c8       ?unset_flag@?$output_processor@_WV?$string_output_adapter@_W@__crt_stdio_output@@V?$standard_base@_WV?$string_output_adapter@_W@__crt_stdio_output@@@2@@__crt_stdio_output@@AEAAXI@Z 00000001800626c8 f i libucrt:output.obj
 0001:000616d0       ?update_field_width@?$positional_parameter_base@DV?$stream_output_adapter@D@__crt_stdio_output@@@__crt_stdio_output@@IEAA_NXZ 00000001800626d0 f i libucrt:output.obj
 0001:00061840       ?update_field_width@?$positional_parameter_base@DV?$string_output_adapter@D@__crt_stdio_output@@@__crt_stdio_output@@IEAA_NXZ 0000000180062840 f i libucrt:output.obj
 0001:000619b0       ?update_field_width@?$positional_parameter_base@_WV?$stream_output_adapter@_W@__crt_stdio_output@@@__crt_stdio_output@@IEAA_NXZ 00000001800629b0 f i libucrt:output.obj
 0001:00061b24       ?update_field_width@?$positional_parameter_base@_WV?$string_output_adapter@_W@__crt_stdio_output@@@__crt_stdio_output@@IEAA_NXZ 0000000180062b24 f i libucrt:output.obj
 0001:00061c98       ?update_field_width@?$standard_base@DV?$stream_output_adapter@D@__crt_stdio_output@@@__crt_stdio_output@@IEAA_NXZ 0000000180062c98 f i libucrt:output.obj
 0001:00061cac       ?update_field_width@?$standard_base@DV?$string_output_adapter@D@__crt_stdio_output@@@__crt_stdio_output@@IEAA_NXZ 0000000180062cac f i libucrt:output.obj
 0001:00061cc0       ?update_field_width@?$standard_base@_WV?$stream_output_adapter@_W@__crt_stdio_output@@@__crt_stdio_output@@IEAA_NXZ 0000000180062cc0 f i libucrt:output.obj
 0001:00061cd4       ?update_field_width@?$standard_base@_WV?$string_output_adapter@_W@__crt_stdio_output@@@__crt_stdio_output@@IEAA_NXZ 0000000180062cd4 f i libucrt:output.obj
 0001:00061cf0       ?update_locale@__crt_cached_ptd_host@@AEAAXXZ 0000000180062cf0 f i libucrt:output.obj
 0001:00061d00       ?update_locale_slow@__crt_cached_ptd_host@@AEAAXXZ 0000000180062d00 f i libucrt:output.obj
 0001:00061d78       ?update_precision@?$positional_parameter_base@DV?$stream_output_adapter@D@__crt_stdio_output@@@__crt_stdio_output@@IEAA_NXZ 0000000180062d78 f i libucrt:output.obj
 0001:00061ee8       ?update_precision@?$positional_parameter_base@DV?$string_output_adapter@D@__crt_stdio_output@@@__crt_stdio_output@@IEAA_NXZ 0000000180062ee8 f i libucrt:output.obj
 0001:00062058       ?update_precision@?$positional_parameter_base@_WV?$stream_output_adapter@_W@__crt_stdio_output@@@__crt_stdio_output@@IEAA_NXZ 0000000180063058 f i libucrt:output.obj
 0001:000621cc       ?update_precision@?$positional_parameter_base@_WV?$string_output_adapter@_W@__crt_stdio_output@@@__crt_stdio_output@@IEAA_NXZ 00000001800631cc f i libucrt:output.obj
 0001:00062340       ?update_precision@?$standard_base@DV?$stream_output_adapter@D@__crt_stdio_output@@@__crt_stdio_output@@IEAA_NXZ 0000000180063340 f i libucrt:output.obj
 0001:00062354       ?update_precision@?$standard_base@DV?$string_output_adapter@D@__crt_stdio_output@@@__crt_stdio_output@@IEAA_NXZ 0000000180063354 f i libucrt:output.obj
 0001:00062368       ?update_precision@?$standard_base@_WV?$stream_output_adapter@_W@__crt_stdio_output@@@__crt_stdio_output@@IEAA_NXZ 0000000180063368 f i libucrt:output.obj
 0001:0006237c       ?update_precision@?$standard_base@_WV?$string_output_adapter@_W@__crt_stdio_output@@@__crt_stdio_output@@IEAA_NXZ 000000018006337c f i libucrt:output.obj
 0001:00062390       ?valid@?$cached@H@__crt_cached_ptd_host@@QEBA_NXZ 0000000180063390 f i libucrt:output.obj
 0001:00062394       ?valid@?$cached@K@__crt_cached_ptd_host@@QEBA_NXZ 0000000180063394 f i libucrt:output.obj
 0001:00062398       ?valid@__crt_stdio_stream@@QEBA_NXZ 0000000180063398 f i libucrt:output.obj
 0001:000623a0       ?validate@?$c_string_character_source@D@__crt_strtox@@QEBA_NXZ 00000001800633a0 f i libucrt:output.obj
 0001:000623c8       ?validate@?$c_string_character_source@_W@__crt_strtox@@QEBA_NXZ 00000001800633c8 f i libucrt:output.obj
 0001:000623f0       ?validate@?$stream_output_adapter@D@__crt_stdio_output@@QEBA_NAEAV__crt_cached_ptd_host@@@Z 00000001800633f0 f i libucrt:output.obj
 0001:00062430       ?validate@?$stream_output_adapter@_W@__crt_stdio_output@@QEBA_NAEAV__crt_cached_ptd_host@@@Z 0000000180063430 f i libucrt:output.obj
 0001:0006246c       ?validate@?$string_output_adapter@D@__crt_stdio_output@@QEBA_NAEAV__crt_cached_ptd_host@@@Z 000000018006346c f i libucrt:output.obj
 0001:000624a8       ?validate@?$string_output_adapter@_W@__crt_stdio_output@@QEBA_NAEAV__crt_cached_ptd_host@@@Z 00000001800634a8 f i libucrt:output.obj
 0001:000624e4       ?validate_and_store_parameter_data@?$positional_parameter_base@DV?$stream_output_adapter@D@__crt_stdio_output@@@__crt_stdio_output@@AEAA_NAEAUparameter_data@12@W4parameter_type@12@DW4length_modifier@2@@Z 00000001800634e4 f i libucrt:output.obj
 0001:00062548       ?validate_and_store_parameter_data@?$positional_parameter_base@DV?$string_output_adapter@D@__crt_stdio_output@@@__crt_stdio_output@@AEAA_NAEAUparameter_data@12@W4parameter_type@12@DW4length_modifier@2@@Z 0000000180063548 f i libucrt:output.obj
 0001:000625ac       ?validate_and_store_parameter_data@?$positional_parameter_base@_WV?$stream_output_adapter@_W@__crt_stdio_output@@@__crt_stdio_output@@AEAA_NAEAUparameter_data@12@W4parameter_type@12@_WW4length_modifier@2@@Z 00000001800635ac f i libucrt:output.obj
 0001:00062610       ?validate_and_store_parameter_data@?$positional_parameter_base@_WV?$string_output_adapter@_W@__crt_stdio_output@@@__crt_stdio_output@@AEAA_NAEAUparameter_data@12@W4parameter_type@12@_WW4length_modifier@2@@Z 0000000180063610 f i libucrt:output.obj
 0001:00062674       ?validate_and_update_state_at_beginning_of_format_character@?$positional_parameter_base@DV?$stream_output_adapter@D@__crt_stdio_output@@@__crt_stdio_output@@IEAA_NXZ 0000000180063674 f i libucrt:output.obj
 0001:000627b8       ?validate_and_update_state_at_beginning_of_format_character@?$positional_parameter_base@DV?$string_output_adapter@D@__crt_stdio_output@@@__crt_stdio_output@@IEAA_NXZ 00000001800637b8 f i libucrt:output.obj
 0001:000628fc       ?validate_and_update_state_at_beginning_of_format_character@?$positional_parameter_base@_WV?$stream_output_adapter@_W@__crt_stdio_output@@@__crt_stdio_output@@IEAA_NXZ 00000001800638fc f i libucrt:output.obj
 0001:00062a4c       ?validate_and_update_state_at_beginning_of_format_character@?$positional_parameter_base@_WV?$string_output_adapter@_W@__crt_stdio_output@@@__crt_stdio_output@@IEAA_NXZ 0000000180063a4c f i libucrt:output.obj
 0001:00062b9c       ?validate_and_update_state_at_beginning_of_format_character@?$standard_base@DV?$stream_output_adapter@D@__crt_stdio_output@@@__crt_stdio_output@@IEAA_NXZ 0000000180063b9c f i libucrt:output.obj
 0001:00062ba0       ?validate_and_update_state_at_beginning_of_format_character@?$standard_base@DV?$string_output_adapter@D@__crt_stdio_output@@@__crt_stdio_output@@IEAA_NXZ 0000000180063ba0 f i libucrt:output.obj
 0001:00062ba4       ?validate_and_update_state_at_beginning_of_format_character@?$standard_base@_WV?$stream_output_adapter@_W@__crt_stdio_output@@@__crt_stdio_output@@IEAA_NXZ 0000000180063ba4 f i libucrt:output.obj
 0001:00062ba8       ?validate_and_update_state_at_beginning_of_format_character@?$standard_base@_WV?$string_output_adapter@_W@__crt_stdio_output@@@__crt_stdio_output@@IEAA_NXZ 0000000180063ba8 f i libucrt:output.obj
 0001:00062bac       ?validate_and_update_state_at_end_of_format_string@?$format_validation_base@DV?$stream_output_adapter@D@__crt_stdio_output@@@__crt_stdio_output@@IEAA_NXZ 0000000180063bac f i libucrt:output.obj
 0001:00062bf4       ?validate_and_update_state_at_end_of_format_string@?$format_validation_base@DV?$string_output_adapter@D@__crt_stdio_output@@@__crt_stdio_output@@IEAA_NXZ 0000000180063bf4 f i libucrt:output.obj
 0001:00062c3c       ?validate_and_update_state_at_end_of_format_string@?$format_validation_base@_WV?$stream_output_adapter@_W@__crt_stdio_output@@@__crt_stdio_output@@IEAA_NXZ 0000000180063c3c f i libucrt:output.obj
 0001:00062c84       ?validate_and_update_state_at_end_of_format_string@?$format_validation_base@_WV?$string_output_adapter@_W@__crt_stdio_output@@@__crt_stdio_output@@IEAA_NXZ 0000000180063c84 f i libucrt:output.obj
 0001:00062ccc       ?validate_and_update_state_at_end_of_format_string@?$positional_parameter_base@DV?$stream_output_adapter@D@__crt_stdio_output@@@__crt_stdio_output@@IEAA_NXZ 0000000180063ccc f i libucrt:output.obj
 0001:00062d84       ?validate_and_update_state_at_end_of_format_string@?$positional_parameter_base@DV?$string_output_adapter@D@__crt_stdio_output@@@__crt_stdio_output@@IEAA_NXZ 0000000180063d84 f i libucrt:output.obj
 0001:00062e3c       ?validate_and_update_state_at_end_of_format_string@?$positional_parameter_base@_WV?$stream_output_adapter@_W@__crt_stdio_output@@@__crt_stdio_output@@IEAA_NXZ 0000000180063e3c f i libucrt:output.obj
 0001:00062ef4       ?validate_and_update_state_at_end_of_format_string@?$positional_parameter_base@_WV?$string_output_adapter@_W@__crt_stdio_output@@@__crt_stdio_output@@IEAA_NXZ 0000000180063ef4 f i libucrt:output.obj
 0001:00062fac       ?validate_and_update_state_at_end_of_format_string@?$standard_base@DV?$stream_output_adapter@D@__crt_stdio_output@@@__crt_stdio_output@@IEBA_NXZ 0000000180063fac f i libucrt:output.obj
 0001:00062fb0       ?validate_and_update_state_at_end_of_format_string@?$standard_base@DV?$string_output_adapter@D@__crt_stdio_output@@@__crt_stdio_output@@IEBA_NXZ 0000000180063fb0 f i libucrt:output.obj
 0001:00062fb4       ?validate_and_update_state_at_end_of_format_string@?$standard_base@_WV?$stream_output_adapter@_W@__crt_stdio_output@@@__crt_stdio_output@@IEBA_NXZ 0000000180063fb4 f i libucrt:output.obj
 0001:00062fb8       ?validate_and_update_state_at_end_of_format_string@?$standard_base@_WV?$string_output_adapter@_W@__crt_stdio_output@@@__crt_stdio_output@@IEBA_NXZ 0000000180063fb8 f i libucrt:output.obj
 0001:00062fbc       ?validate_state_for_type_case_a@?$positional_parameter_base@DV?$stream_output_adapter@D@__crt_stdio_output@@@__crt_stdio_output@@IEAA_NXZ 0000000180063fbc f i libucrt:output.obj
 0001:000630a0       ?validate_state_for_type_case_a@?$positional_parameter_base@DV?$string_output_adapter@D@__crt_stdio_output@@@__crt_stdio_output@@IEAA_NXZ 00000001800640a0 f i libucrt:output.obj
 0001:00063184       ?validate_state_for_type_case_a@?$positional_parameter_base@_WV?$stream_output_adapter@_W@__crt_stdio_output@@@__crt_stdio_output@@IEAA_NXZ 0000000180064184 f i libucrt:output.obj
 0001:00063268       ?validate_state_for_type_case_a@?$positional_parameter_base@_WV?$string_output_adapter@_W@__crt_stdio_output@@@__crt_stdio_output@@IEAA_NXZ 0000000180064268 f i libucrt:output.obj
 0001:0006334c       ?validate_state_for_type_case_a@?$standard_base@DV?$stream_output_adapter@D@__crt_stdio_output@@@__crt_stdio_output@@IEBA_NXZ 000000018006434c f i libucrt:output.obj
 0001:00063350       ?validate_state_for_type_case_a@?$standard_base@DV?$string_output_adapter@D@__crt_stdio_output@@@__crt_stdio_output@@IEBA_NXZ 0000000180064350 f i libucrt:output.obj
 0001:00063354       ?validate_state_for_type_case_a@?$standard_base@_WV?$stream_output_adapter@_W@__crt_stdio_output@@@__crt_stdio_output@@IEBA_NXZ 0000000180064354 f i libucrt:output.obj
 0001:00063358       ?validate_state_for_type_case_a@?$standard_base@_WV?$string_output_adapter@_W@__crt_stdio_output@@@__crt_stdio_output@@IEBA_NXZ 0000000180064358 f i libucrt:output.obj
 0001:0006335c       ?validate_stream_is_ansi_if_required@?$__acrt_stdio_char_traits@D@@SA_NQEAU_iobuf@@@Z 000000018006435c f i libucrt:output.obj
 0001:000633f8       ?validate_stream_is_ansi_if_required@?$__acrt_stdio_char_traits@_W@@SA_NQEAU_iobuf@@@Z 00000001800643f8 f i libucrt:output.obj
 0001:000633fc       ?wide_character_to_digit@__crt_strtox@@YAH_W@Z 00000001800643fc f i libucrt:output.obj
 0001:0006359c       ?wide_null_string@?$output_processor@DV?$stream_output_adapter@D@__crt_stdio_output@@V?$format_validation_base@DV?$stream_output_adapter@D@__crt_stdio_output@@@2@@__crt_stdio_output@@CAPEA_WXZ 000000018006459c f i libucrt:output.obj
 0001:000635a4       ?wide_null_string@?$output_processor@DV?$stream_output_adapter@D@__crt_stdio_output@@V?$positional_parameter_base@DV?$stream_output_adapter@D@__crt_stdio_output@@@2@@__crt_stdio_output@@CAPEA_WXZ 00000001800645a4 f i libucrt:output.obj
 0001:000635ac       ?wide_null_string@?$output_processor@DV?$stream_output_adapter@D@__crt_stdio_output@@V?$standard_base@DV?$stream_output_adapter@D@__crt_stdio_output@@@2@@__crt_stdio_output@@CAPEA_WXZ 00000001800645ac f i libucrt:output.obj
 0001:000635b4       ?wide_null_string@?$output_processor@DV?$string_output_adapter@D@__crt_stdio_output@@V?$format_validation_base@DV?$string_output_adapter@D@__crt_stdio_output@@@2@@__crt_stdio_output@@CAPEA_WXZ 00000001800645b4 f i libucrt:output.obj
 0001:000635bc       ?wide_null_string@?$output_processor@DV?$string_output_adapter@D@__crt_stdio_output@@V?$positional_parameter_base@DV?$string_output_adapter@D@__crt_stdio_output@@@2@@__crt_stdio_output@@CAPEA_WXZ 00000001800645bc f i libucrt:output.obj
 0001:000635c4       ?wide_null_string@?$output_processor@DV?$string_output_adapter@D@__crt_stdio_output@@V?$standard_base@DV?$string_output_adapter@D@__crt_stdio_output@@@2@@__crt_stdio_output@@CAPEA_WXZ 00000001800645c4 f i libucrt:output.obj
 0001:000635cc       ?wide_null_string@?$output_processor@_WV?$stream_output_adapter@_W@__crt_stdio_output@@V?$format_validation_base@_WV?$stream_output_adapter@_W@__crt_stdio_output@@@2@@__crt_stdio_output@@CAPEA_WXZ 00000001800645cc f i libucrt:output.obj
 0001:000635d4       ?wide_null_string@?$output_processor@_WV?$stream_output_adapter@_W@__crt_stdio_output@@V?$positional_parameter_base@_WV?$stream_output_adapter@_W@__crt_stdio_output@@@2@@__crt_stdio_output@@CAPEA_WXZ 00000001800645d4 f i libucrt:output.obj
 0001:000635dc       ?wide_null_string@?$output_processor@_WV?$stream_output_adapter@_W@__crt_stdio_output@@V?$standard_base@_WV?$stream_output_adapter@_W@__crt_stdio_output@@@2@@__crt_stdio_output@@CAPEA_WXZ 00000001800645dc f i libucrt:output.obj
 0001:000635e4       ?wide_null_string@?$output_processor@_WV?$string_output_adapter@_W@__crt_stdio_output@@V?$format_validation_base@_WV?$string_output_adapter@_W@__crt_stdio_output@@@2@@__crt_stdio_output@@CAPEA_WXZ 00000001800645e4 f i libucrt:output.obj
 0001:000635ec       ?wide_null_string@?$output_processor@_WV?$string_output_adapter@_W@__crt_stdio_output@@V?$positional_parameter_base@_WV?$string_output_adapter@_W@__crt_stdio_output@@@2@@__crt_stdio_output@@CAPEA_WXZ 00000001800645ec f i libucrt:output.obj
 0001:000635f4       ?wide_null_string@?$output_processor@_WV?$string_output_adapter@_W@__crt_stdio_output@@V?$standard_base@_WV?$string_output_adapter@_W@__crt_stdio_output@@@2@@__crt_stdio_output@@CAPEA_WXZ 00000001800645f4 f i libucrt:output.obj
 0001:000635fc       ?write_character@?$output_adapter_common@DV?$stream_output_adapter@D@__crt_stdio_output@@@__crt_stdio_output@@QEBAXDQEAHAEAV__crt_cached_ptd_host@@@Z 00000001800645fc f i libucrt:output.obj
 0001:00063648       ?write_character@?$output_adapter_common@_WV?$stream_output_adapter@_W@__crt_stdio_output@@@__crt_stdio_output@@QEBAX_WQEAHAEAV__crt_cached_ptd_host@@@Z 0000000180064648 f i libucrt:output.obj
 0001:00063698       ?write_character@?$string_output_adapter@D@__crt_stdio_output@@QEBA_NDQEAHAEAV__crt_cached_ptd_host@@@Z 0000000180064698 f i libucrt:output.obj
 0001:000636e0       ?write_character@?$string_output_adapter@_W@__crt_stdio_output@@QEBA_N_WQEAHAEAV__crt_cached_ptd_host@@@Z 00000001800646e0 f i libucrt:output.obj
 0001:00063728       ?write_character_without_count_update@?$stream_output_adapter@D@__crt_stdio_output@@QEBA_NDAEAV__crt_cached_ptd_host@@@Z 0000000180064728 f i libucrt:output.obj
 0001:00063768       ?write_character_without_count_update@?$stream_output_adapter@_W@__crt_stdio_output@@QEBA_N_WAEAV__crt_cached_ptd_host@@@Z 0000000180064768 f i libucrt:output.obj
 0001:000637ac       ?write_stored_string_tchar@?$output_processor@DV?$stream_output_adapter@D@__crt_stdio_output@@V?$format_validation_base@DV?$stream_output_adapter@D@__crt_stdio_output@@@2@@__crt_stdio_output@@AEAA_ND@Z 00000001800647ac f i libucrt:output.obj
 0001:000638e0       ?write_stored_string_tchar@?$output_processor@DV?$stream_output_adapter@D@__crt_stdio_output@@V?$positional_parameter_base@DV?$stream_output_adapter@D@__crt_stdio_output@@@2@@__crt_stdio_output@@AEAA_ND@Z 00000001800648e0 f i libucrt:output.obj
 0001:00063a14       ?write_stored_string_tchar@?$output_processor@DV?$stream_output_adapter@D@__crt_stdio_output@@V?$standard_base@DV?$stream_output_adapter@D@__crt_stdio_output@@@2@@__crt_stdio_output@@AEAA_ND@Z 0000000180064a14 f i libucrt:output.obj
 0001:00063b48       ?write_stored_string_tchar@?$output_processor@DV?$string_output_adapter@D@__crt_stdio_output@@V?$format_validation_base@DV?$string_output_adapter@D@__crt_stdio_output@@@2@@__crt_stdio_output@@AEAA_ND@Z 0000000180064b48 f i libucrt:output.obj
 0001:00063c30       ?write_stored_string_tchar@?$output_processor@DV?$string_output_adapter@D@__crt_stdio_output@@V?$positional_parameter_base@DV?$string_output_adapter@D@__crt_stdio_output@@@2@@__crt_stdio_output@@AEAA_ND@Z 0000000180064c30 f i libucrt:output.obj
 0001:00063d18       ?write_stored_string_tchar@?$output_processor@DV?$string_output_adapter@D@__crt_stdio_output@@V?$standard_base@DV?$string_output_adapter@D@__crt_stdio_output@@@2@@__crt_stdio_output@@AEAA_ND@Z 0000000180064d18 f i libucrt:output.obj
 0001:00063e00       ?write_stored_string_tchar@?$output_processor@_WV?$stream_output_adapter@_W@__crt_stdio_output@@V?$format_validation_base@_WV?$stream_output_adapter@_W@__crt_stdio_output@@@2@@__crt_stdio_output@@AEAA_N_W@Z 0000000180064e00 f i libucrt:output.obj
 0001:00063f34       ?write_stored_string_tchar@?$output_processor@_WV?$stream_output_adapter@_W@__crt_stdio_output@@V?$positional_parameter_base@_WV?$stream_output_adapter@_W@__crt_stdio_output@@@2@@__crt_stdio_output@@AEAA_N_W@Z 0000000180064f34 f i libucrt:output.obj
 0001:00064068       ?write_stored_string_tchar@?$output_processor@_WV?$stream_output_adapter@_W@__crt_stdio_output@@V?$standard_base@_WV?$stream_output_adapter@_W@__crt_stdio_output@@@2@@__crt_stdio_output@@AEAA_N_W@Z 0000000180065068 f i libucrt:output.obj
 0001:0006419c       ?write_stored_string_tchar@?$output_processor@_WV?$string_output_adapter@_W@__crt_stdio_output@@V?$format_validation_base@_WV?$string_output_adapter@_W@__crt_stdio_output@@@2@@__crt_stdio_output@@AEAA_N_W@Z 000000018006519c f i libucrt:output.obj
 0001:000642b0       ?write_stored_string_tchar@?$output_processor@_WV?$string_output_adapter@_W@__crt_stdio_output@@V?$positional_parameter_base@_WV?$string_output_adapter@_W@__crt_stdio_output@@@2@@__crt_stdio_output@@AEAA_N_W@Z 00000001800652b0 f i libucrt:output.obj
 0001:000643c4       ?write_stored_string_tchar@?$output_processor@_WV?$string_output_adapter@_W@__crt_stdio_output@@V?$standard_base@_WV?$string_output_adapter@_W@__crt_stdio_output@@@2@@__crt_stdio_output@@AEAA_N_W@Z 00000001800653c4 f i libucrt:output.obj
 0001:000644d8       ?write_string@?$stream_output_adapter@D@__crt_stdio_output@@QEBAXQEBDHQEAHAEAV__crt_cached_ptd_host@@@Z 00000001800654d8 f i libucrt:output.obj
 0001:00064500       ?write_string@?$stream_output_adapter@_W@__crt_stdio_output@@QEBAXQEB_WHQEAHAEAV__crt_cached_ptd_host@@@Z 0000000180065500 f i libucrt:output.obj
 0001:00064528       ?write_string@?$string_output_adapter@D@__crt_stdio_output@@QEBAXQEBDHQEAHAEAV__crt_cached_ptd_host@@@Z 0000000180065528 f i libucrt:output.obj
 0001:000645cc       ?write_string@?$string_output_adapter@_W@__crt_stdio_output@@QEBAXQEB_WHQEAHAEAV__crt_cached_ptd_host@@@Z 00000001800655cc f i libucrt:output.obj
 0001:00064674       ?write_string_impl@?$output_adapter_common@DV?$stream_output_adapter@D@__crt_stdio_output@@@__crt_stdio_output@@IEBAXQEBDHQEAHAEAV__crt_cached_ptd_host@@@Z 0000000180065674 f i libucrt:output.obj
 0001:00064740       ?write_string_impl@?$output_adapter_common@_WV?$stream_output_adapter@_W@__crt_stdio_output@@@__crt_stdio_output@@IEBAXQEB_WHQEAHAEAV__crt_cached_ptd_host@@@Z 0000000180065740 f i libucrt:output.obj
 0001:00064820       __acrt_disable_global_locale_sync 0000000180065820 f i libucrt:output.obj
 0001:00064828       __acrt_enable_global_locale_sync 0000000180065828 f i libucrt:output.obj
 0001:00064834       __acrt_isleadbyte_l_noupdate 0000000180065834 f i libucrt:output.obj
 0001:00064858       __acrt_locale_changed      0000000180065858 f i libucrt:output.obj
 0001:00064864       __acrt_locale_get_ctype_array_value 0000000180065864 f i libucrt:output.obj
 0001:0006487c       __ascii_iswalpha           000000018006587c f i libucrt:output.obj
 0001:00064898       __ascii_toupper            0000000180065898 f i libucrt:output.obj
 0001:000648a8       __ascii_towupper           00000001800658a8 f i libucrt:output.obj
 0001:000648b8       __stdio_common_vfprintf    00000001800658b8 f   libucrt:output.obj
 0001:000649dc       __stdio_common_vfprintf_p  00000001800659dc f   libucrt:output.obj
 0001:00064b00       __stdio_common_vfprintf_s  0000000180065b00 f   libucrt:output.obj
 0001:00064c24       __stdio_common_vfwprintf   0000000180065c24 f   libucrt:output.obj
 0001:00064d48       __stdio_common_vfwprintf_p 0000000180065d48 f   libucrt:output.obj
 0001:00064e6c       __stdio_common_vfwprintf_s 0000000180065e6c f   libucrt:output.obj
 0001:00064f90       __stdio_common_vsnprintf_s 0000000180065f90 f   libucrt:output.obj
 0001:00065168       __stdio_common_vsnwprintf_s 0000000180066168 f   libucrt:output.obj
 0001:00065344       __stdio_common_vsprintf    0000000180066344 f   libucrt:output.obj
 0001:00065598       __stdio_common_vsprintf_p  0000000180066598 f   libucrt:output.obj
 0001:00065650       __stdio_common_vsprintf_s  0000000180066650 f   libucrt:output.obj
 0001:00065764       __stdio_common_vswprintf   0000000180066764 f   libucrt:output.obj
 0001:000659c0       __stdio_common_vswprintf_p 00000001800669c0 f   libucrt:output.obj
 0001:00065a78       __stdio_common_vswprintf_s 0000000180066a78 f   libucrt:output.obj
 0001:00065b8c       _ctype_fast_check_internal 0000000180066b8c f i libucrt:output.obj
 0001:00065ba0       _isdigit_fast_internal     0000000180066ba0 f i libucrt:output.obj
 0001:00065bb4       _tolower_fast_internal     0000000180066bb4 f i libucrt:output.obj
 0001:00065bc8       ??$is_overflow_condition@_K@__crt_strtox@@YA_NI_K@Z 0000000180066bc8 f i libucrt:atox.obj
 0001:00065c00       ??$make_c_string_character_source@D$$T@__crt_strtox@@YA?AV?$c_string_character_source@D@0@QEBD$$T@Z 0000000180066c00 f i libucrt:atox.obj
 0001:00065c14       ??$make_c_string_character_source@_W$$T@__crt_strtox@@YA?AV?$c_string_character_source@_W@0@QEB_W$$T@Z 0000000180066c14 f i libucrt:atox.obj
 0001:00065c28       ??$parse_integer@KV?$c_string_character_source@D@__crt_strtox@@$00@__crt_strtox@@YAKAEAV__crt_cached_ptd_host@@V?$c_string_character_source@D@0@H_N@Z 0000000180066c28 f i libucrt:atox.obj
 0001:00065f18       ??$parse_integer@KV?$c_string_character_source@_W@__crt_strtox@@$00@__crt_strtox@@YAKAEAV__crt_cached_ptd_host@@V?$c_string_character_source@_W@0@H_N@Z 0000000180066f18 f i libucrt:atox.obj
 0001:000666b4       ??$parse_integer@_KV?$c_string_character_source@D@__crt_strtox@@$00@__crt_strtox@@YA_KAEAV__crt_cached_ptd_host@@V?$c_string_character_source@D@0@H_N@Z 00000001800676b4 f i libucrt:atox.obj
 0001:00066990       ??$parse_integer@_KV?$c_string_character_source@_W@__crt_strtox@@$00@__crt_strtox@@YA_KAEAV__crt_cached_ptd_host@@V?$c_string_character_source@_W@0@H_N@Z 0000000180067990 f i libucrt:atox.obj
 0001:00067114       ??$parse_integer_from_string@JD$$T@__crt_strtox@@YAJQEBD$$THQEAU__crt_locale_pointers@@@Z 0000000180068114 f i libucrt:atox.obj
 0001:000671d0       ??$parse_integer_from_string@J_W$$T@__crt_strtox@@YAJQEB_W$$THQEAU__crt_locale_pointers@@@Z 00000001800681d0 f i libucrt:atox.obj
 0001:0006728c       ??$parse_integer_from_string@_JD$$T@__crt_strtox@@YA_JQEBD$$THQEAU__crt_locale_pointers@@@Z 000000018006828c f i libucrt:atox.obj
 0001:0006734c       ??$parse_integer_from_string@_J_W$$T@__crt_strtox@@YA_JQEB_W$$THQEAU__crt_locale_pointers@@@Z 000000018006834c f i libucrt:atox.obj
 0001:0006740c       ?is_space@__crt_strtox@@YA_NDQEAU__crt_locale_pointers@@@Z 000000018006840c f i libucrt:atox.obj
 0001:0006742c       ?is_space@__crt_strtox@@YA_N_WPEAU__crt_locale_pointers@@@Z 000000018006842c f i libucrt:atox.obj
 0001:00067444       ?maximum_signed_value@__crt_strtox@@YA_J_K@Z 0000000180068444 f i libucrt:atox.obj
 0001:00067450       ?minimum_signed_value@__crt_strtox@@YA_J_K@Z 0000000180068450 f i libucrt:atox.obj
 0001:0006745c       __acrt_get_locale_data_prefix 000000018006845c f i libucrt:atox.obj
 0001:00067460       _atoi64                    0000000180068460 f   libucrt:atox.obj
 0001:00067514       _atoi64_l                  0000000180068514 f   libucrt:atox.obj
 0001:000675d0       _atoi_l                    00000001800685d0 f   libucrt:atox.obj
 0001:0006768c       _atol_l                    000000018006868c f   libucrt:atox.obj
 0001:00067748       _atoll_l                   0000000180068748 f   libucrt:atox.obj
 0001:00067804       _chvalidchk_l              0000000180068804 f i libucrt:atox.obj
 0001:00067868       _ischartype_l              0000000180068868 f i libucrt:atox.obj
 0001:000678e0       _wtoi                      00000001800688e0 f   libucrt:atox.obj
 0001:00067990       _wtoi64                    0000000180068990 f   libucrt:atox.obj
 0001:00067a44       _wtoi64_l                  0000000180068a44 f   libucrt:atox.obj
 0001:00067b00       _wtoi_l                    0000000180068b00 f   libucrt:atox.obj
 0001:00067bbc       _wtol                      0000000180068bbc f   libucrt:atox.obj
 0001:00067c6c       _wtol_l                    0000000180068c6c f   libucrt:atox.obj
 0001:00067d28       _wtoll                     0000000180068d28 f   libucrt:atox.obj
 0001:00067ddc       _wtoll_l                   0000000180068ddc f   libucrt:atox.obj
 0001:00067e98       atoi                       0000000180068e98 f   libucrt:atox.obj
 0001:00067f48       atol                       0000000180068f48 f   libucrt:atox.obj
 0001:00067ff8       atoll                      0000000180068ff8 f   libucrt:atox.obj
 0001:000680c0       strncmp                    00000001800690c0 f   libucrt:strncmp.obj
 0001:00068140       calloc                     0000000180069140 f   libucrt:calloc.obj
 0001:00068148       wcsncmp                    0000000180069148 f   libucrt:wcsncmp.obj
 0001:00068174       _clrfp                     0000000180069174 f   libucrt:fpctrl.obj
 0001:00068194       _ctrlfp                    0000000180069194 f   libucrt:fpctrl.obj
 0001:00068210       _set_statfp                0000000180069210 f   libucrt:fpctrl.obj
 0001:00068230       _statfp                    0000000180069230 f   libucrt:fpctrl.obj
 0001:00068368       _handle_error              0000000180069368 f   libucrt:libm_error.obj
 0001:00068490       _handle_errorf             0000000180069490 f   libucrt:libm_error.obj
 0001:000685c4       _handle_nan                00000001800695c4 f   libucrt:libm_error.obj
 0001:000685e0       _handle_nanf               00000001800695e0 f   libucrt:libm_error.obj
 0001:000685f0       __remainder_piby2d2f_forAsm 00000001800695f0 f   libucrt:remainder_piby2f_forasm.obj
 0001:00068740       __remainder_piby2_fma3     0000000180069740 f   libucrt:remainder_piby2_forfma3.obj
 0001:00068930       __remainder_piby2_fma3_bdl 0000000180069930 f   libucrt:remainder_piby2_forfma3.obj
 0001:000689a8       _cos_special               00000001800699a8 f   libucrt:sincos_special.obj
 0001:000689bc       _cosf_special              00000001800699bc f   libucrt:sincos_special.obj
 0001:000689d0       _sin_special               00000001800699d0 f   libucrt:sincos_special.obj
 0001:00068b14       _sinf_special              0000000180069b14 f   libucrt:sincos_special.obj
 0001:00068b28       _tan_special               0000000180069b28 f   libucrt:sincos_special.obj
 0001:00068b3c       _tanf_special              0000000180069b3c f   libucrt:sincos_special.obj
 0001:00068b50       __acrt_initialize_fma3     0000000180069b50 f   libucrt:fma3_available.obj
 0001:00068bc0       _get_FMA3_enable           0000000180069bc0 f   libucrt:fma3_available.obj
 0001:00068bc8       _set_FMA3_enable           0000000180069bc8 f   libucrt:fma3_available.obj
 0001:00068be0       __remainder_piby2d2f_forC  0000000180069be0 f   libucrt:remainder_piby2f_forc.obj
 0001:00068d6c       nextafter                  0000000180069d6c f   libucrt:nextafter.obj
 0001:00068d74       nextafterf                 0000000180069d74 f   libucrt:nextafterf.obj
 0001:00068d88       _free_base                 0000000180069d88 f   libucrt:free_base.obj
 0001:00068dc4       ??$?RU__acrt_ptd@@@__crt_internal_free_policy@@QEBAXQEBU__acrt_ptd@@@Z 0000000180069dc4 f i libucrt:per_thread_data.obj
 0001:00068ff8       ??0?$__crt_unique_heap_ptr@U__acrt_ptd@@U__crt_internal_free_policy@@@@QEAA@QEAU__acrt_ptd@@@Z 0000000180069ff8 f i libucrt:per_thread_data.obj
 0001:00069000       ??1?$__crt_unique_heap_ptr@U__acrt_ptd@@U__crt_internal_free_policy@@@@QEAA@XZ 000000018006a000 f i libucrt:per_thread_data.obj
 0001:0006901c       ??B?$__crt_unique_heap_ptr@U__acrt_ptd@@U__crt_internal_free_policy@@@@QEBA_NXZ 000000018006a01c f i libucrt:per_thread_data.obj
 0001:00069270       ?dangerous_get_state_array@?$dual_state_global@PEAU__crt_locale_data@@@__crt_state_management@@QEAAPEAPEAU__crt_locale_data@@XZ 000000018006a270 f i libucrt:per_thread_data.obj
 0001:00069484       ?detach@?$__crt_unique_heap_ptr@U__acrt_ptd@@U__crt_internal_free_policy@@@@QEAAPEAU__acrt_ptd@@XZ 000000018006a484 f i libucrt:per_thread_data.obj
 0001:0006948c       ?get@?$__crt_unique_heap_ptr@U__acrt_ptd@@U__crt_internal_free_policy@@@@QEBAPEAU__acrt_ptd@@XZ 000000018006a48c f i libucrt:per_thread_data.obj
 0001:000696ac       ?is_valid@?$__crt_unique_heap_ptr@U__acrt_ptd@@U__crt_internal_free_policy@@@@QEBA_NXZ 000000018006a6ac f i libucrt:per_thread_data.obj
 0001:000696b4       ?release@?$__crt_unique_heap_ptr@U__acrt_ptd@@U__crt_internal_free_policy@@@@QEAAXXZ 000000018006a6b4 f i libucrt:per_thread_data.obj
 0001:0006974c       ?value@?$dual_state_global@PEAU__crt_locale_data@@@__crt_state_management@@QEAAAEAPEAU__crt_locale_data@@XZ 000000018006a74c f i libucrt:per_thread_data.obj
 0001:00069750       __acrt_freeptd             000000018006a750 f   libucrt:per_thread_data.obj
 0001:00069794       __acrt_getptd              000000018006a794 f   libucrt:per_thread_data.obj
 0001:00069868       __acrt_getptd_head         000000018006a868 f   libucrt:per_thread_data.obj
 0001:0006990c       __acrt_getptd_noexit       000000018006a90c f   libucrt:per_thread_data.obj
 0001:000699d4       __acrt_getptd_noexit_explicit 000000018006a9d4 f   libucrt:per_thread_data.obj
 0001:00069a94       __acrt_initialize_ptd      000000018006aa94 f   libucrt:per_thread_data.obj
 0001:00069ad0       __acrt_uninitialize_ptd    000000018006aad0 f   libucrt:per_thread_data.obj
 0001:00069af4       __threadhandle             000000018006aaf4 f   libucrt:per_thread_data.obj
 0001:00069afc       __threadid                 000000018006aafc f   libucrt:per_thread_data.obj
 0001:00069b04       __acrt_initialize_locks    000000018006ab04 f   libucrt:locks.obj
 0001:00069b4c       __acrt_lock                000000018006ab4c f   libucrt:locks.obj
 0001:00069b68       __acrt_uninitialize_locks  000000018006ab68 f   libucrt:locks.obj
 0001:00069ba0       __acrt_unlock              000000018006aba0 f   libucrt:locks.obj
 0001:00069bbc       _lock_locales              000000018006abbc f   libucrt:locks.obj
 0001:00069bd8       _unlock_locales            000000018006abd8 f   libucrt:locks.obj
 0001:00069be8       __acrt_app_verifier_enabled 000000018006abe8 f   libucrt:peb_access.obj
 0001:00069c04       __acrt_is_secure_process   000000018006ac04 f   libucrt:peb_access.obj
 0001:00069da8       __acrt_get_begin_thread_init_policy 000000018006ada8 f   libucrt:win_policies.obj
 0001:00069de8       __acrt_get_developer_information_policy 000000018006ade8 f   libucrt:win_policies.obj
 0001:00069e2c       __acrt_get_process_end_policy 000000018006ae2c f   libucrt:win_policies.obj
 0001:00069e5c       __acrt_get_windowing_model_policy 000000018006ae5c f   libucrt:win_policies.obj
 0001:00069ec4       ??$__crt_fast_decode_pointer@P6AXPEB_W00I_K@Z@@YAP6AXPEB_W00I_K@ZQ6AX000I1@Z@Z 000000018006aec4 f i libucrt:invalid_parameter.obj
 0001:00069edc       ??$__crt_fast_encode_pointer@P6AXPEB_W00I_K@Z@@YAP6AXPEB_W00I_K@ZQ6AX000I1@Z@Z 000000018006aedc f i libucrt:invalid_parameter.obj
 0001:00069efc       ??$initialize_from_array@$$BY00Q6AXPEB_W00I_K@Z@?$dual_state_global@P6AXPEB_W00I_K@Z@__crt_state_management@@QEAAXAEAY00Q6AXPEB_W00I_K@Z@Z 000000018006aefc f i libucrt:invalid_parameter.obj
 0001:00069f74       ?check_synchronize_global_state_index@__crt_cached_ptd_host@@AEAA_KXZ 000000018006af74 f i libucrt:invalid_parameter.obj
 0001:00069fa8       ?dangerous_get_state_array@?$dual_state_global@P6AXPEB_W00I_K@Z@__crt_state_management@@QEAAPEAP6AXPEB_W00I_K@ZXZ 000000018006afa8 f i libucrt:invalid_parameter.obj
 0001:00069fac       ?get_current_global_state_index@__crt_cached_ptd_host@@QEAA_KXZ 000000018006afac f i libucrt:invalid_parameter.obj
 0001:00069fec       ?get_raw_ptd_noexit@__crt_cached_ptd_host@@QEAAPEAU__acrt_ptd@@XZ 000000018006afec f i libucrt:invalid_parameter.obj
 0001:0006a058       ?try_synchronize_per_thread_data@__crt_cached_ptd_host@@AEAAPEAU__acrt_ptd@@XZ 000000018006b058 f i libucrt:invalid_parameter.obj
 0001:0006a0bc       ?value@?$dual_state_global@P6AXPEB_W00I_K@Z@__crt_state_management@@QEAAAEAP6AXPEB_W00I_K@ZAEAV__crt_cached_ptd_host@@@Z 000000018006b0bc f i libucrt:invalid_parameter.obj
 0001:0006a108       ?value@?$dual_state_global@P6AXPEB_W00I_K@Z@__crt_state_management@@QEAAAEAP6AXPEB_W00I_K@ZXZ 000000018006b108 f i libucrt:invalid_parameter.obj
 0001:0006a10c       __acrt_call_reportfault    000000018006b10c f   libucrt:invalid_parameter.obj
 0001:0006a268       __acrt_initialize_invalid_parameter_handler 000000018006b268 f   libucrt:invalid_parameter.obj
 0001:0006a270       _get_invalid_parameter_handler 000000018006b270 f   libucrt:invalid_parameter.obj
 0001:0006a28c       _get_thread_local_invalid_parameter_handler 000000018006b28c f   libucrt:invalid_parameter.obj
 0001:0006a2a8       _invalid_parameter         000000018006b2a8 f   libucrt:invalid_parameter.obj
 0001:0006a344       _invalid_parameter_internal 000000018006b344 f   libucrt:invalid_parameter.obj
 0001:0006a410       _invalid_parameter_noinfo  000000018006b410 f   libucrt:invalid_parameter.obj
 0001:0006a430       _invalid_parameter_noinfo_noreturn 000000018006b430 f   libucrt:invalid_parameter.obj
 0001:0006a460       _invoke_watson             000000018006b460 f   libucrt:invalid_parameter.obj
 0001:0006a4a8       _set_invalid_parameter_handler 000000018006b4a8 f   libucrt:invalid_parameter.obj
 0001:0006a4dc       _set_thread_local_invalid_parameter_handler 000000018006b4dc f   libucrt:invalid_parameter.obj
 0001:0006a504       ?get_doserrno@__crt_cached_ptd_host@@QEAA@XZ 000000018006b504 f i libucrt:errno.obj
 0001:0006a50c       ?set@?$cached@K@__crt_cached_ptd_host@@QEAAKK@Z 000000018006b50c f i libucrt:errno.obj
 0001:0006a518       __acrt_errno_from_os_error 000000018006b518 f   libucrt:errno.obj
 0001:0006a560       __acrt_errno_map_os_error  000000018006b560 f   libucrt:errno.obj
 0001:0006a5a8       __acrt_errno_map_os_error_ptd 000000018006b5a8 f   libucrt:errno.obj
 0001:0006a5cc       __doserrno                 000000018006b5cc f   libucrt:errno.obj
 0001:0006a5ec       _errno                     000000018006b5ec f   libucrt:errno.obj
 0001:0006a60c       _get_doserrno              000000018006b60c f   libucrt:errno.obj
 0001:0006a648       _get_errno                 000000018006b648 f   libucrt:errno.obj
 0001:0006a684       _set_doserrno              000000018006b684 f   libucrt:errno.obj
 0001:0006a6c0       _set_errno                 000000018006b6c0 f   libucrt:errno.obj
 0001:0006a6fc       _calloc_base               000000018006b6fc f   libucrt:calloc_base.obj
 0001:0006a79c       ??$__acrt_convert_wcs_mbs_cp@D_WV<lambda_7c9dea7b4ca7285d2cdb541a38da6275>@@U__crt_win32_buffer_internal_dynamic_resizing@@@@YAHQEBDAEAV?$__crt_win32_buffer@_WU__crt_win32_buffer_internal_dynamic_resizing@@@@AEBV<lambda_7c9dea7b4ca7285d2cdb541a38da6275>@@I@Z 000000018006b79c f i libucrt:argv_wildcards.obj
 0001:0006a918       ??$__acrt_convert_wcs_mbs_cp@_WDV<lambda_d8593a27d1aa8c02be35c86a17d324c4>@@U__crt_win32_buffer_internal_dynamic_resizing@@@@YAHQEB_WAEAV?$__crt_win32_buffer@DU__crt_win32_buffer_internal_dynamic_resizing@@@@AEBV<lambda_d8593a27d1aa8c02be35c86a17d324c4>@@I@Z 000000018006b918 f i libucrt:argv_wildcards.obj
 0001:0006aaa4       ??$__acrt_mbs_to_wcs_cp@U__crt_win32_buffer_internal_dynamic_resizing@@@@YAHQEBDAEAV?$__crt_win32_buffer@_WU__crt_win32_buffer_internal_dynamic_resizing@@@@I@Z 000000018006baa4 f i libucrt:argv_wildcards.obj
 0001:0006aab4       ??$__acrt_wcs_to_mbs_cp@U__crt_win32_buffer_internal_dynamic_resizing@@@@YAHQEB_WAEAV?$__crt_win32_buffer@DU__crt_win32_buffer_internal_dynamic_resizing@@@@I@Z 000000018006bab4 f i libucrt:argv_wildcards.obj
 0001:0006b8e4       ??$tcslen@AEBQEBD@?$__crt_char_traits@D@@SA_KAEBQEBD@Z 000000018006c8e4 f i libucrt:argv_wildcards.obj
 0001:0006b8f8       ??$tcslen@AEBQEB_W@?$__crt_char_traits@_W@@SA_KAEBQEB_W@Z 000000018006c8f8 f i libucrt:argv_wildcards.obj
 0001:0006b90c       ??$tcsncpy_s@AEAPEAD_KAEAPEADAEB_K@?$__crt_char_traits@D@@SAHAEAPEAD$$QEA_K0AEB_K@Z 000000018006c90c f i libucrt:argv_wildcards.obj
 0001:0006b920       ??$tcsncpy_s@AEAPEA_W_KAEAPEA_WAEB_K@?$__crt_char_traits@_W@@SAHAEAPEA_W$$QEA_K0AEB_K@Z 000000018006c920 f i libucrt:argv_wildcards.obj
 0001:0006b934       ??$tcsncpy_s@PEADAEB_KAEBQEBDAEB_K@?$__crt_char_traits@D@@SAH$$QEAPEADAEB_KAEBQEBD1@Z 000000018006c934 f i libucrt:argv_wildcards.obj
 0001:0006b948       ??$tcsncpy_s@PEAD_KAEBQEBDAEB_K@?$__crt_char_traits@D@@SAH$$QEAPEAD$$QEA_KAEBQEBDAEB_K@Z 000000018006c948 f i libucrt:argv_wildcards.obj
 0001:0006b95c       ??$tcsncpy_s@PEA_WAEB_KAEBQEB_WAEB_K@?$__crt_char_traits@_W@@SAH$$QEAPEA_WAEB_KAEBQEB_W1@Z 000000018006c95c f i libucrt:argv_wildcards.obj
 0001:0006b970       ??$tcsncpy_s@PEA_W_KAEBQEB_WAEB_K@?$__crt_char_traits@_W@@SAH$$QEAPEA_W$$QEA_KAEBQEB_WAEB_K@Z 000000018006c970 f i libucrt:argv_wildcards.obj
 0001:0006b984       ??$tcspbrk@AEAPEADAEAY02$$CBD@?$__crt_char_traits@D@@SAPEADAEAPEADAEAY02$$CBD@Z 000000018006c984 f i libucrt:argv_wildcards.obj
 0001:0006b98c       ??$tcspbrk@AEAPEA_WAEAY02$$CB_W@?$__crt_char_traits@_W@@SAPEA_WAEAPEA_WAEAY02$$CB_W@Z 000000018006c98c f i libucrt:argv_wildcards.obj
 0001:0006b994       ??0?$__crt_unique_handle_t@U__crt_findfile_traits@@@@QEAA@QEAX@Z 000000018006c994 f i libucrt:argv_wildcards.obj
 0001:0006b99c       ??0?$__crt_win32_buffer@DU__crt_win32_buffer_internal_dynamic_resizing@@@@QEAA@XZ 000000018006c99c f i libucrt:argv_wildcards.obj
 0001:0006b9b8       ??0?$__crt_win32_buffer@_WU__crt_win32_buffer_internal_dynamic_resizing@@@@QEAA@XZ 000000018006c9b8 f i libucrt:argv_wildcards.obj
 0001:0006b9fc       ??0_LocaleUpdate@@QEAA@QEAU__crt_locale_pointers@@@Z 000000018006c9fc f i libucrt:argv_wildcards.obj
 0001:0006ba98       ??1?$__crt_unique_handle_t@U__crt_findfile_traits@@@@QEAA@XZ 000000018006ca98 f i libucrt:argv_wildcards.obj
 0001:0006babc       ??1?$__crt_win32_buffer@DU__crt_win32_buffer_internal_dynamic_resizing@@@@QEAA@XZ 000000018006cabc f i libucrt:argv_wildcards.obj
 0001:0006bae0       ??1?$__crt_win32_buffer@_WU__crt_win32_buffer_internal_dynamic_resizing@@@@QEAA@XZ 000000018006cae0 f i libucrt:argv_wildcards.obj
 0001:0006bb7c       ??1_LocaleUpdate@@QEAA@XZ  000000018006cb7c f i libucrt:argv_wildcards.obj
 0001:0006bba0       ??R<lambda_7c9dea7b4ca7285d2cdb541a38da6275>@@QEBA@IQEBDQEA_W_K@Z 000000018006cba0 f i libucrt:argv_wildcards.obj
 0001:0006bc30       ??R<lambda_d8593a27d1aa8c02be35c86a17d324c4>@@QEBA@IQEB_WQEAD_K@Z 000000018006cc30 f i libucrt:argv_wildcards.obj
 0001:0006bc60       ?GetLocaleT@_LocaleUpdate@@QEAAPEAU__crt_locale_pointers@@XZ 000000018006cc60 f i libucrt:argv_wildcards.obj
 0001:0006bc68       ?__acrt_get_utf8_acp_compatibility_codepage@@YAIXZ 000000018006cc68 f i libucrt:argv_wildcards.obj
 0001:0006bcb4       ?_deallocate@?$__crt_win32_buffer@DU__crt_win32_buffer_internal_dynamic_resizing@@@@AEAAXXZ 000000018006ccb4 f i libucrt:argv_wildcards.obj
 0001:0006bcd8       ?_deallocate@?$__crt_win32_buffer@_WU__crt_win32_buffer_internal_dynamic_resizing@@@@AEAAXXZ 000000018006ccd8 f i libucrt:argv_wildcards.obj
 0001:0006bcfc       ?allocate@?$__crt_win32_buffer@DU__crt_win32_buffer_internal_dynamic_resizing@@@@QEAAH_K@Z 000000018006ccfc f i libucrt:argv_wildcards.obj
 0001:0006bd60       ?allocate@?$__crt_win32_buffer@_WU__crt_win32_buffer_internal_dynamic_resizing@@@@QEAAH_K@Z 000000018006cd60 f i libucrt:argv_wildcards.obj
 0001:0006bdc4       ?allocate@__crt_win32_buffer_internal_dynamic_resizing@@SAHQEAPEAX_KAEBV__crt_win32_buffer_empty_debug_info@@@Z 000000018006cdc4 f i libucrt:argv_wildcards.obj
 0001:0006bfb0       ?capacity@?$__crt_win32_buffer@DU__crt_win32_buffer_internal_dynamic_resizing@@@@QEBA_KXZ 000000018006cfb0 f i libucrt:argv_wildcards.obj
 0001:0006bfb8       ?capacity@?$__crt_win32_buffer@_WU__crt_win32_buffer_internal_dynamic_resizing@@@@QEBA_KXZ 000000018006cfb8 f i libucrt:argv_wildcards.obj
 0001:0006bfc0       ?close@?$__crt_unique_handle_t@U__crt_findfile_traits@@@@QEAAXXZ 000000018006cfc0 f i libucrt:argv_wildcards.obj
 0001:0006bfe4       ?close@__crt_findfile_traits@@SA_NPEAX@Z 000000018006cfe4 f i libucrt:argv_wildcards.obj
 0001:0006bff8       ?data@?$__crt_win32_buffer@DU__crt_win32_buffer_internal_dynamic_resizing@@@@QEAAPEADXZ 000000018006cff8 f i libucrt:argv_wildcards.obj
 0001:0006c000       ?data@?$__crt_win32_buffer@_WU__crt_win32_buffer_internal_dynamic_resizing@@@@QEAAPEA_WXZ 000000018006d000 f i libucrt:argv_wildcards.obj
 0001:0006c008       ?deallocate@__crt_win32_buffer_internal_dynamic_resizing@@SAXQEAXAEBV__crt_win32_buffer_empty_debug_info@@@Z 000000018006d008 f i libucrt:argv_wildcards.obj
 0001:0006c010       ?debug_info@?$__crt_win32_buffer@DU__crt_win32_buffer_internal_dynamic_resizing@@@@QEBAAEBV__crt_win32_buffer_empty_debug_info@@XZ 000000018006d010 f i libucrt:argv_wildcards.obj
 0001:0006c014       ?debug_info@?$__crt_win32_buffer@_WU__crt_win32_buffer_internal_dynamic_resizing@@@@QEBAAEBV__crt_win32_buffer_empty_debug_info@@XZ 000000018006d014 f i libucrt:argv_wildcards.obj
 0001:0006c1b8       ?get@?$__crt_unique_handle_t@U__crt_findfile_traits@@@@QEBAPEAXXZ 000000018006d1b8 f i libucrt:argv_wildcards.obj
 0001:0006c264       ?get_invalid_value@__crt_findfile_traits@@SAPEAXXZ 000000018006d264 f i libucrt:argv_wildcards.obj
 0001:0006c324       ?set_to_nullptr@?$__crt_win32_buffer@DU__crt_win32_buffer_internal_dynamic_resizing@@@@QEAAXXZ 000000018006d324 f i libucrt:argv_wildcards.obj
 0001:0006c360       ?set_to_nullptr@?$__crt_win32_buffer@_WU__crt_win32_buffer_internal_dynamic_resizing@@@@QEAAXXZ 000000018006d360 f i libucrt:argv_wildcards.obj
 0001:0006c39c       ?size@?$__crt_win32_buffer@DU__crt_win32_buffer_internal_dynamic_resizing@@@@QEAAX_K@Z 000000018006d39c f i libucrt:argv_wildcards.obj
 0001:0006c3a4       ?size@?$__crt_win32_buffer@_WU__crt_win32_buffer_internal_dynamic_resizing@@@@QEAAX_K@Z 000000018006d3a4 f i libucrt:argv_wildcards.obj
 0001:0006c3c4       ?strpbrk@@YAPEADQEADQEBD@Z 000000018006d3c4 f i libucrt:argv_wildcards.obj
 0001:0006c3cc       ?wcspbrk@@YAPEA_WPEA_WPEB_W@Z 000000018006d3cc f i libucrt:argv_wildcards.obj
 0001:0006c3d4       __acrt_expand_narrow_argv_wildcards 000000018006d3d4 f   libucrt:argv_wildcards.obj
 0001:0006c3dc       __acrt_expand_wide_argv_wildcards 000000018006d3dc f   libucrt:argv_wildcards.obj
 0001:0006c3e4       ??$__acrt_convert_wcs_mbs_cp@_WDV<lambda_f788ae46380686e8b737efdd8c720d07>@@U__crt_win32_buffer_no_resizing@@@@YAHQEB_WAEAV?$__crt_win32_buffer@DU__crt_win32_buffer_no_resizing@@@@AEBV<lambda_f788ae46380686e8b737efdd8c720d07>@@I@Z 000000018006d3e4 f i libucrt:getmodulefilenamea.obj
 0001:0006c500       ??$__acrt_wcs_to_mbs_cp@U__crt_win32_buffer_no_resizing@@@@YAHQEB_WAEAV?$__crt_win32_buffer@DU__crt_win32_buffer_no_resizing@@@@I@Z 000000018006d500 f i libucrt:getmodulefilenamea.obj
 0001:0006c510       ??0?$__crt_win32_buffer@DU__crt_win32_buffer_no_resizing@@@@QEAA@QEAD_K@Z 000000018006d510 f i libucrt:getmodulefilenamea.obj
 0001:0006c52c       ??1?$__crt_win32_buffer@DU__crt_win32_buffer_no_resizing@@@@QEAA@XZ 000000018006d52c f i libucrt:getmodulefilenamea.obj
 0001:0006c538       ??R<lambda_f788ae46380686e8b737efdd8c720d07>@@QEBA@IQEB_WQEAD_K@Z 000000018006d538 f i libucrt:getmodulefilenamea.obj
 0001:0006c568       ?_deallocate@?$__crt_win32_buffer@DU__crt_win32_buffer_no_resizing@@@@AEAAXXZ 000000018006d568 f i libucrt:getmodulefilenamea.obj
 0001:0006c574       ?allocate@?$__crt_win32_buffer@DU__crt_win32_buffer_no_resizing@@@@QEAAH_K@Z 000000018006d574 f i libucrt:getmodulefilenamea.obj
 0001:0006c5a4       ?allocate@__crt_win32_buffer_no_resizing@@SAHQEAPEAX_KAEBV__crt_win32_buffer_empty_debug_info@@@Z 000000018006d5a4 f i libucrt:getmodulefilenamea.obj
 0001:0006c5bc       ?capacity@?$__crt_win32_buffer@DU__crt_win32_buffer_no_resizing@@@@QEBA_KXZ 000000018006d5bc f i libucrt:getmodulefilenamea.obj
 0001:0006c5c4       ?data@?$__crt_win32_buffer@DU__crt_win32_buffer_no_resizing@@@@QEAAPEADXZ 000000018006d5c4 f i libucrt:getmodulefilenamea.obj
 0001:0006c5cc       ?deallocate@__crt_win32_buffer_no_resizing@@SAXQEAXAEBV__crt_win32_buffer_empty_debug_info@@@Z 000000018006d5cc f i libucrt:getmodulefilenamea.obj
 0001:0006c5d0       ?debug_info@?$__crt_win32_buffer@DU__crt_win32_buffer_no_resizing@@@@QEBAAEBV__crt_win32_buffer_empty_debug_info@@XZ 000000018006d5d0 f i libucrt:getmodulefilenamea.obj
 0001:0006c5d4       ?set_to_nullptr@?$__crt_win32_buffer@DU__crt_win32_buffer_no_resizing@@@@QEAAXXZ 000000018006d5d4 f i libucrt:getmodulefilenamea.obj
 0001:0006c5ec       ?size@?$__crt_win32_buffer@DU__crt_win32_buffer_no_resizing@@@@QEAAX_K@Z 000000018006d5ec f i libucrt:getmodulefilenamea.obj
 0001:0006c5f4       ?size@?$__crt_win32_buffer@DU__crt_win32_buffer_no_resizing@@@@QEBA_KXZ 000000018006d5f4 f i libucrt:getmodulefilenamea.obj
 0001:0006c5fc       __acrt_GetModuleFileNameA  000000018006d5fc f   libucrt:getmodulefilenamea.obj
 0001:0006c720       ??$?RU__crt_multibyte_data@@@__crt_internal_free_policy@@QEBAXQEBU__crt_multibyte_data@@@Z 000000018006d720 f i libucrt:mbctype.obj
 0001:0006c920       ??$initialize_from_array@$$BY10BAA@E@?$dual_state_global@PEAE@__crt_state_management@@QEAAXAEAY10BAA@E@Z 000000018006d920 f i libucrt:mbctype.obj
 0001:0006c924       ??$initialize_from_array@$$BY10BAB@E@?$dual_state_global@PEAE@__crt_state_management@@QEAAXAEAY10BAB@E@Z 000000018006d924 f i libucrt:mbctype.obj
 0001:0006c944       ??0?$__crt_unique_heap_ptr@U__crt_multibyte_data@@U__crt_internal_free_policy@@@@QEAA@QEAU__crt_multibyte_data@@@Z 000000018006d944 f i libucrt:mbctype.obj
 0001:0006c94c       ??1?$__crt_unique_heap_ptr@U__crt_multibyte_data@@U__crt_internal_free_policy@@@@QEAA@XZ 000000018006d94c f i libucrt:mbctype.obj
 0001:0006c968       ??B?$__crt_unique_heap_ptr@U__crt_multibyte_data@@U__crt_internal_free_policy@@@@QEBA_NXZ 000000018006d968 f i libucrt:mbctype.obj
 0001:0006cb5c       ?dangerous_get_state_array@?$dual_state_global@PEAE@__crt_state_management@@QEAAPEAPEAEXZ 000000018006db5c f i libucrt:mbctype.obj
 0001:0006cb60       ?dangerous_get_state_array@?$dual_state_global@PEAU__crt_multibyte_data@@@__crt_state_management@@QEAAPEAPEAU__crt_multibyte_data@@XZ 000000018006db60 f i libucrt:mbctype.obj
 0001:0006cb64       ?detach@?$__crt_unique_heap_ptr@U__crt_multibyte_data@@U__crt_internal_free_policy@@@@QEAAPEAU__crt_multibyte_data@@XZ 000000018006db64 f i libucrt:mbctype.obj
 0001:0006cb6c       ?get@?$__crt_unique_heap_ptr@U__crt_multibyte_data@@U__crt_internal_free_policy@@@@QEBAPEAU__crt_multibyte_data@@XZ 000000018006db6c f i libucrt:mbctype.obj
 0001:0006cbf0       ?initialize@?$dual_state_global@PEAU__crt_multibyte_data@@@__crt_state_management@@QEAAXQEAU__crt_multibyte_data@@@Z 000000018006dbf0 f i libucrt:mbctype.obj
 0001:0006cc00       ?is_valid@?$__crt_unique_heap_ptr@U__crt_multibyte_data@@U__crt_internal_free_policy@@@@QEBA_NXZ 000000018006dc00 f i libucrt:mbctype.obj
 0001:0006cc08       ?release@?$__crt_unique_heap_ptr@U__crt_multibyte_data@@U__crt_internal_free_policy@@@@QEAAXXZ 000000018006dc08 f i libucrt:mbctype.obj
 0001:0006d1cc       ?value@?$dual_state_global@PEAE@__crt_state_management@@QEAAAEAPEAEXZ 000000018006e1cc f i libucrt:mbctype.obj
 0001:0006d1d0       ?value@?$dual_state_global@PEAU__crt_multibyte_data@@@__crt_state_management@@QEAAAEAPEAU__crt_multibyte_data@@XZ 000000018006e1d0 f i libucrt:mbctype.obj
 0001:0006d1d4       __acrt_initialize_multibyte 000000018006e1d4 f   libucrt:mbctype.obj
 0001:0006d234       __acrt_should_sync_with_global_locale 000000018006e234 f i libucrt:mbctype.obj
 0001:0006d244       __acrt_update_thread_multibyte_data 000000018006e244 f   libucrt:mbctype.obj
 0001:0006d260       __p__mbcasemap             000000018006e260 f   libucrt:mbctype.obj
 0001:0006d268       __p__mbctype               000000018006e268 f   libucrt:mbctype.obj
 0001:0006d270       _getmbcp                   000000018006e270 f   libucrt:mbctype.obj
 0001:0006d2ac       _setmbcp                   000000018006e2ac f   libucrt:mbctype.obj
 0001:0006d2d4       _setmbcp_nolock            000000018006e2d4 f   libucrt:mbctype.obj
 0001:0006d690       _ismbbalnum                000000018006e690 f   libucrt:ismbbyte.obj
 0001:0006d6a8       _ismbbalnum_l              000000018006e6a8 f   libucrt:ismbbyte.obj
 0001:0006d6c4       _ismbbalpha                000000018006e6c4 f   libucrt:ismbbyte.obj
 0001:0006d6dc       _ismbbalpha_l              000000018006e6dc f   libucrt:ismbbyte.obj
 0001:0006d6f8       _ismbbblank                000000018006e6f8 f   libucrt:ismbbyte.obj
 0001:0006d714       _ismbbblank_l              000000018006e714 f   libucrt:ismbbyte.obj
 0001:0006d734       _ismbbgraph                000000018006e734 f   libucrt:ismbbyte.obj
 0001:0006d74c       _ismbbgraph_l              000000018006e74c f   libucrt:ismbbyte.obj
 0001:0006d768       _ismbbkalnum               000000018006e768 f   libucrt:ismbbyte.obj
 0001:0006d77c       _ismbbkalnum_l             000000018006e77c f   libucrt:ismbbyte.obj
 0001:0006d794       _ismbbkana                 000000018006e794 f   libucrt:ismbbyte.obj
 0001:0006d79c       _ismbbkana_l               000000018006e79c f   libucrt:ismbbyte.obj
 0001:0006d804       _ismbbkprint               000000018006e804 f   libucrt:ismbbyte.obj
 0001:0006d818       _ismbbkprint_l             000000018006e818 f   libucrt:ismbbyte.obj
 0001:0006d830       _ismbbkpunct               000000018006e830 f   libucrt:ismbbyte.obj
 0001:0006d844       _ismbbkpunct_l             000000018006e844 f   libucrt:ismbbyte.obj
 0001:0006d85c       _ismbblead                 000000018006e85c f   libucrt:ismbbyte.obj
 0001:0006d870       _ismbblead_l               000000018006e870 f   libucrt:ismbbyte.obj
 0001:0006d888       _ismbbprint                000000018006e888 f   libucrt:ismbbyte.obj
 0001:0006d8a0       _ismbbprint_l              000000018006e8a0 f   libucrt:ismbbyte.obj
 0001:0006d8bc       _ismbbpunct                000000018006e8bc f   libucrt:ismbbyte.obj
 0001:0006d8d0       _ismbbpunct_l              000000018006e8d0 f   libucrt:ismbbyte.obj
 0001:0006d8e8       _ismbbtrail                000000018006e8e8 f   libucrt:ismbbyte.obj
 0001:0006d8fc       _ismbbtrail_l              000000018006e8fc f   libucrt:ismbbyte.obj
 0001:0006d914       __acrt_initialize_command_line 000000018006e914 f   libucrt:argv_data.obj
 0001:0006d93c       __acrt_uninitialize_command_line 000000018006e93c f   libucrt:argv_data.obj
 0001:0006d940       __p___argc                 000000018006e940 f   libucrt:argv_data.obj
 0001:0006d948       __p___argv                 000000018006e948 f   libucrt:argv_data.obj
 0001:0006d950       __p___wargv                000000018006e950 f   libucrt:argv_data.obj
 0001:0006d958       __p__acmdln                000000018006e958 f   libucrt:argv_data.obj
 0001:0006d960       __p__pgmptr                000000018006e960 f   libucrt:argv_data.obj
 0001:0006d968       __p__wcmdln                000000018006e968 f   libucrt:argv_data.obj
 0001:0006d970       __p__wpgmptr               000000018006e970 f   libucrt:argv_data.obj
 0001:0006d978       _get_pgmptr                000000018006e978 f   libucrt:argv_data.obj
 0001:0006d9b0       _get_wpgmptr               000000018006e9b0 f   libucrt:argv_data.obj
 0001:0006da54       wcscpy_s                   000000018006ea54 f   libucrt:wcscpy_s.obj
 0001:0006db48       __acrt_MultiByteToWideChar 000000018006eb48 f   libucrt:multibytetowidechar.obj
 0001:0006dc60       __acrt_WideCharToMultiByte 000000018006ec60 f   libucrt:widechartomultibyte.obj
 0001:0006dde0       __dcrt_get_narrow_environment_from_os 000000018006ede0 f   libucrt:get_environment_from_os.obj
 0001:0006def0       __dcrt_get_wide_environment_from_os 000000018006eef0 f   libucrt:get_environment_from_os.obj
 0001:0006e988       ??$get_or_create_environment_nolock@$$V@?$__crt_char_traits@D@@SAPEAPEADXZ 000000018006f988 f i libucrt:setenv.obj
 0001:0006e990       ??$get_or_create_environment_nolock@$$V@?$__crt_char_traits@_W@@SAPEAPEA_WXZ 000000018006f990 f i libucrt:setenv.obj
 0001:0006e998       ??$set_environment_variable@AEBQEADQEAD@?$__crt_char_traits@D@@SAHAEBQEAD$$QEBQEAD@Z 000000018006f998 f i libucrt:setenv.obj
 0001:0006e9a4       ??$set_environment_variable@AEBQEA_WQEA_W@?$__crt_char_traits@_W@@SAHAEBQEA_W$$QEBQEA_W@Z 000000018006f9a4 f i libucrt:setenv.obj
 0001:0006e9b4       ??$tcschr@AEBQEADD@?$__crt_char_traits@D@@SAPEADAEBQEAD$$QEAD@Z 000000018006f9b4 f i libucrt:setenv.obj
 0001:0006e9c0       ??$tcschr@AEBQEA_WD@?$__crt_char_traits@_W@@SAPEA_WAEBQEA_W$$QEAD@Z 000000018006f9c0 f i libucrt:setenv.obj
 0001:0006e9cc       ??$tcscpy_s@AEAPEADAEB_KAEAPEAD@?$__crt_char_traits@D@@SAHAEAPEADAEB_K0@Z 000000018006f9cc f i libucrt:setenv.obj
 0001:0006e9dc       ??$tcscpy_s@AEAPEA_WAEB_KAEAPEA_W@?$__crt_char_traits@_W@@SAHAEAPEA_WAEB_K0@Z 000000018006f9dc f i libucrt:setenv.obj
 0001:0006e9ec       ??$tcscpy_s@AEBQEADAEB_KAEBQEAD@?$__crt_char_traits@D@@SAHAEBQEADAEB_K0@Z 000000018006f9ec f i libucrt:setenv.obj
 0001:0006e9fc       ??$tcscpy_s@AEBQEA_WAEB_KAEBQEA_W@?$__crt_char_traits@_W@@SAHAEBQEA_WAEB_K0@Z 000000018006f9fc f i libucrt:setenv.obj
 0001:0006ea0c       ??$tcslen@AEBQEAD@?$__crt_char_traits@D@@SA_KAEBQEAD@Z 000000018006fa0c f i libucrt:setenv.obj
 0001:0006ea20       ??$tcslen@AEBQEA_W@?$__crt_char_traits@_W@@SA_KAEBQEA_W@Z 000000018006fa20 f i libucrt:setenv.obj
 0001:0006ea34       ??$tcsnicoll@AEBQEBDAEAPEADAEB_K@?$__crt_char_traits@D@@SAHAEBQEBDAEAPEADAEB_K@Z 000000018006fa34 f i libucrt:setenv.obj
 0001:0006ea44       ??$tcsnicoll@AEBQEB_WAEAPEA_WAEB_K@?$__crt_char_traits@_W@@SAHAEBQEB_WAEAPEA_WAEB_K@Z 000000018006fa44 f i libucrt:setenv.obj
 0001:0006ea84       ?strchr@@YAPEADQEADH@Z     000000018006fa84 f i libucrt:setenv.obj
 0001:0006ea8c       ?wcschr@@YAPEA_WPEA_W_W@Z  000000018006fa8c f i libucrt:setenv.obj
 0001:0006ea94       __dcrt_set_variable_in_narrow_environment_nolock 000000018006fa94 f   libucrt:setenv.obj
 0001:0006ea9c       __dcrt_set_variable_in_wide_environment_nolock 000000018006fa9c f   libucrt:setenv.obj
 0001:0006eaa4       _recalloc                  000000018006faa4 f   libucrt:recalloc.obj
 0001:0006eaac       _recalloc_base             000000018006faac f   libucrt:recalloc.obj
 0001:0006eb7c       ??$?B$$A6AHPEA_WK_J@Z@__crt_fast_encoded_nullptr_t@@QEBAP6AHPEA_WK_J@ZXZ 000000018006fb7c f i libucrt:winapi_thunks.obj
 0001:0006ec28       ??$__crt_fast_decode_pointer@P6AHPEA_WK_J@Z@@YAP6AHPEA_WK_J@ZQ6AH0K1@Z@Z 000000018006fc28 f i libucrt:winapi_thunks.obj
 0001:0006ec40       ??$__crt_fast_decode_pointer@PEAX@@YAPEAXQEAX@Z 000000018006fc40 f i libucrt:winapi_thunks.obj
 0001:0006ec58       ??$__crt_fast_encode_pointer@P6AHPEA_WK_J@Z@@YAP6AHPEA_WK_J@ZQ6AH0K1@Z@Z 000000018006fc58 f i libucrt:winapi_thunks.obj
 0001:0006f6d4       GetCurrentThreadEffectiveToken 00000001800706d4 f i libucrt:winapi_thunks.obj
 0001:0006f6dc       __acrt_AppPolicyGetProcessTerminationMethodInternal 00000001800706dc f   libucrt:winapi_thunks.obj
 0001:0006f734       __acrt_AppPolicyGetShowDeveloperDiagnosticInternal 0000000180070734 f   libucrt:winapi_thunks.obj
 0001:0006f78c       __acrt_AppPolicyGetThreadInitializationTypeInternal 000000018007078c f   libucrt:winapi_thunks.obj
 0001:0006f7e4       __acrt_AppPolicyGetWindowingModelInternal 00000001800707e4 f   libucrt:winapi_thunks.obj
 0001:0006f83c       __acrt_AreFileApisANSI     000000018007083c f   libucrt:winapi_thunks.obj
 0001:0006f880       __acrt_CompareStringEx     0000000180070880 f   libucrt:winapi_thunks.obj
 0001:0006f96c       __acrt_EnumSystemLocalesEx 000000018007096c f   libucrt:winapi_thunks.obj
 0001:0006fa0c       __acrt_FlsAlloc            0000000180070a0c f   libucrt:winapi_thunks.obj
 0001:0006fa14       __acrt_FlsFree             0000000180070a14 f   libucrt:winapi_thunks.obj
 0001:0006fa1c       __acrt_FlsGetValue         0000000180070a1c f   libucrt:winapi_thunks.obj
 0001:0006fa24       __acrt_FlsSetValue         0000000180070a24 f   libucrt:winapi_thunks.obj
 0001:0006fa2c       __acrt_GetDateFormatEx     0000000180070a2c f   libucrt:winapi_thunks.obj
 0001:0006faec       __acrt_GetEnabledXStateFeatures 0000000180070aec f   libucrt:winapi_thunks.obj
 0001:0006fb30       __acrt_GetLocaleInfoEx     0000000180070b30 f   libucrt:winapi_thunks.obj
 0001:0006fbc0       __acrt_GetSystemTimePreciseAsFileTime 0000000180070bc0 f   libucrt:winapi_thunks.obj
 0001:0006fc18       __acrt_GetTempPath2W       0000000180070c18 f   libucrt:winapi_thunks.obj
 0001:0006fc78       __acrt_GetTimeFormatEx     0000000180070c78 f   libucrt:winapi_thunks.obj
 0001:0006fd2c       __acrt_GetUserDefaultLocaleName 0000000180070d2c f   libucrt:winapi_thunks.obj
 0001:0006fd98       __acrt_GetXStateFeaturesMask 0000000180070d98 f   libucrt:winapi_thunks.obj
 0001:0006fdf4       __acrt_InitializeCriticalSectionEx 0000000180070df4 f   libucrt:winapi_thunks.obj
 0001:0006fe64       __acrt_IsValidLocaleName   0000000180070e64 f   libucrt:winapi_thunks.obj
 0001:0006fec8       __acrt_LCIDToLocaleName    0000000180070ec8 f   libucrt:winapi_thunks.obj
 0001:0006ff4c       __acrt_LCMapStringEx       0000000180070f4c f   libucrt:winapi_thunks.obj
 0001:00070038       __acrt_LocaleNameToLCID    0000000180071038 f   libucrt:winapi_thunks.obj
 0001:00070098       __acrt_LocateXStateFeature 0000000180071098 f   libucrt:winapi_thunks.obj
 0001:00070104       __acrt_MessageBoxA         0000000180071104 f   libucrt:winapi_thunks.obj
 0001:00070180       __acrt_MessageBoxW         0000000180071180 f   libucrt:winapi_thunks.obj
 0001:000701fc       __acrt_RoInitialize        00000001800711fc f   libucrt:winapi_thunks.obj
 0001:00070248       __acrt_RoUninitialize      0000000180071248 f   libucrt:winapi_thunks.obj
 0001:00070288       __acrt_RtlGenRandom        0000000180071288 f   libucrt:winapi_thunks.obj
 0001:000702e4       __acrt_SetThreadStackGuarantee 00000001800712e4 f   libucrt:winapi_thunks.obj
 0001:00070330       __acrt_can_show_message_box 0000000180071330 f   libucrt:winapi_thunks.obj
 0001:000703a0       __acrt_can_use_vista_locale_apis 00000001800713a0 f   libucrt:winapi_thunks.obj
 0001:000703d0       __acrt_can_use_xstate_apis 00000001800713d0 f   libucrt:winapi_thunks.obj
 0001:00070400       __acrt_eagerly_load_locale_apis 0000000180071400 f   libucrt:winapi_thunks.obj
 0001:0007055c       __acrt_get_parent_window   000000018007155c f   libucrt:winapi_thunks.obj
 0001:000705e8       __acrt_initialize_winapi_thunks 00000001800715e8 f   libucrt:winapi_thunks.obj
 0001:0007060c       __acrt_is_interactive      000000018007160c f   libucrt:winapi_thunks.obj
 0001:000706ec       __acrt_uninitialize_winapi_thunks 00000001800716ec f   libucrt:winapi_thunks.obj
 0001:00070730       __acrt_getheap             0000000180071730 f   libucrt:heap_handle.obj
 0001:00070738       __acrt_initialize_heap     0000000180071738 f   libucrt:heap_handle.obj
 0001:00070754       __acrt_uninitialize_heap   0000000180071754 f   libucrt:heap_handle.obj
 0001:00070760       _get_heap_handle           0000000180071760 f   libucrt:heap_handle.obj
 0001:0007097c       __acrt_initialize_lowio    000000018007197c f   libucrt:ioinit.obj
 0001:000709b8       __acrt_uninitialize_lowio  00000001800719b8 f   libucrt:ioinit.obj
 0001:000709f8       __acrt_execute_initializers 00000001800719f8 f   libucrt:shared_initialization.obj
 0001:00070a8c       __acrt_execute_uninitializers 0000000180071a8c f   libucrt:shared_initialization.obj
 0001:00070ad4       ??$?B$$A6AH_K@Z@__crt_fast_encoded_nullptr_t@@QEBAP6AH_K@ZXZ 0000000180071ad4 f i libucrt:new_handler.obj
 0001:00070adc       ??$__crt_fast_decode_pointer@P6AH_K@Z@@YAP6AH_K@ZQ6AH0@Z@Z 0000000180071adc f i libucrt:new_handler.obj
 0001:00070af4       ??$__crt_fast_encode_pointer@P6AH_K@Z@@YAP6AH_K@ZQ6AH0@Z@Z 0000000180071af4 f i libucrt:new_handler.obj
 0001:00070b14       ?_set_new_handler@@YAP6AH_K@ZH@Z 0000000180071b14 f   libucrt:new_handler.obj
 0001:00070b20       ?initialize@?$dual_state_global@P6AH_K@Z@__crt_state_management@@QEAAXQ6AH_K@Z@Z 0000000180071b20 f i libucrt:new_handler.obj
 0001:00070b30       ?value@?$dual_state_global@P6AH_K@Z@__crt_state_management@@QEAAAEAP6AH_K@ZXZ 0000000180071b30 f i libucrt:new_handler.obj
 0001:00070b34       __acrt_initialize_new_handler 0000000180071b34 f   libucrt:new_handler.obj
 0001:00070b3c       _callnewh                  0000000180071b3c f   libucrt:new_handler.obj
 0001:00070b7c       _query_new_handler         0000000180071b7c f   libucrt:new_handler.obj
 0001:00070bb4       _set_new_handler           0000000180071bb4 f   libucrt:new_handler.obj
 0001:00070c10       ??$?B$$A6AXH@Z@__crt_fast_encoded_nullptr_t@@QEBAP6AXH@ZXZ 0000000180071c10 f i libucrt:signal.obj
 0001:00070c88       ??$__crt_fast_decode_pointer@P6AXH@Z@@YAP6AXH@ZQ6AXH@Z@Z 0000000180071c88 f i libucrt:signal.obj
 0001:00070ca0       ??$__crt_fast_encode_pointer@P6AXH@Z@@YAP6AXH@ZQ6AXH@Z@Z 0000000180071ca0 f i libucrt:signal.obj
 0001:00070dd4       ?initialize@?$dual_state_global@P6AXH@Z@__crt_state_management@@QEAAXQ6AXH@Z@Z 0000000180071dd4 f i libucrt:signal.obj
 0001:00070e64       ?value@?$dual_state_global@P6AXH@Z@__crt_state_management@@QEAAAEAP6AXH@ZXZ 0000000180071e64 f i libucrt:signal.obj
 0001:00070e68       __acrt_get_sigabrt_handler 0000000180071e68 f   libucrt:signal.obj
 0001:00070e98       __acrt_initialize_signal_handlers 0000000180071e98 f   libucrt:signal.obj
 0001:00070eb8       __fpecode                  0000000180071eb8 f   libucrt:signal.obj
 0001:00070ecc       __pxcptinfoptrs            0000000180071ecc f   libucrt:signal.obj
 0001:00070ee0       raise                      0000000180071ee0 f   libucrt:signal.obj
 0001:0007115c       signal                     000000018007215c f   libucrt:signal.obj
 0001:00071320       ??$__crt_fast_decode_pointer@P6AHPEAU_exception@@@Z@@YAP6AHPEAU_exception@@@ZQ6AH0@Z@Z 0000000180072320 f i libucrt:matherr.obj
 0001:00071338       ??$__crt_fast_encode_pointer@P6AHPEAU_exception@@@Z@@YAP6AHPEAU_exception@@@ZQ6AH0@Z@Z 0000000180072338 f i libucrt:matherr.obj
 0001:00071358       ?initialize@?$dual_state_global@P6AHPEAU_exception@@@Z@__crt_state_management@@QEAAXQ6AHPEAU_exception@@@Z@Z 0000000180072358 f i libucrt:matherr.obj
 0001:00071368       ?value@?$dual_state_global@P6AHPEAU_exception@@@Z@__crt_state_management@@QEAAAEAP6AHPEAU_exception@@@ZXZ 0000000180072368 f i libucrt:matherr.obj
 0001:0007136c       __acrt_has_user_matherr    000000018007236c f   libucrt:matherr.obj
 0001:0007138c       __acrt_initialize_user_matherr 000000018007238c f   libucrt:matherr.obj
 0001:00071394       __acrt_invoke_user_matherr 0000000180072394 f   libucrt:matherr.obj
 0001:000713d0       __setusermatherr           00000001800723d0 f   libucrt:matherr.obj
 0001:000716a0       ??0__crt_stdio_stream@@QEAA@QEAU__crt_stdio_stream_data@@@Z 00000001800726a0 f i libucrt:fflush.obj
 0001:00071810       ?__acrt_stdio_reset_buffer@@YAXV__crt_stdio_stream@@@Z 0000000180072810 f i libucrt:fflush.obj
 0001:00071900       ?has_all_of@__crt_stdio_stream@@QEBA_NJ@Z 0000000180072900 f i libucrt:fflush.obj
 0001:0007194c       ?set_flags@__crt_stdio_stream@@QEBA_NJ@Z 000000018007294c f i libucrt:fflush.obj
 0001:0007196c       ?unset_flags@__crt_stdio_stream@@QEBA_NJ@Z 000000018007296c f i libucrt:fflush.obj
 0001:00071994       __acrt_stdio_flush_nolock  0000000180072994 f   libucrt:fflush.obj
 0001:00071a20       _fflush_nolock             0000000180072a20 f   libucrt:fflush.obj
 0001:00071af4       _flushall                  0000000180072af4 f   libucrt:fflush.obj
 0001:00071afc       fflush                     0000000180072afc f   libucrt:fflush.obj
 0001:00071b64       __p___mb_cur_max           0000000180072b64 f   libucrt:nlsdata.obj
 0001:00071b94       ??$?RPEAU__crt_stdio_stream_data@@@__crt_internal_free_policy@@QEBAXQEBQEAU__crt_stdio_stream_data@@@Z 0000000180072b94 f i libucrt:_file.obj
 0001:00071b9c       ??0?$__crt_unique_heap_ptr@PEAU__crt_stdio_stream_data@@U__crt_internal_free_policy@@@@QEAA@QEAPEAU__crt_stdio_stream_data@@@Z 0000000180072b9c f i libucrt:_file.obj
 0001:00071ba4       ??1?$__crt_unique_heap_ptr@PEAU__crt_stdio_stream_data@@U__crt_internal_free_policy@@@@QEAA@XZ 0000000180072ba4 f i libucrt:_file.obj
 0001:00071bc0       ?detach@?$__crt_unique_heap_ptr@PEAU__crt_stdio_stream_data@@U__crt_internal_free_policy@@@@QEAAPEAPEAU__crt_stdio_stream_data@@XZ 0000000180072bc0 f i libucrt:_file.obj
 0001:00071bc8       ?release@?$__crt_unique_heap_ptr@PEAU__crt_stdio_stream_data@@U__crt_internal_free_policy@@@@QEAAXXZ 0000000180072bc8 f i libucrt:_file.obj
 0001:00071be4       __acrt_initialize_stdio    0000000180072be4 f   libucrt:_file.obj
 0001:00071d04       __acrt_iob_func            0000000180072d04 f   libucrt:_file.obj
 0001:00071d18       __acrt_uninitialize_stdio  0000000180072d18 f   libucrt:_file.obj
 0001:00071d74       _get_stream_buffer_pointers 0000000180072d74 f   libucrt:_file.obj
 0001:00071dbc       _lock_file                 0000000180072dbc f   libucrt:_file.obj
 0001:00071dc8       _unlock_file               0000000180072dc8 f   libucrt:_file.obj
 0001:00071dd4       ?has_any_buffer@__crt_stdio_stream@@QEBA_NXZ 0000000180072dd4 f i libucrt:_sftbuf.obj
 0001:00071de8       ?has_any_of@__crt_stdio_stream@@QEBA_NJ@Z 0000000180072de8 f i libucrt:_sftbuf.obj
 0001:00071df8       ?has_temporary_buffer@__crt_stdio_stream@@QEBA_NXZ 0000000180072df8 f i libucrt:_sftbuf.obj
 0001:00071e08       __acrt_should_use_temporary_buffer 0000000180072e08 f   libucrt:_sftbuf.obj
 0001:00071e54       __acrt_stdio_begin_temporary_buffering_nolock 0000000180072e54 f   libucrt:_sftbuf.obj
 0001:00071f1c       __acrt_stdio_end_temporary_buffering_nolock 0000000180072f1c f   libucrt:_sftbuf.obj
 0001:00071f5c       _malloc_base               0000000180072f5c f   libucrt:malloc_base.obj
 0001:00072870       ??1?$__crt_simd_cleanup_guard@$00@@QEAA@XZ 0000000180073870 f i libucrt:strnlen.obj
 0001:00072874       ??1?$__crt_simd_cleanup_guard@$0A@@@QEAA@XZ 0000000180073874 f i libucrt:strnlen.obj
 0001:00072878       ?compare_equals@?$__crt_simd_traits@$00E@@SA?AT__m256i@@T2@0@Z 0000000180073878 f i libucrt:strnlen.obj
 0001:00072884       ?compare_equals@?$__crt_simd_traits@$00G@@SA?AT__m256i@@T2@0@Z 0000000180073884 f i libucrt:strnlen.obj
 0001:00072890       ?compare_equals@?$__crt_simd_traits@$0A@E@@SA?AT__m128i@@T2@0@Z 0000000180073890 f i libucrt:strnlen.obj
 0001:0007289c       ?compare_equals@?$__crt_simd_traits@$0A@G@@SA?AT__m128i@@T2@0@Z 000000018007389c f i libucrt:strnlen.obj
 0001:000728a8       ?compute_byte_mask@?$__crt_simd_pack_traits@$00@@SAHT__m256i@@@Z 00000001800738a8 f i libucrt:strnlen.obj
 0001:000728b4       ?compute_byte_mask@?$__crt_simd_pack_traits@$0A@@@SAHT__m128i@@@Z 00000001800738b4 f i libucrt:strnlen.obj
 0001:000728c0       ?get_zero_pack@?$__crt_simd_pack_traits@$00@@SA?AT__m256i@@XZ 00000001800738c0 f i libucrt:strnlen.obj
 0001:000728c8       ?get_zero_pack@?$__crt_simd_pack_traits@$0A@@@SA?AT__m128i@@XZ 00000001800738c8 f i libucrt:strnlen.obj
 0001:000728cc       strnlen                    00000001800738cc f   libucrt:strnlen.obj
 0001:00072a1c       wcslen                     0000000180073a1c f   libucrt:strnlen.obj
 0001:00072b48       wcsnlen                    0000000180073b48 f   libucrt:strnlen.obj
 0001:00072d20       ?value_explicit@?$dual_state_global@PEAU__crt_locale_data@@@__crt_state_management@@QEAAAEAPEAU__crt_locale_data@@_K@Z 0000000180073d20 f i libucrt:locale_update.obj
 0001:00072d28       ?value_explicit@?$dual_state_global@PEAU__crt_multibyte_data@@@__crt_state_management@@QEAAAEAPEAU__crt_multibyte_data@@_K@Z 0000000180073d28 f i libucrt:locale_update.obj
 0001:00072d30       __acrt_update_locale_info  0000000180073d30 f   libucrt:locale_update.obj
 0001:00072d64       __acrt_update_locale_info_explicit 0000000180073d64 f   libucrt:locale_update.obj
 0001:00072d9c       __acrt_update_multibyte_info 0000000180073d9c f   libucrt:locale_update.obj
 0001:00072dd0       __acrt_update_multibyte_info_explicit 0000000180073dd0 f   libucrt:locale_update.obj
 0001:00072e08       ?__acrt_fp_classify@@YA?AW4__acrt_fp_class@@AEBN@Z 0000000180073e08 f i libucrt:cvt.obj
 0001:00072e64       ?__acrt_fp_is_negative@@YA_NAEBN@Z 0000000180073e64 f i libucrt:cvt.obj
 0001:00073ad0       ?strrchr@@YAPEADQEADH@Z    0000000180074ad0 f i libucrt:cvt.obj
 0001:00073ad8       __acrt_fp_format           0000000180074ad8 f   libucrt:cvt.obj
 0001:00073dc0       ?value_or@?$cached@H@__crt_cached_ptd_host@@QEBAHH@Z 0000000180074dc0 f i libucrt:wctomb.obj
 0001:00073dcc       _wctomb_internal           0000000180074dcc f   libucrt:wctomb.obj
 0001:00073f7c       _wctomb_l                  0000000180074f7c f   libucrt:wctomb.obj
 0001:00074068       _wctomb_s_l                0000000180075068 f   libucrt:wctomb.obj
 0001:00074118       wctomb                     0000000180075118 f   libucrt:wctomb.obj
 0001:000741e0       wctomb_s                   00000001800751e0 f   libucrt:wctomb.obj
 0001:00074280       _isleadbyte_fast_internal  0000000180075280 f i libucrt:mbtowc.obj
 0001:00074298       _mbtowc_internal           0000000180075298 f   libucrt:mbtowc.obj
 0001:00074410       _mbtowc_l                  0000000180075410 f   libucrt:mbtowc.obj
 0001:000744b4       mbtowc                     00000001800754b4 f   libucrt:mbtowc.obj
 0001:0007454c       ?lowio_handle@__crt_stdio_stream@@QEBAHXZ 000000018007554c f i libucrt:fileno.obj
 0001:00074554       _fileno                    0000000180075554 f   libucrt:fileno.obj
 0001:0007457c       _get_printf_count_output   000000018007557c f   libucrt:printf_count_output.obj
 0001:00074594       _set_printf_count_output   0000000180075594 f   libucrt:printf_count_output.obj
 0001:00074658       _fputwc_nolock             0000000180075658 f   libucrt:fputwc.obj
 0001:000746f4       _fputwc_nolock_internal    00000001800756f4 f   libucrt:fputwc.obj
 0001:00074880       _fputwchar                 0000000180075880 f   libucrt:fputwc.obj
 0001:000748a4       _putwc_nolock              00000001800758a4 f   libucrt:fputwc.obj
 0001:000748ac       fputwc                     00000001800758ac f   libucrt:fputwc.obj
 0001:00074948       putwc                      0000000180075948 f   libucrt:fputwc.obj
 0001:00074950       putwchar                   0000000180075950 f   libucrt:fputwc.obj
 0001:00074ac0       _fputc_nolock              0000000180075ac0 f   libucrt:fputc.obj
 0001:00074b6c       _fputc_nolock_internal     0000000180075b6c f   libucrt:fputc.obj
 0001:00074b84       _fputchar                  0000000180075b84 f   libucrt:fputc.obj
 0001:00074ba8       _putc_nolock               0000000180075ba8 f   libucrt:fputc.obj
 0001:00074bb0       fputc                      0000000180075bb0 f   libucrt:fputc.obj
 0001:00074c48       putc                       0000000180075c48 f   libucrt:fputc.obj
 0001:00074c50       putchar                    0000000180075c50 f   libucrt:fputc.obj
 0001:00074c5c       ??$?RU__crt_locale_data@@@__crt_internal_free_policy@@QEBAXQEBU__crt_locale_data@@@Z 0000000180075c5c f i libucrt:wsetlocale.obj
 0001:00074c64       ??$?RU__crt_locale_pointers@@@__crt_internal_free_policy@@QEBAXQEBU__crt_locale_pointers@@@Z 0000000180075c64 f i libucrt:wsetlocale.obj
 0001:00075068       ??0?$__crt_unique_heap_ptr@U__crt_locale_data@@U__crt_internal_free_policy@@@@QEAA@QEAU__crt_locale_data@@@Z 0000000180076068 f i libucrt:wsetlocale.obj
 0001:00075070       ??0?$__crt_unique_heap_ptr@U__crt_locale_pointers@@U__crt_internal_free_policy@@@@QEAA@QEAU__crt_locale_pointers@@@Z 0000000180076070 f i libucrt:wsetlocale.obj
 0001:00075078       ??0_expandlocale_locale_name_cache@@QEAA@QEA_W_KQEAU__crt_qualified_locale_data@@@Z 0000000180076078 f i libucrt:wsetlocale.obj
 0001:000750d4       ??1?$__crt_unique_heap_ptr@U__crt_locale_data@@U__crt_internal_free_policy@@@@QEAA@XZ 00000001800760d4 f i libucrt:wsetlocale.obj
 0001:000750f0       ??1?$__crt_unique_heap_ptr@U__crt_locale_pointers@@U__crt_internal_free_policy@@@@QEAA@XZ 00000001800760f0 f i libucrt:wsetlocale.obj
 0001:0007510c       ??1_expandlocale_locale_name_cache@@QEAA@XZ 000000018007610c f i libucrt:wsetlocale.obj
 0001:00075154       ??B?$__crt_unique_heap_ptr@U__crt_locale_data@@U__crt_internal_free_policy@@@@QEBA_NXZ 0000000180076154 f i libucrt:wsetlocale.obj
 0001:0007515c       ??B?$__crt_unique_heap_ptr@U__crt_locale_pointers@@U__crt_internal_free_policy@@@@QEBA_NXZ 000000018007615c f i libucrt:wsetlocale.obj
 0001:000753dc       ?commit_locale_name@_expandlocale_locale_name_cache@@QEAAXQEB_W_K@Z 00000001800763dc f i libucrt:wsetlocale.obj
 0001:00075454       ?commit_locale_name_cache_already_updated@_expandlocale_locale_name_cache@@QEAAXQEB_W_K@Z 0000000180076454 f i libucrt:wsetlocale.obj
 0001:00075494       ?detach@?$__crt_unique_heap_ptr@U__crt_locale_data@@U__crt_internal_free_policy@@@@QEAAPEAU__crt_locale_data@@XZ 0000000180076494 f i libucrt:wsetlocale.obj
 0001:0007549c       ?detach@?$__crt_unique_heap_ptr@U__crt_locale_pointers@@U__crt_internal_free_policy@@@@QEAAPEAU__crt_locale_pointers@@XZ 000000018007649c f i libucrt:wsetlocale.obj
 0001:000754a4       ?get@?$__crt_unique_heap_ptr@U__crt_locale_data@@U__crt_internal_free_policy@@@@QEBAPEAU__crt_locale_data@@XZ 00000001800764a4 f i libucrt:wsetlocale.obj
 0001:000754a8       ?get@?$__crt_unique_heap_ptr@U__crt_locale_pointers@@U__crt_internal_free_policy@@@@QEBAPEAU__crt_locale_pointers@@XZ 00000001800764a8 f i libucrt:wsetlocale.obj
 0001:000754ac       ?is_valid@?$__crt_unique_heap_ptr@U__crt_locale_data@@U__crt_internal_free_policy@@@@QEBA_NXZ 00000001800764ac f i libucrt:wsetlocale.obj
 0001:000754b4       ?is_valid@?$__crt_unique_heap_ptr@U__crt_locale_pointers@@U__crt_internal_free_policy@@@@QEBA_NXZ 00000001800764b4 f i libucrt:wsetlocale.obj
 0001:000754bc       ?release@?$__crt_unique_heap_ptr@U__crt_locale_data@@U__crt_internal_free_policy@@@@QEAAXXZ 00000001800764bc f i libucrt:wsetlocale.obj
 0001:000754d8       ?release@?$__crt_unique_heap_ptr@U__crt_locale_pointers@@U__crt_internal_free_policy@@@@QEAAXXZ 00000001800764d8 f i libucrt:wsetlocale.obj
 0001:000754f4       __acrt_copy_locale_name    00000001800764f4 f   libucrt:wsetlocale.obj
 0001:00075578       __acrt_set_locale_changed  0000000180076578 f   libucrt:wsetlocale.obj
 0001:00075584       __acrt_uninitialize_locale 0000000180076584 f   libucrt:wsetlocale.obj
 0001:000755b4       __ascii_tolower            00000001800765b4 f i libucrt:wsetlocale.obj
 0001:000755c4       __ascii_towlower           00000001800765c4 f i libucrt:wsetlocale.obj
 0001:000755d4       __lc_lctowcs               00000001800765d4 f   libucrt:wsetlocale.obj
 0001:00075678       __lc_wcstolc               0000000180076678 f   libucrt:wsetlocale.obj
 0001:000757e0       _configthreadlocale        00000001800767e0 f   libucrt:wsetlocale.obj
 0001:0007590c       _create_locale             000000018007690c f   libucrt:wsetlocale.obj
 0001:00075e04       _free_locale               0000000180076e04 f   libucrt:wsetlocale.obj
 0001:00075ea8       _get_current_locale        0000000180076ea8 f   libucrt:wsetlocale.obj
 0001:00075f64       _wcreate_locale            0000000180076f64 f   libucrt:wsetlocale.obj
 0001:000760ac       _wcscats                   00000001800770ac f   libucrt:wsetlocale.obj
 0001:00076114       _wsetlocale                0000000180077114 f   libucrt:wsetlocale.obj
 0001:00076f30       __pctype_func              0000000180077f30 f   libucrt:ctype.obj
 0001:00076f60       __pwctype_func             0000000180077f60 f   libucrt:ctype.obj
 0001:00076f68       _iswctype_l                0000000180077f68 f   libucrt:iswctype.obj
 0001:00076f70       iswctype                   0000000180077f70 f   libucrt:iswctype.obj
 0001:00076fdc       _isctype                   0000000180077fdc f   libucrt:isctype.obj
 0001:0007700c       _isctype_l                 000000018007800c f   libucrt:isctype.obj
 0001:00077130       _get_fpsr                  0000000180078130 f   libucrt:fpsr.obj
 0001:00077140       _set_fpsr                  0000000180078140 f   libucrt:fpsr.obj
 0001:0007714a       _fclrf                     000000018007814a f   libucrt:fpsr.obj
 0001:0007715e       _frnd                      000000018007815e f   libucrt:fpsr.obj
 0001:00077180       ?should_round_up@__crt_strtox@@YA_N_N000@Z 0000000180078180 f i libucrt:fpexcept.obj
 0001:00077208       _errcode                   0000000180078208 f   libucrt:fpexcept.obj
 0001:0007724c       _except1                   000000018007824c f   libucrt:fpexcept.obj
 0001:00077340       _except2                   0000000180078340 f   libucrt:fpexcept.obj
 0001:0007747c       _handle_exc                000000018007847c f   libucrt:fpexcept.obj
 0001:00077770       _handle_qnan2              0000000180078770 f   libucrt:fpexcept.obj
 0001:00077778       _raise_exc                 0000000180078778 f   libucrt:fpexcept.obj
 0001:000777a0       _raise_exc_ex              00000001800787a0 f   libucrt:fpexcept.obj
 0001:00077aa8       _raise_excf                0000000180078aa8 f   libucrt:fpexcept.obj
 0001:00077ad4       _set_errno_from_matherr    0000000180078ad4 f   libucrt:fpexcept.obj
 0001:00077b04       _umatherr                  0000000180078b04 f   libucrt:fpexcept.obj
 0001:00077bd4       nexttoward                 0000000180078bd4 f   libucrt:nexttoward.obj
 0001:00077d44       nexttowardf                0000000180078d44 f   libucrt:nexttowardf.obj
 0001:00077e80       __acrt_add_locale_ref      0000000180078e80 f   libucrt:locale_refcounting.obj
 0001:00077f0c       __acrt_free_locale         0000000180078f0c f   libucrt:locale_refcounting.obj
 0001:00078084       __acrt_locale_add_lc_time_reference 0000000180079084 f   libucrt:locale_refcounting.obj
 0001:000780ac       __acrt_locale_free_lc_time_if_unreferenced 00000001800790ac f   libucrt:locale_refcounting.obj
 0001:000780e4       __acrt_locale_release_lc_time_reference 00000001800790e4 f   libucrt:locale_refcounting.obj
 0001:0007810c       __acrt_release_locale_ref  000000018007910c f   libucrt:locale_refcounting.obj
 0001:000781b4       __acrt_update_thread_locale_data 00000001800791b4 f   libucrt:locale_refcounting.obj
 0001:00078224       _updatetlocinfoEx_nolock   0000000180079224 f   libucrt:locale_refcounting.obj
 0001:0007828c       ?value@?$dual_state_global@J@__crt_state_management@@QEAAAEAJXZ 000000018007928c f i libucrt:new_mode.obj
 0001:00078290       _query_new_mode            0000000180079290 f   libucrt:new_mode.obj
 0001:00078298       _set_new_mode              0000000180079298 f   libucrt:new_mode.obj
 0001:000783d0       qsort                      00000001800793d0 f   libucrt:qsort.obj
 0001:000788d4       wcsncpy_s                  00000001800798d4 f   libucrt:wcsncpy_s.obj
 0001:000789d0       wcspbrk                    00000001800799d0 f   libucrt:wcspbrk.obj
 0001:00078ae4       strncpy_s                  0000000180079ae4 f   libucrt:strncpy_s.obj
 0001:00078c80       strpbrk                    0000000180079c80 f   libucrt:strpbrk.obj
 0001:00079048       _mbsdec                    000000018007a048 f   libucrt:mbsdec.obj
 0001:00079050       _mbsdec_l                  000000018007a050 f   libucrt:mbsdec.obj
 0001:000790e4       ??0?$__crt_scoped_stack_ptr@_W@@QEAA@U?$__crt_scoped_stack_ptr_tag@_W@@@Z 000000018007a0e4 f i libucrt:getstringtypea.obj
 0001:000790ec       ??0?$__crt_scoped_stack_ptr_tag@_W@@QEAA@QEA_W@Z 000000018007a0ec f i libucrt:getstringtypea.obj
 0001:000790f4       ??1?$__crt_scoped_stack_ptr@_W@@QEAA@XZ 000000018007a0f4 f i libucrt:getstringtypea.obj
 0001:00079118       ?get@?$__crt_scoped_stack_ptr@_W@@QEBAPEA_WXZ 000000018007a118 f i libucrt:getstringtypea.obj
 0001:0007911c       _MallocaComputeSize        000000018007a11c f i libucrt:getstringtypea.obj
 0001:0007912c       _MarkAllocaS               000000018007a12c f i libucrt:getstringtypea.obj
 0001:0007913c       __acrt_GetStringTypeA      000000018007a13c f   libucrt:getstringtypea.obj
 0001:000792cc       _freea_crt                 000000018007a2cc f i libucrt:getstringtypea.obj
 0001:000792ec       ??B?$__crt_scoped_stack_ptr@_W@@QEBA_NXZ 000000018007a2ec f i libucrt:lcmapstringa.obj
 0001:00079628       __acrt_LCMapStringA        000000018007a628 f   libucrt:lcmapstringa.obj
 0001:000796d8       _wcsnicoll                 000000018007a6d8 f   libucrt:wcsnicol.obj
 0001:00079728       _wcsnicoll_l               000000018007a728 f   libucrt:wcsnicol.obj
 0001:00079818       _strnicoll                 000000018007a818 f   libucrt:strnicol.obj
 0001:00079830       _strnicoll_l               000000018007a830 f   libucrt:strnicol.obj
 0001:00079930       __acrt_SetEnvironmentVariableA 000000018007a930 f   libucrt:setenvironmentvariablea.obj
 0001:00079ad0       _msize                     000000018007aad0 f   libucrt:msize.obj
 0001:00079ad8       _msize_base                000000018007aad8 f   libucrt:msize.obj
 0001:00079b14       _realloc_base              000000018007ab14 f   libucrt:realloc_base.obj
 0001:00079c60       __acrt_DownlevelLCIDToLocaleName 000000018007ac60 f   libucrt:lcidtoname_downlevel.obj
 0001:00079d48       __acrt_DownlevelLocaleNameToLCID 000000018007ad48 f   libucrt:lcidtoname_downlevel.obj
 0001:00079dec       ??$?RU__crt_lowio_handle_data@@@__crt_internal_free_policy@@QEBAXQEBU__crt_lowio_handle_data@@@Z 000000018007adec f i libucrt:osfinfo.obj
 0001:00079df4       ??0?$__crt_unique_heap_ptr@U__crt_lowio_handle_data@@U__crt_internal_free_policy@@@@QEAA@QEAU__crt_lowio_handle_data@@@Z 000000018007adf4 f i libucrt:osfinfo.obj
 0001:00079dfc       ??1?$__crt_unique_heap_ptr@U__crt_lowio_handle_data@@U__crt_internal_free_policy@@@@QEAA@XZ 000000018007adfc f i libucrt:osfinfo.obj
 0001:00079e18       ??B?$__crt_unique_heap_ptr@U__crt_lowio_handle_data@@U__crt_internal_free_policy@@@@QEBA_NXZ 000000018007ae18 f i libucrt:osfinfo.obj
 0001:00079e20       ?detach@?$__crt_unique_heap_ptr@U__crt_lowio_handle_data@@U__crt_internal_free_policy@@@@QEAAPEAU__crt_lowio_handle_data@@XZ 000000018007ae20 f i libucrt:osfinfo.obj
 0001:00079e28       ?get@?$__crt_unique_heap_ptr@U__crt_lowio_handle_data@@U__crt_internal_free_policy@@@@QEBAPEAU__crt_lowio_handle_data@@XZ 000000018007ae28 f i libucrt:osfinfo.obj
 0001:00079e2c       ?is_valid@?$__crt_unique_heap_ptr@U__crt_lowio_handle_data@@U__crt_internal_free_policy@@@@QEBA_NXZ 000000018007ae2c f i libucrt:osfinfo.obj
 0001:00079e34       ?release@?$__crt_unique_heap_ptr@U__crt_lowio_handle_data@@U__crt_internal_free_policy@@@@QEAAXXZ 000000018007ae34 f i libucrt:osfinfo.obj
 0001:00079e50       __acrt_lowio_create_handle_array 000000018007ae50 f   libucrt:osfinfo.obj
 0001:00079ef8       __acrt_lowio_destroy_handle_array 000000018007aef8 f   libucrt:osfinfo.obj
 0001:00079f48       __acrt_lowio_ensure_fh_exists 000000018007af48 f   libucrt:osfinfo.obj
 0001:00079ff0       __acrt_lowio_lock_fh       000000018007aff0 f   libucrt:osfinfo.obj
 0001:0007a018       __acrt_lowio_set_os_handle 000000018007b018 f   libucrt:osfinfo.obj
 0001:0007a0d8       __acrt_lowio_unlock_fh     000000018007b0d8 f   libucrt:osfinfo.obj
 0001:0007a100       _alloc_osfhnd              000000018007b100 f   libucrt:osfinfo.obj
 0001:0007a240       _free_osfhnd               000000018007b240 f   libucrt:osfinfo.obj
 0001:0007a2fc       _get_osfhandle             000000018007b2fc f   libucrt:osfinfo.obj
 0001:0007a374       _open_osfhandle            000000018007b374 f   libucrt:osfinfo.obj
 0001:0007a5b8       _commit                    000000018007b5b8 f   libucrt:commit.obj
 0001:0007aff8       _utf8_no_of_trailbytes     000000018007bff8 f i libucrt:write.obj
 0001:0007b008       _write                     000000018007c008 f   libucrt:write.obj
 0001:0007b0a0       _write_internal            000000018007c0a0 f   libucrt:write.obj
 0001:0007b1c0       _write_nolock              000000018007c1c0 f   libucrt:write.obj
 0001:0007b4c8       localeconv                 000000018007c4c8 f   libucrt:localeconv.obj
 0001:0007b4fc       ?is_in_use@__crt_stdio_stream@@QEBA_NXZ 000000018007c4fc f i libucrt:closeall.obj
 0001:0007b50c       _fcloseall                 000000018007c50c f   libucrt:closeall.obj
 0001:0007b5c0       ?has_crt_buffer@__crt_stdio_stream@@QEBA_NXZ 000000018007c5c0 f i libucrt:_freebuf.obj
 0001:0007b5d0       __acrt_stdio_free_buffer_nolock 000000018007c5d0 f   libucrt:_freebuf.obj
 0001:0007b614       _isatty                    000000018007c614 f   libucrt:isatty.obj
 0001:0007b75c       __acrt_fp_strflt_to_string 000000018007c75c f   libucrt:_fptostr.obj
 0001:0007c9b0       ??0big_integer@__crt_strtox@@QEAA@AEBU01@@Z 000000018007d9b0 f i libucrt:cfout.obj
 0001:0007c9e0       ??0big_integer@__crt_strtox@@QEAA@XZ 000000018007d9e0 f i libucrt:cfout.obj
 0001:0007ca90       ??4big_integer@__crt_strtox@@QEAAAEAU01@AEBU01@@Z 000000018007da90 f i libucrt:cfout.obj
 0001:0007cac0       ??8__crt_strtox@@YA_NAEBUbig_integer@0@0@Z 000000018007dac0 f i libucrt:cfout.obj
 0001:0007caf0       ??9__crt_strtox@@YA_NAEBUbig_integer@0@0@Z 000000018007daf0 f i libucrt:cfout.obj
 0001:0007cb30       ?add_carry@__crt_strtox@@YAIAEAIII@Z 000000018007db30 f i libucrt:cfout.obj
 0001:0007cb50       ?add_multiply_carry@__crt_strtox@@YAIAEAIIII@Z 000000018007db50 f i libucrt:cfout.obj
 0001:0007cb70       ?bit_scan_reverse@__crt_strtox@@YAII@Z 000000018007db70 f i libucrt:cfout.obj
 0001:0007cb90       ?count_sequential_high_zeroes@__crt_strtox@@YAII@Z 000000018007db90 f i libucrt:cfout.obj
 0001:0007cbb0       ?divide@__crt_strtox@@YA_KAEAUbig_integer@1@AEBU21@@Z 000000018007dbb0 f i libucrt:cfout.obj
 0001:0007d050       ?is_zero@__crt_strtox@@YA_NAEBUbig_integer@1@@Z 000000018007e050 f i libucrt:cfout.obj
 0001:0007d060       ?make_big_integer@__crt_strtox@@YA?AUbig_integer@1@_K@Z 000000018007e060 f i libucrt:cfout.obj
 0001:0007d080       ?make_big_integer_power_of_two@__crt_strtox@@YA?AUbig_integer@1@I@Z 000000018007e080 f i libucrt:cfout.obj
 0001:0007d0f0       ?multiply@__crt_strtox@@YA_NAEAUbig_integer@1@AEBU21@@Z 000000018007e0f0 f i libucrt:cfout.obj
 0001:0007d490       ?multiply@__crt_strtox@@YA_NAEAUbig_integer@1@I@Z 000000018007e490 f i libucrt:cfout.obj
 0001:0007d580       ?multiply_64_32@__crt_strtox@@YA_K_KI@Z 000000018007e580 f i libucrt:cfout.obj
 0001:0007d590       ?multiply_by_power_of_ten@__crt_strtox@@YA_NAEAUbig_integer@1@I@Z 000000018007e590 f i libucrt:cfout.obj
 0001:0007db00       ?multiply_core@__crt_strtox@@YAIQEAIII@Z 000000018007eb00 f i libucrt:cfout.obj
 0001:0007db50       ?shift_left@__crt_strtox@@YA_NAEAUbig_integer@1@I@Z 000000018007eb50 f i libucrt:cfout.obj
 0001:0007dccc       __acrt_fltout              000000018007eccc f   libucrt:cfout.obj
 0001:0007efe4       __fpe_flt_rounds           000000018007ffe4 f   libucrt:fegetround.obj
 0001:0007f02c       fegetround                 000000018008002c f   libucrt:fegetround.obj
 0001:0007f040       ??$?RG@__crt_internal_free_policy@@QEBAXQEBG@Z 0000000180080040 f i libucrt:initctype.obj
 0001:0007f048       ??$?RJ@__crt_internal_free_policy@@QEBAXQEBJ@Z 0000000180080048 f i libucrt:initctype.obj
 0001:0007f050       ??0?$__crt_unique_heap_ptr@GU__crt_internal_free_policy@@@@QEAA@QEAG@Z 0000000180080050 f i libucrt:initctype.obj
 0001:0007f058       ??0?$__crt_unique_heap_ptr@JU__crt_internal_free_policy@@@@QEAA@QEAJ@Z 0000000180080058 f i libucrt:initctype.obj
 0001:0007f060       ??1?$__crt_unique_heap_ptr@GU__crt_internal_free_policy@@@@QEAA@XZ 0000000180080060 f i libucrt:initctype.obj
 0001:0007f07c       ??1?$__crt_unique_heap_ptr@JU__crt_internal_free_policy@@@@QEAA@XZ 000000018008007c f i libucrt:initctype.obj
 0001:0007f098       ?detach@?$__crt_unique_heap_ptr@GU__crt_internal_free_policy@@@@QEAAPEAGXZ 0000000180080098 f i libucrt:initctype.obj
 0001:0007f0a0       ?detach@?$__crt_unique_heap_ptr@JU__crt_internal_free_policy@@@@QEAAPEAJXZ 00000001800800a0 f i libucrt:initctype.obj
 0001:0007f0a8       ?release@?$__crt_unique_heap_ptr@GU__crt_internal_free_policy@@@@QEAAXXZ 00000001800800a8 f i libucrt:initctype.obj
 0001:0007f0c4       ?release@?$__crt_unique_heap_ptr@JU__crt_internal_free_policy@@@@QEAAXXZ 00000001800800c4 f i libucrt:initctype.obj
 0001:0007f0e0       ___lc_codepage_func        00000001800800e0 f   libucrt:initctype.obj
 0001:0007f110       ___lc_collate_cp_func      0000000180080110 f   libucrt:initctype.obj
 0001:0007f140       ___lc_locale_name_func     0000000180080140 f   libucrt:initctype.obj
 0001:0007f174       ___mb_cur_max_func         0000000180080174 f   libucrt:initctype.obj
 0001:0007f1a4       ___mb_cur_max_l_func       00000001800801a4 f   libucrt:initctype.obj
 0001:0007f1b4       __acrt_locale_initialize_ctype 00000001800801b4 f   libucrt:initctype.obj
 0001:0007f818       ?__c32rtomb_utf8@__crt_mbstring@@YA_KPEAD_UPEAU_Mbstatet@@AEAV__crt_cached_ptd_host@@@Z 0000000180080818 f   libucrt:c32rtomb.obj
 0001:0007f8bc       c32rtomb                   00000001800808bc f   libucrt:c32rtomb.obj
 0001:0007f980       ?__mbrtowc_utf8@__crt_mbstring@@YA_KPEA_WPEBD_KPEAU_Mbstatet@@AEAV__crt_cached_ptd_host@@@Z 0000000180080980 f   libucrt:mbrtowc.obj
 0001:0007f9c4       ?__mbsrtowcs_utf8@__crt_mbstring@@YA_KPEA_WPEAPEBD_KPEAU_Mbstatet@@AEAV__crt_cached_ptd_host@@@Z 00000001800809c4 f   libucrt:mbrtowc.obj
 0001:0007fff4       btowc                      0000000180080ff4 f   libucrt:mbrtowc.obj
 0001:000800cc       mbrlen                     00000001800810cc f   libucrt:mbrtowc.obj
 0001:00080194       mbrtowc                    0000000180081194 f   libucrt:mbrtowc.obj
 0001:0008027c       mbsrtowcs                  000000018008127c f   libucrt:mbrtowc.obj
 0001:00080320       mbsrtowcs_s                0000000180081320 f   libucrt:mbrtowc.obj
 0001:0008080c       ?has_big_buffer@__crt_stdio_stream@@QEBA_NXZ 000000018008180c f i libucrt:_flsbuf.obj
 0001:00080898       __acrt_stdio_flush_and_write_narrow_nolock 0000000180081898 f   libucrt:_flsbuf.obj
 0001:00080964       __acrt_stdio_flush_and_write_wide_nolock 0000000180081964 f   libucrt:_flsbuf.obj
 0001:00080a30       ??$?RUlconv@@@__crt_internal_free_policy@@QEBAXQEBUlconv@@@Z 0000000180081a30 f i libucrt:initmon.obj
 0001:00080a38       ??0?$__crt_unique_heap_ptr@Ulconv@@U__crt_internal_free_policy@@@@QEAA@QEAUlconv@@@Z 0000000180081a38 f i libucrt:initmon.obj
 0001:00080a40       ??1?$__crt_unique_heap_ptr@Ulconv@@U__crt_internal_free_policy@@@@QEAA@XZ 0000000180081a40 f i libucrt:initmon.obj
 0001:00080a5c       ?detach@?$__crt_unique_heap_ptr@Ulconv@@U__crt_internal_free_policy@@@@QEAAPEAUlconv@@XZ 0000000180081a5c f i libucrt:initmon.obj
 0001:00080a64       ?release@?$__crt_unique_heap_ptr@Ulconv@@U__crt_internal_free_policy@@@@QEAAXXZ 0000000180081a64 f i libucrt:initmon.obj
 0001:00080a80       __acrt_locale_free_monetary 0000000180081a80 f   libucrt:initmon.obj
 0001:00080b8c       __acrt_locale_initialize_monetary 0000000180081b8c f   libucrt:initmon.obj
 0001:000810dc       __acrt_locale_free_numeric 00000001800820dc f   libucrt:initnum.obj
 0001:00081148       __acrt_locale_initialize_numeric 0000000180082148 f   libucrt:initnum.obj
 0001:00081464       ??$?RU__crt_lc_time_data@@@__crt_internal_free_policy@@QEBAXQEBU__crt_lc_time_data@@@Z 0000000180082464 f i libucrt:inittime.obj
 0001:000814b4       ??0?$__crt_unique_heap_ptr@U__crt_lc_time_data@@U__crt_internal_free_policy@@@@QEAA@QEAU__crt_lc_time_data@@@Z 00000001800824b4 f i libucrt:inittime.obj
 0001:000814bc       ??1?$__crt_unique_heap_ptr@U__crt_lc_time_data@@U__crt_internal_free_policy@@@@QEAA@XZ 00000001800824bc f i libucrt:inittime.obj
 0001:000814d8       ??B?$__crt_unique_heap_ptr@U__crt_lc_time_data@@U__crt_internal_free_policy@@@@QEBA_NXZ 00000001800824d8 f i libucrt:inittime.obj
 0001:000814e0       ?detach@?$__crt_unique_heap_ptr@U__crt_lc_time_data@@U__crt_internal_free_policy@@@@QEAAPEAU__crt_lc_time_data@@XZ 00000001800824e0 f i libucrt:inittime.obj
 0001:0008151c       ?get@?$__crt_unique_heap_ptr@U__crt_lc_time_data@@U__crt_internal_free_policy@@@@QEBAPEAU__crt_lc_time_data@@XZ 000000018008251c f i libucrt:inittime.obj
 0001:000818e0       ?is_valid@?$__crt_unique_heap_ptr@U__crt_lc_time_data@@U__crt_internal_free_policy@@@@QEBA_NXZ 00000001800828e0 f i libucrt:inittime.obj
 0001:000818e8       ?release@?$__crt_unique_heap_ptr@U__crt_lc_time_data@@U__crt_internal_free_policy@@@@QEAAXXZ 00000001800828e8 f i libucrt:inittime.obj
 0001:00081904       __acrt_locale_free_time    0000000180082904 f   libucrt:inittime.obj
 0001:00081a0c       __acrt_locale_initialize_time 0000000180082a0c f   libucrt:inittime.obj
 0001:00081b24       wcscat_s                   0000000180082b24 f   libucrt:wcscat_s.obj
 0001:00081c94       wcsncat_s                  0000000180082c94 f   libucrt:wcsncat_s.obj
 0001:00081d8c       wcscspn                    0000000180082d8c f   libucrt:wcscspn.obj
 0001:00082618       __acrt_get_qualified_locale 0000000180083618 f   libucrt:get_qualified_locale.obj
 0001:00083130       __acrt_get_qualified_locale_downlevel 0000000180084130 f   libucrt:getqloc_downlevel.obj
 0001:000833b0       __acrt_GetStringTypeW      00000001800843b0 f   libucrt:getstringtypew.obj
 0001:000833b8       _add_exp                   00000001800843b8 f   libucrt:util.obj
 0001:00083408       _decomp                    0000000180084408 f   libucrt:util.obj
 0001:00083538       _get_exp                   0000000180084538 f   libucrt:util.obj
 0001:00083558       _set_bexp                  0000000180084558 f   libucrt:util.obj
 0001:00083588       _set_exp                   0000000180084588 f   libucrt:util.obj
 0001:000835c0       _sptype                    00000001800845c0 f   libucrt:util.obj
 0001:000836d0       _d_int                     00000001800846d0 f   libucrt:_test.obj
 0001:000837e8       _dtest                     00000001800847e8 f   libucrt:_test.obj
 0001:0008384c       _fd_int                    000000018008484c f   libucrt:_test.obj
 0001:00083924       _fdtest                    0000000180084924 f   libucrt:_test.obj
 0001:00083970       _fperrraise                0000000180084970 f   libucrt:_test.obj
 0001:00083a24       _ld_int                    0000000180084a24 f   libucrt:_test.obj
 0001:00083a2c       _ldtest                    0000000180084a2c f   libucrt:_test.obj
 0001:00083a34       _dclass                    0000000180084a34 f   libucrt:nan.obj
 0001:00083a50       _dpcomp                    0000000180084a50 f   libucrt:nan.obj
 0001:00083ab4       _dsign                     0000000180084ab4 f   libucrt:nan.obj
 0001:00083acc       nan                        0000000180084acc f   libucrt:nan.obj
 0001:00083ad8       _fdclass                   0000000180084ad8 f   libucrt:nanf.obj
 0001:00083af4       _fdpcomp                   0000000180084af4 f   libucrt:nanf.obj
 0001:00083b58       _fdsign                    0000000180084b58 f   libucrt:nanf.obj
 0001:00083b6c       nanf                       0000000180084b6c f   libucrt:nanf.obj
 0001:00083b78       __strncnt                  0000000180084b78 f   libucrt:strncnt.obj
 0001:00083b90       __acrt_CompareStringW      0000000180084b90 f   libucrt:comparestringw.obj
 0001:00083c50       __ascii_wcsnicmp           0000000180084c50 f   libucrt:wcsnicmp.obj
 0001:00083c9c       _towlower_fast_internal    0000000180084c9c f i libucrt:wcsnicmp.obj
 0001:00083cc4       _towlower_internal         0000000180084cc4 f i libucrt:wcsnicmp.obj
 0001:00083cf8       _wcsnicmp                  0000000180084cf8 f   libucrt:wcsnicmp.obj
 0001:00083d40       _wcsnicmp_l                0000000180084d40 f   libucrt:wcsnicmp.obj
 0001:00083e94       __ascii_strnicmp           0000000180084e94 f   libucrt:strnicmp.obj
 0001:00083ee0       _strnicmp                  0000000180084ee0 f   libucrt:strnicmp.obj
 0001:00083f30       _strnicmp_l                0000000180084f30 f   libucrt:strnicmp.obj
 0001:00084364       __acrt_CompareStringA      0000000180085364 f   libucrt:comparestringa.obj
 0001:000844cc       __acrt_report_runtime_error 00000001800854cc f   libucrt:report_runtime_error.obj
 0001:0008462c       _query_app_type            000000018008562c f   libucrt:report_runtime_error.obj
 0001:00084634       _set_app_type              0000000180085634 f   libucrt:report_runtime_error.obj
 0001:00084b0c       _lseek                     0000000180085b0c f   libucrt:lseek.obj
 0001:00084ba4       _lseek_internal            0000000180085ba4 f   libucrt:lseek.obj
 0001:00084bac       _lseek_nolock              0000000180085bac f   libucrt:lseek.obj
 0001:00084c44       _lseek_nolock_internal     0000000180085c44 f   libucrt:lseek.obj
 0001:00084c4c       _lseeki64                  0000000180085c4c f   libucrt:lseek.obj
 0001:00084ce8       _lseeki64_internal         0000000180085ce8 f   libucrt:lseek.obj
 0001:00084cf0       _lseeki64_nolock           0000000180085cf0 f   libucrt:lseek.obj
 0001:00084d8c       _lseeki64_nolock_internal  0000000180085d8c f   libucrt:lseek.obj
 0001:00084e30       _putwch                    0000000180085e30 f   libucrt:putwch.obj
 0001:00084e6c       _putwch_nolock             0000000180085e6c f   libucrt:putwch.obj
 0001:00084ea8       _putwch_nolock_internal    0000000180085ea8 f   libucrt:putwch.obj
 0001:000855b8       _read                      00000001800865b8 f   libucrt:read.obj
 0001:000856d8       _read_nolock               00000001800866d8 f   libucrt:read.obj
 0001:00085c4c       _fclose_nolock             0000000180086c4c f   libucrt:fclose.obj
 0001:00085ce4       fclose                     0000000180086ce4 f   libucrt:fclose.obj
 0001:00085d7c       _controlfp_s               0000000180086d7c f   libucrt:contrlfp.obj
 0001:00085de0       fegetenv                   0000000180086de0 f   libucrt:fegetenv.obj
 0001:00085e00       fesetenv                   0000000180086e00 f   libucrt:fesetenv.obj
 0001:00085e58       feholdexcept               0000000180086e58 f   libucrt:feholdexcept.obj
 0001:00085ea8       ceil                       0000000180086ea8 f   libucrt:ceil.obj
 0001:00085f70       log10                      0000000180086f70 f   libucrt:log10.obj
 0001:0008651c       ??$__acrt_fenv_shift_bits@W4__acrt_fenv_abstract_control@@@@YA?AW4__acrt_fenv_abstract_control@@W40@0I@Z 000000018008751c f i libucrt:_fenvutils.obj
 0001:00086528       ??$__acrt_fenv_shift_bits@W4__acrt_fenv_abstract_status@@@@YA?AW4__acrt_fenv_abstract_status@@W40@0I@Z 0000000180087528 f i libucrt:_fenvutils.obj
 0001:00086534       ??$__acrt_fenv_translate_bit@W4__acrt_fenv_abstract_control@@W4__acrt_fenv_machine_sse_control@@@@YA?AW4__acrt_fenv_abstract_control@@W4__acrt_fenv_machine_sse_control@@0W40@1@Z 0000000180087534 f i libucrt:_fenvutils.obj
 0001:00086540       ??$__acrt_fenv_translate_bit@W4__acrt_fenv_abstract_status@@W4__acrt_fenv_machine_sse_status@@@@YA?AW4__acrt_fenv_abstract_status@@W4__acrt_fenv_machine_sse_status@@0W40@1@Z 0000000180087540 f i libucrt:_fenvutils.obj
 0001:0008654c       ??$__acrt_fenv_translate_bit@W4__acrt_fenv_machine_sse_control@@W4__acrt_fenv_abstract_control@@@@YA?AW4__acrt_fenv_machine_sse_control@@W4__acrt_fenv_abstract_control@@0W40@1@Z 000000018008754c f i libucrt:_fenvutils.obj
 0001:00086558       ??$__acrt_fenv_translate_bit@W4__acrt_fenv_machine_sse_status@@W4__acrt_fenv_abstract_status@@@@YA?AW4__acrt_fenv_machine_sse_status@@W4__acrt_fenv_abstract_status@@0W40@1@Z 0000000180087558 f i libucrt:_fenvutils.obj
 0001:00086564       ??$__acrt_fenv_unshift_bits@W4__acrt_fenv_abstract_control@@@@YA?AW4__acrt_fenv_abstract_control@@W40@0I@Z 0000000180087564 f i libucrt:_fenvutils.obj
 0001:00086570       ??$__acrt_fenv_unshift_bits@W4__acrt_fenv_abstract_status@@@@YA?AW4__acrt_fenv_abstract_status@@W40@0I@Z 0000000180087570 f i libucrt:_fenvutils.obj
 0001:00086734       ??I@YA?AW4__acrt_fenv_abstract_control@@W40@0@Z 0000000180087734 f i libucrt:_fenvutils.obj
 0001:0008673c       ??I@YA?AW4__acrt_fenv_abstract_status@@W40@0@Z 000000018008773c f i libucrt:_fenvutils.obj
 0001:00086744       ??I@YA?AW4__acrt_fenv_machine_sse_control@@W40@0@Z 0000000180087744 f i libucrt:_fenvutils.obj
 0001:0008674c       ??I@YA?AW4__acrt_fenv_machine_sse_status@@W40@0@Z 000000018008774c f i libucrt:_fenvutils.obj
 0001:00086754       ??U@YA?AW4__acrt_fenv_abstract_control@@W40@0@Z 0000000180087754 f i libucrt:_fenvutils.obj
 0001:0008675c       ??U@YA?AW4__acrt_fenv_abstract_status@@W40@0@Z 000000018008775c f i libucrt:_fenvutils.obj
 0001:00086764       ??U@YA?AW4__acrt_fenv_machine_sse_control@@W40@0@Z 0000000180087764 f i libucrt:_fenvutils.obj
 0001:0008676c       ??_5@YAAEAW4__acrt_fenv_abstract_control@@AEAW40@W40@@Z 000000018008776c f i libucrt:_fenvutils.obj
 0001:00086774       ??_5@YAAEAW4__acrt_fenv_abstract_status@@AEAW40@W40@@Z 0000000180087774 f i libucrt:_fenvutils.obj
 0001:0008677c       ??_5@YAAEAW4__acrt_fenv_machine_sse_control@@AEAW40@W40@@Z 000000018008777c f i libucrt:_fenvutils.obj
 0001:00086784       ??_5@YAAEAW4__acrt_fenv_machine_sse_status@@AEAW40@W40@@Z 0000000180087784 f i libucrt:_fenvutils.obj
 0001:0008678c       ?__acrt_fenv_shift_abstract_sse_control@@YA?AW4__acrt_fenv_abstract_control@@W41@@Z 000000018008778c f i libucrt:_fenvutils.obj
 0001:000867a0       ?__acrt_fenv_shift_abstract_sse_status@@YA?AW4__acrt_fenv_abstract_status@@W41@@Z 00000001800877a0 f i libucrt:_fenvutils.obj
 0001:000867ac       ?__acrt_fenv_unshift_abstract_sse_control@@YA?AW4__acrt_fenv_abstract_control@@W41@@Z 00000001800877ac f i libucrt:_fenvutils.obj
 0001:000867c4       ?__acrt_fenv_unshift_abstract_sse_status@@YA?AW4__acrt_fenv_abstract_status@@W41@@Z 00000001800877c4 f i libucrt:_fenvutils.obj
 0001:00086a84       __acrt_fenv_expand_round_control 0000000180087a84 f   libucrt:_fenvutils.obj
 0001:00086a9c       __acrt_fenv_get_common_round_control 0000000180087a9c f   libucrt:_fenvutils.obj
 0001:00086aa8       __acrt_fenv_get_control    0000000180087aa8 f   libucrt:_fenvutils.obj
 0001:00086b8c       __acrt_fenv_get_fp_status_word_from_exception_mask 0000000180087b8c f   libucrt:_fenvutils.obj
 0001:00086b98       __acrt_fenv_get_status     0000000180087b98 f   libucrt:_fenvutils.obj
 0001:00086bf0       __acrt_fenv_set_control    0000000180087bf0 f   libucrt:_fenvutils.obj
 0001:00086d28       __acrt_fenv_set_status     0000000180087d28 f   libucrt:_fenvutils.obj
 0001:00086f18       __acrt_GetLocaleInfoA      0000000180087f18 f   libucrt:getlocaleinfoa.obj
 0001:000870e0       ?reset_and_return@__crt_mbstring@@YA_K_KPEAU_Mbstatet@@@Z 00000001800880e0 f   libucrt:common_utf8.obj
 0001:000870e8       ?return_illegal_sequence@__crt_mbstring@@YA_KPEAU_Mbstatet@@AEAV__crt_cached_ptd_host@@@Z 00000001800880e8 f   libucrt:common_utf8.obj
 0001:000870fc       ?__mbrtoc32_utf8@__crt_mbstring@@YA_KPEA_UPEBD_KPEAU_Mbstatet@@AEAV__crt_cached_ptd_host@@@Z 00000001800880fc f   libucrt:mbrtoc32.obj
 0001:000872d8       mbrtoc32                   00000001800882d8 f   libucrt:mbrtoc32.obj
 0001:0008737c       __acrt_stdio_allocate_buffer_nolock 000000018008837c f   libucrt:_getbuf.obj
 0001:00087910       _i64toa                    0000000180088910 f   libucrt:xtoa.obj
 0001:00087944       _i64toa_s                  0000000180088944 f   libucrt:xtoa.obj
 0001:00087968       _i64tow                    0000000180088968 f   libucrt:xtoa.obj
 0001:0008799c       _i64tow_s                  000000018008899c f   libucrt:xtoa.obj
 0001:000879c0       _itoa                      00000001800889c0 f   libucrt:xtoa.obj
 0001:000879f0       _itoa_s                    00000001800889f0 f   libucrt:xtoa.obj
 0001:00087a10       _itow                      0000000180088a10 f   libucrt:xtoa.obj
 0001:00087a40       _itow_s                    0000000180088a40 f   libucrt:xtoa.obj
 0001:00087a60       _ltoa                      0000000180088a60 f   libucrt:xtoa.obj
 0001:00087a90       _ltoa_s                    0000000180088a90 f   libucrt:xtoa.obj
 0001:00087ab0       _ltow                      0000000180088ab0 f   libucrt:xtoa.obj
 0001:00087ae0       _ltow_s                    0000000180088ae0 f   libucrt:xtoa.obj
 0001:00087b00       _ui64toa                   0000000180088b00 f   libucrt:xtoa.obj
 0001:00087b24       _ui64toa_s                 0000000180088b24 f   libucrt:xtoa.obj
 0001:00087b38       _ui64tow                   0000000180088b38 f   libucrt:xtoa.obj
 0001:00087b5c       _ui64tow_s                 0000000180088b5c f   libucrt:xtoa.obj
 0001:00087b70       _ultoa                     0000000180088b70 f   libucrt:xtoa.obj
 0001:00087b94       _ultoa_s                   0000000180088b94 f   libucrt:xtoa.obj
 0001:00087ba8       _ultow                     0000000180088ba8 f   libucrt:xtoa.obj
 0001:00087bcc       _ultow_s                   0000000180088bcc f   libucrt:xtoa.obj
 0001:00087be0       __ascii_wcsicmp            0000000180088be0 f   libucrt:wcsicmp.obj
 0001:00087c20       _wcsicmp                   0000000180088c20 f   libucrt:wcsicmp.obj
 0001:00087c68       _wcsicmp_l                 0000000180088c68 f   libucrt:wcsicmp.obj
 0001:00087d9c       wcscmp                     0000000180088d9c f   libucrt:wcscmp.obj
 0001:00087dd4       ??_4@YAAEAW4__acrt_fenv_abstract_status@@AEAW40@W40@@Z 0000000180088dd4 f i libucrt:fegetexceptflag.obj
 0001:00087ddc       fegetexceptflag            0000000180088ddc f   libucrt:fegetexceptflag.obj
 0001:00087e20       ??S@YA?AW4__acrt_fenv_abstract_status@@W40@@Z 0000000180088e20 f i libucrt:fesetexceptflag.obj
 0001:00087e28       fesetexceptflag            0000000180088e28 f   libucrt:fesetexceptflag.obj
 0001:00087ea4       _towlower_l                0000000180088ea4 f   libucrt:towlower.obj
 0001:00087f98       towlower                   0000000180088f98 f   libucrt:towlower.obj
 0001:00087fa0       _set_error_mode            0000000180088fa0 f   libucrt:set_error_mode.obj
 0001:00088130       ??$message_box@$$TAEBQEBDAEBQEBDK@?$__crt_char_traits@D@@SAH$$QEA$$TAEBQEBD1$$QEAK@Z 0000000180089130 f i libucrt:crtmbox.obj
 0001:00088144       ??$message_box@$$TAEBQEB_WAEBQEB_WK@?$__crt_char_traits@_W@@SAH$$QEA$$TAEBQEB_W1$$QEAK@Z 0000000180089144 f i libucrt:crtmbox.obj
 0001:00088158       ??$message_box@PEAUHWND__@@AEBQEBDAEBQEBDAEBI@?$__crt_char_traits@D@@SAH$$QEAPEAUHWND__@@AEBQEBD1AEBI@Z 0000000180089158 f i libucrt:crtmbox.obj
 0001:0008816c       ??$message_box@PEAUHWND__@@AEBQEB_WAEBQEB_WAEBI@?$__crt_char_traits@_W@@SAH$$QEAPEAUHWND__@@AEBQEB_W1AEBI@Z 000000018008916c f i libucrt:crtmbox.obj
 0001:00088180       ??$output_debug_string@AEBQEBD@?$__crt_char_traits@D@@SAXAEBQEBD@Z 0000000180089180 f i libucrt:crtmbox.obj
 0001:00088188       ??$output_debug_string@AEBQEB_W@?$__crt_char_traits@_W@@SAXAEBQEB_W@Z 0000000180089188 f i libucrt:crtmbox.obj
 0001:00088194       __acrt_show_narrow_message_box 0000000180089194 f   libucrt:crtmbox.obj
 0001:00088238       __acrt_show_wide_message_box 0000000180089238 f   libucrt:crtmbox.obj
 0001:00088404       __dcrt_lowio_ensure_console_output_initialized 0000000180089404 f   libucrt:initcon.obj
 0001:00088458       __dcrt_terminate_console_output 0000000180089458 f   libucrt:initcon.obj
 0001:00088474       __dcrt_write_console       0000000180089474 f   libucrt:initcon.obj
 0001:000886c8       _close                     00000001800896c8 f   libucrt:close.obj
 0001:00088760       _close_internal            0000000180089760 f   libucrt:close.obj
 0001:00088824       _close_nolock              0000000180089824 f   libucrt:close.obj
 0001:000888bc       _close_nolock_internal     00000001800898bc f   libucrt:close.obj
 0001:0008898c       ??$?RU__crt_stdio_stream_data@@@__crt_internal_free_policy@@QEBAXQEBU__crt_stdio_stream_data@@@Z 000000018008998c f i libucrt:stream.obj
 0001:00088994       ??0?$__crt_unique_heap_ptr@U__crt_stdio_stream_data@@U__crt_internal_free_policy@@@@QEAA@QEAU__crt_stdio_stream_data@@@Z 0000000180089994 f i libucrt:stream.obj
 0001:0008899c       ??0__crt_stdio_stream@@QEAA@XZ 000000018008999c f i libucrt:stream.obj
 0001:000889a4       ??1?$__crt_unique_heap_ptr@U__crt_stdio_stream_data@@U__crt_internal_free_policy@@@@QEAA@XZ 00000001800899a4 f i libucrt:stream.obj
 0001:000889c0       ?__acrt_stdio_allocate_stream@@YA?AV__crt_stdio_stream@@XZ 00000001800899c0 f   libucrt:stream.obj
 0001:00088a18       ?__acrt_stdio_free_stream@@YAXV__crt_stdio_stream@@@Z 0000000180089a18 f   libucrt:stream.obj
 0001:00088a34       ?deallocate@__crt_stdio_stream@@QEAAXXZ 0000000180089a34 f i libucrt:stream.obj
 0001:00088a40       ?detach@?$__crt_unique_heap_ptr@U__crt_stdio_stream_data@@U__crt_internal_free_policy@@@@QEAAPEAU__crt_stdio_stream_data@@XZ 0000000180089a40 f i libucrt:stream.obj
 0001:00088b34       ?lock@__crt_stdio_stream@@QEBAXXZ 0000000180089b34 f i libucrt:stream.obj
 0001:00088b3c       ?release@?$__crt_unique_heap_ptr@U__crt_stdio_stream_data@@U__crt_internal_free_policy@@@@QEAAXXZ 0000000180089b3c f i libucrt:stream.obj
 0001:00088b58       ?try_allocate@__crt_stdio_stream@@QEAA_NXZ 0000000180089b58 f i libucrt:stream.obj
 0001:00088b78       ?unlock@__crt_stdio_stream@@QEBAXXZ 0000000180089b78 f i libucrt:stream.obj
 0001:00088c94       _clearfp                   0000000180089c94 f   libucrt:ieee.obj
 0001:00088d00       _control87                 0000000180089d00 f   libucrt:ieee.obj
 0001:00088d08       _controlfp                 0000000180089d08 f   libucrt:ieee.obj
 0001:00088d14       _fpreset                   0000000180089d14 f   libucrt:ieee.obj
 0001:00088ddc       _set_controlfp             0000000180089ddc f   libucrt:ieee.obj
 0001:00088e10       _statusfp                  0000000180089e10 f   libucrt:ieee.obj
 0001:00089110       _log10_special             000000018008a110 f   libucrt:log_special.obj
 0001:00089130       _log10f_special            000000018008a130 f   libucrt:log_special.obj
 0001:00089150       _log_special               000000018008a150 f   libucrt:log_special.obj
 0001:00089208       _logf_special              000000018008a208 f   libucrt:log_special.obj
 0001:000892c4       fetestexcept               000000018008a2c4 f   libucrt:fetestexcept.obj
 0001:000892e8       __acrt_LCMapStringW        000000018008a2e8 f   libucrt:lcmapstringw.obj
 0001:00089370       __acrt_OutputDebugStringA  000000018008a370 f   libucrt:outputdebugstringa.obj
 0001:00089728       _mbstowcs_l                000000018008a728 f   libucrt:mbstowcs.obj
 0001:000897d0       _mbstowcs_s_l              000000018008a7d0 f   libucrt:mbstowcs.obj
 0001:00089888       mbstowcs                   000000018008a888 f   libucrt:mbstowcs.obj
 0001:00089924       mbstowcs_s                 000000018008a924 f   libucrt:mbstowcs.obj
 0001:000899cc       RaiseException             000000018008a9cc f   kernel32:KERNEL32.dll
 0001:000899d2       GetLastError               000000018008a9d2 f   kernel32:KERNEL32.dll
 0001:000899d8       GetSystemInfo              000000018008a9d8 f   kernel32:KERNEL32.dll
 0001:000899de       VirtualProtect             000000018008a9de f   kernel32:KERNEL32.dll
 0001:000899e4       VirtualQuery               000000018008a9e4 f   kernel32:KERNEL32.dll
 0001:000899ea       FreeLibrary                000000018008a9ea f   kernel32:KERNEL32.dll
 0001:000899f0       GetModuleHandleW           000000018008a9f0 f   kernel32:KERNEL32.dll
 0001:000899f6       GetProcAddress             000000018008a9f6 f   kernel32:KERNEL32.dll
 0001:000899fc       LoadLibraryExA             000000018008a9fc f   kernel32:KERNEL32.dll
 0001:00089a02       InitializeSListHead        000000018008aa02 f   kernel32:KERNEL32.dll
 0001:00089a08       QueryPerformanceCounter    000000018008aa08 f   kernel32:KERNEL32.dll
 0001:00089a0e       GetCurrentProcessId        000000018008aa0e f   kernel32:KERNEL32.dll
 0001:00089a14       GetCurrentThreadId         000000018008aa14 f   kernel32:KERNEL32.dll
 0001:00089a1a       GetSystemTimeAsFileTime    000000018008aa1a f   kernel32:KERNEL32.dll
 0001:00089a20       RtlCaptureContext          000000018008aa20 f   kernel32:KERNEL32.dll
 0001:00089a26       RtlLookupFunctionEntry     000000018008aa26 f   kernel32:KERNEL32.dll
 0001:00089a2c       RtlVirtualUnwind           000000018008aa2c f   kernel32:KERNEL32.dll
 0001:00089a32       IsDebuggerPresent          000000018008aa32 f   kernel32:KERNEL32.dll
 0001:00089a38       UnhandledExceptionFilter   000000018008aa38 f   kernel32:KERNEL32.dll
 0001:00089a3e       SetUnhandledExceptionFilter 000000018008aa3e f   kernel32:KERNEL32.dll
 0001:00089a44       GetStartupInfoW            000000018008aa44 f   kernel32:KERNEL32.dll
 0001:00089a4a       IsProcessorFeaturePresent  000000018008aa4a f   kernel32:KERNEL32.dll
 0001:00089a50       InterlockedPushEntrySList  000000018008aa50 f   kernel32:KERNEL32.dll
 0001:00089a56       InterlockedFlushSList      000000018008aa56 f   kernel32:KERNEL32.dll
 0001:00089a5c       RtlUnwindEx                000000018008aa5c f   kernel32:KERNEL32.dll
 0001:00089a62       SetLastError               000000018008aa62 f   kernel32:KERNEL32.dll
 0001:00089a68       EnterCriticalSection       000000018008aa68 f   kernel32:KERNEL32.dll
 0001:00089a6e       LeaveCriticalSection       000000018008aa6e f   kernel32:KERNEL32.dll
 0001:00089a74       DeleteCriticalSection      000000018008aa74 f   kernel32:KERNEL32.dll
 0001:00089a7a       InitializeCriticalSectionAndSpinCount 000000018008aa7a f   kernel32:KERNEL32.dll
 0001:00089a80       TlsAlloc                   000000018008aa80 f   kernel32:KERNEL32.dll
 0001:00089a86       TlsGetValue                000000018008aa86 f   kernel32:KERNEL32.dll
 0001:00089a8c       TlsSetValue                000000018008aa8c f   kernel32:KERNEL32.dll
 0001:00089a92       TlsFree                    000000018008aa92 f   kernel32:KERNEL32.dll
 0001:00089a98       LoadLibraryExW             000000018008aa98 f   kernel32:KERNEL32.dll
 0001:00089a9e       EncodePointer              000000018008aa9e f   kernel32:KERNEL32.dll
 0001:00089aa4       RtlPcToFileHeader          000000018008aaa4 f   kernel32:KERNEL32.dll
 0001:00089aaa       RtlUnwind                  000000018008aaaa f   kernel32:KERNEL32.dll
 0001:00089ab0       GetCurrentProcess          000000018008aab0 f   kernel32:KERNEL32.dll
 0001:00089ab6       ExitProcess                000000018008aab6 f   kernel32:KERNEL32.dll
 0001:00089abc       TerminateProcess           000000018008aabc f   kernel32:KERNEL32.dll
 0001:00089ac2       GetModuleHandleExW         000000018008aac2 f   kernel32:KERNEL32.dll
 0001:00089ac8       GetModuleFileNameW         000000018008aac8 f   kernel32:KERNEL32.dll
 0001:00089ace       HeapFree                   000000018008aace f   kernel32:KERNEL32.dll
 0001:00089ad4       GetCurrentThread           000000018008aad4 f   kernel32:KERNEL32.dll
 0001:00089ada       HeapAlloc                  000000018008aada f   kernel32:KERNEL32.dll
 0001:00089ae0       FindClose                  000000018008aae0 f   kernel32:KERNEL32.dll
 0001:00089ae6       FindFirstFileExW           000000018008aae6 f   kernel32:KERNEL32.dll
 0001:00089aec       FindNextFileW              000000018008aaec f   kernel32:KERNEL32.dll
 0001:00089af2       IsValidCodePage            000000018008aaf2 f   kernel32:KERNEL32.dll
 0001:00089af8       GetACP                     000000018008aaf8 f   kernel32:KERNEL32.dll
 0001:00089afe       GetOEMCP                   000000018008aafe f   kernel32:KERNEL32.dll
 0001:00089b04       GetCPInfo                  000000018008ab04 f   kernel32:KERNEL32.dll
 0001:00089b0a       GetCommandLineA            000000018008ab0a f   kernel32:KERNEL32.dll
 0001:00089b10       GetCommandLineW            000000018008ab10 f   kernel32:KERNEL32.dll
 0001:00089b16       MultiByteToWideChar        000000018008ab16 f   kernel32:KERNEL32.dll
 0001:00089b1c       WideCharToMultiByte        000000018008ab1c f   kernel32:KERNEL32.dll
 0001:00089b22       GetEnvironmentStringsW     000000018008ab22 f   kernel32:KERNEL32.dll
 0001:00089b28       FreeEnvironmentStringsW    000000018008ab28 f   kernel32:KERNEL32.dll
 0001:00089b2e       SetEnvironmentVariableW    000000018008ab2e f   kernel32:KERNEL32.dll
 0001:00089b34       GetTempPathW               000000018008ab34 f   kernel32:KERNEL32.dll
 0001:00089b3a       FlsAlloc                   000000018008ab3a f   kernel32:KERNEL32.dll
 0001:00089b40       FlsGetValue                000000018008ab40 f   kernel32:KERNEL32.dll
 0001:00089b46       FlsSetValue                000000018008ab46 f   kernel32:KERNEL32.dll
 0001:00089b4c       FlsFree                    000000018008ab4c f   kernel32:KERNEL32.dll
 0001:00089b52       GetDateFormatW             000000018008ab52 f   kernel32:KERNEL32.dll
 0001:00089b58       GetTimeFormatW             000000018008ab58 f   kernel32:KERNEL32.dll
 0001:00089b5e       CompareStringW             000000018008ab5e f   kernel32:KERNEL32.dll
 0001:00089b64       LCMapStringW               000000018008ab64 f   kernel32:KERNEL32.dll
 0001:00089b6a       GetLocaleInfoW             000000018008ab6a f   kernel32:KERNEL32.dll
 0001:00089b70       IsValidLocale              000000018008ab70 f   kernel32:KERNEL32.dll
 0001:00089b76       GetUserDefaultLCID         000000018008ab76 f   kernel32:KERNEL32.dll
 0001:00089b7c       EnumSystemLocalesW         000000018008ab7c f   kernel32:KERNEL32.dll
 0001:00089b82       GetProcessHeap             000000018008ab82 f   kernel32:KERNEL32.dll
 0001:00089b88       GetStdHandle               000000018008ab88 f   kernel32:KERNEL32.dll
 0001:00089b8e       GetFileType                000000018008ab8e f   kernel32:KERNEL32.dll
 0001:00089b94       SetConsoleCtrlHandler      000000018008ab94 f   kernel32:KERNEL32.dll
 0001:00089b9a       GetStringTypeW             000000018008ab9a f   kernel32:KERNEL32.dll
 0001:00089ba0       HeapSize                   000000018008aba0 f   kernel32:KERNEL32.dll
 0001:00089ba6       HeapReAlloc                000000018008aba6 f   kernel32:KERNEL32.dll
 0001:00089bac       SetStdHandle               000000018008abac f   kernel32:KERNEL32.dll
 0001:00089bb2       FlushFileBuffers           000000018008abb2 f   kernel32:KERNEL32.dll
 0001:00089bb8       WriteFile                  000000018008abb8 f   kernel32:KERNEL32.dll
 0001:00089bbe       GetConsoleOutputCP         000000018008abbe f   kernel32:KERNEL32.dll
 0001:00089bc4       GetConsoleMode             000000018008abc4 f   kernel32:KERNEL32.dll
 0001:00089bca       GetFileSizeEx              000000018008abca f   kernel32:KERNEL32.dll
 0001:00089bd0       SetFilePointerEx           000000018008abd0 f   kernel32:KERNEL32.dll
