 PhysXCooking_64

 Timestamp is 64024264 (Fri Mar  3 10:54:28 2023)

 Preferred load address is 0000000180000000

 Start         Length     Name                   Class
 0001:00000000 00000ba0H .text$di                CODE
 0001:00000ba0 00103720H .text$mn                CODE
 0001:001042c0 00000040H .text$mn$00             CODE
 0001:00104300 00000ffdH .text$x                 CODE
 0002:00000000 00000308H .idata$5                DATA
 0002:00000308 00000038H .00cfg                  DATA
 0002:00000340 00000008H .CRT$XCA                DATA
 0002:00000348 000001f0H .CRT$XCU                DATA
 0002:00000538 00000008H .CRT$XCZ                DATA
 0002:00000540 00000008H .CRT$XIA                DATA
 0002:00000548 00000018H .CRT$XIC                DATA
 0002:00000560 00000008H .CRT$XIZ                DATA
 0002:00000568 00000008H .CRT$XPA                DATA
 0002:00000570 00000010H .CRT$XPX                DATA
 0002:00000580 00000008H .CRT$XPXA               DATA
 0002:00000588 00000008H .CRT$XPZ                DATA
 0002:00000590 00000008H .CRT$XTA                DATA
 0002:00000598 00000008H .CRT$XTZ                DATA
 0002:000005a0 00000000H .gehcont$y              DATA
 0002:000005a0 00000000H .gfids$y                DATA
 0002:000005a0 000283e0H .rdata                  DATA
 0002:00028980 00000080H .rdata$CastGuardVftablesA DATA
 0002:00028a00 00000080H .rdata$CastGuardVftablesC DATA
 0002:00028a80 00000464H .rdata$r                DATA
 0002:00028ee4 00000718H .rdata$voltmd           DATA
 0002:000295fc 000004acH .rdata$zzzdbg           DATA
 0002:00029aa8 00000008H .rtc$IAA                DATA
 0002:00029ab0 000000a0H .rtc$IMZ                DATA
 0002:00029b50 00000008H .rtc$IZZ                DATA
 0002:00029b58 00000008H .rtc$TAA                DATA
 0002:00029b60 000000a0H .rtc$TMZ                DATA
 0002:00029c00 00000008H .rtc$TZZ                DATA
 0002:00029c08 000092e0H .xdata                  DATA
 0002:00032ee8 00000084H .xdata$x                DATA
 0002:00032f6c 00000040H .didat$2                DATA
 0002:00032fac 00000024H .didat$3                DATA
 0002:00032fd0 000001d0H .didat$4                DATA
 0002:000331a0 00000b30H .didat$6                DATA
 0002:00033cd0 000001d0H .didat$7                DATA
 0002:00033ea0 00001d34H .edata                  DATA
 0002:00035bd4 00000014H .idata$2                DATA
 0002:00035be8 00000018H .idata$3                DATA
 0002:00035c00 00000308H .idata$4                DATA
 0002:00035f08 000006feH .idata$6                DATA
 0003:00000000 00000af0H .data                   DATA
 0003:00000af0 00000380H .data$r                 DATA
 0003:00000e70 000000f0H .data$rs                DATA
 0003:00000f60 000001d0H .didat$5                DATA
 0003:00001130 000020d8H .bss                    DATA
 0004:00000000 0000ba9cH .pdata                  DATA
 0005:00000000 0000015cH _RDATA                  DATA
 0006:00000000 000000a0H .rsrc$01                DATA
 0006:000000a0 000004b0H .rsrc$02                DATA

  Address         Publics by Value              Rva+Base               Lib:Object

 0000:00000000       __AbsoluteZero             0000000000000000     <absolute>
 0000:00000000       ___safe_se_handler_count   0000000000000000     <absolute>
 0000:00000000       ___safe_se_handler_table   0000000000000000     <absolute>
 0000:00000000       __arm64x_extra_rfe_table   0000000000000000     <absolute>
 0000:00000000       __arm64x_extra_rfe_table_size 0000000000000000     <absolute>
 0000:00000000       __arm64x_native_entrypoint 0000000000000000     <absolute>
 0000:00000000       __arm64x_redirection_metadata 0000000000000000     <absolute>
 0000:00000000       __arm64x_redirection_metadata_count 0000000000000000     <absolute>
 0000:00000000       __dynamic_value_reloc_table 0000000000000000     <absolute>
 0000:00000000       __enclave_config           0000000000000000     <absolute>
 0000:00000000       __guard_check_icall_a64n_fptr 0000000000000000     <absolute>
 0000:00000000       __guard_eh_cont_count      0000000000000000     <absolute>
 0000:00000000       __guard_eh_cont_table      0000000000000000     <absolute>
 0000:00000000       __guard_fids_count         0000000000000000     <absolute>
 0000:00000000       __guard_fids_table         0000000000000000     <absolute>
 0000:00000000       __guard_iat_count          0000000000000000     <absolute>
 0000:00000000       __guard_iat_table          0000000000000000     <absolute>
 0000:00000000       __guard_longjmp_count      0000000000000000     <absolute>
 0000:00000000       __guard_longjmp_table      0000000000000000     <absolute>
 0000:00000000       __hybrid_auxiliary_iat     0000000000000000     <absolute>
 0000:00000000       __hybrid_auxiliary_iat_copy 0000000000000000     <absolute>
 0000:00000000       __hybrid_code_map          0000000000000000     <absolute>
 0000:00000000       __hybrid_code_map_count    0000000000000000     <absolute>
 0000:00000000       __x64_code_ranges_to_entry_points 0000000000000000     <absolute>
 0000:00000000       __x64_code_ranges_to_entry_points_count 0000000000000000     <absolute>
 0000:00000100       __guard_flags              0000000000000100     <absolute>
 0000:00000000       __ImageBase                0000000180000000     <linker-defined>
 0001:00000ba0       ?ComputeNbBoundaryEdges@AdjTriangle@physx@@QEBAIXZ 0000000180001ba0 f   Adjacencies.obj
 0001:00000c30       ?ComputeNbNeighbors@AdjTriangle@physx@@QEBAIXZ 0000000180001c30 f   Adjacencies.obj
 0001:00000cc0       ?HasNeighbor@AdjTriangle@physx@@QEBA_NIPEAI@Z 0000000180001cc0 f   Adjacencies.obj
 0001:00000dd0       ?Flip@AdjTriangle@physx@@QEAAXXZ 0000000180001dd0 f   Adjacencies.obj
 0001:00000e20       ??0Adjacencies@physx@@QEAA@XZ 0000000180001e20 f   Adjacencies.obj
 0001:00000e50       ??1Adjacencies@physx@@QEAA@XZ 0000000180001e50 f   Adjacencies.obj
 0001:00000eb0       ?Load@Adjacencies@physx@@QEAA_NAEAVPxInputStream@2@@Z 0000000180001eb0 f   Adjacencies.obj
 0001:00001040       ?ComputeNbBoundaryEdges@Adjacencies@physx@@QEBAIXZ 0000000180002040 f   Adjacencies.obj
 0001:000010c0       ?GetBoundaryVertices@Adjacencies@physx@@QEBA_NIPEA_NPEBU?$TriangleT@I@Gu@2@@Z 00000001800020c0 f   Adjacencies.obj
 0001:000013d0       ?MakeLastRef@Adjacencies@physx@@QEAA_NAEAVAdjTriangle@2@IPEAU?$TriangleT@I@Gu@2@@Z 00000001800023d0 f   Adjacencies.obj
 0001:00001730       ?AssignNewEdgeCode@Adjacencies@physx@@AEAAXIE@Z 0000000180002730 f   Adjacencies.obj
 0001:000017d0       ??0AdjacenciesBuilder@physx@@QEAA@XZ 00000001800027d0 f   Adjacencies.obj
 0001:00001800       ??1AdjacenciesBuilder@physx@@QEAA@XZ 0000000180002800 f   Adjacencies.obj
 0001:00001820       ?Init@AdjacenciesBuilder@physx@@QEAA_NAEBUADJACENCIESCREATE@2@@Z 0000000180002820 f   Adjacencies.obj
 0001:00002b10       ??$?_UI@@YAPEAX_KV?$ReflectionAllocator@I@shdfnd@physx@@PEBDH@Z 0000000180003b10 f i Adjacencies.obj
 0001:00002b50       ??$?_UV?$ReflectionAllocator@VAdjEdge@@@shdfnd@physx@@@UserAllocated@shdfnd@physx@@SAPEAX_KV?$ReflectionAllocator@VAdjEdge@@@12@PEBDH@Z 0000000180003b50 f i Adjacencies.obj
 0001:00002b90       ??$?_UV?$ReflectionAllocator@VAdjTriangle@physx@@@shdfnd@physx@@@UserAllocated@shdfnd@physx@@SAPEAX_KV?$ReflectionAllocator@VAdjTriangle@physx@@@12@PEBDH@Z 0000000180003b90 f i Adjacencies.obj
 0001:00002bd0       ??$swap@I@shdfnd@physx@@YAXAEAI0@Z 0000000180003bd0 f i Adjacencies.obj
 0001:00002c10       ??0?$ReflectionAllocator@I@shdfnd@physx@@QEAA@PEBD@Z 0000000180003c10 f i Adjacencies.obj
 0001:00002c20       ??0?$ReflectionAllocator@VAdjEdge@@@shdfnd@physx@@QEAA@PEBD@Z 0000000180003c20 f i Adjacencies.obj
 0001:00002c30       ??0?$ReflectionAllocator@VAdjTriangle@physx@@@shdfnd@physx@@QEAA@PEBD@Z 0000000180003c30 f i Adjacencies.obj
 0001:00002c40       ??0?$TriangleT@I@Gu@physx@@QEAA@XZ 0000000180003c40 f i Adjacencies.obj
 0001:00002c50       ??0AdjEdge@@QEAA@XZ        0000000180003c50 f i Adjacencies.obj
 0001:00002c60       ??0AdjTriangle@physx@@QEAA@XZ 0000000180003c60 f i Adjacencies.obj
 0001:00002c70       ??0Allocator@shdfnd@physx@@QEAA@PEBD@Z 0000000180003c70 f i Adjacencies.obj
 0001:00002c80       ??0EDGELISTCREATE@Gu@physx@@QEAA@XZ 0000000180003c80 f i Adjacencies.obj
 0001:00002cf0       ??0NonTrackingAllocator@shdfnd@physx@@QEAA@PEBD@Z 0000000180003cf0 f i Adjacencies.obj
 0001:00002d00       ??0PxFoundation@physx@@QEAA@AEBV01@@Z 0000000180003d00 f i Adjacencies.obj
 0001:00002d20       ??0PxFoundation@physx@@QEAA@XZ 0000000180003d20 f i Adjacencies.obj
 0001:00002d40       ??1AdjEdge@@QEAA@XZ        0000000180003d40 f i Adjacencies.obj
 0001:00002d50       ??1AdjTriangle@physx@@QEAA@XZ 0000000180003d50 f i Adjacencies.obj
 0001:00002d60       ??1PxFoundation@physx@@MEAA@XZ 0000000180003d60 f i Adjacencies.obj
 0001:00002d80       ??3UserAllocated@shdfnd@physx@@SAXPEAX@Z 0000000180003d80 f i Adjacencies.obj
 0001:00002db0       ??4Allocator@shdfnd@physx@@QEAAAEAV012@$$QEAV012@@Z 0000000180003db0 f i Adjacencies.obj
 0001:00002dc0       ??4Allocator@shdfnd@physx@@QEAAAEAV012@AEBV012@@Z 0000000180003dc0 f i Adjacencies.obj
 0001:00002dd0       ??4MutexImpl@shdfnd@physx@@QEAAAEAV012@AEBV012@@Z 0000000180003dd0 f i Adjacencies.obj
 0001:00002de0       ??4PxFoundation@physx@@QEAAAEAV01@AEBV01@@Z 0000000180003de0 f i Adjacencies.obj
 0001:00002df0       ??_EAdjEdge@@QEAAPEAXI@Z   0000000180003df0 f i Adjacencies.obj
 0001:00002ed0       ??_EAdjTriangle@physx@@QEAAPEAXI@Z 0000000180003ed0 f i Adjacencies.obj
 0001:00002fb0       ??_EPxFoundation@physx@@MEAAPEAXI@Z 0000000180003fb0 f i Adjacencies.obj
 0001:00003050       ??_FAllocator@shdfnd@physx@@QEAAXXZ 0000000180004050 f i Adjacencies.obj
 0001:00003070       ??_FNamedAllocator@shdfnd@physx@@QEAAXXZ 0000000180004070 f i Adjacencies.obj
 0001:00003090       ??_GPxFoundation@physx@@MEAAPEAXI@Z 0000000180004090 f i Adjacencies.obj
 0001:000030d0       ??_H@YAXPEAX_K1P6APEAX0@Z@Z 00000001800040d0 f i Adjacencies.obj
 0001:00003150       ??_I@YAXPEAX_K1P6AX0@Z@Z   0000000180004150 f i Adjacencies.obj
 0001:000031e0       ??_VUserAllocated@shdfnd@physx@@SAXPEAX@Z 00000001800041e0 f i Adjacencies.obj
 0001:00003210       ?GetNbHits@RadixSort@Cm@physx@@QEBAIXZ 0000000180004210 f i Adjacencies.obj
 0001:00003220       ?GetNbTotalCalls@RadixSort@Cm@physx@@QEBAIXZ 0000000180004220 f i Adjacencies.obj
 0001:00003230       ?GetRanks@RadixSort@Cm@physx@@QEBAPEBIXZ 0000000180004230 f i Adjacencies.obj
 0001:00003240       ?GetRecyclable@RadixSort@Cm@physx@@QEBAPEAIXZ 0000000180004240 f i Adjacencies.obj
 0001:00003250       ?HasActiveEdge01@AdjTriangle@physx@@QEBAHXZ 0000000180004250 f i Adjacencies.obj
 0001:00003270       ?HasActiveEdge01@EdgeTriangleAC@Gu@physx@@SAHAEBUEdgeTriangleData@23@@Z 0000000180004270 f i Adjacencies.obj
 0001:00003290       ?HasActiveEdge12@AdjTriangle@physx@@QEBAHXZ 0000000180004290 f i Adjacencies.obj
 0001:000032b0       ?HasActiveEdge12@EdgeTriangleAC@Gu@physx@@SAHAEBUEdgeTriangleData@23@@Z 00000001800042b0 f i Adjacencies.obj
 0001:000032d0       ?HasActiveEdge20@AdjTriangle@physx@@QEBAHXZ 00000001800042d0 f i Adjacencies.obj
 0001:000032f0       ?HasActiveEdge20@EdgeTriangleAC@Gu@physx@@SAHAEBUEdgeTriangleData@23@@Z 00000001800042f0 f i Adjacencies.obj
 0001:00003310       ?PxMemZero@physx@@YAPEAXPEAXI@Z 0000000180004310 f i Adjacencies.obj
 0001:00003330       ?__empty_global_delete@@YAXPEAX@Z 0000000180004330 f i Adjacencies.obj
 0001:00003340       ?__empty_global_delete@@YAXPEAX_K@Z 0000000180004340 f i Adjacencies.obj
 0001:00003350       ?allocate@?$ReflectionAllocator@I@shdfnd@physx@@QEAAPEAX_KPEBDH@Z 0000000180004350 f i Adjacencies.obj
 0001:000033d0       ?allocate@?$ReflectionAllocator@VAdjEdge@@@shdfnd@physx@@QEAAPEAX_KPEBDH@Z 00000001800043d0 f i Adjacencies.obj
 0001:00003450       ?allocate@?$ReflectionAllocator@VAdjTriangle@physx@@@shdfnd@physx@@QEAAPEAX_KPEBDH@Z 0000000180004450 f i Adjacencies.obj
 0001:000034d0       ?deallocate@NonTrackingAllocator@shdfnd@physx@@QEAAXPEAX@Z 00000001800044d0 f i Adjacencies.obj
 0001:00003510       ?findEdge@?$TriangleT@I@Gu@physx@@QEBAEII@Z 0000000180004510 f i Adjacencies.obj
 0001:00003670       ?getAllocator@Foundation@shdfnd@physx@@QEAAAEAVPxAllocatorCallback@3@XZ 0000000180004670 f i Adjacencies.obj
 0001:00003680       ?getAllocatorCallback@Foundation@shdfnd@physx@@UEAAAEAVPxAllocatorCallback@3@XZ 0000000180004680 f i Adjacencies.obj
 0001:00003690       ?getEdgeTriangle@EdgeList@Gu@physx@@QEBAAEBUEdgeTriangleData@23@I@Z 0000000180004690 f i Adjacencies.obj
 0001:000036b0       ?getErrorCallback@Foundation@shdfnd@physx@@UEAAAEAVPxErrorCallback@3@XZ 00000001800046b0 f i Adjacencies.obj
 0001:000036c0       ?getErrorLevel@Foundation@shdfnd@physx@@UEBA?AW4Enum@PxErrorCode@3@XZ 00000001800046c0 f i Adjacencies.obj
 0001:000036e0       ?getFoundation@shdfnd@physx@@YAAEAVFoundation@12@XZ 00000001800046e0 f i Adjacencies.obj
 0001:000036f0       ?getInternalErrorCallback@Foundation@shdfnd@physx@@QEAAAEAVPxErrorCallback@3@XZ 00000001800046f0 f i Adjacencies.obj
 0001:00003710       ?getName@?$ReflectionAllocator@I@shdfnd@physx@@CAPEBDXZ 0000000180004710 f i Adjacencies.obj
 0001:00003750       ?getName@?$ReflectionAllocator@VAdjEdge@@@shdfnd@physx@@CAPEBDXZ 0000000180004750 f i Adjacencies.obj
 0001:00003790       ?getName@?$ReflectionAllocator@VAdjTriangle@physx@@@shdfnd@physx@@CAPEBDXZ 0000000180004790 f i Adjacencies.obj
 0001:000037d0       ?getNamedAllocMap@Foundation@shdfnd@physx@@QEAAAEAV?$HashMap@PEBVNamedAllocator@shdfnd@physx@@PEBDU?$Hash@PEBVNamedAllocator@shdfnd@physx@@@23@VNonTrackingAllocator@23@@23@XZ 00000001800047d0 f i Adjacencies.obj
 0001:000037f0       ?getNamedAllocMutex@Foundation@shdfnd@physx@@QEAAAEAV?$MutexT@VAllocator@shdfnd@physx@@@23@XZ 00000001800047f0 f i Adjacencies.obj
 0001:00003810       ?getReportAllocationNames@Foundation@shdfnd@physx@@UEBA_NXZ 0000000180004810 f i Adjacencies.obj
 0001:00003830       ?getTempAllocFreeTable@Foundation@shdfnd@physx@@QEAAAEAV?$Array@PEATTempAllocatorChunk@shdfnd@physx@@VAllocator@23@@23@XZ 0000000180004830 f i Adjacencies.obj
 0001:00003850       ?getTempAllocMutex@Foundation@shdfnd@physx@@QEAAAEAV?$MutexT@VAllocator@shdfnd@physx@@@23@XZ 0000000180004850 f i Adjacencies.obj
 0001:00003870       ?invalidateRanks@RadixSort@Cm@physx@@QEAAXXZ 0000000180004870 f i Adjacencies.obj
 0001:00003890       ?memZero@intrinsics@physx@@YAPEAXPEAXI@Z 0000000180004890 f i Adjacencies.obj
 0001:000038c0       ?name@type_info@@QEBAPEBDXZ 00000001800048c0 f i Adjacencies.obj
 0001:000038f0       ?setErrorLevel@Foundation@shdfnd@physx@@UEAAXW4Enum@PxErrorCode@3@@Z 00000001800048f0 f i Adjacencies.obj
 0001:00003910       ?setReportAllocationNames@Foundation@shdfnd@physx@@UEAAX_N@Z 0000000180004910 f i Adjacencies.obj
 0001:00003930       PxCreateCooking            0000000180004930 f   Cooking.obj
 0001:00003a20       ?release@Cooking@physx@@UEAAXXZ 0000000180004a20 f   Cooking.obj
 0001:00003a70       ?setParams@Cooking@physx@@UEAAXAEBUPxCookingParams@2@@Z 0000000180004a70 f   Cooking.obj
 0001:00003aa0       ?getParams@Cooking@physx@@UEBAAEBUPxCookingParams@2@XZ 0000000180004aa0 f   Cooking.obj
 0001:00003ac0       ?platformMismatch@Cooking@physx@@UEBA_NXZ 0000000180004ac0 f   Cooking.obj
 0001:00003b10       ?cookTriangleMesh@Cooking@physx@@UEBA_NAEBVPxTriangleMeshDesc@2@AEAVPxOutputStream@2@PEAW4Enum@PxTriangleMeshCookingResult@2@@Z 0000000180004b10 f   Cooking.obj
 0001:00003c20       ?createTriangleMesh@Cooking@physx@@UEBAPEAVPxTriangleMesh@2@AEBVPxTriangleMeshDesc@2@AEAVPxPhysicsInsertionCallback@2@PEAW4Enum@PxTriangleMeshCookingResult@2@@Z 0000000180004c20 f   Cooking.obj
 0001:00003d30       ?validateTriangleMesh@Cooking@physx@@UEBA_NAEBVPxTriangleMeshDesc@2@@Z 0000000180004d30 f   Cooking.obj
 0001:00003e00       ?cookConvexMesh@Cooking@physx@@UEBA_NAEBVPxConvexMeshDesc@2@AEAVPxOutputStream@2@PEAW4Enum@PxConvexMeshCookingResult@2@@Z 0000000180004e00 f   Cooking.obj
 0001:00004130       ?createConvexMesh@Cooking@physx@@UEBAPEAVPxConvexMesh@2@AEBVPxConvexMeshDesc@2@AEAVPxPhysicsInsertionCallback@2@PEAW4Enum@PxConvexMeshCookingResult@2@@Z 0000000180005130 f   Cooking.obj
 0001:000044b0       ?validateConvexMesh@Cooking@physx@@UEBA_NAEBVPxConvexMeshDesc@2@@Z 00000001800054b0 f   Cooking.obj
 0001:00004530       ?computeHullPolygons@Cooking@physx@@UEBA_NAEBVPxSimpleTriangleMesh@2@AEAVPxAllocatorCallback@2@AEAIAEAPEAVPxVec3@2@2AEAPEAI2AEAPEAUPxHullPolygon@2@@Z 0000000180005530 f   Cooking.obj
 0001:00004800       ?cookHeightField@Cooking@physx@@UEBA_NAEBVPxHeightFieldDesc@2@AEAVPxOutputStream@2@@Z 0000000180005800 f   Cooking.obj
 0001:00004960       ?createHeightField@Cooking@physx@@UEBAPEAVPxHeightField@2@AEBVPxHeightFieldDesc@2@AEAVPxPhysicsInsertionCallback@2@@Z 0000000180005960 f   Cooking.obj
 0001:00004c50       ?cookBVHStructure@Cooking@physx@@UEBA_NAEBVPxBVHStructureDesc@2@AEAVPxOutputStream@2@@Z 0000000180005c50 f   Cooking.obj
 0001:00004d70       ?createBVHStructure@Cooking@physx@@UEBAPEAVPxBVHStructure@2@AEBVPxBVHStructureDesc@2@AEAVPxPhysicsInsertionCallback@2@@Z 0000000180005d70 f   Cooking.obj
 0001:00004ea0       ?cookConvexMeshInternal@Cooking@physx@@AEBA_NAEBVPxConvexMeshDesc@2@AEAVConvexMeshBuilder@2@PEAVConvexHullLib@2@PEAW4Enum@PxConvexMeshCookingResult@2@@Z 0000000180005ea0 f   Cooking.obj
 0001:000051c0       ?cookTriangleMesh@Cooking@physx@@AEBA_NAEAVTriangleMeshBuilder@2@AEBVPxTriangleMeshDesc@2@AEAVPxOutputStream@2@PEAW4Enum@PxTriangleMeshCookingResult@2@@Z 00000001800061c0 f   Cooking.obj
 0001:000052a0       ?createTriangleMesh@Cooking@physx@@AEBAPEAVPxTriangleMesh@2@AEAVTriangleMeshBuilder@2@AEBVPxTriangleMeshDesc@2@AEAVPxPhysicsInsertionCallback@2@PEAW4Enum@PxTriangleMeshCookingResult@2@@Z 00000001800062a0 f   Cooking.obj
 0001:00005470       ??$?2V?$ReflectionAllocator@VCooking@physx@@@shdfnd@physx@@@UserAllocated@shdfnd@physx@@SAPEAX_KV?$ReflectionAllocator@VCooking@physx@@@12@PEBDH@Z 0000000180006470 f i Cooking.obj
 0001:000054b0       ??$?2V?$ReflectionAllocator@VQuickHullConvexHullLib@physx@@@shdfnd@physx@@@UserAllocated@shdfnd@physx@@SAPEAX_KV?$ReflectionAllocator@VQuickHullConvexHullLib@physx@@@12@PEBDH@Z 00000001800064b0 f i Cooking.obj
 0001:000054f0       ??$PX_UNUSED@VPxFoundation@physx@@@@YAXAEBVPxFoundation@physx@@@Z 00000001800064f0 f i Cooking.obj
 0001:00005500       ??$PX_UNUSED@W4PxIDENTITY@physx@@@@YAXAEBW4PxIDENTITY@physx@@@Z 0000000180006500 f i Cooking.obj
 0001:00005510       ??$PxMax@I@physx@@YAIII@Z  0000000180006510 f i Cooking.obj
 0001:00005540       ??$PxMin@G@physx@@YAGGG@Z  0000000180006540 f i Cooking.obj
 0001:00005580       ??0?$PxBitAndDataT@G$0IAAA@@physx@@QEAA@XZ 0000000180006580 f i Cooking.obj
 0001:000055a0       ??0?$PxFlags@W4Enum@PxBaseFlag@physx@@G@physx@@QEAA@AEBV01@@Z 00000001800065a0 f i Cooking.obj
 0001:000055c0       ??0?$PxFlags@W4Enum@PxConvexFlag@physx@@G@physx@@QEAA@AEBV01@@Z 00000001800065c0 f i Cooking.obj
 0001:000055e0       ??0?$PxFlags@W4Enum@PxConvexFlag@physx@@G@physx@@QEAA@W4Enum@PxConvexFlag@1@@Z 00000001800065e0 f i Cooking.obj
 0001:00005600       ??0?$PxFlags@W4Enum@PxConvexFlag@physx@@G@physx@@QEAA@XZ 0000000180006600 f i Cooking.obj
 0001:00005620       ??0?$PxFlags@W4Enum@PxHeightFieldFlag@physx@@G@physx@@QEAA@AEBV01@@Z 0000000180006620 f i Cooking.obj
 0001:00005640       ??0?$PxFlags@W4Enum@PxHeightFieldFlag@physx@@G@physx@@QEAA@W4PxEMPTY@1@@Z 0000000180006640 f i Cooking.obj
 0001:00005650       ??0?$PxFlags@W4Enum@PxHeightFieldFlag@physx@@G@physx@@QEAA@XZ 0000000180006650 f i Cooking.obj
 0001:00005670       ??0?$PxFlags@W4Enum@PxMeshFlag@physx@@G@physx@@QEAA@AEBV01@@Z 0000000180006670 f i Cooking.obj
 0001:00005690       ??0?$PxFlags@W4Enum@PxMeshPreprocessingFlag@physx@@I@physx@@QEAA@AEBV01@@Z 0000000180006690 f i Cooking.obj
 0001:000056b0       ??0?$ReflectionAllocator@VCooking@physx@@@shdfnd@physx@@QEAA@PEBD@Z 00000001800066b0 f i Cooking.obj
 0001:000056c0       ??0?$ReflectionAllocator@VHeightField@Gu@physx@@@shdfnd@physx@@QEAA@PEBD@Z 00000001800066c0 f i Cooking.obj
 0001:000056d0       ??0?$ReflectionAllocator@VQuickHullConvexHullLib@physx@@@shdfnd@physx@@QEAA@PEBD@Z 00000001800066d0 f i Cooking.obj
 0001:000056e0       ??0CenterExtents@Gu@physx@@QEAA@AEBV012@@Z 00000001800066e0 f i Cooking.obj
 0001:00005730       ??0CenterExtents@Gu@physx@@QEAA@XZ 0000000180006730 f i Cooking.obj
 0001:00005770       ??0ConvexHullData@Gu@physx@@QEAA@XZ 0000000180006770 f i Cooking.obj
 0001:000057c0       ??0ConvexHullInitData@Gu@physx@@QEAA@XZ 00000001800067c0 f i Cooking.obj
 0001:00005800       ??0Cooking@physx@@QEAA@AEBUPxCookingParams@1@@Z 0000000180006800 f i Cooking.obj
 0001:00005850       ??0DebugText@Cm@physx@@QEAA@$$QEAU012@@Z 0000000180006850 f i Cooking.obj
 0001:000058c0       ??0DebugText@Cm@physx@@QEAA@AEBU012@@Z 00000001800068c0 f i Cooking.obj
 0001:00005930       ??0HeightFieldData@Gu@physx@@QEAA@$$QEAU012@@Z 0000000180006930 f i Cooking.obj
 0001:00005a10       ??0HeightFieldData@Gu@physx@@QEAA@AEBU012@@Z 0000000180006a10 f i Cooking.obj
 0001:00005af0       ??0HeightFieldData@Gu@physx@@QEAA@W4PxEMPTY@2@@Z 0000000180006af0 f i Cooking.obj
 0001:00005b30       ??0HeightFieldData@Gu@physx@@QEAA@XZ 0000000180006b30 f i Cooking.obj
 0001:00005b70       ??0PxConvexMeshDesc@physx@@QEAA@AEBV01@@Z 0000000180006b70 f i Cooking.obj
 0001:00005c10       ??0PxCooking@physx@@QEAA@XZ 0000000180006c10 f i Cooking.obj
 0001:00005c30       ??0PxCookingParams@physx@@QEAA@AEBU01@@Z 0000000180006c30 f i Cooking.obj
 0001:00005d20       ??0PxDebugLine@physx@@QEAA@AEBU01@@Z 0000000180006d20 f i Cooking.obj
 0001:00005d90       ??0PxMat33@physx@@QEAA@XZ  0000000180006d90 f i Cooking.obj
 0001:00005de0       ??0PxMat44@physx@@QEAA@AEBV01@@Z 0000000180006de0 f i Cooking.obj
 0001:00005e60       ??0PxMat44@physx@@QEAA@W4PxIDENTITY@1@@Z 0000000180006e60 f i Cooking.obj
 0001:00005f20       ??0PxVec3@physx@@QEAA@AEBV01@@Z 0000000180006f20 f i Cooking.obj
 0001:00005f70       ??0PxVec3@physx@@QEAA@M@Z  0000000180006f70 f i Cooking.obj
 0001:00005fb0       ??0PxVec3@physx@@QEAA@MMM@Z 0000000180006fb0 f i Cooking.obj
 0001:00006000       ??0PxVec3@physx@@QEAA@XZ   0000000180007000 f i Cooking.obj
 0001:00006010       ??0PxVec4@physx@@QEAA@AEBV01@@Z 0000000180007010 f i Cooking.obj
 0001:00006070       ??0PxVec4@physx@@QEAA@MMMM@Z 0000000180007070 f i Cooking.obj
 0001:000060d0       ??0RenderOutput@Cm@physx@@QEAA@AEAVRenderBuffer@12@@Z 00000001800070d0 f i Cooking.obj
 0001:00006160       ??0RenderOutput@Cm@physx@@QEAA@AEBV012@@Z 0000000180007160 f i Cooking.obj
 0001:00006210       ??1CenterExtents@Gu@physx@@QEAA@XZ 0000000180007210 f i Cooking.obj
 0001:00006220       ??1ConvexHullData@Gu@physx@@QEAA@XZ 0000000180007220 f i Cooking.obj
 0001:00006240       ??1ConvexHullInitData@Gu@physx@@QEAA@XZ 0000000180007240 f i Cooking.obj
 0001:00006260       ??1Cooking@physx@@UEAA@XZ  0000000180007260 f i Cooking.obj
 0001:00006280       ??1HeightFieldData@Gu@physx@@QEAA@XZ 0000000180007280 f i Cooking.obj
 0001:000062a0       ??1PxBase@physx@@MEAA@XZ   00000001800072a0 f i Cooking.obj
 0001:000062c0       ??1PxConvexMesh@physx@@MEAA@XZ 00000001800072c0 f i Cooking.obj
 0001:000062f0       ??1PxCooking@physx@@MEAA@XZ 00000001800072f0 f i Cooking.obj
 0001:00006310       ??1PxHeightField@physx@@MEAA@XZ 0000000180007310 f i Cooking.obj
 0001:00006340       ??2@YAPEAX_KPEAX@Z         0000000180007340 f i Cooking.obj
 0001:00006350       ??2UserAllocated@shdfnd@physx@@SAPEAX_KPEAX@Z 0000000180007350 f i Cooking.obj
 0001:00006360       ??4?$PxFlags@W4Enum@PxHeightFieldFlag@physx@@G@physx@@QEAAAEAV01@AEBV01@@Z 0000000180007360 f i Cooking.obj
 0001:00006380       ??4?$PxFlags@W4Enum@PxMeshPreprocessingFlag@physx@@I@physx@@QEAAAEAV01@AEBV01@@Z 0000000180007380 f i Cooking.obj
 0001:000063a0       ??4CenterExtents@Gu@physx@@QEAAAEAV012@AEBV012@@Z 00000001800073a0 f i Cooking.obj
 0001:000063f0       ??4DebugText@Cm@physx@@QEAAAEAU012@$$QEAU012@@Z 00000001800073f0 f i Cooking.obj
 0001:00006490       ??4DebugText@Cm@physx@@QEAAAEAU012@AEBU012@@Z 0000000180007490 f i Cooking.obj
 0001:00006530       ??4FPUGuard@shdfnd@physx@@QEAAAEAV012@AEBV012@@Z 0000000180007530 f i Cooking.obj
 0001:00006560       ??4HeightFieldData@Gu@physx@@QEAAAEAU012@$$QEAU012@@Z 0000000180007560 f i Cooking.obj
 0001:00006640       ??4HeightFieldData@Gu@physx@@QEAAAEAU012@AEBU012@@Z 0000000180007640 f i Cooking.obj
 0001:00006720       ??4PxCookingParams@physx@@QEAAAEAU01@AEBU01@@Z 0000000180007720 f i Cooking.obj
 0001:00006810       ??4PxVec3@physx@@QEAAAEAV01@AEBV01@@Z 0000000180007810 f i Cooking.obj
 0001:00006860       ??9?$PxFlags@W4Enum@PxHeightFieldFlag@physx@@G@physx@@QEBA_NAEBV01@@Z 0000000180007860 f i Cooking.obj
 0001:000068a0       ??B?$PxBitAndDataT@E$0IA@@physx@@QEBAEXZ 00000001800078a0 f i Cooking.obj
 0001:000068c0       ??B?$PxBitAndDataT@G$0IAAA@@physx@@QEBAGXZ 00000001800078c0 f i Cooking.obj
 0001:000068e0       ??B?$PxFlags@W4Enum@PxBaseFlag@physx@@G@physx@@QEBA_NXZ 00000001800078e0 f i Cooking.obj
 0001:00006910       ??B?$PxFlags@W4Enum@PxConvexFlag@physx@@G@physx@@QEBA_NXZ 0000000180007910 f i Cooking.obj
 0001:00006940       ??B?$PxFlags@W4Enum@PxMeshFlag@physx@@G@physx@@QEBA_NXZ 0000000180007940 f i Cooking.obj
 0001:00006970       ??B?$PxFlags@W4Enum@PxMeshPreprocessingFlag@physx@@I@physx@@QEBA_NXZ 0000000180007970 f i Cooking.obj
 0001:000069a0       ??I?$PxFlags@W4Enum@PxBaseFlag@physx@@G@physx@@QEBA?AV01@W4Enum@PxBaseFlag@1@@Z 00000001800079a0 f i Cooking.obj
 0001:000069f0       ??I?$PxFlags@W4Enum@PxConvexFlag@physx@@G@physx@@QEBA?AV01@W4Enum@PxConvexFlag@1@@Z 00000001800079f0 f i Cooking.obj
 0001:00006a40       ??I?$PxFlags@W4Enum@PxHeightFieldFlag@physx@@G@physx@@QEBA?AV01@W4Enum@PxHeightFieldFlag@1@@Z 0000000180007a40 f i Cooking.obj
 0001:00006a90       ??I?$PxFlags@W4Enum@PxMeshFlag@physx@@G@physx@@QEBA?AV01@W4Enum@PxMeshFlag@1@@Z 0000000180007a90 f i Cooking.obj
 0001:00006ae0       ??I?$PxFlags@W4Enum@PxMeshPreprocessingFlag@physx@@I@physx@@QEBA?AV01@W4Enum@PxMeshPreprocessingFlag@1@@Z 0000000180007ae0 f i Cooking.obj
 0001:00006b30       ??S?$PxFlags@W4Enum@PxConvexFlag@physx@@G@physx@@QEBA?AV01@XZ 0000000180007b30 f i Cooking.obj
 0001:00006b70       ??Sphysx@@YA?AV?$PxFlags@W4Enum@PxConvexFlag@physx@@G@0@W4Enum@PxConvexFlag@0@@Z 0000000180007b70 f i Cooking.obj
 0001:00006bb0       ??_4?$PxFlags@W4Enum@PxConvexFlag@physx@@G@physx@@QEAAAEAV01@AEBV01@@Z 0000000180007bb0 f i Cooking.obj
 0001:00006be0       ??_EPxConvexMesh@physx@@MEAAPEAXI@Z 0000000180007be0 f i Cooking.obj
 0001:00006c80       ??_EPxHeightField@physx@@MEAAPEAXI@Z 0000000180007c80 f i Cooking.obj
 0001:00006d20       ??_ECooking@physx@@UEAAPEAXI@Z 0000000180007d20 f i Cooking.obj
 0001:00006d20       ??_GCooking@physx@@UEAAPEAXI@Z 0000000180007d20 f i Cooking.obj
 0001:00006d80       ??_EPxBase@physx@@MEAAPEAXI@Z 0000000180007d80 f i Cooking.obj
 0001:00006d80       ??_GPxBase@physx@@MEAAPEAXI@Z 0000000180007d80 f i Cooking.obj
 0001:00006dc0       ??_EPxCooking@physx@@MEAAPEAXI@Z 0000000180007dc0 f i Cooking.obj
 0001:00006dc0       ??_GPxCooking@physx@@MEAAPEAXI@Z 0000000180007dc0 f i Cooking.obj
 0001:00006e00       ?FLoad@aos@shdfnd@physx@@YA?AT__m128@@M@Z 0000000180007e00 f i Cooking.obj
 0001:00006e30       ?PxMemCopy@physx@@YAPEAXPEAXPEBXI@Z 0000000180007e30 f i Cooking.obj
 0001:00006e60       ?V3Load@aos@shdfnd@physx@@YA?AT__m128@@M@Z 0000000180007e60 f i Cooking.obj
 0001:00006ea0       ?V4Load@aos@shdfnd@physx@@YA?AT__m128@@M@Z 0000000180007ea0 f i Cooking.obj
 0001:00006ed0       ?allocate@?$Array@UPxDebugLine@physx@@VNamedAllocator@shdfnd@2@@shdfnd@physx@@IEAAPEAUPxDebugLine@3@I@Z 0000000180007ed0 f i Cooking.obj
 0001:00006f60       ?allocate@?$ReflectionAllocator@VCooking@physx@@@shdfnd@physx@@QEAAPEAX_KPEBDH@Z 0000000180007f60 f i Cooking.obj
 0001:00006fe0       ?allocate@?$ReflectionAllocator@VHeightField@Gu@physx@@@shdfnd@physx@@QEAAPEAX_KPEBDH@Z 0000000180007fe0 f i Cooking.obj
 0001:00007060       ?allocate@?$ReflectionAllocator@VQuickHullConvexHullLib@physx@@@shdfnd@physx@@QEAAPEAX_KPEBDH@Z 0000000180008060 f i Cooking.obj
 0001:000070e0       ?capacity@?$Array@UPxDebugLine@physx@@VNamedAllocator@shdfnd@2@@shdfnd@physx@@QEBAIXZ 00000001800080e0 f i Cooking.obj
 0001:00007100       ?copy@?$Array@UPxDebugLine@physx@@VNamedAllocator@shdfnd@2@@shdfnd@physx@@KAXPEAUPxDebugLine@3@0PEBU43@@Z 0000000180008100 f i Cooking.obj
 0001:00007180       ?deallocate@?$Array@UPxDebugLine@physx@@VNamedAllocator@shdfnd@2@@shdfnd@physx@@IEAAXPEAX@Z 0000000180008180 f i Cooking.obj
 0001:000071b0       ?destroy@?$Array@UPxDebugLine@physx@@VNamedAllocator@shdfnd@2@@shdfnd@physx@@KAXPEAUPxDebugLine@3@0@Z 00000001800081b0 f i Cooking.obj
 0001:000071e0       ?end@?$Array@UPxDebugLine@physx@@VNamedAllocator@shdfnd@2@@shdfnd@physx@@QEAAPEAUPxDebugLine@3@XZ 00000001800081e0 f i Cooking.obj
 0001:00007200       ?forceSize_Unsafe@?$Array@UPxDebugLine@physx@@VNamedAllocator@shdfnd@2@@shdfnd@physx@@QEAAXI@Z 0000000180008200 f i Cooking.obj
 0001:00007280       ?fsel@intrinsics@physx@@YAMMMM@Z 0000000180008280 f i Cooking.obj
 0001:000072d0       ?gatherStrided@Cooking@physx@@SAXPEBXPEAXIII@Z 00000001800082d0 f i Cooking.obj
 0001:00007360       ?getConcreteTypeName@PxConvexMesh@physx@@UEBAPEBDXZ 0000000180008360 f i Cooking.obj
 0001:00007370       ?getConcreteTypeName@PxHeightField@physx@@UEBAPEBDXZ 0000000180008370 f i Cooking.obj
 0001:00007380       ?getConvexEdgeThreshold@HeightField@Gu@physx@@UEBAMXZ 0000000180008380 f i Cooking.obj
 0001:00007390       ?getFlags@HeightField@Gu@physx@@UEBA?AV?$PxFlags@W4Enum@PxHeightFieldFlag@physx@@G@3@XZ 0000000180008390 f i Cooking.obj
 0001:000073c0       ?getFormat@HeightField@Gu@physx@@UEBA?AW4Enum@PxHeightFieldFormat@3@XZ 00000001800083c0 f i Cooking.obj
 0001:000073d0       ?getHeight@HeightField@Gu@physx@@QEBAMI@Z 00000001800083d0 f i Cooking.obj
 0001:00007400       ?getHeight@HeightField@Gu@physx@@UEBAMMM@Z 0000000180008400 f i Cooking.obj
 0001:00007430       ?getHeightInternal2@HeightField@Gu@physx@@QEBAMIMM@Z 0000000180008430 f i Cooking.obj
 0001:000076a0       ?getHeightInternal@HeightField@Gu@physx@@QEBAMMM@Z 00000001800086a0 f i Cooking.obj
 0001:00007700       ?getHullVertices@ConvexHullData@Gu@physx@@QEBAPEBVPxVec3@3@XZ 0000000180008700 f i Cooking.obj
 0001:00007740       ?getIndexBuffer@ConvexMesh@Gu@physx@@UEBAPEBEXZ 0000000180008740 f i Cooking.obj
 0001:00007760       ?getMaterialIndex0@HeightField@Gu@physx@@QEBAGI@Z 0000000180008760 f i Cooking.obj
 0001:00007790       ?getMaterialIndex1@HeightField@Gu@physx@@QEBAGI@Z 0000000180008790 f i Cooking.obj
 0001:000077c0       ?getMeshData@TriangleMeshBuilder@physx@@QEAAAEAVTriangleMeshData@Gu@2@XZ 00000001800087c0 f i Cooking.obj
 0001:000077d0       ?getName@?$ReflectionAllocator@VCooking@physx@@@shdfnd@physx@@CAPEBDXZ 00000001800087d0 f i Cooking.obj
 0001:00007810       ?getName@?$ReflectionAllocator@VHeightField@Gu@physx@@@shdfnd@physx@@CAPEBDXZ 0000000180008810 f i Cooking.obj
 0001:00007850       ?getName@?$ReflectionAllocator@VQuickHullConvexHullLib@physx@@@shdfnd@physx@@CAPEBDXZ 0000000180008850 f i Cooking.obj
 0001:00007890       ?getNbColumns@HeightField@Gu@physx@@UEBAIXZ 0000000180008890 f i Cooking.obj
 0001:000078a0       ?getNbColumnsFast@HeightField@Gu@physx@@QEBAIXZ 00000001800088a0 f i Cooking.obj
 0001:000078b0       ?getNbPolygons@ConvexMesh@Gu@physx@@UEBAIXZ 00000001800088b0 f i Cooking.obj
 0001:000078c0       ?getNbRows@HeightField@Gu@physx@@UEBAIXZ 00000001800088c0 f i Cooking.obj
 0001:000078d0       ?getNbVertices@ConvexMesh@Gu@physx@@UEBAIXZ 00000001800088d0 f i Cooking.obj
 0001:000078e0       ?getPaddedBounds@HeightFieldData@Gu@physx@@QEBAAEBVCenterExtentsPadded@23@XZ 00000001800088e0 f i Cooking.obj
 0001:000078f0       ?getSample@HeightField@Gu@physx@@QEBAAEBUPxHeightFieldSample@3@I@Z 00000001800088f0 f i Cooking.obj
 0001:00007970       ?getSample@HeightField@Gu@physx@@UEBAAEBUPxHeightFieldSample@3@II@Z 0000000180008970 f i Cooking.obj
 0001:000079b0       ?getSampleStride@HeightField@Gu@physx@@UEBAIXZ 00000001800089b0 f i Cooking.obj
 0001:000079c0       ?getTimestamp@HeightField@Gu@physx@@UEBAIXZ 00000001800089c0 f i Cooking.obj
 0001:000079d0       ?getTriangleMaterial@HeightField@Gu@physx@@QEBAGI@Z 00000001800089d0 f i Cooking.obj
 0001:00007a30       ?getTriangleMaterialIndex@HeightField@Gu@physx@@UEBAGI@Z 0000000180008a30 f i Cooking.obj
 0001:00007a50       ?getTriangleNormal@HeightField@Gu@physx@@UEBA?AVPxVec3@3@I@Z 0000000180008a50 f i Cooking.obj
 0001:00007a90       ?getTriangleNormalInternal@HeightField@Gu@physx@@QEBA?AVPxVec3@3@I@Z 0000000180008a90 f i Cooking.obj
 0001:00007cf0       ?getTriangleVertexIndices@HeightField@Gu@physx@@QEBAXIAEAI00@Z 0000000180008cf0 f i Cooking.obj
 0001:00007e40       ?getType@PxMidphaseDesc@physx@@QEBA?AW4Enum@PxMeshMidPhase@2@XZ 0000000180008e40 f i Cooking.obj
 0001:00007e50       ?getVertexData8@ConvexHullData@Gu@physx@@QEBAPEBEXZ 0000000180008e50 f i Cooking.obj
 0001:00007f30       ?getVertices@ConvexMesh@Gu@physx@@UEBAPEBVPxVec3@3@XZ 0000000180008f30 f i Cooking.obj
 0001:00007f50       ?grow@?$Array@UPxDebugLine@physx@@VNamedAllocator@shdfnd@2@@shdfnd@physx@@IEAAXI@Z 0000000180008f50 f i Cooking.obj
 0001:00007fd0       ?isBitSet@?$PxBitAndDataT@E$0IA@@physx@@QEBAEXZ 0000000180008fd0 f i Cooking.obj
 0001:00007ff0       ?isBitSet@?$PxBitAndDataT@G$0IAAA@@physx@@QEBAGXZ 0000000180008ff0 f i Cooking.obj
 0001:00008010       ?isFirstTriangle@HeightField@Gu@physx@@QEBA_NI@Z 0000000180009010 f i Cooking.obj
 0001:00008050       ?isInUserMemory@?$Array@UPxDebugLine@physx@@VNamedAllocator@shdfnd@2@@shdfnd@physx@@QEBAIXZ 0000000180009050 f i Cooking.obj
 0001:00008070       ?isKindOf@PxBase@physx@@MEBA_NPEBD@Z 0000000180009070 f i Cooking.obj
 0001:000080b0       ?isKindOf@PxConvexMesh@physx@@MEBA_NPEBD@Z 00000001800090b0 f i Cooking.obj
 0001:00008110       ?isKindOf@PxHeightField@physx@@MEBA_NPEBD@Z 0000000180009110 f i Cooking.obj
 0001:00008170       ?isReleasable@PxBase@physx@@UEBA_NXZ 0000000180009170 f i Cooking.obj
 0001:000081b0       ?isValid@PxBVHStructureDesc@physx@@QEBA_NXZ 00000001800091b0 f i Cooking.obj
 0001:000081f0       ?isValid@PxConvexMeshDesc@physx@@QEBA_NXZ 00000001800091f0 f i Cooking.obj
 0001:00008400       ?isValid@PxHeightFieldDesc@physx@@QEBA_NXZ 0000000180009400 f i Cooking.obj
 0001:000084b0       ?isValid@PxSimpleTriangleMesh@physx@@QEBA_NXZ 00000001800094b0 f i Cooking.obj
 0001:00008590       ?isValid@PxTriangleMeshDesc@physx@@QEBA_NXZ 0000000180009590 f i Cooking.obj
 0001:00008600       ?isValidVertex@HeightField@Gu@physx@@QEBA_NI@Z 0000000180009600 f i Cooking.obj
 0001:00008640       ?isZerothVertexShared@HeightField@Gu@physx@@QEBA_NI@Z 0000000180009640 f i Cooking.obj
 0001:00008690       ?littleEndian@shdfnd@physx@@YADXZ 0000000180009690 f i Cooking.obj
 0001:000086b0       ?markSerializedMem@Cm@physx@@YAXPEAXI@Z 00000001800096b0 f i Cooking.obj
 0001:000086f0       ?memCopy@intrinsics@physx@@YAPEAXPEAXPEBXI@Z 00000001800096f0 f i Cooking.obj
 0001:00008720       ?outputSegment@RenderOutput@Cm@physx@@QEAAXAEBVPxVec3@3@0@Z 0000000180009720 f i Cooking.obj
 0001:000087a0       ?preExportDataReset@ConvexMesh@Gu@physx@@QEAAXXZ 00000001800097a0 f i Cooking.obj
 0001:000087c0       ?preExportDataReset@HeightField@Gu@physx@@QEAAXXZ 00000001800097c0 f i Cooking.obj
 0001:000087e0       ?preExportDataReset@RefCountable@Cm@physx@@QEAAXXZ 00000001800097e0 f i Cooking.obj
 0001:00008800       ?recreate@?$Array@UPxDebugLine@physx@@VNamedAllocator@shdfnd@2@@shdfnd@physx@@IEAAXI@Z 0000000180009800 f i Cooking.obj
 0001:00008920       ?reserve@?$Array@UPxDebugLine@physx@@VNamedAllocator@shdfnd@2@@shdfnd@physx@@QEAAXI@Z 0000000180009920 f i Cooking.obj
 0001:00008950       ?reserveSegments@RenderOutput@Cm@physx@@QEAAPEAUPxDebugLine@3@I@Z 0000000180009950 f i Cooking.obj
 0001:00008980       ?size@?$Array@UPxDebugLine@physx@@VNamedAllocator@shdfnd@2@@shdfnd@physx@@QEBAIXZ 0000000180009980 f i Cooking.obj
 0001:00008990       ?tessFlag@PxHeightFieldSample@physx@@QEBAEXZ 0000000180009990 f i Cooking.obj
 0001:000089d0       ??0ReducedVertexCloud@physx@@QEAA@PEBVPxVec3@1@I@Z 00000001800099d0 f   CookingUtils.obj
 0001:00008a30       ??1ReducedVertexCloud@physx@@QEAA@XZ 0000000180009a30 f   CookingUtils.obj
 0001:00008a50       ?Clean@ReducedVertexCloud@physx@@QEAAAEAV12@XZ 0000000180009a50 f   CookingUtils.obj
 0001:00008ac0       ?Reduce@ReducedVertexCloud@physx@@QEAA_NPEAUREDUCEDCLOUD@2@@Z 0000000180009ac0 f   CookingUtils.obj
 0001:00008fc0       ??$?_UM@@YAPEAX_KV?$ReflectionAllocator@M@shdfnd@physx@@PEBDH@Z 0000000180009fc0 f i CookingUtils.obj
 0001:00009000       ??0?$ReflectionAllocator@M@shdfnd@physx@@QEAA@PEBD@Z 000000018000a000 f i CookingUtils.obj
 0001:00009010       ?allocate@?$ReflectionAllocator@M@shdfnd@physx@@QEAAPEAX_KPEBDH@Z 000000018000a010 f i CookingUtils.obj
 0001:00009090       ?getName@?$ReflectionAllocator@M@shdfnd@physx@@CAPEBDXZ 000000018000a090 f i CookingUtils.obj
 0001:000090d0       ??0EdgeList@Gu@physx@@QEAA@XZ 000000018000a0d0 f   EdgeList.obj
 0001:00009120       ??1EdgeList@Gu@physx@@QEAA@XZ 000000018000a120 f   EdgeList.obj
 0001:000091e0       ?load@EdgeList@Gu@physx@@QEAA_NAEAVPxInputStream@3@@Z 000000018000a1e0 f   EdgeList.obj
 0001:00009510       ??0EdgeListBuilder@Gu@physx@@QEAA@XZ 000000018000a510 f   EdgeList.obj
 0001:00009540       ??1EdgeListBuilder@Gu@physx@@QEAA@XZ 000000018000a540 f   EdgeList.obj
 0001:00009560       ?init@EdgeListBuilder@Gu@physx@@QEAA_NAEBUEDGELISTCREATE@23@@Z 000000018000a560 f   EdgeList.obj
 0001:00009740       ?createFacesToEdges@EdgeListBuilder@Gu@physx@@AEAA_NIPEBIPEBG@Z 000000018000a740 f   EdgeList.obj
 0001:00009f10       ?createEdgesToFaces@EdgeListBuilder@Gu@physx@@AEAA_NIPEBIPEBG@Z 000000018000af10 f   EdgeList.obj
 0001:0000a4b0       ?computeActiveEdges@EdgeListBuilder@Gu@physx@@AEAA_NIPEBIPEBGPEBVPxVec3@3@M@Z 000000018000b4b0 f   EdgeList.obj
 0001:0000bfa0       ??$?_UUEdgeData@Gu@physx@@@@YAPEAX_KV?$ReflectionAllocator@UEdgeData@Gu@physx@@@shdfnd@physx@@PEBDH@Z 000000018000cfa0 f i EdgeList.obj
 0001:0000bfe0       ??$?_UUEdgeTriangleData@Gu@physx@@@@YAPEAX_KV?$ReflectionAllocator@UEdgeTriangleData@Gu@physx@@@shdfnd@physx@@PEBDH@Z 000000018000cfe0 f i EdgeList.obj
 0001:0000c020       ??0?$ReflectionAllocator@UEdgeData@Gu@physx@@@shdfnd@physx@@QEAA@PEBD@Z 000000018000d020 f i EdgeList.obj
 0001:0000c030       ??0?$ReflectionAllocator@UEdgeTriangleData@Gu@physx@@@shdfnd@physx@@QEAA@PEBD@Z 000000018000d030 f i EdgeList.obj
 0001:0000c040       ??0PxPlane@physx@@QEAA@AEBVPxVec3@1@00@Z 000000018000d040 f i EdgeList.obj
 0001:0000c100       ??0PxTriangle@physx@@QEAA@AEBVPxVec3@1@00@Z 000000018000d100 f i EdgeList.obj
 0001:0000c1b0       ??1PxTriangle@physx@@QEAA@XZ 000000018000d1b0 f i EdgeList.obj
 0001:0000c1c0       ??DPxVec3@physx@@QEBA?AV01@M@Z 000000018000d1c0 f i EdgeList.obj
 0001:0000c230       ??GPxVec3@physx@@QEBA?AV01@AEBV01@@Z 000000018000d230 f i EdgeList.obj
 0001:0000c2b0       ??_0PxVec3@physx@@QEAAAEAV01@M@Z 000000018000d2b0 f i EdgeList.obj
 0001:0000c330       ?PxAtan2@physx@@YAMMM@Z    000000018000d330 f i EdgeList.obj
 0001:0000c360       ?PxRecipSqrt@physx@@YAMM@Z 000000018000d360 f i EdgeList.obj
 0001:0000c380       ?PxSqrt@physx@@YAMM@Z      000000018000d380 f i EdgeList.obj
 0001:0000c3a0       ?allocate@?$ReflectionAllocator@UEdgeData@Gu@physx@@@shdfnd@physx@@QEAAPEAX_KPEBDH@Z 000000018000d3a0 f i EdgeList.obj
 0001:0000c420       ?allocate@?$ReflectionAllocator@UEdgeTriangleData@Gu@physx@@@shdfnd@physx@@QEAAPEAX_KPEBDH@Z 000000018000d420 f i EdgeList.obj
 0001:0000c4a0       ?angle@shdfnd@physx@@YAMAEBVPxVec3@2@0@Z 000000018000d4a0 f i EdgeList.obj
 0001:0000c500       ?cross@PxVec3@physx@@QEBA?AV12@AEBV12@@Z 000000018000d500 f i EdgeList.obj
 0001:0000c5c0       ?distance@PxPlane@physx@@QEBAMAEBVPxVec3@2@@Z 000000018000d5c0 f i EdgeList.obj
 0001:0000c5f0       ?dot@PxVec3@physx@@QEBAMAEBV12@@Z 000000018000d5f0 f i EdgeList.obj
 0001:0000c640       ?getEdgeToTriangles@EdgeList@Gu@physx@@QEBAPEBUEdgeDescData@23@XZ 000000018000d640 f i EdgeList.obj
 0001:0000c650       ?getEdges@EdgeList@Gu@physx@@QEBAPEBUEdgeData@23@XZ 000000018000d650 f i EdgeList.obj
 0001:0000c660       ?getFacesByEdges@EdgeList@Gu@physx@@QEBAPEBIXZ 000000018000d660 f i EdgeList.obj
 0001:0000c670       ?getName@?$ReflectionAllocator@UEdgeData@Gu@physx@@@shdfnd@physx@@CAPEBDXZ 000000018000d670 f i EdgeList.obj
 0001:0000c6b0       ?getName@?$ReflectionAllocator@UEdgeTriangleData@Gu@physx@@@shdfnd@physx@@CAPEBDXZ 000000018000d6b0 f i EdgeList.obj
 0001:0000c6f0       ?getNbEdges@EdgeList@Gu@physx@@QEBAIXZ 000000018000d6f0 f i EdgeList.obj
 0001:0000c700       ?getNormalized@PxVec3@physx@@QEBA?AV12@XZ 000000018000d700 f i EdgeList.obj
 0001:0000c790       ?magnitude@PxVec3@physx@@QEBAMXZ 000000018000d790 f i EdgeList.obj
 0001:0000c7b0       ?magnitudeSquared@PxVec3@physx@@QEBAMXZ 000000018000d7b0 f i EdgeList.obj
 0001:0000c800       ?normal@PxTriangle@physx@@QEBAXAEAVPxVec3@2@@Z 000000018000d800 f i EdgeList.obj
 0001:0000c8c0       ?normalize@PxVec3@physx@@QEAAMXZ 000000018000d8c0 f i EdgeList.obj
 0001:0000c910       ?recipSqrt@intrinsics@physx@@YAMM@Z 000000018000d910 f i EdgeList.obj
 0001:0000c940       ?sqrt@intrinsics@physx@@YAMM@Z 000000018000d940 f i EdgeList.obj
 0001:0000c960       fabsf                      000000018000d960 f i EdgeList.obj
 0001:0000c980       ??0MeshCleaner@physx@@QEAA@IPEBVPxVec3@1@IPEBIM@Z 000000018000d980 f   MeshCleaner.obj
 0001:0000d650       ??1MeshCleaner@physx@@QEAA@XZ 000000018000e650 f   MeshCleaner.obj
 0001:0000d960       ??9Indices@@QEBA_NAEBU0@@Z 000000018000e960 f i MeshCleaner.obj
 0001:0000da00       ??9PxVec3@physx@@QEBA_NAEBV01@@Z 000000018000ea00 f i MeshCleaner.obj
 0001:0000da70       ?PxFloor@physx@@YAMM@Z     000000018000ea70 f i MeshCleaner.obj
 0001:0000da90       ?nextPowerOfTwo@shdfnd@physx@@YAII@Z 000000018000ea90 f i MeshCleaner.obj
 0001:0000db00       ?createQuantizer@physx@@YAPEAVQuantizer@1@XZ 000000018000eb00 f   Quantizer.obj
 0001:0000db80       ?kmeans_cluster3d@@YAIPEBVPxVec3@physx@@IIPEAV12@PEAIMM@Z 000000018000eb80 f   Quantizer.obj
 0001:0000dbe0       ??$?2V?$ReflectionAllocator@VQuantizerImpl@@@shdfnd@physx@@@UserAllocated@shdfnd@physx@@SAPEAX_KV?$ReflectionAllocator@VQuantizerImpl@@@12@PEBDH@Z 000000018000ebe0 f i Quantizer.obj
 0001:0000dc20       ??$PX_UNUSED@W4PxZERO@physx@@@@YAXAEBW4PxZERO@physx@@@Z 000000018000ec20 f i Quantizer.obj
 0001:0000dc30       ??$PxMax@M@physx@@YAMMM@Z  000000018000ec30 f i Quantizer.obj
 0001:0000dc60       ??$PxMin@M@physx@@YAMMM@Z  000000018000ec60 f i Quantizer.obj
 0001:0000dc90       ??$kmeans_cluster@VPxVec3@physx@@M@@YAIPEBVPxVec3@physx@@IIPEAV01@PEAIMM@Z 000000018000ec90 f i Quantizer.obj
 0001:0000e3f0       ??0?$Array@VPxVec3@physx@@VNamedAllocator@shdfnd@2@@shdfnd@physx@@QEAA@AEBVNamedAllocator@12@@Z 000000018000f3f0 f i Quantizer.obj
 0001:0000e440       ??0?$ReflectionAllocator@VQuantizerImpl@@@shdfnd@physx@@QEAA@PEBD@Z 000000018000f440 f i Quantizer.obj
 0001:0000e450       ??0PxBounds3@physx@@QEAA@XZ 000000018000f450 f i Quantizer.obj
 0001:0000e490       ??0PxVec3@physx@@QEAA@W4PxZERO@1@@Z 000000018000f490 f i Quantizer.obj
 0001:0000e4e0       ??0Quantizer@physx@@QEAA@XZ 000000018000f4e0 f i Quantizer.obj
 0001:0000e500       ??0QuantizerImpl@@QEAA@XZ  000000018000f500 f i Quantizer.obj
 0001:0000e600       ??1?$Array@VPxVec3@physx@@VNamedAllocator@shdfnd@2@@shdfnd@physx@@QEAA@XZ 000000018000f600 f i Quantizer.obj
 0001:0000e670       ??1Quantizer@physx@@MEAA@XZ 000000018000f670 f i Quantizer.obj
 0001:0000e690       ??1QuantizerImpl@@EEAA@XZ  000000018000f690 f i Quantizer.obj
 0001:0000e6e0       ??A?$Array@VPxVec3@physx@@VNamedAllocator@shdfnd@2@@shdfnd@physx@@QEAAAEAVPxVec3@2@I@Z 000000018000f6e0 f i Quantizer.obj
 0001:0000e760       ??APxVec3@physx@@QEAAAEAMI@Z 000000018000f760 f i Quantizer.obj
 0001:0000e7b0       ??HPxVec3@physx@@QEBA?AV01@AEBV01@@Z 000000018000f7b0 f i Quantizer.obj
 0001:0000e830       ??XPxVec3@physx@@QEAAAEAV01@M@Z 000000018000f830 f i Quantizer.obj
 0001:0000e890       ??YPxVec3@physx@@QEAAAEAV01@AEBV01@@Z 000000018000f890 f i Quantizer.obj
 0001:0000e900       ??_EQuantizer@physx@@MEAAPEAXI@Z 000000018000f900 f i Quantizer.obj
 0001:0000e900       ??_GQuantizer@physx@@MEAAPEAXI@Z 000000018000f900 f i Quantizer.obj
 0001:0000e940       ??_EQuantizerImpl@@EEAAPEAXI@Z 000000018000f940 f i Quantizer.obj
 0001:0000e940       ??_GQuantizerImpl@@EEAAPEAXI@Z 000000018000f940 f i Quantizer.obj
 0001:0000e9a0       ?PxAbs@physx@@YAMM@Z       000000018000f9a0 f i Quantizer.obj
 0001:0000e9c0       ?PxIsFinite@physx@@YA_NM@Z 000000018000f9c0 f i Quantizer.obj
 0001:0000e9e0       ?abs@intrinsics@physx@@YAMM@Z 000000018000f9e0 f i Quantizer.obj
 0001:0000ea00       ?allocate@?$Array@VPxVec3@physx@@VNamedAllocator@shdfnd@2@@shdfnd@physx@@IEAAPEAVPxVec3@3@I@Z 000000018000fa00 f i Quantizer.obj
 0001:0000ea90       ?allocate@?$ReflectionAllocator@VQuantizerImpl@@@shdfnd@physx@@QEAAPEAX_KPEBDH@Z 000000018000fa90 f i Quantizer.obj
 0001:0000eb10       ?capacity@?$Array@VPxVec3@physx@@VNamedAllocator@shdfnd@2@@shdfnd@physx@@QEBAIXZ 000000018000fb10 f i Quantizer.obj
 0001:0000eb30       ?capacityIncrement@?$Array@VPxVec3@physx@@VNamedAllocator@shdfnd@2@@shdfnd@physx@@IEBAIXZ 000000018000fb30 f i Quantizer.obj
 0001:0000eb70       ?clear@?$Array@VPxVec3@physx@@VNamedAllocator@shdfnd@2@@shdfnd@physx@@QEAAXXZ 000000018000fb70 f i Quantizer.obj
 0001:0000ebb0       ?copy@?$Array@VPxVec3@physx@@VNamedAllocator@shdfnd@2@@shdfnd@physx@@KAXPEAVPxVec3@3@0PEBV43@@Z 000000018000fbb0 f i Quantizer.obj
 0001:0000ec30       ?deallocate@?$Array@VPxVec3@physx@@VNamedAllocator@shdfnd@2@@shdfnd@physx@@IEAAXPEAX@Z 000000018000fc30 f i Quantizer.obj
 0001:0000ec60       ?destroy@?$Array@VPxVec3@physx@@VNamedAllocator@shdfnd@2@@shdfnd@physx@@KAXPEAVPxVec3@3@0@Z 000000018000fc60 f i Quantizer.obj
 0001:0000ec90       ?getCenter@PxBounds3@physx@@QEBA?AVPxVec3@2@XZ 000000018000fc90 f i Quantizer.obj
 0001:0000ed10       ?getDenormalizeCenter@QuantizerImpl@@UEBAAEBVPxVec3@physx@@XZ 000000018000fd10 f i Quantizer.obj
 0001:0000ed20       ?getDenormalizeScale@QuantizerImpl@@UEBAAEBVPxVec3@physx@@XZ 000000018000fd20 f i Quantizer.obj
 0001:0000ed30       ?getDimensions@PxBounds3@physx@@QEBA?AVPxVec3@2@XZ 000000018000fd30 f i Quantizer.obj
 0001:0000ed90       ?getName@?$ReflectionAllocator@VQuantizerImpl@@@shdfnd@physx@@CAPEBDXZ 000000018000fd90 f i Quantizer.obj
 0001:0000edd0       ?growAndPushBack@?$Array@VPxVec3@physx@@VNamedAllocator@shdfnd@2@@shdfnd@physx@@IEAAAEAVPxVec3@3@AEBV43@@Z 000000018000fdd0 f i Quantizer.obj
 0001:0000ef60       ?include@PxBounds3@physx@@QEAAXAEBVPxVec3@2@@Z 000000018000ff60 f i Quantizer.obj
 0001:0000eff0       ?isFinite@PxBounds3@physx@@QEBA_NXZ 000000018000fff0 f i Quantizer.obj
 0001:0000f050       ?isFinite@PxVec3@physx@@QEBA_NXZ 0000000180010050 f i Quantizer.obj
 0001:0000f0c0       ?isFinite@intrinsics@physx@@YA_NM@Z 00000001800100c0 f i Quantizer.obj
 0001:0000f100       ?isInUserMemory@?$Array@VPxVec3@physx@@VNamedAllocator@shdfnd@2@@shdfnd@physx@@QEBAIXZ 0000000180010100 f i Quantizer.obj
 0001:0000f120       ?isValid@PxBounds3@physx@@QEBA_NXZ 0000000180010120 f i Quantizer.obj
 0001:0000f210       ?kmeansQuantize3D@QuantizerImpl@@UEAAPEBVPxVec3@physx@@IPEBV23@I_NIAEAI@Z 0000000180010210 f i Quantizer.obj
 0001:0000f540       ?maximum@PxVec3@physx@@QEBA?AV12@AEBV12@@Z 0000000180010540 f i Quantizer.obj
 0001:0000f5e0       ?minimum@PxVec3@physx@@QEBA?AV12@AEBV12@@Z 00000001800105e0 f i Quantizer.obj
 0001:0000f680       ?multiply@PxVec3@physx@@QEBA?AV12@AEBV12@@Z 0000000180010680 f i Quantizer.obj
 0001:0000f700       ?normalizeInput@QuantizerImpl@@AEAAXIPEBVPxVec3@physx@@I@Z 0000000180010700 f i Quantizer.obj
 0001:0000f9a0       ?pushBack@?$Array@VPxVec3@physx@@VNamedAllocator@shdfnd@2@@shdfnd@physx@@QEAAAEAVPxVec3@3@AEBV43@@Z 00000001800109a0 f i Quantizer.obj
 0001:0000fa40       ?release@QuantizerImpl@@UEAAXXZ 0000000180010a40 f i Quantizer.obj
 0001:0000fa90       ?selectMax@intrinsics@physx@@YAMMM@Z 0000000180010a90 f i Quantizer.obj
 0001:0000fad0       ?selectMin@intrinsics@physx@@YAMMM@Z 0000000180010ad0 f i Quantizer.obj
 0001:0000fb10       ?setEmpty@PxBounds3@physx@@QEAAXXZ 0000000180010b10 f i Quantizer.obj
 0001:0000fb60       ??0BVHStructureBuilder@physx@@QEAA@XZ 0000000180010b60 f   BVHStructureBuilder.obj
 0001:0000fbb0       ??1BVHStructureBuilder@physx@@QEAA@XZ 0000000180010bb0 f   BVHStructureBuilder.obj
 0001:0000fc40       ?loadFromDesc@BVHStructureBuilder@physx@@QEAA_NAEBVPxBVHStructureDesc@2@@Z 0000000180010c40 f   BVHStructureBuilder.obj
 0001:0000ff80       ?save@BVHStructureBuilder@physx@@QEBA_NAEAVPxOutputStream@2@_N@Z 0000000180010f80 f   BVHStructureBuilder.obj
 0001:00010180       ?moveData@BVHStructureBuilder@physx@@QEAAXAEAUBVHStructureData@Gu@2@@Z 0000000180011180 f   BVHStructureBuilder.obj
 0001:00010230       ?flatten@@YAXAEBVNodeAllocator@Gu@physx@@PEAUBVHNode@23@@Z 0000000180011230 f   BVHStructureBuilder.obj
 0001:000105d0       ??$?4VNamedAllocator@shdfnd@physx@@@?$Array@USlab@NodeAllocator@Gu@physx@@VNamedAllocator@shdfnd@4@@shdfnd@physx@@QEAAAEAV012@AEBV012@@Z 00000001800115d0 f i BVHStructureBuilder.obj
 0001:00010660       ??$PX_UNUSED@_N@@YAXAEB_N@Z 0000000180011660 f i BVHStructureBuilder.obj
 0001:00010670       ??$copy@VNamedAllocator@shdfnd@physx@@@?$Array@USlab@NodeAllocator@Gu@physx@@VNamedAllocator@shdfnd@4@@shdfnd@physx@@IEAAXAEBV012@@Z 0000000180011670 f i BVHStructureBuilder.obj
 0001:00010730       ??0?$Array@USlab@NodeAllocator@Gu@physx@@VNamedAllocator@shdfnd@4@@shdfnd@physx@@QEAA@AEBV012@AEBVNamedAllocator@12@@Z 0000000180011730 f i BVHStructureBuilder.obj
 0001:00010770       ??0AABBTreeBuildNode@Gu@physx@@QEAA@AEBV012@@Z 0000000180011770 f i BVHStructureBuilder.obj
 0001:000107d0       ??0AABBTreeBuildNode@Gu@physx@@QEAA@XZ 00000001800117d0 f i BVHStructureBuilder.obj
 0001:000107f0       ??0AABBTreeBuildParams@Gu@physx@@QEAA@IIPEBVPxBounds3@2@@Z 00000001800117f0 f i BVHStructureBuilder.obj
 0001:00010840       ??0BuildStats@Gu@physx@@QEAA@XZ 0000000180011840 f i BVHStructureBuilder.obj
 0001:00010870       ??0NodeAllocator@Gu@physx@@QEAA@AEBV012@@Z 0000000180011870 f i BVHStructureBuilder.obj
 0001:00010900       ??0PxBounds3@physx@@QEAA@AEBV01@@Z 0000000180011900 f i BVHStructureBuilder.obj
 0001:00010950       ??0PxVec4@physx@@QEAA@XZ   0000000180011950 f i BVHStructureBuilder.obj
 0001:00010960       ??1AABBTreeBuildNode@Gu@physx@@QEAA@XZ 0000000180011960 f i BVHStructureBuilder.obj
 0001:00010970       ??1AABBTreeBuildParams@Gu@physx@@QEAA@XZ 0000000180011970 f i BVHStructureBuilder.obj
 0001:00010990       ??4?$Array@USlab@NodeAllocator@Gu@physx@@VNamedAllocator@shdfnd@4@@shdfnd@physx@@QEAAAEAV012@AEBV012@@Z 0000000180011990 f i BVHStructureBuilder.obj
 0001:000109c0       ??4AABBTreeBuildNode@Gu@physx@@QEAAAEAV012@AEBV012@@Z 00000001800119c0 f i BVHStructureBuilder.obj
 0001:00010a20       ??4AABBTreeBuildParams@Gu@physx@@QEAAAEAV012@AEBV012@@Z 0000000180011a20 f i BVHStructureBuilder.obj
 0001:00010a50       ??4BuildStats@Gu@physx@@QEAAAEAU012@$$QEAU012@@Z 0000000180011a50 f i BVHStructureBuilder.obj
 0001:00010a80       ??4BuildStats@Gu@physx@@QEAAAEAU012@AEBU012@@Z 0000000180011a80 f i BVHStructureBuilder.obj
 0001:00010aa0       ??4NodeAllocator@Gu@physx@@QEAAAEAV012@AEBV012@@Z 0000000180011aa0 f i BVHStructureBuilder.obj
 0001:00010b10       ??4PxBounds3@physx@@QEAAAEAV01@AEBV01@@Z 0000000180011b10 f i BVHStructureBuilder.obj
 0001:00010b60       ??A?$Array@USlab@NodeAllocator@Gu@physx@@VNamedAllocator@shdfnd@4@@shdfnd@physx@@QEBAAEBUSlab@NodeAllocator@Gu@2@I@Z 0000000180011b60 f i BVHStructureBuilder.obj
 0001:00010be0       ??_FAABBTreeBuildParams@Gu@physx@@QEAAXXZ 0000000180011be0 f i BVHStructureBuilder.obj
 0001:00010c10       ?V4Add@aos@shdfnd@physx@@YA?AT__m128@@T4@0@Z 0000000180011c10 f i BVHStructureBuilder.obj
 0001:00010c40       ?V4LoadU@aos@shdfnd@physx@@YA?AT__m128@@QEBM@Z 0000000180011c40 f i BVHStructureBuilder.obj
 0001:00010c60       ?V4Scale@aos@shdfnd@physx@@YA?AT__m128@@T4@0@Z 0000000180011c60 f i BVHStructureBuilder.obj
 0001:00010c90       ?V4StoreA@aos@shdfnd@physx@@YAXT__m128@@PEAM@Z 0000000180011c90 f i BVHStructureBuilder.obj
 0001:00010d10       ?V4StoreU@aos@shdfnd@physx@@YAXT__m128@@PEAM@Z 0000000180011d10 f i BVHStructureBuilder.obj
 0001:00010d30       ?V4Sub@aos@shdfnd@physx@@YA?AT__m128@@T4@0@Z 0000000180011d30 f i BVHStructureBuilder.obj
 0001:00010d60       ?__global_array_delete@@YAXPEAX@Z 0000000180011d60 f i BVHStructureBuilder.obj
 0001:00010d80       ?__global_array_delete@@YAXPEAX_K@Z 0000000180011d80 f i BVHStructureBuilder.obj
 0001:00010db0       ?__global_delete@@YAXPEAX@Z 0000000180011db0 f i BVHStructureBuilder.obj
 0001:00010dd0       ?__global_delete@@YAXPEAX_K@Z 0000000180011dd0 f i BVHStructureBuilder.obj
 0001:00010e00       ?allocate@?$Array@USlab@NodeAllocator@Gu@physx@@VNamedAllocator@shdfnd@4@@shdfnd@physx@@IEAAPEAUSlab@NodeAllocator@Gu@3@I@Z 0000000180011e00 f i BVHStructureBuilder.obj
 0001:00010e90       ?begin@?$Array@USlab@NodeAllocator@Gu@physx@@VNamedAllocator@shdfnd@4@@shdfnd@physx@@QEBAPEBUSlab@NodeAllocator@Gu@3@XZ 0000000180011e90 f i BVHStructureBuilder.obj
 0001:00010ea0       ?capacity@?$Array@USlab@NodeAllocator@Gu@physx@@VNamedAllocator@shdfnd@4@@shdfnd@physx@@QEBAIXZ 0000000180011ea0 f i BVHStructureBuilder.obj
 0001:00010ec0       ?clear@?$Array@USlab@NodeAllocator@Gu@physx@@VNamedAllocator@shdfnd@4@@shdfnd@physx@@QEAAXXZ 0000000180011ec0 f i BVHStructureBuilder.obj
 0001:00010f00       ?copy@?$Array@USlab@NodeAllocator@Gu@physx@@VNamedAllocator@shdfnd@4@@shdfnd@physx@@KAXPEAUSlab@NodeAllocator@Gu@3@0PEBU4563@@Z 0000000180011f00 f i BVHStructureBuilder.obj
 0001:00010f80       ?deallocate@?$Array@USlab@NodeAllocator@Gu@physx@@VNamedAllocator@shdfnd@4@@shdfnd@physx@@IEAAXPEAX@Z 0000000180011f80 f i BVHStructureBuilder.obj
 0001:00010fb0       ?destroy@?$Array@USlab@NodeAllocator@Gu@physx@@VNamedAllocator@shdfnd@4@@shdfnd@physx@@KAXPEAUSlab@NodeAllocator@Gu@3@0@Z 0000000180011fb0 f i BVHStructureBuilder.obj
 0001:00010fe0       ?empty@?$Array@USlab@NodeAllocator@Gu@physx@@VNamedAllocator@shdfnd@4@@shdfnd@physx@@QEBA_NXZ 0000000180011fe0 f i BVHStructureBuilder.obj
 0001:00011010       ?getAABB@AABBTreeBuildNode@Gu@physx@@QEBAAEBVPxBounds3@3@XZ 0000000180012010 f i BVHStructureBuilder.obj
 0001:00011020       ?getCount@BuildStats@Gu@physx@@QEBAIXZ 0000000180012020 f i BVHStructureBuilder.obj
 0001:00011030       ?getNbPrimitives@AABBTreeBuildNode@Gu@physx@@QEBAIXZ 0000000180012030 f i BVHStructureBuilder.obj
 0001:00011040       ?getNbRuntimePrimitives@AABBTreeBuildNode@Gu@physx@@QEBAIXZ 0000000180012040 f i BVHStructureBuilder.obj
 0001:00011050       ?getNeg@AABBTreeBuildNode@Gu@physx@@QEBAPEBV123@XZ 0000000180012050 f i BVHStructureBuilder.obj
 0001:00011090       ?getPos@AABBTreeBuildNode@Gu@physx@@QEBAPEBV123@XZ 0000000180012090 f i BVHStructureBuilder.obj
 0001:000110a0       ?getPrimitives@AABBTreeBuildNode@Gu@physx@@QEAAPEAIPEAI@Z 00000001800120a0 f i BVHStructureBuilder.obj
 0001:000110c0       ?getPrimitives@AABBTreeBuildNode@Gu@physx@@QEBAPEBIPEBI@Z 00000001800120c0 f i BVHStructureBuilder.obj
 0001:000110e0       ?grow@?$Array@USlab@NodeAllocator@Gu@physx@@VNamedAllocator@shdfnd@4@@shdfnd@physx@@IEAAXI@Z 00000001800120e0 f i BVHStructureBuilder.obj
 0001:00011160       ?increaseCount@BuildStats@Gu@physx@@QEAAXI@Z 0000000180012160 f i BVHStructureBuilder.obj
 0001:00011180       ?inflateBounds@@YAXAEAVPxBounds3@physx@@AEBV12@@Z 0000000180012180 f i BVHStructureBuilder.obj
 0001:00011370       ?isAligned16@aos@shdfnd@physx@@YA_NPEAX@Z 0000000180012370 f i BVHStructureBuilder.obj
 0001:000113a0       ?isInUserMemory@?$Array@USlab@NodeAllocator@Gu@physx@@VNamedAllocator@shdfnd@4@@shdfnd@physx@@QEBAIXZ 00000001800123a0 f i BVHStructureBuilder.obj
 0001:000113c0       ?isLeaf@AABBTreeBuildNode@Gu@physx@@QEBA_NXZ 00000001800123c0 f i BVHStructureBuilder.obj
 0001:00011400       ?recreate@?$Array@USlab@NodeAllocator@Gu@physx@@VNamedAllocator@shdfnd@4@@shdfnd@physx@@IEAAXI@Z 0000000180012400 f i BVHStructureBuilder.obj
 0001:00011520       ?reserve@?$Array@USlab@NodeAllocator@Gu@physx@@VNamedAllocator@shdfnd@4@@shdfnd@physx@@QEAAXI@Z 0000000180012520 f i BVHStructureBuilder.obj
 0001:00011550       ?reset@AABBTreeBuildParams@Gu@physx@@QEAAXXZ 0000000180012550 f i BVHStructureBuilder.obj
 0001:000115b0       ?reset@BuildStats@Gu@physx@@QEAAXXZ 00000001800125b0 f i BVHStructureBuilder.obj
 0001:000115d0       ?setCount@BuildStats@Gu@physx@@QEAAXI@Z 00000001800125d0 f i BVHStructureBuilder.obj
 0001:000115f0       ?setNbRunTimePrimitives@AABBTreeBuildNode@Gu@physx@@QEAAXI@Z 00000001800125f0 f i BVHStructureBuilder.obj
 0001:00011610       ?size@?$Array@USlab@NodeAllocator@Gu@physx@@VNamedAllocator@shdfnd@4@@shdfnd@physx@@QEBAIXZ 0000000180012610 f i BVHStructureBuilder.obj
 0001:00011620       ?saveHeightField@physx@@YA_NAEBVHeightField@Gu@1@AEAVPxOutputStream@1@_N@Z 0000000180012620 f   HeightFieldCooking.obj
 0001:000119d0       ??APxVec3@physx@@QEBAAEBMI@Z 00000001800129d0 f i HeightFieldCooking.obj
 0001:00011a20       ??B?$PxFlags@W4Enum@PxHeightFieldFlag@physx@@G@physx@@QEBAGXZ 0000000180012a20 f i HeightFieldCooking.obj
 0001:00011a30       ?getData@HeightField@Gu@physx@@QEBAAEBUHeightFieldData@23@XZ 0000000180012a30 f i HeightFieldCooking.obj
 0001:00011a40       ?getMax@CenterExtents@Gu@physx@@QEBAMI@Z 0000000180012a40 f i HeightFieldCooking.obj
 0001:00011a90       ?getMin@CenterExtents@Gu@physx@@QEBAMI@Z 0000000180012a90 f i HeightFieldCooking.obj
 0001:00011ae0       ?buildFromTriangles@RTreeCooker@physx@@SAXAEAURTree@Gu@2@PEBVPxVec3@2@IPEBGPEBIIAEAV?$Array@IVNamedAllocator@shdfnd@physx@@@shdfnd@2@PEAURemapCallback@12@MW4Enum@PxMeshCookingHint@2@@Z 0000000180012ae0 f   RTreeCooking.obj
 0001:00013320       ??$PX_UNUSED@I@@YAXAEBI@Z  0000000180014320 f i RTreeCooking.obj
 0001:00013330       ??$PX_UNUSED@M@@YAXAEBM@Z  0000000180014330 f i RTreeCooking.obj
 0001:00013340       ??$PX_UNUSED@PEAURTreeNodeNQ@physx@@@@YAXAEBQEAURTreeNodeNQ@physx@@@Z 0000000180014340 f i RTreeCooking.obj
 0001:00013350       ??$PX_UNUSED@URTreeNodeNQ@physx@@@@YAXAEBURTreeNodeNQ@physx@@@Z 0000000180014350 f i RTreeCooking.obj
 0001:00013360       ??$PxMax@H@physx@@YAHHH@Z  0000000180014360 f i RTreeCooking.obj
 0001:00013390       ??$PxMin@I@physx@@YAIII@Z  0000000180014390 f i RTreeCooking.obj
 0001:000133c0       ??$median3@I$$CBU?$Less@I@shdfnd@physx@@@internal@shdfnd@physx@@YAXPEAIHHAEBU?$Less@I@12@@Z 00000001800143c0 f i RTreeCooking.obj
 0001:00013520       ??$median3@I$$CBUSortBoundsPredicate@physx@@@internal@shdfnd@physx@@YAXPEAIHHAEBUSortBoundsPredicate@2@@Z 0000000180014520 f i RTreeCooking.obj
 0001:00013680       ??$partition@I$$CBU?$Less@I@shdfnd@physx@@@internal@shdfnd@physx@@YAHPEAIHHAEBU?$Less@I@12@@Z 0000000180014680 f i RTreeCooking.obj
 0001:00013870       ??$partition@I$$CBUSortBoundsPredicate@physx@@@internal@shdfnd@physx@@YAHPEAIHHAEBUSortBoundsPredicate@2@@Z 0000000180014870 f i RTreeCooking.obj
 0001:00013a60       ??$partition@UBoundsLTE@physx@@@quickSelect@physx@@YAIPEIAIIIIAEBUBoundsLTE@1@@Z 0000000180014a60 f i RTreeCooking.obj
 0001:00013db0       ??$quickSelectFirstK@UBoundsLTE@physx@@@quickSelect@physx@@YAXPEIAIIIIAEBUBoundsLTE@1@@Z 0000000180014db0 f i RTreeCooking.obj
 0001:00013f10       ??$smallSort@I$$CBU?$Less@I@shdfnd@physx@@@internal@shdfnd@physx@@YAXPEAIHHAEBU?$Less@I@12@@Z 0000000180014f10 f i RTreeCooking.obj
 0001:00013ff0       ??$smallSort@I$$CBUSortBoundsPredicate@physx@@@internal@shdfnd@physx@@YAXPEAIHHAEBUSortBoundsPredicate@2@@Z 0000000180014ff0 f i RTreeCooking.obj
 0001:000140d0       ??$sort@I@shdfnd@physx@@YAXPEAII@Z 00000001800150d0 f i RTreeCooking.obj
 0001:00014120       ??$sort@IU?$Less@I@shdfnd@physx@@VNamedAllocator@23@@shdfnd@physx@@YAXPEAIIAEBU?$Less@I@01@AEBVNamedAllocator@01@I@Z 0000000180015120 f i RTreeCooking.obj
 0001:00014410       ??$sort@IUSortBoundsPredicate@physx@@@shdfnd@physx@@YAXPEAIIAEBUSortBoundsPredicate@1@@Z 0000000180015410 f i RTreeCooking.obj
 0001:00014460       ??$sort@IUSortBoundsPredicate@physx@@VNamedAllocator@shdfnd@2@@shdfnd@physx@@YAXPEAIIAEBUSortBoundsPredicate@1@AEBVNamedAllocator@01@I@Z 0000000180015460 f i RTreeCooking.obj
 0001:00014750       ??0?$AlignedAllocator@$0IA@VNonTrackingAllocator@shdfnd@physx@@@shdfnd@physx@@QEAA@AEBVNonTrackingAllocator@12@@Z 0000000180015750 f i RTreeCooking.obj
 0001:00014760       ??0?$Array@IVNamedAllocator@shdfnd@physx@@@shdfnd@physx@@QEAA@IAEBIAEBVNamedAllocator@12@@Z 0000000180015760 f i RTreeCooking.obj
 0001:000147d0       ??0?$Array@UInterval@physx@@V?$InlineAllocator@$0CAAA@VNamedAllocator@shdfnd@physx@@@shdfnd@2@@shdfnd@physx@@QEAA@AEBV?$InlineAllocator@$0CAAA@VNamedAllocator@shdfnd@physx@@@12@@Z 00000001800157d0 f i RTreeCooking.obj
 0001:00014830       ??0?$Array@UPxBounds3V@physx@@VNamedAllocator@shdfnd@2@@shdfnd@physx@@QEAA@AEBVNamedAllocator@12@@Z 0000000180015830 f i RTreeCooking.obj
 0001:00014880       ??0?$Array@URTreeNodeNQ@physx@@VNamedAllocator@shdfnd@2@@shdfnd@physx@@QEAA@AEBVNamedAllocator@12@@Z 0000000180015880 f i RTreeCooking.obj
 0001:000148d0       ??0?$Array@URTreeNodeQ@Gu@physx@@VNamedAllocator@shdfnd@3@@shdfnd@physx@@QEAA@AEBVNamedAllocator@12@@Z 00000001800158d0 f i RTreeCooking.obj
 0001:00014920       ??0?$InlineAllocator@$0CAAA@VNamedAllocator@shdfnd@physx@@@shdfnd@physx@@QEAA@AEBV012@@Z 0000000180015920 f i RTreeCooking.obj
 0001:00014960       ??0?$InlineAllocator@$0CAAA@VNamedAllocator@shdfnd@physx@@@shdfnd@physx@@QEAA@AEBVNamedAllocator@12@@Z 0000000180015960 f i RTreeCooking.obj
 0001:000149a0       ??0?$InlineArray@UInterval@physx@@$0EAA@VNamedAllocator@shdfnd@2@@shdfnd@physx@@QEAA@AEBVNamedAllocator@12@@Z 00000001800159a0 f i RTreeCooking.obj
 0001:00014a30       ??0?$ScopedPointer@HVTempAllocator@shdfnd@physx@@@shdfnd@physx@@QEAA@XZ 0000000180015a30 f i RTreeCooking.obj
 0001:00014a50       ??0?$Stack@VNamedAllocator@shdfnd@physx@@@internal@shdfnd@physx@@QEAA@PEAHIAEBVNamedAllocator@23@@Z 0000000180015a50 f i RTreeCooking.obj
 0001:00014ac0       ??0BoundsLTE@physx@@QEAA@IPEBVPxVec3@1@@Z 0000000180015ac0 f i RTreeCooking.obj
 0001:00014af0       ??0Interval@physx@@QEAA@II@Z 0000000180015af0 f i RTreeCooking.obj
 0001:00014b20       ??0PxBounds3@physx@@QEAA@AEBVPxVec3@1@0@Z 0000000180015b20 f i RTreeCooking.obj
 0001:00014b70       ??0PxBounds3V@physx@@QEAA@AEAT__m128@@0@Z 0000000180015b70 f i RTreeCooking.obj
 0001:00014bb0       ??0PxBounds3V@physx@@QEAA@UU@01@@Z 0000000180015bb0 f i RTreeCooking.obj
 0001:00014bc0       ??0PxVec4@physx@@QEAA@AEBVPxVec3@1@M@Z 0000000180015bc0 f i RTreeCooking.obj
 0001:00014c20       ??0PxVec4@physx@@QEAA@M@Z  0000000180015c20 f i RTreeCooking.obj
 0001:00014c70       ??0RTreeNodeNQ@physx@@QEAA@AEBU01@@Z 0000000180015c70 f i RTreeCooking.obj
 0001:00014cc0       ??0RTreeNodeNQ@physx@@QEAA@XZ 0000000180015cc0 f i RTreeCooking.obj
 0001:00014d00       ??0SortBoundsPredicate@physx@@QEAA@IPEBUPxBounds3V@1@@Z 0000000180015d00 f i RTreeCooking.obj
 0001:00014d30       ??0SubSortQuick@physx@@QEAA@PEAIPEBUPxBounds3V@1@IM@Z 0000000180015d30 f i RTreeCooking.obj
 0001:00014ea0       ??0SubSortSAH@physx@@QEAA@PEAIPEBUPxBounds3V@1@IPEBI22222M@Z 0000000180015ea0 f i RTreeCooking.obj
 0001:000150c0       ??0TempAllocator@shdfnd@physx@@QEAA@PEBD@Z 00000001800160c0 f i RTreeCooking.obj
 0001:000150d0       ??1?$Array@IVNamedAllocator@shdfnd@physx@@@shdfnd@physx@@QEAA@XZ 00000001800160d0 f i RTreeCooking.obj
 0001:00015140       ??1?$Array@UInterval@physx@@V?$InlineAllocator@$0CAAA@VNamedAllocator@shdfnd@physx@@@shdfnd@2@@shdfnd@physx@@QEAA@XZ 0000000180016140 f i RTreeCooking.obj
 0001:000151c0       ??1?$Array@UPxBounds3V@physx@@VNamedAllocator@shdfnd@2@@shdfnd@physx@@QEAA@XZ 00000001800161c0 f i RTreeCooking.obj
 0001:00015230       ??1?$Array@URTreeNodeNQ@physx@@VNamedAllocator@shdfnd@2@@shdfnd@physx@@QEAA@XZ 0000000180016230 f i RTreeCooking.obj
 0001:000152a0       ??1?$Array@URTreeNodeQ@Gu@physx@@VNamedAllocator@shdfnd@3@@shdfnd@physx@@QEAA@XZ 00000001800162a0 f i RTreeCooking.obj
 0001:00015310       ??1?$InlineAllocator@$0CAAA@VNamedAllocator@shdfnd@physx@@@shdfnd@physx@@QEAA@XZ 0000000180016310 f i RTreeCooking.obj
 0001:00015330       ??1?$InlineArray@UInterval@physx@@$0EAA@VNamedAllocator@shdfnd@2@@shdfnd@physx@@QEAA@XZ 0000000180016330 f i RTreeCooking.obj
 0001:00015350       ??1?$ScopedPointer@HVTempAllocator@shdfnd@physx@@@shdfnd@physx@@QEAA@XZ 0000000180016350 f i RTreeCooking.obj
 0001:00015380       ??1?$Stack@VNamedAllocator@shdfnd@physx@@@internal@shdfnd@physx@@QEAA@XZ 0000000180016380 f i RTreeCooking.obj
 0001:000153c0       ??1SubSortQuick@physx@@QEAA@XZ 00000001800163c0 f i RTreeCooking.obj
 0001:000153e0       ??1SubSortSAH@physx@@QEAA@XZ 00000001800163e0 f i RTreeCooking.obj
 0001:000154a0       ??4PxVec4@physx@@QEAAAEAV01@AEBV01@@Z 00000001800164a0 f i RTreeCooking.obj
 0001:00015500       ??A?$Array@IVNamedAllocator@shdfnd@physx@@@shdfnd@physx@@QEAAAEAII@Z 0000000180016500 f i RTreeCooking.obj
 0001:00015580       ??A?$Array@UInterval@physx@@V?$InlineAllocator@$0CAAA@VNamedAllocator@shdfnd@physx@@@shdfnd@2@@shdfnd@physx@@QEAAAEAUInterval@2@I@Z 0000000180016580 f i RTreeCooking.obj
 0001:00015600       ??A?$Array@URTreeNodeNQ@physx@@VNamedAllocator@shdfnd@2@@shdfnd@physx@@QEAAAEAURTreeNodeNQ@2@I@Z 0000000180016600 f i RTreeCooking.obj
 0001:00015680       ??A?$Array@URTreeNodeQ@Gu@physx@@VNamedAllocator@shdfnd@3@@shdfnd@physx@@QEAAAEAURTreeNodeQ@Gu@2@I@Z 0000000180016680 f i RTreeCooking.obj
 0001:00015700       ??B?$ScopedPointer@HVTempAllocator@shdfnd@physx@@@shdfnd@physx@@QEBAPEAHXZ 0000000180016700 f i RTreeCooking.obj
 0001:00015710       ??GPxVec4@physx@@QEBA?AV01@AEBV01@@Z 0000000180016710 f i RTreeCooking.obj
 0001:000157a0       ??KPxVec4@physx@@QEBA?AV01@M@Z 00000001800167a0 f i RTreeCooking.obj
 0001:00015840       ??R?$Less@I@shdfnd@physx@@QEBA_NAEBI0@Z 0000000180016840 f i RTreeCooking.obj
 0001:00015880       ??RBoundsLTE@physx@@QEBA_NAEBI0@Z 0000000180016880 f i RTreeCooking.obj
 0001:00015920       ??RSortBoundsPredicate@physx@@QEBA_NAEBI0@Z 0000000180016920 f i RTreeCooking.obj
 0001:00015a50       ?FMax@aos@shdfnd@physx@@YA?AT__m128@@XZ 0000000180016a50 f i RTreeCooking.obj
 0001:00015a70       ?FNegMax@aos@shdfnd@physx@@YA?AT__m128@@XZ 0000000180016a70 f i RTreeCooking.obj
 0001:00015a90       ?FStore@aos@shdfnd@physx@@YAXT__m128@@PEIAM@Z 0000000180016a90 f i RTreeCooking.obj
 0001:00015b20       ?PxAbs@physx@@YAHH@Z       0000000180016b20 f i RTreeCooking.obj
 0001:00015b40       ?V3Add@aos@shdfnd@physx@@YA?AT__m128@@T4@0@Z 0000000180016b40 f i RTreeCooking.obj
 0001:00015c50       ?V3Dot@aos@shdfnd@physx@@YA?AT__m128@@T4@0@Z 0000000180016c50 f i RTreeCooking.obj
 0001:00015df0       ?V3LoadU@aos@shdfnd@physx@@YA?AT__m128@@AEBVPxVec3@3@@Z 0000000180016df0 f i RTreeCooking.obj
 0001:00015e40       ?V3Max@aos@shdfnd@physx@@YA?AT__m128@@T4@0@Z 0000000180016e40 f i RTreeCooking.obj
 0001:00015f50       ?V3Min@aos@shdfnd@physx@@YA?AT__m128@@T4@0@Z 0000000180016f50 f i RTreeCooking.obj
 0001:00016060       ?V3PermZXY@aos@shdfnd@physx@@YA?AT__m128@@T4@@Z 0000000180017060 f i RTreeCooking.obj
 0001:000160f0       ?V3ReadXYZ@aos@shdfnd@physx@@YAAEBVPxVec3@3@AEBT__m128@@@Z 00000001800170f0 f i RTreeCooking.obj
 0001:00016100       ?V3Splat@aos@shdfnd@physx@@YA?AT__m128@@T4@@Z 0000000180017100 f i RTreeCooking.obj
 0001:000161e0       ?V3StoreA@aos@shdfnd@physx@@YAXT__m128@@AEAVPxVec3@3@@Z 00000001800171e0 f i RTreeCooking.obj
 0001:000162a0       ?V3StoreU@aos@shdfnd@physx@@YAXT__m128@@AEAVPxVec3@3@@Z 00000001800172a0 f i RTreeCooking.obj
 0001:00016310       ?V3Sub@aos@shdfnd@physx@@YA?AT__m128@@T4@0@Z 0000000180017310 f i RTreeCooking.obj
 0001:00016420       ?V3Zero@aos@shdfnd@physx@@YA?AT__m128@@XZ 0000000180017420 f i RTreeCooking.obj
 0001:00016440       ?V4ClearW@aos@shdfnd@physx@@YA?AT__m128@@T4@@Z 0000000180017440 f i RTreeCooking.obj
 0001:00016470       ?V4ReadW@aos@shdfnd@physx@@YAMAEBT__m128@@@Z 0000000180017470 f i RTreeCooking.obj
 0001:00016480       ?V4ReadX@aos@shdfnd@physx@@YAMAEBT__m128@@@Z 0000000180017480 f i RTreeCooking.obj
 0001:00016490       ?V4ReadY@aos@shdfnd@physx@@YAMAEBT__m128@@@Z 0000000180017490 f i RTreeCooking.obj
 0001:000164a0       ?V4ReadZ@aos@shdfnd@physx@@YAMAEBT__m128@@@Z 00000001800174a0 f i RTreeCooking.obj
 0001:000164b0       ?Vec3V_From_FloatV@aos@shdfnd@physx@@YA?AT__m128@@T4@@Z 00000001800174b0 f i RTreeCooking.obj
 0001:00016500       ?Vec3V_From_Vec4V@aos@shdfnd@physx@@YA?AT__m128@@T4@@Z 0000000180017500 f i RTreeCooking.obj
 0001:00016530       ?Vec4V_From_FloatV@aos@shdfnd@physx@@YA?AT__m128@@T4@@Z 0000000180017530 f i RTreeCooking.obj
 0001:00016540       ?allocate@?$AlignedAllocator@$0IA@VNonTrackingAllocator@shdfnd@physx@@@shdfnd@physx@@QEAAPEAX_KPEBDH@Z 0000000180017540 f i RTreeCooking.obj
 0001:000165e0       ?allocate@?$Array@IVNamedAllocator@shdfnd@physx@@@shdfnd@physx@@IEAAPEAII@Z 00000001800175e0 f i RTreeCooking.obj
 0001:00016670       ?allocate@?$Array@UInterval@physx@@V?$InlineAllocator@$0CAAA@VNamedAllocator@shdfnd@physx@@@shdfnd@2@@shdfnd@physx@@IEAAPEAUInterval@3@I@Z 0000000180017670 f i RTreeCooking.obj
 0001:00016700       ?allocate@?$Array@UPxBounds3V@physx@@VNamedAllocator@shdfnd@2@@shdfnd@physx@@IEAAPEAUPxBounds3V@3@I@Z 0000000180017700 f i RTreeCooking.obj
 0001:00016790       ?allocate@?$Array@URTreeNodeNQ@physx@@VNamedAllocator@shdfnd@2@@shdfnd@physx@@IEAAPEAURTreeNodeNQ@3@I@Z 0000000180017790 f i RTreeCooking.obj
 0001:00016820       ?allocate@?$Array@URTreeNodeQ@Gu@physx@@VNamedAllocator@shdfnd@3@@shdfnd@physx@@IEAAPEAURTreeNodeQ@Gu@3@I@Z 0000000180017820 f i RTreeCooking.obj
 0001:000168b0       ?allocate@?$InlineAllocator@$0CAAA@VNamedAllocator@shdfnd@physx@@@shdfnd@physx@@QEAAPEAXIPEBDH@Z 00000001800178b0 f i RTreeCooking.obj
 0001:00016920       ?allocate@NonTrackingAllocator@shdfnd@physx@@QEAAPEAX_KPEBDH@Z 0000000180017920 f i RTreeCooking.obj
 0001:00016990       ?begin@?$Array@IVNamedAllocator@shdfnd@physx@@@shdfnd@physx@@QEAAPEAIXZ 0000000180017990 f i RTreeCooking.obj
 0001:000169a0       ?begin@?$Array@UPxBounds3V@physx@@VNamedAllocator@shdfnd@2@@shdfnd@physx@@QEAAPEAUPxBounds3V@3@XZ 00000001800179a0 f i RTreeCooking.obj
 0001:000169b0       ?begin@?$Array@VPxVec3@physx@@VNamedAllocator@shdfnd@2@@shdfnd@physx@@QEAAPEAVPxVec3@3@XZ 00000001800179b0 f i RTreeCooking.obj
 0001:000169c0       ?capacity@?$Array@IVNamedAllocator@shdfnd@physx@@@shdfnd@physx@@QEBAIXZ 00000001800179c0 f i RTreeCooking.obj
 0001:000169e0       ?capacity@?$Array@UInterval@physx@@V?$InlineAllocator@$0CAAA@VNamedAllocator@shdfnd@physx@@@shdfnd@2@@shdfnd@physx@@QEBAIXZ 00000001800179e0 f i RTreeCooking.obj
 0001:00016a00       ?capacity@?$Array@UPxBounds3V@physx@@VNamedAllocator@shdfnd@2@@shdfnd@physx@@QEBAIXZ 0000000180017a00 f i RTreeCooking.obj
 0001:00016a20       ?capacity@?$Array@URTreeNodeNQ@physx@@VNamedAllocator@shdfnd@2@@shdfnd@physx@@QEBAIXZ 0000000180017a20 f i RTreeCooking.obj
 0001:00016a40       ?capacity@?$Array@URTreeNodeQ@Gu@physx@@VNamedAllocator@shdfnd@3@@shdfnd@physx@@QEBAIXZ 0000000180017a40 f i RTreeCooking.obj
 0001:00016a60       ?capacityIncrement@?$Array@IVNamedAllocator@shdfnd@physx@@@shdfnd@physx@@IEBAIXZ 0000000180017a60 f i RTreeCooking.obj
 0001:00016aa0       ?capacityIncrement@?$Array@UInterval@physx@@V?$InlineAllocator@$0CAAA@VNamedAllocator@shdfnd@physx@@@shdfnd@2@@shdfnd@physx@@IEBAIXZ 0000000180017aa0 f i RTreeCooking.obj
 0001:00016ae0       ?capacityIncrement@?$Array@UPxBounds3V@physx@@VNamedAllocator@shdfnd@2@@shdfnd@physx@@IEBAIXZ 0000000180017ae0 f i RTreeCooking.obj
 0001:00016b20       ?capacityIncrement@?$Array@URTreeNodeNQ@physx@@VNamedAllocator@shdfnd@2@@shdfnd@physx@@IEBAIXZ 0000000180017b20 f i RTreeCooking.obj
 0001:00016b60       ?capacityIncrement@?$Array@URTreeNodeQ@Gu@physx@@VNamedAllocator@shdfnd@3@@shdfnd@physx@@IEBAIXZ 0000000180017b60 f i RTreeCooking.obj
 0001:00016ba0       ?computeSA@SubSortSAH@physx@@QEAAMPEBIAEBUInterval@2@@Z 0000000180017ba0 f i RTreeCooking.obj
 0001:00016db0       ?copy@?$Array@IVNamedAllocator@shdfnd@physx@@@shdfnd@physx@@KAXPEAI0PEBI@Z 0000000180017db0 f i RTreeCooking.obj
 0001:00016e30       ?copy@?$Array@UInterval@physx@@V?$InlineAllocator@$0CAAA@VNamedAllocator@shdfnd@physx@@@shdfnd@2@@shdfnd@physx@@KAXPEAUInterval@3@0PEBU43@@Z 0000000180017e30 f i RTreeCooking.obj
 0001:00016eb0       ?copy@?$Array@UPxBounds3V@physx@@VNamedAllocator@shdfnd@2@@shdfnd@physx@@KAXPEAUPxBounds3V@3@0PEBU43@@Z 0000000180017eb0 f i RTreeCooking.obj
 0001:00016f30       ?copy@?$Array@URTreeNodeNQ@physx@@VNamedAllocator@shdfnd@2@@shdfnd@physx@@KAXPEAURTreeNodeNQ@3@0PEBU43@@Z 0000000180017f30 f i RTreeCooking.obj
 0001:00016fb0       ?copy@?$Array@URTreeNodeQ@Gu@physx@@VNamedAllocator@shdfnd@3@@shdfnd@physx@@KAXPEAURTreeNodeQ@Gu@3@0PEBU453@@Z 0000000180017fb0 f i RTreeCooking.obj
 0001:00017030       ?create@?$Array@IVNamedAllocator@shdfnd@physx@@@shdfnd@physx@@KAXPEAI0AEBI@Z 0000000180018030 f i RTreeCooking.obj
 0001:00017090       ?deallocate@?$Array@IVNamedAllocator@shdfnd@physx@@@shdfnd@physx@@IEAAXPEAX@Z 0000000180018090 f i RTreeCooking.obj
 0001:000170c0       ?deallocate@?$Array@UInterval@physx@@V?$InlineAllocator@$0CAAA@VNamedAllocator@shdfnd@physx@@@shdfnd@2@@shdfnd@physx@@IEAAXPEAX@Z 00000001800180c0 f i RTreeCooking.obj
 0001:000170f0       ?deallocate@?$Array@UPxBounds3V@physx@@VNamedAllocator@shdfnd@2@@shdfnd@physx@@IEAAXPEAX@Z 00000001800180f0 f i RTreeCooking.obj
 0001:00017120       ?deallocate@?$Array@URTreeNodeNQ@physx@@VNamedAllocator@shdfnd@2@@shdfnd@physx@@IEAAXPEAX@Z 0000000180018120 f i RTreeCooking.obj
 0001:00017150       ?deallocate@?$Array@URTreeNodeQ@Gu@physx@@VNamedAllocator@shdfnd@3@@shdfnd@physx@@IEAAXPEAX@Z 0000000180018150 f i RTreeCooking.obj
 0001:00017180       ?deallocate@?$InlineAllocator@$0CAAA@VNamedAllocator@shdfnd@physx@@@shdfnd@physx@@QEAAXPEAX@Z 0000000180018180 f i RTreeCooking.obj
 0001:000171c0       ?destroy@?$Array@IVNamedAllocator@shdfnd@physx@@@shdfnd@physx@@KAXPEAI0@Z 00000001800181c0 f i RTreeCooking.obj
 0001:000171f0       ?destroy@?$Array@UInterval@physx@@V?$InlineAllocator@$0CAAA@VNamedAllocator@shdfnd@physx@@@shdfnd@2@@shdfnd@physx@@KAXPEAUInterval@3@0@Z 00000001800181f0 f i RTreeCooking.obj
 0001:00017220       ?destroy@?$Array@UPxBounds3V@physx@@VNamedAllocator@shdfnd@2@@shdfnd@physx@@KAXPEAUPxBounds3V@3@0@Z 0000000180018220 f i RTreeCooking.obj
 0001:00017250       ?destroy@?$Array@URTreeNodeNQ@physx@@VNamedAllocator@shdfnd@2@@shdfnd@physx@@KAXPEAURTreeNodeNQ@3@0@Z 0000000180018250 f i RTreeCooking.obj
 0001:00017280       ?destroy@?$Array@URTreeNodeQ@Gu@physx@@VNamedAllocator@shdfnd@3@@shdfnd@physx@@KAXPEAURTreeNodeQ@Gu@3@0@Z 0000000180018280 f i RTreeCooking.obj
 0001:000172b0       ?empty@?$Stack@VNamedAllocator@shdfnd@physx@@@internal@shdfnd@physx@@QEAA_NXZ 00000001800182b0 f i RTreeCooking.obj
 0001:000172e0       ?empty@PxBounds3@physx@@SA?AV12@XZ 00000001800182e0 f i RTreeCooking.obj
 0001:00017340       ?getExtents@PxBounds3V@physx@@QEBA?AT__m128@@XZ 0000000180018340 f i RTreeCooking.obj
 0001:000173a0       ?getMaxVec3@PxBounds3V@physx@@QEBA?BVPxVec3@2@XZ 00000001800183a0 f i RTreeCooking.obj
 0001:000173f0       ?getMinVec3@PxBounds3V@physx@@QEBA?BVPxVec3@2@XZ 00000001800183f0 f i RTreeCooking.obj
 0001:00017440       ?grow@?$Array@IVNamedAllocator@shdfnd@physx@@@shdfnd@physx@@IEAAXI@Z 0000000180018440 f i RTreeCooking.obj
 0001:000174c0       ?grow@?$Array@UPxBounds3V@physx@@VNamedAllocator@shdfnd@2@@shdfnd@physx@@IEAAXI@Z 00000001800184c0 f i RTreeCooking.obj
 0001:00017540       ?grow@?$Array@URTreeNodeNQ@physx@@VNamedAllocator@shdfnd@2@@shdfnd@physx@@IEAAXI@Z 0000000180018540 f i RTreeCooking.obj
 0001:000175c0       ?grow@?$Array@URTreeNodeQ@Gu@physx@@VNamedAllocator@shdfnd@3@@shdfnd@physx@@IEAAXI@Z 00000001800185c0 f i RTreeCooking.obj
 0001:00017640       ?grow@?$Array@VPxVec3@physx@@VNamedAllocator@shdfnd@2@@shdfnd@physx@@IEAAXI@Z 0000000180018640 f i RTreeCooking.obj
 0001:000176c0       ?grow@?$Stack@VNamedAllocator@shdfnd@physx@@@internal@shdfnd@physx@@QEAAXXZ 00000001800186c0 f i RTreeCooking.obj
 0001:00017770       ?growAndPushBack@?$Array@IVNamedAllocator@shdfnd@physx@@@shdfnd@physx@@IEAAAEAIAEBI@Z 0000000180018770 f i RTreeCooking.obj
 0001:000178f0       ?growAndPushBack@?$Array@UInterval@physx@@V?$InlineAllocator@$0CAAA@VNamedAllocator@shdfnd@physx@@@shdfnd@2@@shdfnd@physx@@IEAAAEAUInterval@3@AEBU43@@Z 00000001800188f0 f i RTreeCooking.obj
 0001:00017aa0       ?growAndPushBack@?$Array@UPxBounds3V@physx@@VNamedAllocator@shdfnd@2@@shdfnd@physx@@IEAAAEAUPxBounds3V@3@AEBU43@@Z 0000000180018aa0 f i RTreeCooking.obj
 0001:00017c70       ?growAndPushBack@?$Array@URTreeNodeNQ@physx@@VNamedAllocator@shdfnd@2@@shdfnd@physx@@IEAAAEAURTreeNodeNQ@3@AEBU43@@Z 0000000180018c70 f i RTreeCooking.obj
 0001:00017e00       ?growAndPushBack@?$Array@URTreeNodeQ@Gu@physx@@VNamedAllocator@shdfnd@3@@shdfnd@physx@@IEAAAEAURTreeNodeQ@Gu@3@AEBU453@@Z 0000000180018e00 f i RTreeCooking.obj
 0001:00017fd0       ?include@PxBounds3V@physx@@QEAAXAEBU12@@Z 0000000180018fd0 f i RTreeCooking.obj
 0001:00018080       ?isInUserMemory@?$Array@IVNamedAllocator@shdfnd@physx@@@shdfnd@physx@@QEBAIXZ 0000000180019080 f i RTreeCooking.obj
 0001:000180a0       ?isInUserMemory@?$Array@UInterval@physx@@V?$InlineAllocator@$0CAAA@VNamedAllocator@shdfnd@physx@@@shdfnd@2@@shdfnd@physx@@QEBAIXZ 00000001800190a0 f i RTreeCooking.obj
 0001:000180c0       ?isInUserMemory@?$Array@UPxBounds3V@physx@@VNamedAllocator@shdfnd@2@@shdfnd@physx@@QEBAIXZ 00000001800190c0 f i RTreeCooking.obj
 0001:000180e0       ?isInUserMemory@?$Array@URTreeNodeNQ@physx@@VNamedAllocator@shdfnd@2@@shdfnd@physx@@QEBAIXZ 00000001800190e0 f i RTreeCooking.obj
 0001:00018100       ?isInUserMemory@?$Array@URTreeNodeQ@Gu@physx@@VNamedAllocator@shdfnd@3@@shdfnd@physx@@QEBAIXZ 0000000180019100 f i RTreeCooking.obj
 0001:00018120       ?isInside@PxBounds3@physx@@QEBA_NAEBV12@@Z 0000000180019120 f i RTreeCooking.obj
 0001:00018210       ?isLeaf@RTreeNodeQ@Gu@physx@@QEBAIXZ 0000000180019210 f i RTreeCooking.obj
 0001:00018230       ?isValidFloatV@aos@shdfnd@physx@@YA_NT__m128@@@Z 0000000180019230 f i RTreeCooking.obj
 0001:00018340       ?isValidVec3V@aos@shdfnd@physx@@YA_NT__m128@@@Z 0000000180019340 f i RTreeCooking.obj
 0001:000183a0       ?pop@?$Stack@VNamedAllocator@shdfnd@physx@@@internal@shdfnd@physx@@QEAAXAEAH0@Z 00000001800193a0 f i RTreeCooking.obj
 0001:00018480       ?popBack@?$Array@IVNamedAllocator@shdfnd@physx@@@shdfnd@physx@@QEAAIXZ 0000000180019480 f i RTreeCooking.obj
 0001:00018520       ?push@?$Stack@VNamedAllocator@shdfnd@physx@@@internal@shdfnd@physx@@QEAAXHH@Z 0000000180019520 f i RTreeCooking.obj
 0001:000185b0       ?pushBack@?$Array@IVNamedAllocator@shdfnd@physx@@@shdfnd@physx@@QEAAAEAIAEBI@Z 00000001800195b0 f i RTreeCooking.obj
 0001:00018650       ?pushBack@?$Array@UInterval@physx@@V?$InlineAllocator@$0CAAA@VNamedAllocator@shdfnd@physx@@@shdfnd@2@@shdfnd@physx@@QEAAAEAUInterval@3@AEBU43@@Z 0000000180019650 f i RTreeCooking.obj
 0001:00018710       ?pushBack@?$Array@UPxBounds3V@physx@@VNamedAllocator@shdfnd@2@@shdfnd@physx@@QEAAAEAUPxBounds3V@3@AEBU43@@Z 0000000180019710 f i RTreeCooking.obj
 0001:000187c0       ?pushBack@?$Array@URTreeNodeNQ@physx@@VNamedAllocator@shdfnd@2@@shdfnd@physx@@QEAAAEAURTreeNodeNQ@3@AEBU43@@Z 00000001800197c0 f i RTreeCooking.obj
 0001:00018860       ?pushBack@?$Array@URTreeNodeQ@Gu@physx@@VNamedAllocator@shdfnd@3@@shdfnd@physx@@QEAAAEAURTreeNodeQ@Gu@3@AEBU453@@Z 0000000180019860 f i RTreeCooking.obj
 0001:00018910       ?recreate@?$Array@IVNamedAllocator@shdfnd@physx@@@shdfnd@physx@@IEAAXI@Z 0000000180019910 f i RTreeCooking.obj
 0001:00018a20       ?recreate@?$Array@UPxBounds3V@physx@@VNamedAllocator@shdfnd@2@@shdfnd@physx@@IEAAXI@Z 0000000180019a20 f i RTreeCooking.obj
 0001:00018b40       ?recreate@?$Array@URTreeNodeNQ@physx@@VNamedAllocator@shdfnd@2@@shdfnd@physx@@IEAAXI@Z 0000000180019b40 f i RTreeCooking.obj
 0001:00018c60       ?recreate@?$Array@URTreeNodeQ@Gu@physx@@VNamedAllocator@shdfnd@3@@shdfnd@physx@@IEAAXI@Z 0000000180019c60 f i RTreeCooking.obj
 0001:00018d80       ?recreate@?$Array@VPxVec3@physx@@VNamedAllocator@shdfnd@2@@shdfnd@physx@@IEAAXI@Z 0000000180019d80 f i RTreeCooking.obj
 0001:00018ea0       ?replaceWithLast@?$Array@UInterval@physx@@V?$InlineAllocator@$0CAAA@VNamedAllocator@shdfnd@physx@@@shdfnd@2@@shdfnd@physx@@QEAAXI@Z 0000000180019ea0 f i RTreeCooking.obj
 0001:00018f60       ?reserve@?$Array@IVNamedAllocator@shdfnd@physx@@@shdfnd@physx@@QEAAXI@Z 0000000180019f60 f i RTreeCooking.obj
 0001:00018f90       ?reserve@?$Array@UPxBounds3V@physx@@VNamedAllocator@shdfnd@2@@shdfnd@physx@@QEAAXI@Z 0000000180019f90 f i RTreeCooking.obj
 0001:00018fc0       ?reserve@?$Array@URTreeNodeNQ@physx@@VNamedAllocator@shdfnd@2@@shdfnd@physx@@QEAAXI@Z 0000000180019fc0 f i RTreeCooking.obj
 0001:00018ff0       ?reserve@?$Array@URTreeNodeQ@Gu@physx@@VNamedAllocator@shdfnd@3@@shdfnd@physx@@QEAAXI@Z 0000000180019ff0 f i RTreeCooking.obj
 0001:00019020       ?reserve@?$Array@VPxVec3@physx@@VNamedAllocator@shdfnd@2@@shdfnd@physx@@QEAAXI@Z 000000018001a020 f i RTreeCooking.obj
 0001:00019050       ?resize@?$Array@IVNamedAllocator@shdfnd@physx@@@shdfnd@physx@@QEAAXIAEBI@Z 000000018001a050 f i RTreeCooking.obj
 0001:000190e0       ?resizeUninitialized@?$Array@URTreeNodeNQ@physx@@VNamedAllocator@shdfnd@2@@shdfnd@physx@@QEAAXI@Z 000000018001a0e0 f i RTreeCooking.obj
 0001:00019110       ?setLeaf@RTreeNodeQ@Gu@physx@@QEAAX_N@Z 000000018001a110 f i RTreeCooking.obj
 0001:00019150       ?size@?$Array@IVNamedAllocator@shdfnd@physx@@@shdfnd@physx@@QEBAIXZ 000000018001a150 f i RTreeCooking.obj
 0001:00019160       ?size@?$Array@UInterval@physx@@V?$InlineAllocator@$0CAAA@VNamedAllocator@shdfnd@physx@@@shdfnd@2@@shdfnd@physx@@QEBAIXZ 000000018001a160 f i RTreeCooking.obj
 0001:00019180       ?size@?$Array@URTreeNodeNQ@physx@@VNamedAllocator@shdfnd@2@@shdfnd@physx@@QEBAIXZ 000000018001a180 f i RTreeCooking.obj
 0001:00019190       ?size@?$Array@URTreeNodeQ@Gu@physx@@VNamedAllocator@shdfnd@3@@shdfnd@physx@@QEBAIXZ 000000018001a190 f i RTreeCooking.obj
 0001:000191a0       ?size@?$Array@VPxVec3@physx@@VNamedAllocator@shdfnd@2@@shdfnd@physx@@QEBAIXZ 000000018001a1a0 f i RTreeCooking.obj
 0001:000191b0       ?sort4@SubSortQuick@physx@@QEAAXPEIAIIAEAV?$Array@URTreeNodeNQ@physx@@VNamedAllocator@shdfnd@2@@shdfnd@2@AEAIAEAUPxBounds3V@2@I@Z 000000018001a1b0 f i RTreeCooking.obj
 0001:00019bd0       ?sort4@SubSortSAH@physx@@QEAAXPEAIIAEAV?$Array@URTreeNodeNQ@physx@@VNamedAllocator@shdfnd@2@@shdfnd@2@AEAIIPEAURTreeNodeNQ@2@@Z 000000018001abd0 f i RTreeCooking.obj
 0001:0001a950       ?split@SubSortSAH@physx@@QEAAIPEAII@Z 000000018001b950 f i RTreeCooking.obj
 0001:0001b830       ?computeLocalBounds@MeshBulider@physx@@IEAAXAEAVMeshDataBase@Gu@2@@Z 000000018001c830 f   MeshBuilder.obj
 0001:0001b930       ??0TriangleMeshBuilder@physx@@QEAA@AEAVTriangleMeshData@Gu@1@AEBUPxCookingParams@1@@Z 000000018001c930 f   TriangleMeshBuilder.obj
 0001:0001b990       ??1TriangleMeshBuilder@physx@@UEAA@XZ 000000018001c990 f   TriangleMeshBuilder.obj
 0001:0001b9c0       ?cleanMesh@TriangleMeshBuilder@physx@@QEAA_N_NPEAW4Enum@PxTriangleMeshCookingResult@2@@Z 000000018001c9c0 f   TriangleMeshBuilder.obj
 0001:0001c260       ?remapTopology@TriangleMeshBuilder@physx@@QEAAXPEBI@Z 000000018001d260 f   TriangleMeshBuilder.obj
 0001:0001c690       ?createSharedEdgeData@TriangleMeshBuilder@physx@@QEAAX_N0@Z 000000018001d690 f   TriangleMeshBuilder.obj
 0001:0001cf40       ?recordTriangleIndices@TriangleMeshBuilder@physx@@QEAAXXZ 000000018001df40 f   TriangleMeshBuilder.obj
 0001:0001d140       ?createGRBMidPhaseAndData@TriangleMeshBuilder@physx@@QEAAXI@Z 000000018001e140 f   TriangleMeshBuilder.obj
 0001:0001d4a0       ?createGRBData@TriangleMeshBuilder@physx@@QEAAXXZ 000000018001e4a0 f   TriangleMeshBuilder.obj
 0001:0001d640       ?loadFromDesc@TriangleMeshBuilder@physx@@QEAA_NAEBVPxTriangleMeshDesc@2@PEAW4Enum@PxTriangleMeshCookingResult@2@_N@Z 000000018001e640 f   TriangleMeshBuilder.obj
 0001:0001d940       ?save@TriangleMeshBuilder@physx@@QEBA_NAEAVPxOutputStream@2@_NAEBUPxCookingParams@2@@Z 000000018001e940 f   TriangleMeshBuilder.obj
 0001:0001e260       ?checkMeshIndicesSize@TriangleMeshBuilder@physx@@QEAAXXZ 000000018001f260 f   TriangleMeshBuilder.obj
 0001:0001e460       ?importMesh@TriangleMeshBuilder@physx@@IEAA_NAEBVPxTriangleMeshDesc@2@AEBUPxCookingParams@2@PEAW4Enum@PxTriangleMeshCookingResult@2@_N@Z 000000018001f460 f   TriangleMeshBuilder.obj
 0001:0001eaf0       ?releaseEdgeList@TriangleMeshBuilder@physx@@IEAAXXZ 000000018001faf0 f   TriangleMeshBuilder.obj
 0001:0001eb50       ?createEdgeList@TriangleMeshBuilder@physx@@IEAAXXZ 000000018001fb50 f   TriangleMeshBuilder.obj
 0001:0001ecd0       ??0RTreeTriangleMeshBuilder@physx@@QEAA@AEBUPxCookingParams@1@@Z 000000018001fcd0 f   TriangleMeshBuilder.obj
 0001:0001ed30       ??1RTreeTriangleMeshBuilder@physx@@UEAA@XZ 000000018001fd30 f   TriangleMeshBuilder.obj
 0001:0001ed70       ?createMidPhaseStructure@RTreeTriangleMeshBuilder@physx@@UEAAXXZ 000000018001fd70 f   TriangleMeshBuilder.obj
 0001:0001ef90       ?saveMidPhaseStructure@RTreeTriangleMeshBuilder@physx@@UEBAXAEAVPxOutputStream@2@_N@Z 000000018001ff90 f   TriangleMeshBuilder.obj
 0001:0001f270       ??0BV4TriangleMeshBuilder@physx@@QEAA@AEBUPxCookingParams@1@@Z 0000000180020270 f   TriangleMeshBuilder.obj
 0001:0001f2d0       ??1BV4TriangleMeshBuilder@physx@@UEAA@XZ 00000001800202d0 f   TriangleMeshBuilder.obj
 0001:0001f310       ?createMidPhaseStructure@BV4TriangleMeshBuilder@physx@@UEAAXXZ 0000000180020310 f   TriangleMeshBuilder.obj
 0001:0001f7d0       ?saveMidPhaseStructure@BV4TriangleMeshBuilder@physx@@UEBAXAEAVPxOutputStream@2@_N@Z 00000001800207d0 f   TriangleMeshBuilder.obj
 0001:0001fa20       ?onMeshIndexFormatChange@BV4TriangleMeshBuilder@physx@@UEAAXXZ 0000000180020a20 f   TriangleMeshBuilder.obj
 0001:0001fab0       ?createMidPhaseStructure@BV32TriangleMeshBuilder@physx@@SAXAEBUPxCookingParams@2@AEAVTriangleMeshData@Gu@2@AEAVBV32Tree@52@@Z 0000000180020ab0 f   TriangleMeshBuilder.obj
 0001:0001fda0       ?saveMidPhaseStructure@BV32TriangleMeshBuilder@physx@@SAXPEAVBV32Tree@Gu@2@AEAVPxOutputStream@2@_N@Z 0000000180020da0 f   TriangleMeshBuilder.obj
 0001:00020830       ?findSharpVertices@GrbTrimeshCookerHelper@physx@@YAXAEAV?$Array@USortedNeighbor@GrbTrimeshCookerHelper@physx@@VNamedAllocator@shdfnd@3@@shdfnd@2@AEAV?$Array@USharpEdgeRange@GrbTrimeshCookerHelper@physx@@VNamedAllocator@shdfnd@3@@42@PEBUuint3@2@PEBUuint4@2@II@Z 0000000180021830 f   TriangleMeshBuilder.obj
 0001:00020d40       ?buildVertexConnectionNew_p1@GrbTrimeshCookerHelper@physx@@YAIAEAV?$Array@USortedNeighbor@GrbTrimeshCookerHelper@physx@@VNamedAllocator@shdfnd@3@@shdfnd@2@AEAV?$Array@USharpEdgeRange@GrbTrimeshCookerHelper@physx@@VNamedAllocator@shdfnd@3@@42@PEBUuint3@2@PEBUuint4@2@II@Z 0000000180021d40 f   TriangleMeshBuilder.obj
 0001:00020de0       ?buildVertexConnectionNew_p2@GrbTrimeshCookerHelper@physx@@YAXPEAI00AEAV?$Array@USortedNeighbor@GrbTrimeshCookerHelper@physx@@VNamedAllocator@shdfnd@3@@shdfnd@2@AEAV?$Array@USharpEdgeRange@GrbTrimeshCookerHelper@physx@@VNamedAllocator@shdfnd@3@@42@I@Z 0000000180021de0 f   TriangleMeshBuilder.obj
 0001:00020ec0       ??$?2V?$ReflectionAllocator@VBV32Tree@Gu@physx@@@shdfnd@physx@@@UserAllocated@shdfnd@physx@@SAPEAX_KV?$ReflectionAllocator@VBV32Tree@Gu@physx@@@12@PEBDH@Z 0000000180021ec0 f i TriangleMeshBuilder.obj
 0001:00020f00       ??$?2V?$ReflectionAllocator@VEdgeListBuilder@Gu@physx@@@shdfnd@physx@@@UserAllocated@shdfnd@physx@@SAPEAX_KV?$ReflectionAllocator@VEdgeListBuilder@Gu@physx@@@12@PEBDH@Z 0000000180021f00 f i TriangleMeshBuilder.obj
 0001:00020f40       ??$?_UE@@YAPEAX_KV?$ReflectionAllocator@E@shdfnd@physx@@PEBDH@Z 0000000180021f40 f i TriangleMeshBuilder.obj
 0001:00020f80       ??$?_UG@@YAPEAX_KV?$ReflectionAllocator@G@shdfnd@physx@@PEBDH@Z 0000000180021f80 f i TriangleMeshBuilder.obj
 0001:00020fc0       ??$PX_UNUSED@U?$TriangleT@I@Gu@physx@@@@YAXAEBU?$TriangleT@I@Gu@physx@@@Z 0000000180021fc0 f i TriangleMeshBuilder.obj
 0001:00020fd0       ??$median3@UEdgeTriLookup@physx@@$$CBU?$Less@UEdgeTriLookup@physx@@@shdfnd@2@@internal@shdfnd@physx@@YAXPEAUEdgeTriLookup@2@HHAEBU?$Less@UEdgeTriLookup@physx@@@12@@Z 0000000180021fd0 f i TriangleMeshBuilder.obj
 0001:00021190       ??$median3@USortedNeighbor@GrbTrimeshCookerHelper@physx@@$$CBU?$Less@USortedNeighbor@GrbTrimeshCookerHelper@physx@@@shdfnd@3@@internal@shdfnd@physx@@YAXPEAUSortedNeighbor@GrbTrimeshCookerHelper@2@HHAEBU?$Less@USortedNeighbor@GrbTrimeshCookerHelper@physx@@@12@@Z 0000000180022190 f i TriangleMeshBuilder.obj
 0001:00021350       ??$partition@UEdgeTriLookup@physx@@$$CBU?$Less@UEdgeTriLookup@physx@@@shdfnd@2@@internal@shdfnd@physx@@YAHPEAUEdgeTriLookup@2@HHAEBU?$Less@UEdgeTriLookup@physx@@@12@@Z 0000000180022350 f i TriangleMeshBuilder.obj
 0001:00021570       ??$partition@USortedNeighbor@GrbTrimeshCookerHelper@physx@@$$CBU?$Less@USortedNeighbor@GrbTrimeshCookerHelper@physx@@@shdfnd@3@@internal@shdfnd@physx@@YAHPEAUSortedNeighbor@GrbTrimeshCookerHelper@2@HHAEBU?$Less@USortedNeighbor@GrbTrimeshCookerHelper@physx@@@12@@Z 0000000180022570 f i TriangleMeshBuilder.obj
 0001:00021790       ??$smallSort@UEdgeTriLookup@physx@@$$CBU?$Less@UEdgeTriLookup@physx@@@shdfnd@2@@internal@shdfnd@physx@@YAXPEAUEdgeTriLookup@2@HHAEBU?$Less@UEdgeTriLookup@physx@@@12@@Z 0000000180022790 f i TriangleMeshBuilder.obj
 0001:00021880       ??$smallSort@USortedNeighbor@GrbTrimeshCookerHelper@physx@@$$CBU?$Less@USortedNeighbor@GrbTrimeshCookerHelper@physx@@@shdfnd@3@@internal@shdfnd@physx@@YAXPEAUSortedNeighbor@GrbTrimeshCookerHelper@2@HHAEBU?$Less@USortedNeighbor@GrbTrimeshCookerHelper@physx@@@12@@Z 0000000180022880 f i TriangleMeshBuilder.obj
 0001:00021970       ??$sort@UEdgeTriLookup@physx@@@shdfnd@physx@@YAXPEAUEdgeTriLookup@1@I@Z 0000000180022970 f i TriangleMeshBuilder.obj
 0001:000219c0       ??$sort@UEdgeTriLookup@physx@@U?$Less@UEdgeTriLookup@physx@@@shdfnd@2@VNamedAllocator@42@@shdfnd@physx@@YAXPEAUEdgeTriLookup@1@IAEBU?$Less@UEdgeTriLookup@physx@@@01@AEBVNamedAllocator@01@I@Z 00000001800229c0 f i TriangleMeshBuilder.obj
 0001:00021cc0       ??$sort@USortedNeighbor@GrbTrimeshCookerHelper@physx@@@shdfnd@physx@@YAXPEAUSortedNeighbor@GrbTrimeshCookerHelper@1@I@Z 0000000180022cc0 f i TriangleMeshBuilder.obj
 0001:00021d10       ??$sort@USortedNeighbor@GrbTrimeshCookerHelper@physx@@U?$Less@USortedNeighbor@GrbTrimeshCookerHelper@physx@@@shdfnd@3@VNamedAllocator@53@@shdfnd@physx@@YAXPEAUSortedNeighbor@GrbTrimeshCookerHelper@1@IAEBU?$Less@USortedNeighbor@GrbTrimeshCookerHelper@physx@@@01@AEBVNamedAllocator@01@I@Z 0000000180022d10 f i TriangleMeshBuilder.obj
 0001:00022010       ??$swap@UEdgeTriLookup@physx@@@shdfnd@physx@@YAXAEAUEdgeTriLookup@1@0@Z 0000000180023010 f i TriangleMeshBuilder.obj
 0001:00022060       ??$swap@USortedNeighbor@GrbTrimeshCookerHelper@physx@@@shdfnd@physx@@YAXAEAUSortedNeighbor@GrbTrimeshCookerHelper@1@0@Z 0000000180023060 f i TriangleMeshBuilder.obj
 0001:000220b0       ??0?$Array@IVNamedAllocator@shdfnd@physx@@@shdfnd@physx@@QEAA@AEBVNamedAllocator@12@@Z 00000001800230b0 f i TriangleMeshBuilder.obj
 0001:00022100       ??0?$PxFlags@W4Enum@PxMeshFlag@physx@@G@physx@@QEAA@W4Enum@PxMeshFlag@1@@Z 0000000180023100 f i TriangleMeshBuilder.obj
 0001:00022120       ??0?$PxFlags@W4Enum@PxMeshFlag@physx@@G@physx@@QEAA@XZ 0000000180023120 f i TriangleMeshBuilder.obj
 0001:00022140       ??0?$ReflectionAllocator@E@shdfnd@physx@@QEAA@PEBD@Z 0000000180023140 f i TriangleMeshBuilder.obj
 0001:00022150       ??0?$ReflectionAllocator@G@shdfnd@physx@@QEAA@PEBD@Z 0000000180023150 f i TriangleMeshBuilder.obj
 0001:00022160       ??0?$ReflectionAllocator@VBV32Tree@Gu@physx@@@shdfnd@physx@@QEAA@PEBD@Z 0000000180023160 f i TriangleMeshBuilder.obj
 0001:00022170       ??0?$ReflectionAllocator@VEdgeListBuilder@Gu@physx@@@shdfnd@physx@@QEAA@PEBD@Z 0000000180023170 f i TriangleMeshBuilder.obj
 0001:00022180       ??0BV4TriangleData@Gu@physx@@QEAA@XZ 0000000180023180 f i TriangleMeshBuilder.obj
 0001:000221e0       ??0MeshDataBase@Gu@physx@@QEAA@XZ 00000001800231e0 f i TriangleMeshBuilder.obj
 0001:00022290       ??0PxPlane@physx@@QEAA@AEBVPxVec3@1@0@Z 0000000180023290 f i TriangleMeshBuilder.obj
 0001:000222f0       ??0PxSimpleTriangleMesh@physx@@QEAA@AEBV01@@Z 00000001800232f0 f i TriangleMeshBuilder.obj
 0001:00022350       ??0PxTriangleMeshDesc@physx@@QEAA@AEBV01@@Z 0000000180023350 f i TriangleMeshBuilder.obj
 0001:000223a0       ??0RTree@Gu@physx@@QEAA@XZ 00000001800233a0 f i TriangleMeshBuilder.obj
 0001:00022430       ??0RTreeCookerRemap@physx@@QEAA@I@Z 0000000180023430 f i TriangleMeshBuilder.obj
 0001:00022470       ??0RTreeTriangleData@Gu@physx@@QEAA@XZ 0000000180023470 f i TriangleMeshBuilder.obj
 0001:000224c0       ??0RemapCallback@RTreeCooker@physx@@QEAA@XZ 00000001800234c0 f i TriangleMeshBuilder.obj
 0001:000224e0       ??0SharpEdgeRange@GrbTrimeshCookerHelper@physx@@QEAA@II@Z 00000001800234e0 f i TriangleMeshBuilder.obj
 0001:00022510       ??0SharpEdgeRange@GrbTrimeshCookerHelper@physx@@QEAA@XZ 0000000180023510 f i TriangleMeshBuilder.obj
 0001:00022540       ??0SortedNeighbor@GrbTrimeshCookerHelper@physx@@QEAA@II_N@Z 0000000180023540 f i TriangleMeshBuilder.obj
 0001:00022580       ??0TriangleMeshData@Gu@physx@@QEAA@XZ 0000000180023580 f i TriangleMeshBuilder.obj
 0001:00022600       ??1BV4TriangleData@Gu@physx@@UEAA@XZ 0000000180023600 f i TriangleMeshBuilder.obj
 0001:00022650       ??1MeshDataBase@Gu@physx@@UEAA@XZ 0000000180023650 f i TriangleMeshBuilder.obj
 0001:000227a0       ??1RTree@Gu@physx@@QEAA@XZ 00000001800237a0 f i TriangleMeshBuilder.obj
 0001:000227c0       ??1RTreeCookerRemap@physx@@UEAA@XZ 00000001800237c0 f i TriangleMeshBuilder.obj
 0001:000227e0       ??1RTreeTriangleData@Gu@physx@@UEAA@XZ 00000001800237e0 f i TriangleMeshBuilder.obj
 0001:00022820       ??1RemapCallback@RTreeCooker@physx@@UEAA@XZ 0000000180023820 f i TriangleMeshBuilder.obj
 0001:00022840       ??1TriangleMeshData@Gu@physx@@UEAA@XZ 0000000180023840 f i TriangleMeshBuilder.obj
 0001:00022970       ??A?$Array@USharpEdgeRange@GrbTrimeshCookerHelper@physx@@VNamedAllocator@shdfnd@3@@shdfnd@physx@@QEAAAEAUSharpEdgeRange@GrbTrimeshCookerHelper@2@I@Z 0000000180023970 f i TriangleMeshBuilder.obj
 0001:000229f0       ??A?$Array@USortedNeighbor@GrbTrimeshCookerHelper@physx@@VNamedAllocator@shdfnd@3@@shdfnd@physx@@QEAAAEAUSortedNeighbor@GrbTrimeshCookerHelper@2@I@Z 00000001800239f0 f i TriangleMeshBuilder.obj
 0001:00022a70       ??MEdgeTriLookup@physx@@QEBA_NAEBU01@@Z 0000000180023a70 f i TriangleMeshBuilder.obj
 0001:00022ad0       ??MSortedNeighbor@GrbTrimeshCookerHelper@physx@@QEBA_NAEBU012@@Z 0000000180023ad0 f i TriangleMeshBuilder.obj
 0001:00022b70       ??NEdgeTriLookup@physx@@QEBA_NAEBU01@@Z 0000000180023b70 f i TriangleMeshBuilder.obj
 0001:00022bd0       ??R?$Less@UEdgeTriLookup@physx@@@shdfnd@physx@@QEBA_NAEBUEdgeTriLookup@2@0@Z 0000000180023bd0 f i TriangleMeshBuilder.obj
 0001:00022c00       ??R?$Less@USortedNeighbor@GrbTrimeshCookerHelper@physx@@@shdfnd@physx@@QEBA_NAEBUSortedNeighbor@GrbTrimeshCookerHelper@2@0@Z 0000000180023c00 f i TriangleMeshBuilder.obj
 0001:00022c30       ??S?$PxFlags@W4Enum@PxMeshFlag@physx@@G@physx@@QEBA?AV01@XZ 0000000180023c30 f i TriangleMeshBuilder.obj
 0001:00022c70       ??Sphysx@@YA?AV?$PxFlags@W4Enum@PxMeshFlag@physx@@G@0@W4Enum@PxMeshFlag@0@@Z 0000000180023c70 f i TriangleMeshBuilder.obj
 0001:00022cb0       ??_4?$PxFlags@W4Enum@PxMeshFlag@physx@@G@physx@@QEAAAEAV01@AEBV01@@Z 0000000180023cb0 f i TriangleMeshBuilder.obj
 0001:00022ce0       ??_GBV32Tree@Gu@physx@@QEAAPEAXI@Z 0000000180023ce0 f i TriangleMeshBuilder.obj
 0001:00022d40       ??_EBV4TriangleData@Gu@physx@@UEAAPEAXI@Z 0000000180023d40 f i TriangleMeshBuilder.obj
 0001:00022d40       ??_GBV4TriangleData@Gu@physx@@UEAAPEAXI@Z 0000000180023d40 f i TriangleMeshBuilder.obj
 0001:00022da0       ??_EBV4TriangleMeshBuilder@physx@@UEAAPEAXI@Z 0000000180023da0 f i TriangleMeshBuilder.obj
 0001:00022da0       ??_GBV4TriangleMeshBuilder@physx@@UEAAPEAXI@Z 0000000180023da0 f i TriangleMeshBuilder.obj
 0001:00022de0       ??_GEdgeListBuilder@Gu@physx@@QEAAPEAXI@Z 0000000180023de0 f i TriangleMeshBuilder.obj
 0001:00022e40       ??_EMeshDataBase@Gu@physx@@UEAAPEAXI@Z 0000000180023e40 f i TriangleMeshBuilder.obj
 0001:00022e40       ??_GMeshDataBase@Gu@physx@@UEAAPEAXI@Z 0000000180023e40 f i TriangleMeshBuilder.obj
 0001:00022ea0       ??_ERTreeCookerRemap@physx@@UEAAPEAXI@Z 0000000180023ea0 f i TriangleMeshBuilder.obj
 0001:00022ea0       ??_GRTreeCookerRemap@physx@@UEAAPEAXI@Z 0000000180023ea0 f i TriangleMeshBuilder.obj
 0001:00022ee0       ??_ERTreeTriangleData@Gu@physx@@UEAAPEAXI@Z 0000000180023ee0 f i TriangleMeshBuilder.obj
 0001:00022ee0       ??_GRTreeTriangleData@Gu@physx@@UEAAPEAXI@Z 0000000180023ee0 f i TriangleMeshBuilder.obj
 0001:00022f40       ??_ERTreeTriangleMeshBuilder@physx@@UEAAPEAXI@Z 0000000180023f40 f i TriangleMeshBuilder.obj
 0001:00022f40       ??_GRTreeTriangleMeshBuilder@physx@@UEAAPEAXI@Z 0000000180023f40 f i TriangleMeshBuilder.obj
 0001:00022f80       ??_ERemapCallback@RTreeCooker@physx@@UEAAPEAXI@Z 0000000180023f80 f i TriangleMeshBuilder.obj
 0001:00022f80       ??_GRemapCallback@RTreeCooker@physx@@UEAAPEAXI@Z 0000000180023f80 f i TriangleMeshBuilder.obj
 0001:00022fc0       ??_ETriangleMeshBuilder@physx@@UEAAPEAXI@Z 0000000180023fc0 f i TriangleMeshBuilder.obj
 0001:00022fc0       ??_GTriangleMeshBuilder@physx@@UEAAPEAXI@Z 0000000180023fc0 f i TriangleMeshBuilder.obj
 0001:00023000       ??_ETriangleMeshData@Gu@physx@@UEAAPEAXI@Z 0000000180024000 f i TriangleMeshBuilder.obj
 0001:00023000       ??_GTriangleMeshData@Gu@physx@@UEAAPEAXI@Z 0000000180024000 f i TriangleMeshBuilder.obj
 0001:00023060       ?LeafSetData@Gu@physx@@YAIII@Z 0000000180024060 f i TriangleMeshBuilder.obj
 0001:00023130       ?SetData@LeafTriangles@Gu@physx@@QEAAXII@Z 0000000180024130 f i TriangleMeshBuilder.obj
 0001:00023160       ?WriteDwordBuffer@physx@@YAXPEBII_NAEAVPxOutputStream@1@@Z 0000000180024160 f i TriangleMeshBuilder.obj
 0001:000231a0       ?allocate@?$Array@USharpEdgeRange@GrbTrimeshCookerHelper@physx@@VNamedAllocator@shdfnd@3@@shdfnd@physx@@IEAAPEAUSharpEdgeRange@GrbTrimeshCookerHelper@3@I@Z 00000001800241a0 f i TriangleMeshBuilder.obj
 0001:00023230       ?allocate@?$Array@USortedNeighbor@GrbTrimeshCookerHelper@physx@@VNamedAllocator@shdfnd@3@@shdfnd@physx@@IEAAPEAUSortedNeighbor@GrbTrimeshCookerHelper@3@I@Z 0000000180024230 f i TriangleMeshBuilder.obj
 0001:000232c0       ?allocate@?$ReflectionAllocator@E@shdfnd@physx@@QEAAPEAX_KPEBDH@Z 00000001800242c0 f i TriangleMeshBuilder.obj
 0001:00023340       ?allocate@?$ReflectionAllocator@G@shdfnd@physx@@QEAAPEAX_KPEBDH@Z 0000000180024340 f i TriangleMeshBuilder.obj
 0001:000233c0       ?allocate@?$ReflectionAllocator@VBV32Tree@Gu@physx@@@shdfnd@physx@@QEAAPEAX_KPEBDH@Z 00000001800243c0 f i TriangleMeshBuilder.obj
 0001:00023440       ?allocate@?$ReflectionAllocator@VEdgeListBuilder@Gu@physx@@@shdfnd@physx@@QEAAPEAX_KPEBDH@Z 0000000180024440 f i TriangleMeshBuilder.obj
 0001:000234c0       ?allocateMaterials@TriangleMeshData@Gu@physx@@QEAAPEAGXZ 00000001800244c0 f i TriangleMeshBuilder.obj
 0001:000235f0       ?allocateTriangles@TriangleMeshData@Gu@physx@@QEAAPEAXI_NI@Z 00000001800245f0 f i TriangleMeshBuilder.obj
 0001:00023830       ?allocateVertices@MeshDataBase@Gu@physx@@QEAAPEAVPxVec3@3@I@Z 0000000180024830 f i TriangleMeshBuilder.obj
 0001:00023910       ?begin@?$Array@USortedNeighbor@GrbTrimeshCookerHelper@physx@@VNamedAllocator@shdfnd@3@@shdfnd@physx@@QEAAPEAUSortedNeighbor@GrbTrimeshCookerHelper@3@XZ 0000000180024910 f i TriangleMeshBuilder.obj
 0001:00023920       ?capacity@?$Array@USharpEdgeRange@GrbTrimeshCookerHelper@physx@@VNamedAllocator@shdfnd@3@@shdfnd@physx@@QEBAIXZ 0000000180024920 f i TriangleMeshBuilder.obj
 0001:00023940       ?capacity@?$Array@USortedNeighbor@GrbTrimeshCookerHelper@physx@@VNamedAllocator@shdfnd@3@@shdfnd@physx@@QEBAIXZ 0000000180024940 f i TriangleMeshBuilder.obj
 0001:00023960       ?capacityIncrement@?$Array@USortedNeighbor@GrbTrimeshCookerHelper@physx@@VNamedAllocator@shdfnd@3@@shdfnd@physx@@IEBAIXZ 0000000180024960 f i TriangleMeshBuilder.obj
 0001:000239a0       ?copy@?$Array@USharpEdgeRange@GrbTrimeshCookerHelper@physx@@VNamedAllocator@shdfnd@3@@shdfnd@physx@@KAXPEAUSharpEdgeRange@GrbTrimeshCookerHelper@3@0PEBU453@@Z 00000001800249a0 f i TriangleMeshBuilder.obj
 0001:00023a20       ?copy@?$Array@USortedNeighbor@GrbTrimeshCookerHelper@physx@@VNamedAllocator@shdfnd@3@@shdfnd@physx@@KAXPEAUSortedNeighbor@GrbTrimeshCookerHelper@3@0PEBU453@@Z 0000000180024a20 f i TriangleMeshBuilder.obj
 0001:00023aa0       ?create@?$Array@USharpEdgeRange@GrbTrimeshCookerHelper@physx@@VNamedAllocator@shdfnd@3@@shdfnd@physx@@KAXPEAUSharpEdgeRange@GrbTrimeshCookerHelper@3@0AEBU453@@Z 0000000180024aa0 f i TriangleMeshBuilder.obj
 0001:00023b00       ?deallocate@?$AlignedAllocator@$0IA@VNonTrackingAllocator@shdfnd@physx@@@shdfnd@physx@@QEAAXPEAX@Z 0000000180024b00 f i TriangleMeshBuilder.obj
 0001:00023b50       ?deallocate@?$Array@USharpEdgeRange@GrbTrimeshCookerHelper@physx@@VNamedAllocator@shdfnd@3@@shdfnd@physx@@IEAAXPEAX@Z 0000000180024b50 f i TriangleMeshBuilder.obj
 0001:00023b80       ?deallocate@?$Array@USortedNeighbor@GrbTrimeshCookerHelper@physx@@VNamedAllocator@shdfnd@3@@shdfnd@physx@@IEAAXPEAX@Z 0000000180024b80 f i TriangleMeshBuilder.obj
 0001:00023bb0       ?destroy@?$Array@USharpEdgeRange@GrbTrimeshCookerHelper@physx@@VNamedAllocator@shdfnd@3@@shdfnd@physx@@KAXPEAUSharpEdgeRange@GrbTrimeshCookerHelper@3@0@Z 0000000180024bb0 f i TriangleMeshBuilder.obj
 0001:00023be0       ?destroy@?$Array@USortedNeighbor@GrbTrimeshCookerHelper@physx@@VNamedAllocator@shdfnd@3@@shdfnd@physx@@KAXPEAUSortedNeighbor@GrbTrimeshCookerHelper@3@0@Z 0000000180024be0 f i TriangleMeshBuilder.obj
 0001:00023c10       ?findEdgeCCW@?$TriangleT@I@Gu@physx@@QEBAEII@Z 0000000180024c10 f i TriangleMeshBuilder.obj
 0001:00023d70       ?getMidphaseID@BV4TriangleMeshBuilder@physx@@UEBA?AW4Enum@PxMeshMidPhase@2@XZ 0000000180024d70 f i TriangleMeshBuilder.obj
 0001:00023d80       ?getMidphaseID@RTreeTriangleMeshBuilder@physx@@UEBA?AW4Enum@PxMeshMidPhase@2@XZ 0000000180024d80 f i TriangleMeshBuilder.obj
 0001:00023d90       ?getName@?$ReflectionAllocator@E@shdfnd@physx@@CAPEBDXZ 0000000180024d90 f i TriangleMeshBuilder.obj
 0001:00023dd0       ?getName@?$ReflectionAllocator@G@shdfnd@physx@@CAPEBDXZ 0000000180024dd0 f i TriangleMeshBuilder.obj
 0001:00023e10       ?getName@?$ReflectionAllocator@VBV32Tree@Gu@physx@@@shdfnd@physx@@CAPEBDXZ 0000000180024e10 f i TriangleMeshBuilder.obj
 0001:00023e50       ?getName@?$ReflectionAllocator@VEdgeListBuilder@Gu@physx@@@shdfnd@physx@@CAPEBDXZ 0000000180024e50 f i TriangleMeshBuilder.obj
 0001:00023e90       ?getNbFaces@EdgeList@Gu@physx@@QEBAIXZ 0000000180024e90 f i TriangleMeshBuilder.obj
 0001:00023ea0       ?getRemap@SourceMeshBase@Gu@physx@@QEBAPEBIXZ 0000000180024ea0 f i TriangleMeshBuilder.obj
 0001:00023eb0       ?grow@?$Array@USharpEdgeRange@GrbTrimeshCookerHelper@physx@@VNamedAllocator@shdfnd@3@@shdfnd@physx@@IEAAXI@Z 0000000180024eb0 f i TriangleMeshBuilder.obj
 0001:00023f30       ?grow@?$Array@USortedNeighbor@GrbTrimeshCookerHelper@physx@@VNamedAllocator@shdfnd@3@@shdfnd@physx@@IEAAXI@Z 0000000180024f30 f i TriangleMeshBuilder.obj
 0001:00023fb0       ?growAndPushBack@?$Array@USortedNeighbor@GrbTrimeshCookerHelper@physx@@VNamedAllocator@shdfnd@3@@shdfnd@physx@@IEAAAEAUSortedNeighbor@GrbTrimeshCookerHelper@3@AEBU453@@Z 0000000180024fb0 f i TriangleMeshBuilder.obj
 0001:00024180       ?has16BitIndices@MeshDataBase@Gu@physx@@QEBA_NXZ 0000000180025180 f i TriangleMeshBuilder.obj
 0001:000241b0       ?initRemap@SourceMeshBase@Gu@physx@@QEAAXXZ 00000001800251b0 f i TriangleMeshBuilder.obj
 0001:000241d0       ?isInUserMemory@?$Array@USharpEdgeRange@GrbTrimeshCookerHelper@physx@@VNamedAllocator@shdfnd@3@@shdfnd@physx@@QEBAIXZ 00000001800251d0 f i TriangleMeshBuilder.obj
 0001:000241f0       ?isInUserMemory@?$Array@USortedNeighbor@GrbTrimeshCookerHelper@physx@@VNamedAllocator@shdfnd@3@@shdfnd@physx@@QEBAIXZ 00000001800251f0 f i TriangleMeshBuilder.obj
 0001:00024210       ?isValid@PxBVH33MidphaseDesc@physx@@QEBA_NXZ 0000000180025210 f i TriangleMeshBuilder.obj
 0001:00024240       ?isValid@PxBVH34MidphaseDesc@physx@@QEBA_NXZ 0000000180025240 f i TriangleMeshBuilder.obj
 0001:00024260       ?isValid@PxMidphaseDesc@physx@@QEBA_NXZ 0000000180025260 f i TriangleMeshBuilder.obj
 0001:000242b0       ?onMeshIndexFormatChange@TriangleMeshBuilder@physx@@UEAAXXZ 00000001800252b0 f i TriangleMeshBuilder.obj
 0001:000242c0       ?pushBack@?$Array@USortedNeighbor@GrbTrimeshCookerHelper@physx@@VNamedAllocator@shdfnd@3@@shdfnd@physx@@QEAAAEAUSortedNeighbor@GrbTrimeshCookerHelper@3@AEBU453@@Z 00000001800252c0 f i TriangleMeshBuilder.obj
 0001:00024370       ?recreate@?$Array@USharpEdgeRange@GrbTrimeshCookerHelper@physx@@VNamedAllocator@shdfnd@3@@shdfnd@physx@@IEAAXI@Z 0000000180025370 f i TriangleMeshBuilder.obj
 0001:00024480       ?recreate@?$Array@USortedNeighbor@GrbTrimeshCookerHelper@physx@@VNamedAllocator@shdfnd@3@@shdfnd@physx@@IEAAXI@Z 0000000180025480 f i TriangleMeshBuilder.obj
 0001:000245a0       ?release@RTree@Gu@physx@@QEAAXXZ 00000001800255a0 f i TriangleMeshBuilder.obj
 0001:00024600       ?releaseRemap@SourceMeshBase@Gu@physx@@QEAAXXZ 0000000180025600 f i TriangleMeshBuilder.obj
 0001:00024640       ?remap@RTreeCookerRemap@physx@@UEAAXPEAIII@Z 0000000180025640 f i TriangleMeshBuilder.obj
 0001:00024830       ?reserve@?$Array@USharpEdgeRange@GrbTrimeshCookerHelper@physx@@VNamedAllocator@shdfnd@3@@shdfnd@physx@@QEAAXI@Z 0000000180025830 f i TriangleMeshBuilder.obj
 0001:00024860       ?reserve@?$Array@USortedNeighbor@GrbTrimeshCookerHelper@physx@@VNamedAllocator@shdfnd@3@@shdfnd@physx@@QEAAXI@Z 0000000180025860 f i TriangleMeshBuilder.obj
 0001:00024890       ?resize@?$Array@USharpEdgeRange@GrbTrimeshCookerHelper@physx@@VNamedAllocator@shdfnd@3@@shdfnd@physx@@QEAAXIAEBUSharpEdgeRange@GrbTrimeshCookerHelper@3@@Z 0000000180025890 f i TriangleMeshBuilder.obj
 0001:00024920       ?resizeUninitialized@?$Array@USortedNeighbor@GrbTrimeshCookerHelper@physx@@VNamedAllocator@shdfnd@3@@shdfnd@physx@@QEAAXI@Z 0000000180025920 f i TriangleMeshBuilder.obj
 0001:00024950       ?setNbTriangles@SourceMesh@Gu@physx@@QEAAXI@Z 0000000180025950 f i TriangleMeshBuilder.obj
 0001:00024970       ?setNbVertices@SourceMeshBase@Gu@physx@@QEAAXI@Z 0000000180025970 f i TriangleMeshBuilder.obj
 0001:00024990       ?setPointers@SourceMesh@Gu@physx@@QEAAXPEAVIndTri32@23@PEAVIndTri16@23@PEBVPxVec3@3@@Z 0000000180025990 f i TriangleMeshBuilder.obj
 0001:000249d0       ?setTriangleAdjacency@TriangleMeshData@Gu@physx@@QEAAXIII@Z 00000001800259d0 f i TriangleMeshBuilder.obj
 0001:00024a60       ?size@?$Array@USortedNeighbor@GrbTrimeshCookerHelper@physx@@VNamedAllocator@shdfnd@3@@shdfnd@physx@@QEBAIXZ 0000000180025a60 f i TriangleMeshBuilder.obj
 0001:00024a70       ?to16@shdfnd@physx@@YAGI@Z 0000000180025a70 f i TriangleMeshBuilder.obj
 0001:00024ae0       ?writeChunk@physx@@YAXCCCCAEAVPxOutputStream@1@@Z 0000000180025ae0 f i TriangleMeshBuilder.obj
 0001:00024b70       ?writeIntBuffer@physx@@YAXPEBII_NAEAVPxOutputStream@1@@Z 0000000180025b70 f i TriangleMeshBuilder.obj
 0001:00024bb0       ??0BigConvexDataBuilder@physx@@QEAA@PEBUConvexHullData@Gu@1@PEAVBigConvexData@1@PEBVPxVec3@1@@Z 0000000180025bb0 f   BigConvexDataBuilder.obj
 0001:00024c00       ??1BigConvexDataBuilder@physx@@QEAA@XZ 0000000180025c00 f   BigConvexDataBuilder.obj
 0001:00024c10       ?precompute@BigConvexDataBuilder@physx@@QEAA_NI@Z 0000000180025c10 f   BigConvexDataBuilder.obj
 0001:00025230       ?initialize@BigConvexDataBuilder@physx@@QEAA_NXZ 0000000180026230 f   BigConvexDataBuilder.obj
 0001:000252a0       ?save@BigConvexDataBuilder@physx@@QEBA_NAEAVPxOutputStream@2@_N@Z 00000001800262a0 f   BigConvexDataBuilder.obj
 0001:000253d0       ?computeValencies@BigConvexDataBuilder@physx@@QEAA_NAEBVConvexHullBuilder@2@@Z 00000001800263d0 f   BigConvexDataBuilder.obj
 0001:00025c10       ?saveValencies@BigConvexDataBuilder@physx@@QEBA_NAEAVPxOutputStream@2@_N@Z 0000000180026c10 f   BigConvexDataBuilder.obj
 0001:00025e50       ??0BigConvexData@physx@@QEAA@W4PxEMPTY@1@@Z 0000000180026e50 f i BigConvexDataBuilder.obj
 0001:00025e60       ??4BigConvexData@physx@@QEAAAEAV01@AEBV01@@Z 0000000180026e60 f i BigConvexDataBuilder.obj
 0001:00025e90       ?GetAdjacentVerts@BigConvexData@physx@@QEBAPEBEXZ 0000000180026e90 f i BigConvexDataBuilder.obj
 0001:00025ea0       ?GetNbNeighbors@BigConvexData@physx@@QEBAGI@Z 0000000180026ea0 f i BigConvexDataBuilder.obj
 0001:00025ec0       ?GetNbSamples@BigConvexData@physx@@QEBAIXZ 0000000180026ec0 f i BigConvexDataBuilder.obj
 0001:00025ed0       ?GetNbVerts@BigConvexData@physx@@QEBAIXZ 0000000180026ed0 f i BigConvexDataBuilder.obj
 0001:00025ee0       ?GetNeighbors@BigConvexData@physx@@QEBAPEBEI@Z 0000000180026ee0 f i BigConvexDataBuilder.obj
 0001:00025f10       ?GetOffset@BigConvexData@physx@@QEBAGI@Z 0000000180026f10 f i BigConvexDataBuilder.obj
 0001:00025f30       ?GetSubdiv@BigConvexData@physx@@QEBAIXZ 0000000180026f30 f i BigConvexDataBuilder.obj
 0001:00025f40       ?GetValencies@BigConvexData@physx@@QEBAPEBUValency@Gu@2@XZ 0000000180026f40 f i BigConvexDataBuilder.obj
 0001:00025f50       ?GetValency@BigConvexData@physx@@QEBAGI@Z 0000000180026f50 f i BigConvexDataBuilder.obj
 0001:00025f70       ?precomputeSample@BigConvexDataBuilder@physx@@IEAAXAEBVPxVec3@2@AEAEM@Z 0000000180026f70 f i BigConvexDataBuilder.obj
 0001:000262d0       ??0ConvexHullBuilder@physx@@QEAA@PEAUConvexHullData@Gu@1@_N@Z 00000001800272d0 f   ConvexHullBuilder.obj
 0001:00026360       ??1ConvexHullBuilder@physx@@QEAA@XZ 0000000180027360 f   ConvexHullBuilder.obj
 0001:000264a0       ?init@ConvexHullBuilder@physx@@QEAA_NIPEBVPxVec3@2@PEBIIIPEBUPxHullPolygon@2@_NPEAVConvexHullLib@2@@Z 00000001800274a0 f   ConvexHullBuilder.obj
 0001:00026d60       ?save@ConvexHullBuilder@physx@@QEBA_NAEAVPxOutputStream@2@_N@Z 0000000180027d60 f   ConvexHullBuilder.obj
 0001:00027140       ?copy@ConvexHullBuilder@physx@@QEAA_NAEAUConvexHullData@Gu@2@AEAI@Z 0000000180028140 f   ConvexHullBuilder.obj
 0001:000278c0       ?createEdgeList@ConvexHullBuilder@physx@@QEAA_N_NI@Z 00000001800288c0 f   ConvexHullBuilder.obj
 0001:000286b0       ?checkHullPolygons@ConvexHullBuilder@physx@@QEBA_NXZ 00000001800296b0 f   ConvexHullBuilder.obj
 0001:00028f60       ?calculateVertexMapTable@ConvexHullBuilder@physx@@QEAA_NI_N@Z 0000000180029f60 f   ConvexHullBuilder.obj
 0001:00029210       ?computeGeomCenter@ConvexHullBuilder@physx@@IEBA_NAEAVPxVec3@2@IPEAUHullTriangleData@2@@Z 000000018002a210 f   ConvexHullBuilder.obj
 0001:000293c0       ??$?_UUEdgeDescData@Gu@physx@@@@YAPEAX_KV?$ReflectionAllocator@UEdgeDescData@Gu@physx@@@shdfnd@physx@@PEBDH@Z 000000018002a3c0 f i ConvexHullBuilder.obj
 0001:00029400       ??$?_U_N@@YAPEAX_KV?$ReflectionAllocator@_N@shdfnd@physx@@PEBDH@Z 000000018002a400 f i ConvexHullBuilder.obj
 0001:00029440       ??0?$PxBitAndDataT@G$0IAAA@@physx@@QEAA@G_N@Z 000000018002a440 f i ConvexHullBuilder.obj
 0001:00029490       ??0?$ReflectionAllocator@UEdgeDescData@Gu@physx@@@shdfnd@physx@@QEAA@PEBD@Z 000000018002a490 f i ConvexHullBuilder.obj
 0001:000294a0       ??0?$ReflectionAllocator@_N@shdfnd@physx@@QEAA@PEBD@Z 000000018002a4a0 f i ConvexHullBuilder.obj
 0001:000294b0       ??0?$TriangleT@I@Gu@physx@@QEAA@III@Z 000000018002a4b0 f i ConvexHullBuilder.obj
 0001:00029510       ??0HullPolygonData@Gu@physx@@QEAA@AEBU012@@Z 000000018002a510 f i ConvexHullBuilder.obj
 0001:00029570       ??0PxPlane@physx@@QEAA@AEBV01@@Z 000000018002a570 f i ConvexHullBuilder.obj
 0001:000295b0       ??0PxPlane@physx@@QEAA@MMMM@Z 000000018002a5b0 f i ConvexHullBuilder.obj
 0001:00029610       ??4PxPlane@physx@@QEAAAEAV01@$$QEAV01@@Z 000000018002a610 f i ConvexHullBuilder.obj
 0001:00029650       ?PxMemSet@physx@@YAPEAXPEAXHI@Z 000000018002a650 f i ConvexHullBuilder.obj
 0001:00029680       ?allocate@?$ReflectionAllocator@UEdgeDescData@Gu@physx@@@shdfnd@physx@@QEAAPEAX_KPEBDH@Z 000000018002a680 f i ConvexHullBuilder.obj
 0001:00029700       ?allocate@?$ReflectionAllocator@_N@shdfnd@physx@@QEAAPEAX_KPEBDH@Z 000000018002a700 f i ConvexHullBuilder.obj
 0001:00029780       ?area@?$TriangleT@I@Gu@physx@@QEBAMPEBVPxVec3@3@@Z 000000018002a780 f i ConvexHullBuilder.obj
 0001:00029870       ?center@?$TriangleT@I@Gu@physx@@QEBAXPEBVPxVec3@3@AEAV43@@Z 000000018002a870 f i ConvexHullBuilder.obj
 0001:00029950       ?computeBufferSize@Gu@physx@@YAIAEBUConvexHullData@12@I@Z 000000018002a950 f i ConvexHullBuilder.obj
 0001:00029a70       ?computeNbPolygons@ConvexHullBuilder@physx@@QEBAIXZ 000000018002aa70 f i ConvexHullBuilder.obj
 0001:00029af0       ?flip@physx@@YAXAEAG@Z     000000018002aaf0 f i ConvexHullBuilder.obj
 0001:00029b60       ?flip@physx@@YAXAEAM@Z     000000018002ab60 f i ConvexHullBuilder.obj
 0001:00029c20       ?flipData@Gu@physx@@YAXAEAUHullPolygonData@12@@Z 000000018002ac20 f i ConvexHullBuilder.obj
 0001:00029c80       ?getName@?$ReflectionAllocator@UEdgeDescData@Gu@physx@@@shdfnd@physx@@CAPEBDXZ 000000018002ac80 f i ConvexHullBuilder.obj
 0001:00029cc0       ?getName@?$ReflectionAllocator@_N@shdfnd@physx@@CAPEBDXZ 000000018002acc0 f i ConvexHullBuilder.obj
 0001:00029d00       ?memSet@intrinsics@physx@@YAPEAXPEAXHI@Z 000000018002ad00 f i ConvexHullBuilder.obj
 0001:00029d30       ?to8@shdfnd@physx@@YAEI@Z  000000018002ad30 f i ConvexHullBuilder.obj
 0001:00029da0       ??1ConvexHullLib@physx@@UEAA@XZ 000000018002ada0 f   ConvexHullLib.obj
 0001:00029e20       ?cleanupVertices@ConvexHullLib@physx@@IEAA_NIPEBVPxVec3@2@IAEAIPEAV32@AEAV32@3@Z 000000018002ae20 f   ConvexHullLib.obj
 0001:0002a530       ?shiftAndcleanupVertices@ConvexHullLib@physx@@IEAA_NIPEBVPxVec3@2@IAEAIPEAV32@AEAV32@3@Z 000000018002b530 f   ConvexHullLib.obj
 0001:0002a730       ?swapLargestFace@ConvexHullLib@physx@@IEAAXAEAVPxConvexMeshDesc@2@@Z 000000018002b730 f   ConvexHullLib.obj
 0001:0002ab20       ?shiftConvexMeshDesc@ConvexHullLib@physx@@IEAAXAEAVPxConvexMeshDesc@2@@Z 000000018002bb20 f   ConvexHullLib.obj
 0001:0002b360       ??_EConvexHullLib@physx@@UEAAPEAXI@Z 000000018002c360 f i ConvexHullLib.obj
 0001:0002b360       ??_GConvexHullLib@physx@@UEAAPEAXI@Z 000000018002c360 f i ConvexHullLib.obj
 0001:0002b3a0       ??0ConvexHull@physx@@QEAA@AEBVPxVec3@1@0AEBV?$Array@VPxPlane@physx@@VNamedAllocator@shdfnd@2@@shdfnd@1@@Z 000000018002c3a0 f   ConvexHullUtils.obj
 0001:0002bc50       ??0ConvexHull@physx@@QEAA@AEBVPxVec3@1@AEBVPxTransform@1@AEBV?$Array@VPxPlane@physx@@VNamedAllocator@shdfnd@2@@shdfnd@1@@Z 000000018002cc50 f   ConvexHullUtils.obj
 0001:0002c680       ?findCandidatePlane@ConvexHull@physx@@QEBAHMM@Z 000000018002d680 f   ConvexHullUtils.obj
 0001:0002ca80       ?assertIntact@ConvexHull@physx@@QEBA_NM@Z 000000018002da80 f   ConvexHullUtils.obj
 0001:0002d280       ?maxNumVertsPerFace@ConvexHull@physx@@QEBAIXZ 000000018002e280 f   ConvexHullUtils.obj
 0001:0002d350       ?convexHullCrop@physx@@YAPEAVConvexHull@1@AEBV21@AEBVPxPlane@1@M@Z 000000018002e350 f   ConvexHullUtils.obj
 0001:0002e9c0       ?computeOBBFromConvex@physx@@YA_NAEBVPxConvexMeshDesc@1@AEAVPxVec3@1@AEAVPxTransform@1@@Z 000000018002f9c0 f   ConvexHullUtils.obj
 0001:0002f300       ?computeOBBSIMD@local@@YAXIPEBT__m128@@AEAT2@AEBT2@1@Z 0000000180030300 f   ConvexHullUtils.obj
 0001:0002f960       ??$?2V?$ReflectionAllocator@VConvexHull@physx@@@shdfnd@physx@@@UserAllocated@shdfnd@physx@@SAPEAX_KV?$ReflectionAllocator@VConvexHull@physx@@@12@PEBDH@Z 0000000180030960 f i ConvexHullUtils.obj
 0001:0002f9a0       ??0?$Array@VHalfEdge@ConvexHull@physx@@VNamedAllocator@shdfnd@3@@shdfnd@physx@@QEAA@AEBVNamedAllocator@12@@Z 00000001800309a0 f i ConvexHullUtils.obj
 0001:0002f9f0       ??0?$Array@VPxPlane@physx@@VNamedAllocator@shdfnd@2@@shdfnd@physx@@QEAA@AEBVNamedAllocator@12@@Z 00000001800309f0 f i ConvexHullUtils.obj
 0001:0002fa40       ??0?$ReflectionAllocator@VConvexHull@physx@@@shdfnd@physx@@QEAA@PEBD@Z 0000000180030a40 f i ConvexHullUtils.obj
 0001:0002fa50       ??0Box@Gu@physx@@QEAA@AEBV012@@Z 0000000180030a50 f i ConvexHullUtils.obj
 0001:0002fab0       ??0Box@Gu@physx@@QEAA@AEBVPxVec3@2@0AEBVPxMat33@2@@Z 0000000180030ab0 f i ConvexHullUtils.obj
 0001:0002fb10       ??0Box@Gu@physx@@QEAA@XZ   0000000180030b10 f i ConvexHullUtils.obj
 0001:0002fb60       ??0ConvexHull@physx@@QEAA@AEBV01@@Z 0000000180030b60 f i ConvexHullUtils.obj
 0001:0002fc10       ??0ConvexHull@physx@@QEAA@AEBV?$Array@VPxPlane@physx@@VNamedAllocator@shdfnd@2@@shdfnd@1@@Z 0000000180030c10 f i ConvexHullUtils.obj
 0001:0002fcb0       ??0HalfEdge@ConvexHull@physx@@QEAA@FEE@Z 0000000180030cb0 f i ConvexHullUtils.obj
 0001:0002fd00       ??0HalfEdge@ConvexHull@physx@@QEAA@XZ 0000000180030d00 f i ConvexHullUtils.obj
 0001:0002fd10       ??0Mat33V@aos@shdfnd@physx@@QEAA@XZ 0000000180030d10 f i ConvexHullUtils.obj
 0001:0002fd20       ??0PxBoundedData@physx@@QEAA@XZ 0000000180030d20 f i ConvexHullUtils.obj
 0001:0002fd50       ??0PxConvexMeshDesc@physx@@QEAA@XZ 0000000180030d50 f i ConvexHullUtils.obj
 0001:0002fdc0       ??0PxIntegrals@physx@@QEAA@XZ 0000000180030dc0 f i ConvexHullUtils.obj
 0001:0002fde0       ??0PxMat33@physx@@QEAA@AEBV01@@Z 0000000180030de0 f i ConvexHullUtils.obj
 0001:0002fe40       ??0PxMat33@physx@@QEAA@AEBVPxQuat@1@@Z 0000000180030e40 f i ConvexHullUtils.obj
 0001:000300e0       ??0PxMat33@physx@@QEAA@AEBVPxVec3@1@00@Z 00000001800310e0 f i ConvexHullUtils.obj
 0001:00030140       ??0PxMat33@physx@@QEAA@W4PxIDENTITY@1@@Z 0000000180031140 f i ConvexHullUtils.obj
 0001:000301c0       ??0PxPlane@physx@@QEAA@AEBVPxVec3@1@M@Z 00000001800311c0 f i ConvexHullUtils.obj
 0001:00030200       ??0PxPlane@physx@@QEAA@XZ  0000000180031200 f i ConvexHullUtils.obj
 0001:00030220       ??0PxQuat@physx@@QEAA@AEBV01@@Z 0000000180031220 f i ConvexHullUtils.obj
 0001:00030280       ??0PxQuat@physx@@QEAA@AEBVPxMat33@1@@Z 0000000180031280 f i ConvexHullUtils.obj
 0001:000306d0       ??0PxQuat@physx@@QEAA@MAEBVPxVec3@1@@Z 00000001800316d0 f i ConvexHullUtils.obj
 0001:000307c0       ??0PxQuat@physx@@QEAA@MMMM@Z 00000001800317c0 f i ConvexHullUtils.obj
 0001:00030820       ??0PxQuat@physx@@QEAA@XZ   0000000180031820 f i ConvexHullUtils.obj
 0001:00030830       ??0PxStridedData@physx@@QEAA@XZ 0000000180031830 f i ConvexHullUtils.obj
 0001:00030860       ??0PxTransform@physx@@QEAA@AEBVPxVec3@1@AEBVPxQuat@1@@Z 0000000180031860 f i ConvexHullUtils.obj
 0001:000308e0       ??1Box@Gu@physx@@QEAA@XZ   00000001800318e0 f i ConvexHullUtils.obj
 0001:000308f0       ??4Box@Gu@physx@@QEAAAEBV012@AEBV012@@Z 00000001800318f0 f i ConvexHullUtils.obj
 0001:00030950       ??4PxMat33@physx@@QEAAAEAV01@AEBV01@@Z 0000000180031950 f i ConvexHullUtils.obj
 0001:000309b0       ??4PxPlane@physx@@QEAAAEAV01@AEBV01@@Z 00000001800319b0 f i ConvexHullUtils.obj
 0001:000309f0       ??4PxQuat@physx@@QEAAAEAV01@AEBV01@@Z 00000001800319f0 f i ConvexHullUtils.obj
 0001:00030a50       ??8PxPlane@physx@@QEBA_NAEBV01@@Z 0000000180031a50 f i ConvexHullUtils.obj
 0001:00030ab0       ??8PxVec3@physx@@QEBA_NAEBV01@@Z 0000000180031ab0 f i ConvexHullUtils.obj
 0001:00030b20       ??A?$Array@VHalfEdge@ConvexHull@physx@@VNamedAllocator@shdfnd@3@@shdfnd@physx@@QEAAAEAVHalfEdge@ConvexHull@2@I@Z 0000000180031b20 f i ConvexHullUtils.obj
 0001:00030ba0       ??A?$Array@VHalfEdge@ConvexHull@physx@@VNamedAllocator@shdfnd@3@@shdfnd@physx@@QEBAAEBVHalfEdge@ConvexHull@2@I@Z 0000000180031ba0 f i ConvexHullUtils.obj
 0001:00030c20       ??A?$Array@VPxPlane@physx@@VNamedAllocator@shdfnd@2@@shdfnd@physx@@QEBAAEBVPxPlane@2@I@Z 0000000180031c20 f i ConvexHullUtils.obj
 0001:00030ca0       ??A?$Array@VPxVec3@physx@@VNamedAllocator@shdfnd@2@@shdfnd@physx@@QEBAAEBVPxVec3@2@I@Z 0000000180031ca0 f i ConvexHullUtils.obj
 0001:00030d20       ??APxMat33@physx@@QEAAAEAVPxVec3@1@I@Z 0000000180031d20 f i ConvexHullUtils.obj
 0001:00030d40       ??APxMat33@physx@@QEBAAEBVPxVec3@1@I@Z 0000000180031d40 f i ConvexHullUtils.obj
 0001:00030d60       ??DPxMat33@physx@@QEBA?BVPxVec3@1@AEBV21@@Z 0000000180031d60 f i ConvexHullUtils.obj
 0001:00030da0       ??DPxQuat@physx@@QEBA?AV01@M@Z 0000000180031da0 f i ConvexHullUtils.obj
 0001:00030e20       ??GPxVec3@physx@@QEBA?AV01@XZ 0000000180031e20 f i ConvexHullUtils.obj
 0001:00030e90       ??RPxMat33@physx@@QEAAAEAMII@Z 0000000180031e90 f i ConvexHullUtils.obj
 0001:00030ed0       ?FAdd@aos@shdfnd@physx@@YA?AT__m128@@T4@0@Z 0000000180031ed0 f i ConvexHullUtils.obj
 0001:00030fe0       ?FMul@aos@shdfnd@physx@@YA?AT__m128@@T4@0@Z 0000000180031fe0 f i ConvexHullUtils.obj
 0001:000310f0       ?FScaleAdd@aos@shdfnd@physx@@YA?AT__m128@@T4@00@Z 00000001800320f0 f i ConvexHullUtils.obj
 0001:000312e0       ?PxCos@physx@@YAMM@Z       00000001800322e0 f i ConvexHullUtils.obj
 0001:00031300       ?PxSin@physx@@YAMM@Z       0000000180032300 f i ConvexHullUtils.obj
 0001:00031320       ?QuatGetMat33V@aos@shdfnd@physx@@YAXAEBT__m128@@AEAT4@11@Z 0000000180032320 f i ConvexHullUtils.obj
 0001:000316d0       ?QuatRotateInv@aos@shdfnd@physx@@YA?AT__m128@@T4@0@Z 00000001800326d0 f i ConvexHullUtils.obj
 0001:000319b0       ?QuatVLoadU@aos@shdfnd@physx@@YA?AT__m128@@PEBM@Z 00000001800329b0 f i ConvexHullUtils.obj
 0001:000319e0       ?V3Cross@aos@shdfnd@physx@@YA?AT__m128@@T4@0@Z 00000001800329e0 f i ConvexHullUtils.obj
 0001:00031bd0       ?V3NegScaleSub@aos@shdfnd@physx@@YA?AT__m128@@T4@00@Z 0000000180032bd0 f i ConvexHullUtils.obj
 0001:00031dc0       ?V3Scale@aos@shdfnd@physx@@YA?AT__m128@@T4@0@Z 0000000180032dc0 f i ConvexHullUtils.obj
 0001:00031ed0       ?V3ScaleAdd@aos@shdfnd@physx@@YA?AT__m128@@T4@00@Z 0000000180032ed0 f i ConvexHullUtils.obj
 0001:000320c0       ?V4GetW@aos@shdfnd@physx@@YA?AT__m128@@T4@@Z 00000001800330c0 f i ConvexHullUtils.obj
 0001:000320f0       ?V4GetX@aos@shdfnd@physx@@YA?AT__m128@@T4@@Z 00000001800330f0 f i ConvexHullUtils.obj
 0001:00032120       ?V4GetY@aos@shdfnd@physx@@YA?AT__m128@@T4@@Z 0000000180033120 f i ConvexHullUtils.obj
 0001:00032150       ?V4GetZ@aos@shdfnd@physx@@YA?AT__m128@@T4@@Z 0000000180033150 f i ConvexHullUtils.obj
 0001:00032180       ?V4Max@aos@shdfnd@physx@@YA?AT__m128@@T4@0@Z 0000000180033180 f i ConvexHullUtils.obj
 0001:000321b0       ?V4Min@aos@shdfnd@physx@@YA?AT__m128@@T4@0@Z 00000001800331b0 f i ConvexHullUtils.obj
 0001:000321e0       ?V4Mul@aos@shdfnd@physx@@YA?AT__m128@@T4@0@Z 00000001800331e0 f i ConvexHullUtils.obj
 0001:00032210       ?V4MulAdd@aos@shdfnd@physx@@YA?AT__m128@@T4@00@Z 0000000180033210 f i ConvexHullUtils.obj
 0001:000322a0       ?V4Neg@aos@shdfnd@physx@@YA?AT__m128@@T4@@Z 00000001800332a0 f i ConvexHullUtils.obj
 0001:000322d0       ?Vec4V_From_Vec3V@aos@shdfnd@physx@@YA?AT__m128@@T4@@Z 00000001800332d0 f i ConvexHullUtils.obj
 0001:000322e0       ?allocate@?$Array@VHalfEdge@ConvexHull@physx@@VNamedAllocator@shdfnd@3@@shdfnd@physx@@IEAAPEAVHalfEdge@ConvexHull@3@I@Z 00000001800332e0 f i ConvexHullUtils.obj
 0001:00032370       ?allocate@?$Array@VPxPlane@physx@@VNamedAllocator@shdfnd@2@@shdfnd@physx@@IEAAPEAVPxPlane@3@I@Z 0000000180033370 f i ConvexHullUtils.obj
 0001:00032400       ?allocate@?$ReflectionAllocator@VConvexHull@physx@@@shdfnd@physx@@QEAAPEAX_KPEBDH@Z 0000000180033400 f i ConvexHullUtils.obj
 0001:00032480       ?begin@?$Array@VHalfEdge@ConvexHull@physx@@VNamedAllocator@shdfnd@3@@shdfnd@physx@@QEAAPEAVHalfEdge@ConvexHull@3@XZ 0000000180033480 f i ConvexHullUtils.obj
 0001:00032490       ?begin@?$Array@VHalfEdge@ConvexHull@physx@@VNamedAllocator@shdfnd@3@@shdfnd@physx@@QEBAPEBVHalfEdge@ConvexHull@3@XZ 0000000180033490 f i ConvexHullUtils.obj
 0001:000324a0       ?begin@?$Array@VPxPlane@physx@@VNamedAllocator@shdfnd@2@@shdfnd@physx@@QEAAPEAVPxPlane@3@XZ 00000001800334a0 f i ConvexHullUtils.obj
 0001:000324b0       ?begin@?$Array@VPxPlane@physx@@VNamedAllocator@shdfnd@2@@shdfnd@physx@@QEBAPEBVPxPlane@3@XZ 00000001800334b0 f i ConvexHullUtils.obj
 0001:000324c0       ?begin@?$Array@VPxVec3@physx@@VNamedAllocator@shdfnd@2@@shdfnd@physx@@QEBAPEBVPxVec3@3@XZ 00000001800334c0 f i ConvexHullUtils.obj
 0001:000324d0       ?capacity@?$Array@VHalfEdge@ConvexHull@physx@@VNamedAllocator@shdfnd@3@@shdfnd@physx@@QEBAIXZ 00000001800334d0 f i ConvexHullUtils.obj
 0001:000324f0       ?capacity@?$Array@VPxPlane@physx@@VNamedAllocator@shdfnd@2@@shdfnd@physx@@QEBAIXZ 00000001800334f0 f i ConvexHullUtils.obj
 0001:00032510       ?capacityIncrement@?$Array@VHalfEdge@ConvexHull@physx@@VNamedAllocator@shdfnd@3@@shdfnd@physx@@IEBAIXZ 0000000180033510 f i ConvexHullUtils.obj
 0001:00032550       ?capacityIncrement@?$Array@VPxPlane@physx@@VNamedAllocator@shdfnd@2@@shdfnd@physx@@IEBAIXZ 0000000180033550 f i ConvexHullUtils.obj
 0001:00032590       ?computeAABBExtent@Box@Gu@physx@@QEBA?AVPxVec3@3@XZ 0000000180033590 f i ConvexHullUtils.obj
 0001:00032810       ?computeBoxPoints@Box@Gu@physx@@QEBAXPEIAVPxVec3@3@@Z 0000000180033810 f i ConvexHullUtils.obj
 0001:00032870       ?copy@?$Array@VHalfEdge@ConvexHull@physx@@VNamedAllocator@shdfnd@3@@shdfnd@physx@@KAXPEAVHalfEdge@ConvexHull@3@0PEBV453@@Z 0000000180033870 f i ConvexHullUtils.obj
 0001:000328f0       ?copy@?$Array@VPxPlane@physx@@VNamedAllocator@shdfnd@2@@shdfnd@physx@@KAXPEAVPxPlane@3@0PEBV43@@Z 00000001800338f0 f i ConvexHullUtils.obj
 0001:00032970       ?copyHull@ConvexHull@physx@@QEAAXAEBV12@@Z 0000000180033970 f i ConvexHullUtils.obj
 0001:00032b70       ?cos@intrinsics@physx@@YAMM@Z 0000000180033b70 f i ConvexHullUtils.obj
 0001:00032b90       ?create@?$Array@VHalfEdge@ConvexHull@physx@@VNamedAllocator@shdfnd@3@@shdfnd@physx@@KAXPEAVHalfEdge@ConvexHull@3@0AEBV453@@Z 0000000180033b90 f i ConvexHullUtils.obj
 0001:00032bf0       ?create@?$Array@VPxPlane@physx@@VNamedAllocator@shdfnd@2@@shdfnd@physx@@KAXPEAVPxPlane@3@0AEBV43@@Z 0000000180033bf0 f i ConvexHullUtils.obj
 0001:00032c50       ?create@?$Array@VPxVec3@physx@@VNamedAllocator@shdfnd@2@@shdfnd@physx@@KAXPEAVPxVec3@3@0AEBV43@@Z 0000000180033c50 f i ConvexHullUtils.obj
 0001:00032cb0       ?deallocate@?$Array@VHalfEdge@ConvexHull@physx@@VNamedAllocator@shdfnd@3@@shdfnd@physx@@IEAAXPEAX@Z 0000000180033cb0 f i ConvexHullUtils.obj
 0001:00032ce0       ?deallocate@?$Array@VPxPlane@physx@@VNamedAllocator@shdfnd@2@@shdfnd@physx@@IEAAXPEAX@Z 0000000180033ce0 f i ConvexHullUtils.obj
 0001:00032d10       ?degToRad@shdfnd@physx@@YAMM@Z 0000000180033d10 f i ConvexHullUtils.obj
 0001:00032d30       ?destroy@?$Array@VHalfEdge@ConvexHull@physx@@VNamedAllocator@shdfnd@3@@shdfnd@physx@@KAXPEAVHalfEdge@ConvexHull@3@0@Z 0000000180033d30 f i ConvexHullUtils.obj
 0001:00032d60       ?destroy@?$Array@VPxPlane@physx@@VNamedAllocator@shdfnd@2@@shdfnd@physx@@KAXPEAVPxPlane@3@0@Z 0000000180033d60 f i ConvexHullUtils.obj
 0001:00032d90       ?getDeterminant@PxMat33@physx@@QEBAMXZ 0000000180033d90 f i ConvexHullUtils.obj
 0001:00032dd0       ?getEdges@ConvexHull@physx@@QEAAAEAV?$Array@VHalfEdge@ConvexHull@physx@@VNamedAllocator@shdfnd@3@@shdfnd@2@XZ 0000000180033dd0 f i ConvexHullUtils.obj
 0001:00032de0       ?getEdges@ConvexHull@physx@@QEBAAEBV?$Array@VHalfEdge@ConvexHull@physx@@VNamedAllocator@shdfnd@3@@shdfnd@2@XZ 0000000180033de0 f i ConvexHullUtils.obj
 0001:00032df0       ?getFacets@ConvexHull@physx@@QEAAAEAV?$Array@VPxPlane@physx@@VNamedAllocator@shdfnd@2@@shdfnd@2@XZ 0000000180033df0 f i ConvexHullUtils.obj
 0001:00032e00       ?getFacets@ConvexHull@physx@@QEBAAEBV?$Array@VPxPlane@physx@@VNamedAllocator@shdfnd@2@@shdfnd@2@XZ 0000000180033e00 f i ConvexHullUtils.obj
 0001:00032e10       ?getInputPlanes@ConvexHull@physx@@QEBAAEBV?$Array@VPxPlane@physx@@VNamedAllocator@shdfnd@2@@shdfnd@2@XZ 0000000180033e10 f i ConvexHullUtils.obj
 0001:00032e20       ?getInverse@PxMat33@physx@@QEBA?BV12@XZ 0000000180033e20 f i ConvexHullUtils.obj
 0001:000330f0       ?getName@?$ReflectionAllocator@VConvexHull@physx@@@shdfnd@physx@@CAPEBDXZ 00000001800340f0 f i ConvexHullUtils.obj
 0001:00033130       ?getOriginInertia@PxIntegrals@physx@@QEAAXAEAVPxMat33@2@@Z 0000000180034130 f i ConvexHullUtils.obj
 0001:000331c0       ?getTransform@Box@Gu@physx@@QEBA?AVPxTransform@3@XZ 00000001800341c0 f i ConvexHullUtils.obj
 0001:00033210       ?getTranspose@PxMat33@physx@@QEBA?BV12@XZ 0000000180034210 f i ConvexHullUtils.obj
 0001:000332c0       ?getVertices@ConvexHull@physx@@QEAAAEAV?$Array@VPxVec3@physx@@VNamedAllocator@shdfnd@2@@shdfnd@2@XZ 00000001800342c0 f i ConvexHullUtils.obj
 0001:000332d0       ?getVertices@ConvexHull@physx@@QEBAAEBV?$Array@VPxVec3@physx@@VNamedAllocator@shdfnd@2@@shdfnd@2@XZ 00000001800342d0 f i ConvexHullUtils.obj
 0001:000332e0       ?grow@?$Array@VHalfEdge@ConvexHull@physx@@VNamedAllocator@shdfnd@3@@shdfnd@physx@@IEAAXI@Z 00000001800342e0 f i ConvexHullUtils.obj
 0001:00033360       ?grow@?$Array@VPxPlane@physx@@VNamedAllocator@shdfnd@2@@shdfnd@physx@@IEAAXI@Z 0000000180034360 f i ConvexHullUtils.obj
 0001:000333e0       ?growAndPushBack@?$Array@VHalfEdge@ConvexHull@physx@@VNamedAllocator@shdfnd@3@@shdfnd@physx@@IEAAAEAVHalfEdge@ConvexHull@3@AEBV453@@Z 00000001800343e0 f i ConvexHullUtils.obj
 0001:00033560       ?growAndPushBack@?$Array@VPxPlane@physx@@VNamedAllocator@shdfnd@2@@shdfnd@physx@@IEAAAEAVPxPlane@3@AEBV43@@Z 0000000180034560 f i ConvexHullUtils.obj
 0001:000336f0       ?isFinite@PxQuat@physx@@QEBA_NXZ 00000001800346f0 f i ConvexHullUtils.obj
 0001:00033770       ?isInUserMemory@?$Array@VHalfEdge@ConvexHull@physx@@VNamedAllocator@shdfnd@3@@shdfnd@physx@@QEBAIXZ 0000000180034770 f i ConvexHullUtils.obj
 0001:00033790       ?isInUserMemory@?$Array@VPxPlane@physx@@VNamedAllocator@shdfnd@2@@shdfnd@physx@@QEBAIXZ 0000000180034790 f i ConvexHullUtils.obj
 0001:000337b0       ?isSane@PxQuat@physx@@QEBA_NXZ 00000001800347b0 f i ConvexHullUtils.obj
 0001:00033820       ?isValid@Box@Gu@physx@@QEBA_NXZ 0000000180034820 f i ConvexHullUtils.obj
 0001:00033860       ?magnitude@PxQuat@physx@@QEBAMXZ 0000000180034860 f i ConvexHullUtils.obj
 0001:00033880       ?magnitudeSquared@PxQuat@physx@@QEBAMXZ 0000000180034880 f i ConvexHullUtils.obj
 0001:000338e0       ?pushBack@?$Array@VHalfEdge@ConvexHull@physx@@VNamedAllocator@shdfnd@3@@shdfnd@physx@@QEAAAEAVHalfEdge@ConvexHull@3@AEBV453@@Z 00000001800348e0 f i ConvexHullUtils.obj
 0001:00033980       ?pushBack@?$Array@VPxPlane@physx@@VNamedAllocator@shdfnd@2@@shdfnd@physx@@QEAAAEAVPxPlane@3@AEBV43@@Z 0000000180034980 f i ConvexHullUtils.obj
 0001:00033a20       ?recreate@?$Array@VHalfEdge@ConvexHull@physx@@VNamedAllocator@shdfnd@3@@shdfnd@physx@@IEAAXI@Z 0000000180034a20 f i ConvexHullUtils.obj
 0001:00033b30       ?recreate@?$Array@VPxPlane@physx@@VNamedAllocator@shdfnd@2@@shdfnd@physx@@IEAAXI@Z 0000000180034b30 f i ConvexHullUtils.obj
 0001:00033c50       ?reserve@?$Array@VHalfEdge@ConvexHull@physx@@VNamedAllocator@shdfnd@3@@shdfnd@physx@@QEAAXI@Z 0000000180034c50 f i ConvexHullUtils.obj
 0001:00033c80       ?reserve@?$Array@VPxPlane@physx@@VNamedAllocator@shdfnd@2@@shdfnd@physx@@QEAAXI@Z 0000000180034c80 f i ConvexHullUtils.obj
 0001:00033cb0       ?resize@?$Array@VHalfEdge@ConvexHull@physx@@VNamedAllocator@shdfnd@3@@shdfnd@physx@@QEAAXIAEBVHalfEdge@ConvexHull@3@@Z 0000000180034cb0 f i ConvexHullUtils.obj
 0001:00033d40       ?resize@?$Array@VPxPlane@physx@@VNamedAllocator@shdfnd@2@@shdfnd@physx@@QEAAXIAEBVPxPlane@3@@Z 0000000180034d40 f i ConvexHullUtils.obj
 0001:00033dd0       ?resize@?$Array@VPxVec3@physx@@VNamedAllocator@shdfnd@2@@shdfnd@physx@@QEAAXIAEBVPxVec3@3@@Z 0000000180034dd0 f i ConvexHullUtils.obj
 0001:00033e60       ?rotate@Box@Gu@physx@@QEBA?AVPxVec3@3@AEBV43@@Z 0000000180034e60 f i ConvexHullUtils.obj
 0001:00033ea0       ?rotateInv@Box@Gu@physx@@QEBA?AVPxVec3@3@AEBV43@@Z 0000000180034ea0 f i ConvexHullUtils.obj
 0001:00033ee0       ?setAxes@Box@Gu@physx@@QEAAXAEBVPxVec3@3@00@Z 0000000180034ee0 f i ConvexHullUtils.obj
 0001:00033f40       ?setEmpty@Box@Gu@physx@@QEAAXXZ 0000000180034f40 f i ConvexHullUtils.obj
 0001:00033fc0       ?sin@intrinsics@physx@@YAMM@Z 0000000180034fc0 f i ConvexHullUtils.obj
 0001:00033fe0       ?size@?$Array@VHalfEdge@ConvexHull@physx@@VNamedAllocator@shdfnd@3@@shdfnd@physx@@QEBAIXZ 0000000180034fe0 f i ConvexHullUtils.obj
 0001:00033ff0       ?size@?$Array@VPxPlane@physx@@VNamedAllocator@shdfnd@2@@shdfnd@physx@@QEBAIXZ 0000000180034ff0 f i ConvexHullUtils.obj
 0001:00034000       ?threePlaneIntersection@physx@@YA?AVPxVec3@1@AEBVPxPlane@1@00@Z 0000000180035000 f i ConvexHullUtils.obj
 0001:000340d0       ?to8@shdfnd@physx@@YAEG@Z  00000001800350d0 f i ConvexHullUtils.obj
 0001:00034140       ?transform@Box@Gu@physx@@QEBA?AVPxVec3@3@AEBV43@@Z 0000000180035140 f i ConvexHullUtils.obj
 0001:000341a0       ?transform@PxMat33@physx@@QEBA?BVPxVec3@2@AEBV32@@Z 00000001800351a0 f i ConvexHullUtils.obj
 0001:00034250       ?transformTranspose@PxMat33@physx@@QEBA?BVPxVec3@2@AEBV32@@Z 0000000180035250 f i ConvexHullUtils.obj
 0001:00034390       ??0ConvexMeshBuilder@physx@@QEAA@_N@Z 0000000180035390 f   ConvexMeshBuilder.obj
 0001:00034410       ??1ConvexMeshBuilder@physx@@QEAA@XZ 0000000180035410 f   ConvexMeshBuilder.obj
 0001:00034490       ?build@ConvexMeshBuilder@physx@@QEAA_NAEBVPxConvexMeshDesc@2@I_NPEAVConvexHullLib@2@@Z 0000000180035490 f   ConvexMeshBuilder.obj
 0001:000345b0       ?save@ConvexMeshBuilder@physx@@QEBA_NAEAVPxOutputStream@2@_N@Z 00000001800355b0 f   ConvexMeshBuilder.obj
 0001:000348f0       ?copy@ConvexMeshBuilder@physx@@QEAA_NAEAUConvexHullInitData@Gu@2@@Z 00000001800358f0 f   ConvexMeshBuilder.obj
 0001:00034aa0       ?loadConvexHull@ConvexMeshBuilder@physx@@QEAA_NAEBVPxConvexMeshDesc@2@PEAVConvexHullLib@2@@Z 0000000180035aa0 f   ConvexMeshBuilder.obj
 0001:00034ed0       ?computeHullPolygons@ConvexMeshBuilder@physx@@QEAA_NAEBIPEBVPxVec3@2@0PEBIAEAVPxAllocatorCallback@2@AEAIAEAPEAV32@4AEAPEAI4AEAPEAUPxHullPolygon@2@@Z 0000000180035ed0 f   ConvexMeshBuilder.obj
 0001:00035310       ?computeGaussMaps@ConvexMeshBuilder@physx@@QEAA_NXZ 0000000180036310 f   ConvexMeshBuilder.obj
 0001:00035460       ?computeMassInfo@ConvexMeshBuilder@physx@@QEAAX_N@Z 0000000180036460 f   ConvexMeshBuilder.obj
 0001:000357b0       ?computeInternalObjects@ConvexMeshBuilder@physx@@QEAAXXZ 00000001800367b0 f   ConvexMeshBuilder.obj
 0001:000360b0       ??0?$ReflectionAllocator@VBigConvexData@physx@@@shdfnd@physx@@QEAA@PEBD@Z 00000001800370b0 f i ConvexMeshBuilder.obj
 0001:000360c0       ??0CenterExtents@Gu@physx@@QEAA@AEBVPxBounds3@2@@Z 00000001800370c0 f i ConvexMeshBuilder.obj
 0001:00036140       ??GPxMat33@physx@@QEBA?BV01@XZ 0000000180037140 f i ConvexMeshBuilder.obj
 0001:000361c0       ??_GBigConvexData@physx@@QEAAPEAXI@Z 00000001800371c0 f i ConvexMeshBuilder.obj
 0001:00036220       ?allocate@?$ReflectionAllocator@VBigConvexData@physx@@@shdfnd@physx@@QEAAPEAX_KPEBDH@Z 0000000180037220 f i ConvexMeshBuilder.obj
 0001:000362a0       ?getExtents@PxBounds3@physx@@QEBA?AVPxVec3@2@XZ 00000001800372a0 f i ConvexMeshBuilder.obj
 0001:00036310       ?getMax@CenterExtents@Gu@physx@@QEBA?AVPxVec3@3@XZ 0000000180037310 f i ConvexMeshBuilder.obj
 0001:00036350       ?getMin@CenterExtents@Gu@physx@@QEBA?AVPxVec3@3@XZ 0000000180037350 f i ConvexMeshBuilder.obj
 0001:00036390       ?getName@?$ReflectionAllocator@VBigConvexData@physx@@@shdfnd@physx@@CAPEBDXZ 0000000180037390 f i ConvexMeshBuilder.obj
 0001:000363d0       ?getNextIndex3@shdfnd@physx@@YAII@Z 00000001800373d0 f i ConvexMeshBuilder.obj
 0001:000363f0       ?largestAxis@shdfnd@physx@@YAIAEBVPxVec3@2@@Z 00000001800373f0 f i ConvexMeshBuilder.obj
 0001:00036460       ??0ConvexPolygonsBuilder@physx@@QEAA@PEAUConvexHullData@Gu@1@_N@Z 0000000180037460 f   ConvexPolygonsBuilder.obj
 0001:000364c0       ??1ConvexPolygonsBuilder@physx@@QEAA@XZ 00000001800374c0 f   ConvexPolygonsBuilder.obj
 0001:00036510       ?computeHullPolygons@ConvexPolygonsBuilder@physx@@QEAA_NAEBIPEBVPxVec3@2@0PEBI@Z 0000000180037510 f   ConvexPolygonsBuilder.obj
 0001:00036a80       ?createPolygonData@ConvexPolygonsBuilder@physx@@AEAA_NXZ 0000000180037a80 f   ConvexPolygonsBuilder.obj
 0001:000379c0       ?createTrianglesFromPolygons@ConvexPolygonsBuilder@physx@@AEAA_NXZ 00000001800389c0 f   ConvexPolygonsBuilder.obj
 0001:0003a970       ??$?4VNamedAllocator@shdfnd@physx@@@?$Array@IVNamedAllocator@shdfnd@physx@@@shdfnd@physx@@QEAAAEAV012@AEBV012@@Z 000000018003b970 f i ConvexPolygonsBuilder.obj
 0001:0003aa00       ??$?_UUHullTriangleData@physx@@@@YAPEAX_KV?$ReflectionAllocator@UHullTriangleData@physx@@@shdfnd@physx@@PEBDH@Z 000000018003ba00 f i ConvexPolygonsBuilder.obj
 0001:0003aa40       ??$PlaneEquation@U?$TriangleT@I@Gu@physx@@@@YA?AVPxPlane@physx@@AEBU?$TriangleT@I@Gu@1@PEBVPxVec3@1@@Z 000000018003ba40 f i ConvexPolygonsBuilder.obj
 0001:0003aaf0       ??$copy@VNamedAllocator@shdfnd@physx@@@?$Array@VPair@@VNamedAllocator@shdfnd@physx@@@shdfnd@physx@@IEAAXAEBV012@@Z 000000018003baf0 f i ConvexPolygonsBuilder.obj
 0001:0003abb0       ??$swap@E@shdfnd@physx@@YAXAEAE0@Z 000000018003bbb0 f i ConvexPolygonsBuilder.obj
 0001:0003abf0       ??0?$Array@VPair@@VNamedAllocator@shdfnd@physx@@@shdfnd@physx@@QEAA@AEBV012@AEBVNamedAllocator@12@@Z 000000018003bbf0 f i ConvexPolygonsBuilder.obj
 0001:0003ac30       ??0?$Array@VPair@@VNamedAllocator@shdfnd@physx@@@shdfnd@physx@@QEAA@AEBVNamedAllocator@12@@Z 000000018003bc30 f i ConvexPolygonsBuilder.obj
 0001:0003ac80       ??0?$ReflectionAllocator@UHullTriangleData@physx@@@shdfnd@physx@@QEAA@PEBD@Z 000000018003bc80 f i ConvexPolygonsBuilder.obj
 0001:0003ac90       ??0ADJACENCIESCREATE@physx@@QEAA@XZ 000000018003bc90 f i ConvexPolygonsBuilder.obj
 0001:0003ace0       ??0Pair@@QEAA@II@Z         000000018003bce0 f i ConvexPolygonsBuilder.obj
 0001:0003ad10       ??1?$Array@VPair@@VNamedAllocator@shdfnd@physx@@@shdfnd@physx@@QEAA@XZ 000000018003bd10 f i ConvexPolygonsBuilder.obj
 0001:0003ad80       ??1Pair@@QEAA@XZ           000000018003bd80 f i ConvexPolygonsBuilder.obj
 0001:0003ad90       ??4?$Array@IVNamedAllocator@shdfnd@physx@@@shdfnd@physx@@QEAAAEAV012@AEBV012@@Z 000000018003bd90 f i ConvexPolygonsBuilder.obj
 0001:0003adc0       ??A?$Array@VPair@@VNamedAllocator@shdfnd@physx@@@shdfnd@physx@@QEAAAEAVPair@@I@Z 000000018003bdc0 f i ConvexPolygonsBuilder.obj
 0001:0003ae40       ??_GPair@@QEAAPEAXI@Z      000000018003be40 f i ConvexPolygonsBuilder.obj
 0001:0003aea0       ?GetAdjTri@AdjTriangle@physx@@QEBAIW4SharedEdgeIndex@2@@Z 000000018003bea0 f i ConvexPolygonsBuilder.obj
 0001:0003aec0       ?HasActiveEdge@AdjTriangle@physx@@QEBAHI@Z 000000018003bec0 f i ConvexPolygonsBuilder.obj
 0001:0003aee0       ?allocate@?$Array@VPair@@VNamedAllocator@shdfnd@physx@@@shdfnd@physx@@IEAAPEAVPair@@I@Z 000000018003bee0 f i ConvexPolygonsBuilder.obj
 0001:0003af70       ?allocate@?$ReflectionAllocator@UHullTriangleData@physx@@@shdfnd@physx@@QEAAPEAX_KPEBDH@Z 000000018003bf70 f i ConvexPolygonsBuilder.obj
 0001:0003aff0       ?begin@?$Array@VPair@@VNamedAllocator@shdfnd@physx@@@shdfnd@physx@@QEAAPEAVPair@@XZ 000000018003bff0 f i ConvexPolygonsBuilder.obj
 0001:0003b000       ?begin@?$Array@VPair@@VNamedAllocator@shdfnd@physx@@@shdfnd@physx@@QEBAPEBVPair@@XZ 000000018003c000 f i ConvexPolygonsBuilder.obj
 0001:0003b010       ?capacity@?$Array@VPair@@VNamedAllocator@shdfnd@physx@@@shdfnd@physx@@QEBAIXZ 000000018003c010 f i ConvexPolygonsBuilder.obj
 0001:0003b030       ?capacityIncrement@?$Array@VPair@@VNamedAllocator@shdfnd@physx@@@shdfnd@physx@@IEBAIXZ 000000018003c030 f i ConvexPolygonsBuilder.obj
 0001:0003b070       ?clear@?$Array@IVNamedAllocator@shdfnd@physx@@@shdfnd@physx@@QEAAXXZ 000000018003c070 f i ConvexPolygonsBuilder.obj
 0001:0003b0b0       ?copy@?$Array@VPair@@VNamedAllocator@shdfnd@physx@@@shdfnd@physx@@KAXPEAVPair@@0PEBV4@@Z 000000018003c0b0 f i ConvexPolygonsBuilder.obj
 0001:0003b130       ?deallocate@?$Array@VPair@@VNamedAllocator@shdfnd@physx@@@shdfnd@physx@@IEAAXPEAX@Z 000000018003c130 f i ConvexPolygonsBuilder.obj
 0001:0003b160       ?destroy@?$Array@VPair@@VNamedAllocator@shdfnd@physx@@@shdfnd@physx@@KAXPEAVPair@@0@Z 000000018003c160 f i ConvexPolygonsBuilder.obj
 0001:0003b1a0       ?empty@?$Array@VPair@@VNamedAllocator@shdfnd@physx@@@shdfnd@physx@@QEBA_NXZ 000000018003c1a0 f i ConvexPolygonsBuilder.obj
 0001:0003b1d0       ?end@?$Array@IVNamedAllocator@shdfnd@physx@@@shdfnd@physx@@QEAAPEAIXZ 000000018003c1d0 f i ConvexPolygonsBuilder.obj
 0001:0003b1f0       ?find@?$Array@IVNamedAllocator@shdfnd@physx@@@shdfnd@physx@@QEAAPEAIAEBI@Z 000000018003c1f0 f i ConvexPolygonsBuilder.obj
 0001:0003b250       ?flip@?$TriangleT@I@Gu@physx@@QEAAXXZ 000000018003c250 f i ConvexPolygonsBuilder.obj
 0001:0003b290       ?forceSize_Unsafe@?$Array@IVNamedAllocator@shdfnd@physx@@@shdfnd@physx@@QEAAXI@Z 000000018003c290 f i ConvexPolygonsBuilder.obj
 0001:0003b310       ?getFaces@ConvexPolygonsBuilder@physx@@QEBAPEBUHullTriangleData@2@XZ 000000018003c310 f i ConvexPolygonsBuilder.obj
 0001:0003b320       ?getName@?$ReflectionAllocator@UHullTriangleData@physx@@@shdfnd@physx@@CAPEBDXZ 000000018003c320 f i ConvexPolygonsBuilder.obj
 0001:0003b360       ?getNbFaces@ConvexPolygonsBuilder@physx@@QEBAIXZ 000000018003c360 f i ConvexPolygonsBuilder.obj
 0001:0003b370       ?growAndPushBack@?$Array@VPair@@VNamedAllocator@shdfnd@physx@@@shdfnd@physx@@IEAAAEAVPair@@AEBV4@@Z 000000018003c370 f i ConvexPolygonsBuilder.obj
 0001:0003b510       ?isInUserMemory@?$Array@VPair@@VNamedAllocator@shdfnd@physx@@@shdfnd@physx@@QEBAIXZ 000000018003c510 f i ConvexPolygonsBuilder.obj
 0001:0003b530       ?pushBack@?$Array@VPair@@VNamedAllocator@shdfnd@physx@@@shdfnd@physx@@QEAAAEAVPair@@AEBV4@@Z 000000018003c530 f i ConvexPolygonsBuilder.obj
 0001:0003b5f0       ?remove@?$Array@IVNamedAllocator@shdfnd@physx@@@shdfnd@physx@@QEAAXI@Z 000000018003c5f0 f i ConvexPolygonsBuilder.obj
 0001:0003b6d0       ?remove@?$Array@VPair@@VNamedAllocator@shdfnd@physx@@@shdfnd@physx@@QEAAXI@Z 000000018003c6d0 f i ConvexPolygonsBuilder.obj
 0001:0003b7f0       ?size@?$Array@VPair@@VNamedAllocator@shdfnd@physx@@@shdfnd@physx@@QEBAIXZ 000000018003c7f0 f i ConvexPolygonsBuilder.obj
 0001:0003b880       ??0QuickHullConvexHullLib@physx@@QEAA@AEBVPxConvexMeshDesc@1@AEBUPxCookingParams@1@@Z 000000018003c880 f   QuickHullConvexHullLib.obj
 0001:0003b980       ??1QuickHullConvexHullLib@physx@@UEAA@XZ 000000018003c980 f   QuickHullConvexHullLib.obj
 0001:0003ba60       ?createConvexHull@QuickHullConvexHullLib@physx@@UEAA?AW4Enum@PxConvexMeshCookingResult@2@XZ 000000018003ca60 f   QuickHullConvexHullLib.obj
 0001:0003c000       ?fillConvexMeshDesc@QuickHullConvexHullLib@physx@@UEAAXAEAVPxConvexMeshDesc@2@@Z 000000018003d000 f   QuickHullConvexHullLib.obj
 0001:0003c090       ?createEdgeList@QuickHullConvexHullLib@physx@@UEAA_NIPEBEPEAPEAEPEAPEAG2@Z 000000018003d090 f   QuickHullConvexHullLib.obj
 0001:0003c5e0       ?expandHullOBB@QuickHullConvexHullLib@physx@@IEAA?AW4Enum@PxConvexMeshCookingResult@2@XZ 000000018003d5e0 f   QuickHullConvexHullLib.obj
 0001:0003cbb0       ?expandHull@QuickHullConvexHullLib@physx@@IEAA?AW4Enum@PxConvexMeshCookingResult@2@XZ 000000018003dbb0 f   QuickHullConvexHullLib.obj
 0001:0003d340       ?cleanupForSimplex@QuickHullConvexHullLib@physx@@IEAA_NPEAVPxVec3@2@IPEAUQuickHullVertex@local@@1AEAM2@Z 000000018003e340 f   QuickHullConvexHullLib.obj
 0001:0003ddb0       ?fillConvexMeshDescFromQuickHull@QuickHullConvexHullLib@physx@@IEAAXAEAVPxConvexMeshDesc@2@@Z 000000018003edb0 f   QuickHullConvexHullLib.obj
 0001:0003e590       ?fillConvexMeshDescFromCroppedHull@QuickHullConvexHullLib@physx@@IEAAXAEAVPxConvexMeshDesc@2@@Z 000000018003f590 f   QuickHullConvexHullLib.obj
 0001:0003eb20       ?getOppositeFaceDistance@QuickHullHalfEdge@local@@QEBAMXZ 000000018003fb20 f   QuickHullConvexHullLib.obj
 0001:0003ec20       ?mergeAdjacentFace@QuickHullFace@local@@QEAA_NPEAUQuickHullHalfEdge@2@AEAV?$Array@PEAUQuickHullFace@local@@VNamedAllocator@shdfnd@physx@@@shdfnd@physx@@@Z 000000018003fc20 f   QuickHullConvexHullLib.obj
 0001:0003eea0       ?checkFaceConsistency@QuickHullFace@local@@QEAA_NXZ 000000018003fea0 f   QuickHullConvexHullLib.obj
 0001:0003f150       ?connectHalfEdges@QuickHullFace@local@@AEAAPEAU12@PEAUQuickHullHalfEdge@2@0@Z 0000000180040150 f   QuickHullConvexHullLib.obj
 0001:0003f2d0       ??0QuickHull@local@@QEAA@AEBUPxCookingParams@physx@@AEBVPxConvexMeshDesc@3@@Z 00000001800402d0 f   QuickHullConvexHullLib.obj
 0001:0003f4f0       ??1QuickHull@local@@QEAA@XZ 00000001800404f0 f   QuickHullConvexHullLib.obj
 0001:0003f5a0       ?preallocate@QuickHull@local@@QEAAXI@Z 00000001800405a0 f   QuickHullConvexHullLib.obj
 0001:0003f760       ?parseInputVertices@QuickHull@local@@QEAAXPEBVPxVec3@physx@@I@Z 0000000180040760 f   QuickHullConvexHullLib.obj
 0001:0003f8a0       ?releaseHull@QuickHull@local@@QEAAXXZ 00000001800408a0 f   QuickHullConvexHullLib.obj
 0001:0003f900       ?setPrecomputedMinMax@QuickHull@local@@QEAAXPEBUQuickHullVertex@2@0MM@Z 0000000180040900 f   QuickHullConvexHullLib.obj
 0001:0003f9e0       ?buildHull@QuickHull@local@@QEAA?AW4Enum@QuickHullResult@2@XZ 00000001800409e0 f   QuickHullConvexHullLib.obj
 0001:0003fd10       ?maxNumVertsPerFace@QuickHull@local@@QEBAIXZ 0000000180040d10 f   QuickHullConvexHullLib.obj
 0001:0003fdb0       ?computeMinMaxVerts@QuickHull@local@@IEAAXXZ 0000000180040db0 f   QuickHullConvexHullLib.obj
 0001:00040100       ?findSimplex@QuickHull@local@@IEAA_NXZ 0000000180041100 f   QuickHullConvexHullLib.obj
 0001:00040650       ?addSimplex@QuickHull@local@@IEAAXPEAUQuickHullVertex@2@_N@Z 0000000180041650 f   QuickHullConvexHullLib.obj
 0001:00040e90       ?nextPointToAdd@QuickHull@local@@IEAAPEAUQuickHullVertex@2@AEAPEAUQuickHullFace@2@@Z 0000000180041e90 f   QuickHullConvexHullLib.obj
 0001:00040fe0       ?addPointToHull@QuickHull@local@@IEAA_NPEBUQuickHullVertex@2@AEAUQuickHullFace@2@AEA_N@Z 0000000180041fe0 f   QuickHullConvexHullLib.obj
 0001:00041320       ?createTriangle@QuickHull@local@@IEAAPEAUQuickHullFace@2@AEBUQuickHullVertex@2@00@Z 0000000180042320 f   QuickHullConvexHullLib.obj
 0001:00041460       ?addPointToFace@QuickHull@local@@IEAAXAEAUQuickHullFace@2@PEAUQuickHullVertex@2@M@Z 0000000180042460 f   QuickHullConvexHullLib.obj
 0001:00041590       ?removeEyePointFromFace@QuickHull@local@@IEAAXAEAUQuickHullFace@2@PEBUQuickHullVertex@2@@Z 0000000180042590 f   QuickHullConvexHullLib.obj
 0001:00041630       ?calculateHorizon@QuickHull@local@@IEAAXAEBVPxVec3@physx@@PEAUQuickHullHalfEdge@2@AEAUQuickHullFace@2@AEAV?$Array@PEAUQuickHullHalfEdge@local@@VNamedAllocator@shdfnd@physx@@@shdfnd@4@AEAV?$Array@PEAUQuickHullFace@local@@VNamedAllocator@shdfnd@physx@@@84@@Z 0000000180042630 f   QuickHullConvexHullLib.obj
 0001:000417d0       ?addNewFacesFromHorizon@QuickHull@local@@IEAAXPEBUQuickHullVertex@2@AEBV?$Array@PEAUQuickHullHalfEdge@local@@VNamedAllocator@shdfnd@physx@@@shdfnd@physx@@AEAV?$Array@PEAUQuickHullFace@local@@VNamedAllocator@shdfnd@physx@@@56@@Z 00000001800427d0 f   QuickHullConvexHullLib.obj
 0001:00041940       ?doAdjacentMerge@QuickHull@local@@IEAA_NAEAUQuickHullFace@2@_NAEA_N@Z 0000000180042940 f   QuickHullConvexHullLib.obj
 0001:00041c20       ?doPostAdjacentMerge@QuickHull@local@@IEAA_NAEAUQuickHullFace@2@M@Z 0000000180042c20 f   QuickHullConvexHullLib.obj
 0001:00041e30       ?deleteFacePoints@QuickHull@local@@IEAAXAEAUQuickHullFace@2@PEAU32@@Z 0000000180042e30 f   QuickHullConvexHullLib.obj
 0001:00041f60       ?resolveUnclaimedPoints@QuickHull@local@@IEAAXAEBV?$Array@PEAUQuickHullFace@local@@VNamedAllocator@shdfnd@physx@@@shdfnd@physx@@@Z 0000000180042f60 f   QuickHullConvexHullLib.obj
 0001:000420d0       ?postMergeHull@QuickHull@local@@IEAAXXZ 00000001800430d0 f   QuickHullConvexHullLib.obj
 0001:000421c0       ?canMergeFaces@QuickHull@local@@IEAA_NAEBUQuickHullHalfEdge@2@@Z 00000001800431c0 f   QuickHullConvexHullLib.obj
 0001:00042ab0       ?getExpandPoint@local@@YAXAEBUQuickHullHalfEdge@1@AEAUExpandPoint@1@PEBV?$Array@IVNamedAllocator@shdfnd@physx@@@shdfnd@physx@@@Z 0000000180043ab0 f   QuickHullConvexHullLib.obj
 0001:00042d00       ?addExpandPoint@local@@YAXAEBUExpandPoint@1@AEAV?$Array@UExpandPoint@local@@VNamedAllocator@shdfnd@physx@@@shdfnd@physx@@@Z 0000000180043d00 f   QuickHullConvexHullLib.obj
 0001:00042e50       ??$?2V?$ReflectionAllocator@VQuickHull@local@@@shdfnd@physx@@@UserAllocated@shdfnd@physx@@SAPEAX_KV?$ReflectionAllocator@VQuickHull@local@@@12@PEBDH@Z 0000000180043e50 f i QuickHullConvexHullLib.obj
 0001:00042e90       ??$PX_UNUSED@PEAUQuickHullFace@local@@@@YAXAEBQEAUQuickHullFace@local@@@Z 0000000180043e90 f i QuickHullConvexHullLib.obj
 0001:00042ea0       ??$PX_UNUSED@PEBUQuickHullVertex@local@@@@YAXAEBQEBUQuickHullVertex@local@@@Z 0000000180043ea0 f i QuickHullConvexHullLib.obj
 0001:00042eb0       ??0?$Array@PEAUQuickHullFace@local@@VNamedAllocator@shdfnd@physx@@@shdfnd@physx@@QEAA@AEBVNamedAllocator@12@@Z 0000000180043eb0 f i QuickHullConvexHullLib.obj
 0001:00042f00       ??0?$Array@PEAUQuickHullHalfEdge@local@@VNamedAllocator@shdfnd@physx@@@shdfnd@physx@@QEAA@AEBVNamedAllocator@12@@Z 0000000180043f00 f i QuickHullConvexHullLib.obj
 0001:00042f50       ??0?$Array@PEAUQuickHullVertex@local@@VNamedAllocator@shdfnd@physx@@@shdfnd@physx@@QEAA@AEBVNamedAllocator@12@@Z 0000000180043f50 f i QuickHullConvexHullLib.obj
 0001:00042fa0       ??0?$Array@UExpandPoint@local@@VNamedAllocator@shdfnd@physx@@@shdfnd@physx@@QEAA@AEBVNamedAllocator@12@@Z 0000000180043fa0 f i QuickHullConvexHullLib.obj
 0001:00042ff0       ??0?$MemBlock@UQuickHullFace@local@@$00@local@@QEAA@XZ 0000000180043ff0 f i QuickHullConvexHullLib.obj
 0001:00043050       ??0?$MemBlock@UQuickHullHalfEdge@local@@$0A@@local@@QEAA@XZ 0000000180044050 f i QuickHullConvexHullLib.obj
 0001:000430b0       ??0?$ReflectionAllocator@VQuickHull@local@@@shdfnd@physx@@QEAA@PEBD@Z 00000001800440b0 f i QuickHullConvexHullLib.obj
 0001:000430c0       ??0?$ScopedPointer@UQuickHullHalfEdge@local@@VTempAllocator@shdfnd@physx@@@shdfnd@physx@@QEAA@XZ 00000001800440c0 f i QuickHullConvexHullLib.obj
 0001:000430e0       ??0?$ScopedPointer@VPxVec3@physx@@VTempAllocator@shdfnd@2@@shdfnd@physx@@QEAA@XZ 00000001800440e0 f i QuickHullConvexHullLib.obj
 0001:00043100       ??0ConvexHullLib@physx@@QEAA@AEBVPxConvexMeshDesc@1@AEBUPxCookingParams@1@@Z 0000000180044100 f i QuickHullConvexHullLib.obj
 0001:00043180       ??0ExpandPoint@local@@QEAA@AEBU01@@Z 0000000180044180 f i QuickHullConvexHullLib.obj
 0001:000431e0       ??0ExpandPoint@local@@QEAA@XZ 00000001800441e0 f i QuickHullConvexHullLib.obj
 0001:00043220       ??0PxTransform@physx@@QEAA@XZ 0000000180044220 f i QuickHullConvexHullLib.obj
 0001:00043260       ??0QuickHullFace@local@@QEAA@I@Z 0000000180044260 f i QuickHullConvexHullLib.obj
 0001:00043320       ??0QuickHullFace@local@@QEAA@XZ 0000000180044320 f i QuickHullConvexHullLib.obj
 0001:000433d0       ??0QuickHullHalfEdge@local@@QEAA@I@Z 00000001800443d0 f i QuickHullConvexHullLib.obj
 0001:00043440       ??0QuickHullVertex@local@@QEAA@XZ 0000000180044440 f i QuickHullConvexHullLib.obj
 0001:00043460       ??1?$Array@PEAUQuickHullFace@local@@VNamedAllocator@shdfnd@physx@@@shdfnd@physx@@QEAA@XZ 0000000180044460 f i QuickHullConvexHullLib.obj
 0001:000434d0       ??1?$Array@PEAUQuickHullHalfEdge@local@@VNamedAllocator@shdfnd@physx@@@shdfnd@physx@@QEAA@XZ 00000001800444d0 f i QuickHullConvexHullLib.obj
 0001:00043540       ??1?$Array@PEAUQuickHullVertex@local@@VNamedAllocator@shdfnd@physx@@@shdfnd@physx@@QEAA@XZ 0000000180044540 f i QuickHullConvexHullLib.obj
 0001:000435b0       ??1?$Array@UExpandPoint@local@@VNamedAllocator@shdfnd@physx@@@shdfnd@physx@@QEAA@XZ 00000001800445b0 f i QuickHullConvexHullLib.obj
 0001:00043620       ??1?$Array@VHalfEdge@ConvexHull@physx@@VNamedAllocator@shdfnd@3@@shdfnd@physx@@QEAA@XZ 0000000180044620 f i QuickHullConvexHullLib.obj
 0001:00043690       ??1?$Array@VPxPlane@physx@@VNamedAllocator@shdfnd@2@@shdfnd@physx@@QEAA@XZ 0000000180044690 f i QuickHullConvexHullLib.obj
 0001:00043700       ??1?$MemBlock@UQuickHullFace@local@@$00@local@@QEAA@XZ 0000000180044700 f i QuickHullConvexHullLib.obj
 0001:000437a0       ??1?$MemBlock@UQuickHullHalfEdge@local@@$0A@@local@@QEAA@XZ 00000001800447a0 f i QuickHullConvexHullLib.obj
 0001:00043840       ??1?$ScopedPointer@UQuickHullHalfEdge@local@@VTempAllocator@shdfnd@physx@@@shdfnd@physx@@QEAA@XZ 0000000180044840 f i QuickHullConvexHullLib.obj
 0001:00043870       ??1?$ScopedPointer@VPxVec3@physx@@VTempAllocator@shdfnd@2@@shdfnd@physx@@QEAA@XZ 0000000180044870 f i QuickHullConvexHullLib.obj
 0001:000438a0       ??1ConvexHull@physx@@QEAA@XZ 00000001800448a0 f i QuickHullConvexHullLib.obj
 0001:000438e0       ??1QuickHullFace@local@@QEAA@XZ 00000001800448e0 f i QuickHullConvexHullLib.obj
 0001:000438f0       ??4?$PxFlags@W4Enum@PxConvexFlag@physx@@G@physx@@QEAAAEAV01@AEBV01@@Z 00000001800448f0 f i QuickHullConvexHullLib.obj
 0001:00043910       ??4QuickHullVertex@local@@QEAAAEAU01@AEBU01@@Z 0000000180044910 f i QuickHullConvexHullLib.obj
 0001:00043970       ??8ExpandPoint@local@@QEBA_NAEBU01@@Z 0000000180044970 f i QuickHullConvexHullLib.obj
 0001:00043a00       ??8QuickHullVertex@local@@QEBA_NAEBU01@@Z 0000000180044a00 f i QuickHullConvexHullLib.obj
 0001:00043a40       ??A?$Array@IVNamedAllocator@shdfnd@physx@@@shdfnd@physx@@QEBAAEBII@Z 0000000180044a40 f i QuickHullConvexHullLib.obj
 0001:00043ac0       ??A?$Array@PEAUQuickHullFace@local@@VNamedAllocator@shdfnd@physx@@@shdfnd@physx@@QEAAAEAPEAUQuickHullFace@local@@I@Z 0000000180044ac0 f i QuickHullConvexHullLib.obj
 0001:00043b40       ??A?$Array@PEAUQuickHullFace@local@@VNamedAllocator@shdfnd@physx@@@shdfnd@physx@@QEBAAEBQEAUQuickHullFace@local@@I@Z 0000000180044b40 f i QuickHullConvexHullLib.obj
 0001:00043bc0       ??A?$Array@PEAUQuickHullHalfEdge@local@@VNamedAllocator@shdfnd@physx@@@shdfnd@physx@@QEAAAEAPEAUQuickHullHalfEdge@local@@I@Z 0000000180044bc0 f i QuickHullConvexHullLib.obj
 0001:00043c40       ??A?$Array@PEAUQuickHullHalfEdge@local@@VNamedAllocator@shdfnd@physx@@@shdfnd@physx@@QEBAAEBQEAUQuickHullHalfEdge@local@@I@Z 0000000180044c40 f i QuickHullConvexHullLib.obj
 0001:00043cc0       ??A?$Array@PEAUQuickHullVertex@local@@VNamedAllocator@shdfnd@physx@@@shdfnd@physx@@QEAAAEAPEAUQuickHullVertex@local@@I@Z 0000000180044cc0 f i QuickHullConvexHullLib.obj
 0001:00043d40       ??A?$Array@UExpandPoint@local@@VNamedAllocator@shdfnd@physx@@@shdfnd@physx@@QEAAAEAUExpandPoint@local@@I@Z 0000000180044d40 f i QuickHullConvexHullLib.obj
 0001:00043dc0       ??A?$Array@VPxPlane@physx@@VNamedAllocator@shdfnd@2@@shdfnd@physx@@QEAAAEAVPxPlane@2@I@Z 0000000180044dc0 f i QuickHullConvexHullLib.obj
 0001:00043e40       ??B?$ScopedPointer@UQuickHullHalfEdge@local@@VTempAllocator@shdfnd@physx@@@shdfnd@physx@@QEBAPEAUQuickHullHalfEdge@local@@XZ 0000000180044e40 f i QuickHullConvexHullLib.obj
 0001:00043e50       ??B?$ScopedPointer@VPxVec3@physx@@VTempAllocator@shdfnd@2@@shdfnd@physx@@QEBAPEAVPxVec3@2@XZ 0000000180044e50 f i QuickHullConvexHullLib.obj
 0001:00043e60       ??KPxVec3@physx@@QEBA?AV01@M@Z 0000000180044e60 f i QuickHullConvexHullLib.obj
 0001:00043ee0       ??_GConvexHull@physx@@QEAAPEAXI@Z 0000000180044ee0 f i QuickHullConvexHullLib.obj
 0001:00043f40       ??_GQuickHull@local@@QEAAPEAXI@Z 0000000180044f40 f i QuickHullConvexHullLib.obj
 0001:00043fa0       ??_EQuickHullConvexHullLib@physx@@UEAAPEAXI@Z 0000000180044fa0 f i QuickHullConvexHullLib.obj
 0001:00043fa0       ??_GQuickHullConvexHullLib@physx@@UEAAPEAXI@Z 0000000180044fa0 f i QuickHullConvexHullLib.obj
 0001:00044000       ??__G@YAXPEAX0_K1P6APEAX00@Z@Z 0000000180045000 f i QuickHullConvexHullLib.obj
 0001:00044090       ?allocate@?$Array@PEAUQuickHullFace@local@@VNamedAllocator@shdfnd@physx@@@shdfnd@physx@@IEAAPEAPEAUQuickHullFace@local@@I@Z 0000000180045090 f i QuickHullConvexHullLib.obj
 0001:00044120       ?allocate@?$Array@PEAUQuickHullHalfEdge@local@@VNamedAllocator@shdfnd@physx@@@shdfnd@physx@@IEAAPEAPEAUQuickHullHalfEdge@local@@I@Z 0000000180045120 f i QuickHullConvexHullLib.obj
 0001:000441b0       ?allocate@?$Array@PEAUQuickHullVertex@local@@VNamedAllocator@shdfnd@physx@@@shdfnd@physx@@IEAAPEAPEAUQuickHullVertex@local@@I@Z 00000001800451b0 f i QuickHullConvexHullLib.obj
 0001:00044240       ?allocate@?$Array@UExpandPoint@local@@VNamedAllocator@shdfnd@physx@@@shdfnd@physx@@IEAAPEAUExpandPoint@local@@I@Z 0000000180045240 f i QuickHullConvexHullLib.obj
 0001:000442d0       ?allocate@?$ReflectionAllocator@VQuickHull@local@@@shdfnd@physx@@QEAAPEAX_KPEBDH@Z 00000001800452d0 f i QuickHullConvexHullLib.obj
 0001:00044350       ?capacity@?$Array@PEAUQuickHullFace@local@@VNamedAllocator@shdfnd@physx@@@shdfnd@physx@@QEBAIXZ 0000000180045350 f i QuickHullConvexHullLib.obj
 0001:00044370       ?capacity@?$Array@PEAUQuickHullHalfEdge@local@@VNamedAllocator@shdfnd@physx@@@shdfnd@physx@@QEBAIXZ 0000000180045370 f i QuickHullConvexHullLib.obj
 0001:00044390       ?capacity@?$Array@PEAUQuickHullVertex@local@@VNamedAllocator@shdfnd@physx@@@shdfnd@physx@@QEBAIXZ 0000000180045390 f i QuickHullConvexHullLib.obj
 0001:000443b0       ?capacity@?$Array@UExpandPoint@local@@VNamedAllocator@shdfnd@physx@@@shdfnd@physx@@QEBAIXZ 00000001800453b0 f i QuickHullConvexHullLib.obj
 0001:000443d0       ?capacityIncrement@?$Array@PEAUQuickHullFace@local@@VNamedAllocator@shdfnd@physx@@@shdfnd@physx@@IEBAIXZ 00000001800453d0 f i QuickHullConvexHullLib.obj
 0001:00044410       ?capacityIncrement@?$Array@PEAUQuickHullHalfEdge@local@@VNamedAllocator@shdfnd@physx@@@shdfnd@physx@@IEBAIXZ 0000000180045410 f i QuickHullConvexHullLib.obj
 0001:00044450       ?capacityIncrement@?$Array@PEAUQuickHullVertex@local@@VNamedAllocator@shdfnd@physx@@@shdfnd@physx@@IEBAIXZ 0000000180045450 f i QuickHullConvexHullLib.obj
 0001:00044490       ?capacityIncrement@?$Array@UExpandPoint@local@@VNamedAllocator@shdfnd@physx@@@shdfnd@physx@@IEBAIXZ 0000000180045490 f i QuickHullConvexHullLib.obj
 0001:000444d0       ?clear@?$Array@PEAUQuickHullFace@local@@VNamedAllocator@shdfnd@physx@@@shdfnd@physx@@QEAAXXZ 00000001800454d0 f i QuickHullConvexHullLib.obj
 0001:00044510       ?clear@?$Array@PEAUQuickHullHalfEdge@local@@VNamedAllocator@shdfnd@physx@@@shdfnd@physx@@QEAAXXZ 0000000180045510 f i QuickHullConvexHullLib.obj
 0001:00044550       ?clear@?$Array@PEAUQuickHullVertex@local@@VNamedAllocator@shdfnd@physx@@@shdfnd@physx@@QEAAXXZ 0000000180045550 f i QuickHullConvexHullLib.obj
 0001:00044590       ?computeNormalAndCentroid@QuickHullFace@local@@QEAAXXZ 0000000180045590 f i QuickHullConvexHullLib.obj
 0001:00044880       ?copy@?$Array@PEAUQuickHullFace@local@@VNamedAllocator@shdfnd@physx@@@shdfnd@physx@@KAXPEAPEAUQuickHullFace@local@@0PEBQEAU45@@Z 0000000180045880 f i QuickHullConvexHullLib.obj
 0001:00044900       ?copy@?$Array@PEAUQuickHullHalfEdge@local@@VNamedAllocator@shdfnd@physx@@@shdfnd@physx@@KAXPEAPEAUQuickHullHalfEdge@local@@0PEBQEAU45@@Z 0000000180045900 f i QuickHullConvexHullLib.obj
 0001:00044980       ?copy@?$Array@PEAUQuickHullVertex@local@@VNamedAllocator@shdfnd@physx@@@shdfnd@physx@@KAXPEAPEAUQuickHullVertex@local@@0PEBQEAU45@@Z 0000000180045980 f i QuickHullConvexHullLib.obj
 0001:00044a00       ?copy@?$Array@UExpandPoint@local@@VNamedAllocator@shdfnd@physx@@@shdfnd@physx@@KAXPEAUExpandPoint@local@@0PEBU45@@Z 0000000180045a00 f i QuickHullConvexHullLib.obj
 0001:00044a80       ?deallocate@?$Array@PEAUQuickHullFace@local@@VNamedAllocator@shdfnd@physx@@@shdfnd@physx@@IEAAXPEAX@Z 0000000180045a80 f i QuickHullConvexHullLib.obj
 0001:00044ab0       ?deallocate@?$Array@PEAUQuickHullHalfEdge@local@@VNamedAllocator@shdfnd@physx@@@shdfnd@physx@@IEAAXPEAX@Z 0000000180045ab0 f i QuickHullConvexHullLib.obj
 0001:00044ae0       ?deallocate@?$Array@PEAUQuickHullVertex@local@@VNamedAllocator@shdfnd@physx@@@shdfnd@physx@@IEAAXPEAX@Z 0000000180045ae0 f i QuickHullConvexHullLib.obj
 0001:00044b10       ?deallocate@?$Array@UExpandPoint@local@@VNamedAllocator@shdfnd@physx@@@shdfnd@physx@@IEAAXPEAX@Z 0000000180045b10 f i QuickHullConvexHullLib.obj
 0001:00044b40       ?destroy@?$Array@PEAUQuickHullFace@local@@VNamedAllocator@shdfnd@physx@@@shdfnd@physx@@KAXPEAPEAUQuickHullFace@local@@0@Z 0000000180045b40 f i QuickHullConvexHullLib.obj
 0001:00044b70       ?destroy@?$Array@PEAUQuickHullHalfEdge@local@@VNamedAllocator@shdfnd@physx@@@shdfnd@physx@@KAXPEAPEAUQuickHullHalfEdge@local@@0@Z 0000000180045b70 f i QuickHullConvexHullLib.obj
 0001:00044ba0       ?destroy@?$Array@PEAUQuickHullVertex@local@@VNamedAllocator@shdfnd@physx@@@shdfnd@physx@@KAXPEAPEAUQuickHullVertex@local@@0@Z 0000000180045ba0 f i QuickHullConvexHullLib.obj
 0001:00044bd0       ?destroy@?$Array@UExpandPoint@local@@VNamedAllocator@shdfnd@physx@@@shdfnd@physx@@KAXPEAUExpandPoint@local@@0@Z 0000000180045bd0 f i QuickHullConvexHullLib.obj
 0001:00044c00       ?distanceToPlane@QuickHullFace@local@@QEBAMVPxVec3@physx@@@Z 0000000180045c00 f i QuickHullConvexHullLib.obj
 0001:00044c40       ?getEdge@QuickHullFace@local@@QEBAPEAUQuickHullHalfEdge@2@I@Z 0000000180045c40 f i QuickHullConvexHullLib.obj
 0001:00044c90       ?getFreeHullFace@QuickHull@local@@IEAAPEAUQuickHullFace@2@XZ 0000000180045c90 f i QuickHullConvexHullLib.obj
 0001:00044cb0       ?getFreeHullHalfEdge@QuickHull@local@@IEAAPEAUQuickHullHalfEdge@2@XZ 0000000180045cb0 f i QuickHullConvexHullLib.obj
 0001:00044cd0       ?getFreeItem@?$MemBlock@UQuickHullFace@local@@$00@local@@QEAAPEAUQuickHullFace@2@XZ 0000000180045cd0 f i QuickHullConvexHullLib.obj
 0001:00044f10       ?getFreeItem@?$MemBlock@UQuickHullHalfEdge@local@@$0A@@local@@QEAAPEAUQuickHullHalfEdge@2@XZ 0000000180045f10 f i QuickHullConvexHullLib.obj
 0001:00045150       ?getHead@QuickHullHalfEdge@local@@QEBAAEBUQuickHullVertex@2@XZ 0000000180046150 f i QuickHullConvexHullLib.obj
 0001:000451c0       ?getItem@?$MemBlock@UQuickHullFace@local@@$00@local@@QEAAPEAUQuickHullFace@2@I@Z 00000001800461c0 f i QuickHullConvexHullLib.obj
 0001:000452d0       ?getName@?$ReflectionAllocator@VQuickHull@local@@@shdfnd@physx@@CAPEBDXZ 00000001800462d0 f i QuickHullConvexHullLib.obj
 0001:00045310       ?getNbHullVerts@QuickHull@local@@IEAAIXZ 0000000180046310 f i QuickHullConvexHullLib.obj
 0001:00045320       ?getOppositeFace@QuickHullHalfEdge@local@@QEBAPEAUQuickHullFace@2@XZ 0000000180046320 f i QuickHullConvexHullLib.obj
 0001:00045340       ?getTail@QuickHullHalfEdge@local@@QEBAAEBUQuickHullVertex@2@XZ 0000000180046340 f i QuickHullConvexHullLib.obj
 0001:00045350       ?grow@?$Array@PEAUQuickHullFace@local@@VNamedAllocator@shdfnd@physx@@@shdfnd@physx@@IEAAXI@Z 0000000180046350 f i QuickHullConvexHullLib.obj
 0001:000453d0       ?grow@?$Array@PEAUQuickHullHalfEdge@local@@VNamedAllocator@shdfnd@physx@@@shdfnd@physx@@IEAAXI@Z 00000001800463d0 f i QuickHullConvexHullLib.obj
 0001:00045450       ?grow@?$Array@PEAUQuickHullVertex@local@@VNamedAllocator@shdfnd@physx@@@shdfnd@physx@@IEAAXI@Z 0000000180046450 f i QuickHullConvexHullLib.obj
 0001:000454d0       ?grow@?$Array@UExpandPoint@local@@VNamedAllocator@shdfnd@physx@@@shdfnd@physx@@IEAAXI@Z 00000001800464d0 f i QuickHullConvexHullLib.obj
 0001:00045550       ?growAndPushBack@?$Array@PEAUQuickHullFace@local@@VNamedAllocator@shdfnd@physx@@@shdfnd@physx@@IEAAAEAPEAUQuickHullFace@local@@AEBQEAU45@@Z 0000000180046550 f i QuickHullConvexHullLib.obj
 0001:000456d0       ?growAndPushBack@?$Array@PEAUQuickHullHalfEdge@local@@VNamedAllocator@shdfnd@physx@@@shdfnd@physx@@IEAAAEAPEAUQuickHullHalfEdge@local@@AEBQEAU45@@Z 00000001800466d0 f i QuickHullConvexHullLib.obj
 0001:00045850       ?growAndPushBack@?$Array@PEAUQuickHullVertex@local@@VNamedAllocator@shdfnd@physx@@@shdfnd@physx@@IEAAAEAPEAUQuickHullVertex@local@@AEBQEAU45@@Z 0000000180046850 f i QuickHullConvexHullLib.obj
 0001:000459d0       ?growAndPushBack@?$Array@UExpandPoint@local@@VNamedAllocator@shdfnd@physx@@@shdfnd@physx@@IEAAAEAUExpandPoint@local@@AEBU45@@Z 00000001800469d0 f i QuickHullConvexHullLib.obj
 0001:00045b60       ?init@?$MemBlock@UQuickHullFace@local@@$00@local@@QEAAXI@Z 0000000180046b60 f i QuickHullConvexHullLib.obj
 0001:00045c90       ?init@?$MemBlock@UQuickHullHalfEdge@local@@$0A@@local@@QEAAXI@Z 0000000180046c90 f i QuickHullConvexHullLib.obj
 0001:00045dc0       ?isInUserMemory@?$Array@PEAUQuickHullFace@local@@VNamedAllocator@shdfnd@physx@@@shdfnd@physx@@QEBAIXZ 0000000180046dc0 f i QuickHullConvexHullLib.obj
 0001:00045de0       ?isInUserMemory@?$Array@PEAUQuickHullHalfEdge@local@@VNamedAllocator@shdfnd@physx@@@shdfnd@physx@@QEBAIXZ 0000000180046de0 f i QuickHullConvexHullLib.obj
 0001:00045e00       ?isInUserMemory@?$Array@PEAUQuickHullVertex@local@@VNamedAllocator@shdfnd@physx@@@shdfnd@physx@@QEBAIXZ 0000000180046e00 f i QuickHullConvexHullLib.obj
 0001:00045e20       ?isInUserMemory@?$Array@UExpandPoint@local@@VNamedAllocator@shdfnd@physx@@@shdfnd@physx@@QEBAIXZ 0000000180046e20 f i QuickHullConvexHullLib.obj
 0001:00045e40       ?isTriangle@QuickHullFace@local@@AEBA_NXZ 0000000180046e40 f i QuickHullConvexHullLib.obj
 0001:00045e70       ?pushBack@?$Array@PEAUQuickHullFace@local@@VNamedAllocator@shdfnd@physx@@@shdfnd@physx@@QEAAAEAPEAUQuickHullFace@local@@AEBQEAU45@@Z 0000000180046e70 f i QuickHullConvexHullLib.obj
 0001:00045f10       ?pushBack@?$Array@PEAUQuickHullHalfEdge@local@@VNamedAllocator@shdfnd@physx@@@shdfnd@physx@@QEAAAEAPEAUQuickHullHalfEdge@local@@AEBQEAU45@@Z 0000000180046f10 f i QuickHullConvexHullLib.obj
 0001:00045fb0       ?pushBack@?$Array@PEAUQuickHullVertex@local@@VNamedAllocator@shdfnd@physx@@@shdfnd@physx@@QEAAAEAPEAUQuickHullVertex@local@@AEBQEAU45@@Z 0000000180046fb0 f i QuickHullConvexHullLib.obj
 0001:00046050       ?pushBack@?$Array@UExpandPoint@local@@VNamedAllocator@shdfnd@physx@@@shdfnd@physx@@QEAAAEAUExpandPoint@local@@AEBU45@@Z 0000000180047050 f i QuickHullConvexHullLib.obj
 0001:000460f0       ?recreate@?$Array@PEAUQuickHullFace@local@@VNamedAllocator@shdfnd@physx@@@shdfnd@physx@@IEAAXI@Z 00000001800470f0 f i QuickHullConvexHullLib.obj
 0001:00046200       ?recreate@?$Array@PEAUQuickHullHalfEdge@local@@VNamedAllocator@shdfnd@physx@@@shdfnd@physx@@IEAAXI@Z 0000000180047200 f i QuickHullConvexHullLib.obj
 0001:00046310       ?recreate@?$Array@PEAUQuickHullVertex@local@@VNamedAllocator@shdfnd@physx@@@shdfnd@physx@@IEAAXI@Z 0000000180047310 f i QuickHullConvexHullLib.obj
 0001:00046420       ?recreate@?$Array@UExpandPoint@local@@VNamedAllocator@shdfnd@physx@@@shdfnd@physx@@IEAAXI@Z 0000000180047420 f i QuickHullConvexHullLib.obj
 0001:00046540       ?reserve@?$Array@PEAUQuickHullFace@local@@VNamedAllocator@shdfnd@physx@@@shdfnd@physx@@QEAAXI@Z 0000000180047540 f i QuickHullConvexHullLib.obj
 0001:00046570       ?reserve@?$Array@PEAUQuickHullHalfEdge@local@@VNamedAllocator@shdfnd@physx@@@shdfnd@physx@@QEAAXI@Z 0000000180047570 f i QuickHullConvexHullLib.obj
 0001:000465a0       ?reserve@?$Array@PEAUQuickHullVertex@local@@VNamedAllocator@shdfnd@physx@@@shdfnd@physx@@QEAAXI@Z 00000001800475a0 f i QuickHullConvexHullLib.obj
 0001:000465d0       ?reserve@?$Array@UExpandPoint@local@@VNamedAllocator@shdfnd@physx@@@shdfnd@physx@@QEAAXI@Z 00000001800475d0 f i QuickHullConvexHullLib.obj
 0001:00046600       ?reset@?$MemBlock@UQuickHullFace@local@@$00@local@@QEAAXXZ 0000000180047600 f i QuickHullConvexHullLib.obj
 0001:000466b0       ?reset@?$MemBlock@UQuickHullHalfEdge@local@@$0A@@local@@QEAAXXZ 00000001800476b0 f i QuickHullConvexHullLib.obj
 0001:00046760       ?setTwin@QuickHullHalfEdge@local@@QEAAXPEAU12@@Z 0000000180047760 f i QuickHullConvexHullLib.obj
 0001:00046790       ?size@?$Array@PEAUQuickHullFace@local@@VNamedAllocator@shdfnd@physx@@@shdfnd@physx@@QEBAIXZ 0000000180047790 f i QuickHullConvexHullLib.obj
 0001:000467a0       ?size@?$Array@PEAUQuickHullHalfEdge@local@@VNamedAllocator@shdfnd@physx@@@shdfnd@physx@@QEBAIXZ 00000001800477a0 f i QuickHullConvexHullLib.obj
 0001:000467b0       ?size@?$Array@PEAUQuickHullVertex@local@@VNamedAllocator@shdfnd@physx@@@shdfnd@physx@@QEBAIXZ 00000001800477b0 f i QuickHullConvexHullLib.obj
 0001:000467c0       ?size@?$Array@UExpandPoint@local@@VNamedAllocator@shdfnd@physx@@@shdfnd@physx@@QEBAIXZ 00000001800477c0 f i QuickHullConvexHullLib.obj
 0001:00046850       ?computeVolumeIntegrals@physx@@YA_NAEBVPxSimpleTriangleMesh@1@MAEAUPxIntegrals@1@@Z 0000000180047850 f   VolumeIntegration.obj
 0001:000468e0       ?computeVolumeIntegralsEberly@physx@@YA_NAEBVPxConvexMeshDesc@1@MAEAUPxIntegrals@1@AEBVPxVec3@1@@Z 00000001800478e0 f   VolumeIntegration.obj
 0001:00046950       ?computeVolumeIntegralsEberlySIMD@physx@@YA_NAEBVPxConvexMeshDesc@1@MAEAUPxIntegrals@1@AEBVPxVec3@1@@Z 0000000180047950 f   VolumeIntegration.obj
 0001:0004c1f0       ??$swap@VPxVec3@physx@@@shdfnd@physx@@YAXAEAVPxVec3@1@0@Z 000000018004d1f0 f i VolumeIntegration.obj
 0001:0004c230       ??0PxSimpleTriangleMesh@physx@@QEAA@XZ 000000018004d230 f i VolumeIntegration.obj
 0001:0004c280       ??4?$PxFlags@W4Enum@PxMeshFlag@physx@@G@physx@@QEAAAEAV01@AEBV01@@Z 000000018004d280 f i VolumeIntegration.obj
 0001:0004c2a0       ??4PxSimpleTriangleMesh@physx@@QEAAAEAV01@AEBV01@@Z 000000018004d2a0 f i VolumeIntegration.obj
 0001:0004c300       ?FAllGrtr@aos@shdfnd@physx@@YAIT__m128@@0@Z 000000018004d300 f i VolumeIntegration.obj
 0001:0004c400       ?V4Cross@aos@shdfnd@physx@@YA?AT__m128@@T4@0@Z 000000018004d400 f i VolumeIntegration.obj
 0001:0004c500       ?V4Dot3@aos@shdfnd@physx@@YA?AT__m128@@T4@0@Z 000000018004d500 f i VolumeIntegration.obj
 0001:0004c5c0       ?V4PermYZXW@aos@shdfnd@physx@@YA?AT__m128@@T4@@Z 000000018004d5c0 f i VolumeIntegration.obj
 0001:0004c5f0       ?V4ScaleInv@aos@shdfnd@physx@@YA?AT__m128@@T4@0@Z 000000018004d5f0 f i VolumeIntegration.obj
 0001:0004c690       ?Vec4V_From_PxVec3_WUndefined@aos@shdfnd@physx@@YA?AT__m128@@AEBVPxVec3@3@@Z 000000018004d690 f i VolumeIntegration.obj
 0001:0004c6e0       ?isZero@PxVec3@physx@@QEBA_NXZ 000000018004d6e0 f i VolumeIntegration.obj
 0001:0004c730       PxSetPhysXCookingDelayLoadHook 000000018004d730 f   WindowsCookingDelayLoadHook.obj
 0001:0004c750       ?cookingDelayHook@@YAP6A_JXZIPEAUDelayLoadInfo@@@Z 000000018004d750 f   WindowsCookingDelayLoadHook.obj
 0001:0004c7d0       ?loadLibrary@Cm@physx@@YAPEAUHINSTANCE__@@PEBD@Z 000000018004d7d0 f i WindowsCookingDelayLoadHook.obj
 0001:0004c7f0       ?physXCommonDliNotePreLoadLibrary@Cm@physx@@YAP6A_JXZPEBDPEBVPxDelayLoadHook@2@@Z 000000018004d7f0 f i WindowsCookingDelayLoadHook.obj
 0001:0004c87b       __imp_load_??0RadixSortBuffered@Cm@physx@@QEAA@XZ 000000018004d87b f   PhysXCommon_64:PhysXCommon_64.dll
 0001:0004c887       ??0RadixSortBuffered@Cm@physx@@QEAA@XZ 000000018004d887 f   PhysXCommon_64:PhysXCommon_64.dll
 0001:0004c88d       __tailMerge_physxcommon_64_dll 000000018004d88d     PhysXCommon_64:PhysXCommon_64.dll
 0001:0004c906       __imp_load_??1RadixSortBuffered@Cm@physx@@UEAA@XZ 000000018004d906 f   PhysXCommon_64:PhysXCommon_64.dll
 0001:0004c912       ??1RadixSortBuffered@Cm@physx@@UEAA@XZ 000000018004d912 f   PhysXCommon_64:PhysXCommon_64.dll
 0001:0004c918       __imp_load_?Sort@RadixSortBuffered@Cm@physx@@QEAAAEAV123@PEBIIW4RadixHint@23@@Z 000000018004d918 f   PhysXCommon_64:PhysXCommon_64.dll
 0001:0004c924       ?Sort@RadixSortBuffered@Cm@physx@@QEAAAEAV123@PEBIIW4RadixHint@23@@Z 000000018004d924 f   PhysXCommon_64:PhysXCommon_64.dll
 0001:0004c92a       __imp_load_?readDword@physx@@YAI_NAEAVPxInputStream@1@@Z 000000018004d92a f   PhysXCommon_64:PhysXCommon_64.dll
 0001:0004c936       ?readDword@physx@@YAI_NAEAVPxInputStream@1@@Z 000000018004d936 f   PhysXCommon_64:PhysXCommon_64.dll
 0001:0004c93c       __imp_load_?ReadHeader@Gu@physx@@YA_NEEEEAEAIAEA_NAEAVPxInputStream@2@@Z 000000018004d93c f   PhysXCommon_64:PhysXCommon_64.dll
 0001:0004c948       ?ReadHeader@Gu@physx@@YA_NEEEEAEAIAEA_NAEAVPxInputStream@2@@Z 000000018004d948 f   PhysXCommon_64:PhysXCommon_64.dll
 0001:0004c94e       __imp_load_??0HeightField@Gu@physx@@QEAA@PEAVGuMeshFactory@2@@Z 000000018004d94e f   PhysXCommon_64:PhysXCommon_64.dll
 0001:0004c95a       ??0HeightField@Gu@physx@@QEAA@PEAVGuMeshFactory@2@@Z 000000018004d95a f   PhysXCommon_64:PhysXCommon_64.dll
 0001:0004c960       __imp_load_?loadFromDesc@HeightField@Gu@physx@@QEAA_NAEBVPxHeightFieldDesc@3@@Z 000000018004d960 f   PhysXCommon_64:PhysXCommon_64.dll
 0001:0004c96c       ?loadFromDesc@HeightField@Gu@physx@@QEAA_NAEBVPxHeightFieldDesc@3@@Z 000000018004d96c f   PhysXCommon_64:PhysXCommon_64.dll
 0001:0004c972       __imp_load_?computeCellCoordinates@HeightField@Gu@physx@@QEBAIMMAEAM0@Z 000000018004d972 f   PhysXCommon_64:PhysXCommon_64.dll
 0001:0004c97e       ?computeCellCoordinates@HeightField@Gu@physx@@QEBAIMMAEAM0@Z 000000018004d97e f   PhysXCommon_64:PhysXCommon_64.dll
 0001:0004c984       __imp_load_?releaseMemory@HeightField@Gu@physx@@QEAAXXZ 000000018004d984 f   PhysXCommon_64:PhysXCommon_64.dll
 0001:0004c990       ?releaseMemory@HeightField@Gu@physx@@QEAAXXZ 000000018004d990 f   PhysXCommon_64:PhysXCommon_64.dll
 0001:0004c996       __imp_load_??1HeightField@Gu@physx@@UEAA@XZ 000000018004d996 f   PhysXCommon_64:PhysXCommon_64.dll
 0001:0004c9a2       ??1HeightField@Gu@physx@@UEAA@XZ 000000018004d9a2 f   PhysXCommon_64:PhysXCommon_64.dll
 0001:0004c9a8       __imp_load_??0NodeAllocator@Gu@physx@@QEAA@XZ 000000018004d9a8 f   PhysXCommon_64:PhysXCommon_64.dll
 0001:0004c9b4       ??0NodeAllocator@Gu@physx@@QEAA@XZ 000000018004d9b4 f   PhysXCommon_64:PhysXCommon_64.dll
 0001:0004c9ba       __imp_load_??1NodeAllocator@Gu@physx@@QEAA@XZ 000000018004d9ba f   PhysXCommon_64:PhysXCommon_64.dll
 0001:0004c9c6       ??1NodeAllocator@Gu@physx@@QEAA@XZ 000000018004d9c6 f   PhysXCommon_64:PhysXCommon_64.dll
 0001:0004c9cc       __imp_load_?release@NodeAllocator@Gu@physx@@QEAAXXZ 000000018004d9cc f   PhysXCommon_64:PhysXCommon_64.dll
 0001:0004c9d8       ?release@NodeAllocator@Gu@physx@@QEAAXXZ 000000018004d9d8 f   PhysXCommon_64:PhysXCommon_64.dll
 0001:0004c9de       __imp_load_?buildAABBTree@Gu@physx@@YA_NAEAVAABBTreeBuildParams@12@AEAVNodeAllocator@12@AEAUBuildStats@12@AEAPEAI@Z 000000018004d9de f   PhysXCommon_64:PhysXCommon_64.dll
 0001:0004c9ea       ?buildAABBTree@Gu@physx@@YA_NAEAVAABBTreeBuildParams@12@AEAVNodeAllocator@12@AEAUBuildStats@12@AEAPEAI@Z 000000018004d9ea f   PhysXCommon_64:PhysXCommon_64.dll
 0001:0004c9f0       __imp_load_?writeDword@physx@@YAXI_NAEAVPxOutputStream@1@@Z 000000018004d9f0 f   PhysXCommon_64:PhysXCommon_64.dll
 0001:0004c9fc       ?writeDword@physx@@YAXI_NAEAVPxOutputStream@1@@Z 000000018004d9fc f   PhysXCommon_64:PhysXCommon_64.dll
 0001:0004ca02       __imp_load_?writeFloatBuffer@physx@@YAXPEBMI_NAEAVPxOutputStream@1@@Z 000000018004da02 f   PhysXCommon_64:PhysXCommon_64.dll
 0001:0004ca0e       ?writeFloatBuffer@physx@@YAXPEBMI_NAEAVPxOutputStream@1@@Z 000000018004da0e f   PhysXCommon_64:PhysXCommon_64.dll
 0001:0004ca14       __imp_load_?writeHeader@physx@@YA_NCCCCI_NAEAVPxOutputStream@1@@Z 000000018004da14 f   PhysXCommon_64:PhysXCommon_64.dll
 0001:0004ca20       ?writeHeader@physx@@YA_NCCCCI_NAEAVPxOutputStream@1@@Z 000000018004da20 f   PhysXCommon_64:PhysXCommon_64.dll
 0001:0004ca26       __imp_load_?writeWord@physx@@YAXG_NAEAVPxOutputStream@1@@Z 000000018004da26 f   PhysXCommon_64:PhysXCommon_64.dll
 0001:0004ca32       ?writeWord@physx@@YAXG_NAEAVPxOutputStream@1@@Z 000000018004da32 f   PhysXCommon_64:PhysXCommon_64.dll
 0001:0004ca38       __imp_load_?writeFloat@physx@@YAXM_NAEAVPxOutputStream@1@@Z 000000018004da38 f   PhysXCommon_64:PhysXCommon_64.dll
 0001:0004ca44       ?writeFloat@physx@@YAXM_NAEAVPxOutputStream@1@@Z 000000018004da44 f   PhysXCommon_64:PhysXCommon_64.dll
 0001:0004ca4a       __imp_load_?validate@RTree@Gu@physx@@QEAAXPEAUCallbackRefit@123@@Z 000000018004da4a f   PhysXCommon_64:PhysXCommon_64.dll
 0001:0004ca56       ?validate@RTree@Gu@physx@@QEAAXPEAUCallbackRefit@123@@Z 000000018004da56 f   PhysXCommon_64:PhysXCommon_64.dll
 0001:0004ca5c       __imp_load_?computeBoundsAroundVertices@Gu@physx@@YAXAEAVPxBounds3@2@IPEIBVPxVec3@2@@Z 000000018004da5c f   PhysXCommon_64:PhysXCommon_64.dll
 0001:0004ca68       ?computeBoundsAroundVertices@Gu@physx@@YAXAEAVPxBounds3@2@IPEIBVPxVec3@2@@Z 000000018004da68 f   PhysXCommon_64:PhysXCommon_64.dll
 0001:0004ca6e       __imp_load_??0SourceMesh@Gu@physx@@QEAA@XZ 000000018004da6e f   PhysXCommon_64:PhysXCommon_64.dll
 0001:0004ca7a       ??0SourceMesh@Gu@physx@@QEAA@XZ 000000018004da7a f   PhysXCommon_64:PhysXCommon_64.dll
 0001:0004ca80       __imp_load_??1SourceMesh@Gu@physx@@QEAA@XZ 000000018004da80 f   PhysXCommon_64:PhysXCommon_64.dll
 0001:0004ca8c       ??1SourceMesh@Gu@physx@@QEAA@XZ 000000018004da8c f   PhysXCommon_64:PhysXCommon_64.dll
 0001:0004ca92       __imp_load_??0BV4Tree@Gu@physx@@QEAA@XZ 000000018004da92 f   PhysXCommon_64:PhysXCommon_64.dll
 0001:0004ca9e       ??0BV4Tree@Gu@physx@@QEAA@XZ 000000018004da9e f   PhysXCommon_64:PhysXCommon_64.dll
 0001:0004caa4       __imp_load_??1BV4Tree@Gu@physx@@QEAA@XZ 000000018004daa4 f   PhysXCommon_64:PhysXCommon_64.dll
 0001:0004cab0       ??1BV4Tree@Gu@physx@@QEAA@XZ 000000018004dab0 f   PhysXCommon_64:PhysXCommon_64.dll
 0001:0004cab6       __imp_load_??0BV32Tree@Gu@physx@@QEAA@XZ 000000018004dab6 f   PhysXCommon_64:PhysXCommon_64.dll
 0001:0004cac2       ??0BV32Tree@Gu@physx@@QEAA@XZ 000000018004dac2 f   PhysXCommon_64:PhysXCommon_64.dll
 0001:0004cac8       __imp_load_??1BV32Tree@Gu@physx@@QEAA@XZ 000000018004dac8 f   PhysXCommon_64:PhysXCommon_64.dll
 0001:0004cad4       ??1BV32Tree@Gu@physx@@QEAA@XZ 000000018004dad4 f   PhysXCommon_64:PhysXCommon_64.dll
 0001:0004cada       __imp_load_?writeWordBuffer@physx@@YAXPEBGI_NAEAVPxOutputStream@1@@Z 000000018004dada f   PhysXCommon_64:PhysXCommon_64.dll
 0001:0004cae6       ?writeWordBuffer@physx@@YAXPEBGI_NAEAVPxOutputStream@1@@Z 000000018004dae6 f   PhysXCommon_64:PhysXCommon_64.dll
 0001:0004caec       __imp_load_?computeMaxIndex@physx@@YAIPEBII@Z 000000018004daec f   PhysXCommon_64:PhysXCommon_64.dll
 0001:0004caf8       ?computeMaxIndex@physx@@YAIPEBII@Z 000000018004daf8 f   PhysXCommon_64:PhysXCommon_64.dll
 0001:0004cafe       __imp_load_?storeIndices@physx@@YAXIIPEBIAEAVPxOutputStream@1@_N@Z 000000018004dafe f   PhysXCommon_64:PhysXCommon_64.dll
 0001:0004cb0a       ?storeIndices@physx@@YAXIIPEBIAEAVPxOutputStream@1@_N@Z 000000018004db0a f   PhysXCommon_64:PhysXCommon_64.dll
 0001:0004cb10       __imp_load_?BuildBV4Ex@Gu@physx@@YA_NAEAVBV4Tree@12@AEAVSourceMesh@12@MI@Z 000000018004db10 f   PhysXCommon_64:PhysXCommon_64.dll
 0001:0004cb1c       ?BuildBV4Ex@Gu@physx@@YA_NAEAVBV4Tree@12@AEAVSourceMesh@12@MI@Z 000000018004db1c f   PhysXCommon_64:PhysXCommon_64.dll
 0001:0004cb22       __imp_load_?BuildBV32Ex@Gu@physx@@YA_NAEAVBV32Tree@12@AEAVSourceMesh@12@MI@Z 000000018004db22 f   PhysXCommon_64:PhysXCommon_64.dll
 0001:0004cb2e       ?BuildBV32Ex@Gu@physx@@YA_NAEAVBV32Tree@12@AEAVSourceMesh@12@MI@Z 000000018004db2e f   PhysXCommon_64:PhysXCommon_64.dll
 0001:0004cb34       __imp_load_?computeMaxIndex@physx@@YAGPEBGI@Z 000000018004db34 f   PhysXCommon_64:PhysXCommon_64.dll
 0001:0004cb40       ?computeMaxIndex@physx@@YAGPEBGI@Z 000000018004db40 f   PhysXCommon_64:PhysXCommon_64.dll
 0001:0004cb46       __imp_load_?WriteHeader@Gu@physx@@YA_NEEEEI_NAEAVPxOutputStream@2@@Z 000000018004db46 f   PhysXCommon_64:PhysXCommon_64.dll
 0001:0004cb52       ?WriteHeader@Gu@physx@@YA_NEEEEI_NAEAVPxOutputStream@2@@Z 000000018004db52 f   PhysXCommon_64:PhysXCommon_64.dll
 0001:0004cb58       __imp_load_?StoreIndices@Gu@physx@@YAXGIPEBGAEAVPxOutputStream@2@_N@Z 000000018004db58 f   PhysXCommon_64:PhysXCommon_64.dll
 0001:0004cb64       ?StoreIndices@Gu@physx@@YAXGIPEBGAEAVPxOutputStream@2@_N@Z 000000018004db64 f   PhysXCommon_64:PhysXCommon_64.dll
 0001:0004cb6a       __imp_load_?CreateOffsets@BigConvexData@physx@@IEAAXXZ 000000018004db6a f   PhysXCommon_64:PhysXCommon_64.dll
 0001:0004cb76       ?CreateOffsets@BigConvexData@physx@@IEAAXXZ 000000018004db76 f   PhysXCommon_64:PhysXCommon_64.dll
 0001:0004cb7c       __imp_load_?computeOBBPoints@Gu@physx@@YAXPEIAVPxVec3@2@AEBV32@1111@Z 000000018004db7c f   PhysXCommon_64:PhysXCommon_64.dll
 0001:0004cb88       ?computeOBBPoints@Gu@physx@@YAXPEIAVPxVec3@2@AEBV32@1111@Z 000000018004db88 f   PhysXCommon_64:PhysXCommon_64.dll
 0001:0004cb8e       __imp_load_??0BigConvexData@physx@@QEAA@XZ 000000018004db8e f   PhysXCommon_64:PhysXCommon_64.dll
 0001:0004cb9a       ??0BigConvexData@physx@@QEAA@XZ 000000018004db9a f   PhysXCommon_64:PhysXCommon_64.dll
 0001:0004cba0       __imp_load_??1BigConvexData@physx@@QEAA@XZ 000000018004dba0 f   PhysXCommon_64:PhysXCommon_64.dll
 0001:0004cbac       ??1BigConvexData@physx@@QEAA@XZ 000000018004dbac f   PhysXCommon_64:PhysXCommon_64.dll
 0001:0004cbb2       __imp_load_?PxGetAssertHandler@physx@@YAAEAVPxAssertHandler@1@XZ 000000018004dbb2 f   PhysXFoundation_64:PhysXFoundation_64.dll
 0001:0004cbbe       ?PxGetAssertHandler@physx@@YAAEAVPxAssertHandler@1@XZ 000000018004dbbe f   PhysXFoundation_64:PhysXFoundation_64.dll
 0001:0004cbc4       __tailMerge_physxfoundation_64_dll 000000018004dbc4     PhysXFoundation_64:PhysXFoundation_64.dll
 0001:0004cc3d       __imp_load_PxGetFoundation 000000018004dc3d f   PhysXFoundation_64:PhysXFoundation_64.dll
 0001:0004cc49       PxGetFoundation            000000018004dc49 f   PhysXFoundation_64:PhysXFoundation_64.dll
 0001:0004cc4f       __imp_load_?getAllocator@shdfnd@physx@@YAAEAVPxAllocatorCallback@2@XZ 000000018004dc4f f   PhysXFoundation_64:PhysXFoundation_64.dll
 0001:0004cc5b       ?getAllocator@shdfnd@physx@@YAAEAVPxAllocatorCallback@2@XZ 000000018004dc5b f   PhysXFoundation_64:PhysXFoundation_64.dll
 0001:0004cc61       __imp_load_??0NamedAllocator@shdfnd@physx@@QEAA@PEBD@Z 000000018004dc61 f   PhysXFoundation_64:PhysXFoundation_64.dll
 0001:0004cc6d       ??0NamedAllocator@shdfnd@physx@@QEAA@PEBD@Z 000000018004dc6d f   PhysXFoundation_64:PhysXFoundation_64.dll
 0001:0004cc73       __imp_load_?getInstance@Foundation@shdfnd@physx@@SAAEAV123@XZ 000000018004dc73 f   PhysXFoundation_64:PhysXFoundation_64.dll
 0001:0004cc7f       ?getInstance@Foundation@shdfnd@physx@@SAAEAV123@XZ 000000018004dc7f f   PhysXFoundation_64:PhysXFoundation_64.dll
 0001:0004cc85       __imp_load_?error@Foundation@shdfnd@physx@@QEAAXW4Enum@PxErrorCode@3@PEBDH1ZZ 000000018004dc85 f   PhysXFoundation_64:PhysXFoundation_64.dll
 0001:0004cc91       ?error@Foundation@shdfnd@physx@@QEAAXW4Enum@PxErrorCode@3@PEBDH1ZZ 000000018004dc91 f   PhysXFoundation_64:PhysXFoundation_64.dll
 0001:0004cc97       __imp_load_?allocate@NamedAllocator@shdfnd@physx@@QEAAPEAX_KPEBDH@Z 000000018004dc97 f   PhysXFoundation_64:PhysXFoundation_64.dll
 0001:0004cca3       ?allocate@NamedAllocator@shdfnd@physx@@QEAAPEAX_KPEBDH@Z 000000018004dca3 f   PhysXFoundation_64:PhysXFoundation_64.dll
 0001:0004cca9       __imp_load_?deallocate@NamedAllocator@shdfnd@physx@@QEAAXPEAX@Z 000000018004dca9 f   PhysXFoundation_64:PhysXFoundation_64.dll
 0001:0004ccb5       ?deallocate@NamedAllocator@shdfnd@physx@@QEAAXPEAX@Z 000000018004dcb5 f   PhysXFoundation_64:PhysXFoundation_64.dll
 0001:0004ccbb       __imp_load_?incRefCount@Foundation@shdfnd@physx@@SAXXZ 000000018004dcbb f   PhysXFoundation_64:PhysXFoundation_64.dll
 0001:0004ccc7       ?incRefCount@Foundation@shdfnd@physx@@SAXXZ 000000018004dcc7 f   PhysXFoundation_64:PhysXFoundation_64.dll
 0001:0004cccd       __imp_load_?decRefCount@Foundation@shdfnd@physx@@SAXXZ 000000018004dccd f   PhysXFoundation_64:PhysXFoundation_64.dll
 0001:0004ccd9       ?decRefCount@Foundation@shdfnd@physx@@SAXXZ 000000018004dcd9 f   PhysXFoundation_64:PhysXFoundation_64.dll
 0001:0004ccdf       __imp_load_??0FPUGuard@shdfnd@physx@@QEAA@XZ 000000018004dcdf f   PhysXFoundation_64:PhysXFoundation_64.dll
 0001:0004cceb       ??0FPUGuard@shdfnd@physx@@QEAA@XZ 000000018004dceb f   PhysXFoundation_64:PhysXFoundation_64.dll
 0001:0004ccf1       __imp_load_??1FPUGuard@shdfnd@physx@@QEAA@XZ 000000018004dcf1 f   PhysXFoundation_64:PhysXFoundation_64.dll
 0001:0004ccfd       ??1FPUGuard@shdfnd@physx@@QEAA@XZ 000000018004dcfd f   PhysXFoundation_64:PhysXFoundation_64.dll
 0001:0004cd03       __imp_load_??1NamedAllocator@shdfnd@physx@@QEAA@XZ 000000018004dd03 f   PhysXFoundation_64:PhysXFoundation_64.dll
 0001:0004cd0f       ??1NamedAllocator@shdfnd@physx@@QEAA@XZ 000000018004dd0f f   PhysXFoundation_64:PhysXFoundation_64.dll
 0001:0004cd15       __imp_load_??0NamedAllocator@shdfnd@physx@@QEAA@AEBV012@@Z 000000018004dd15 f   PhysXFoundation_64:PhysXFoundation_64.dll
 0001:0004cd21       ??0NamedAllocator@shdfnd@physx@@QEAA@AEBV012@@Z 000000018004dd21 f   PhysXFoundation_64:PhysXFoundation_64.dll
 0001:0004cd27       __imp_load_?allocate@TempAllocator@shdfnd@physx@@QEAAPEAX_KPEBDH@Z 000000018004dd27 f   PhysXFoundation_64:PhysXFoundation_64.dll
 0001:0004cd33       ?allocate@TempAllocator@shdfnd@physx@@QEAAPEAX_KPEBDH@Z 000000018004dd33 f   PhysXFoundation_64:PhysXFoundation_64.dll
 0001:0004cd39       __imp_load_?deallocate@TempAllocator@shdfnd@physx@@QEAAXPEAX@Z 000000018004dd39 f   PhysXFoundation_64:PhysXFoundation_64.dll
 0001:0004cd45       ?deallocate@TempAllocator@shdfnd@physx@@QEAAXPEAX@Z 000000018004dd45 f   PhysXFoundation_64:PhysXFoundation_64.dll
 0001:0004cd4b       __imp_load_?PxDiagonalize@physx@@YA?AVPxVec3@1@AEBVPxMat33@1@AEAVPxQuat@1@@Z 000000018004dd4b f   PhysXFoundation_64:PhysXFoundation_64.dll
 0001:0004cd57       ?PxDiagonalize@physx@@YA?AVPxVec3@1@AEBVPxMat33@1@AEAVPxQuat@1@@Z 000000018004dd57 f   PhysXFoundation_64:PhysXFoundation_64.dll
 0001:0004cd5d       LoadLibraryA               000000018004dd5d f   kernel32:KERNEL32.dll
 0001:0004cd64       ??$PFromRva@PEAP6A_JXZ@@YAPEAP6A_JXZK@Z 000000018004dd64 f i Delayimp:delayhlp.obj
 0001:0004cd74       ??$PFromRva@PEAPEAUHINSTANCE__@@@@YAPEAPEAUHINSTANCE__@@K@Z 000000018004dd74 f i Delayimp:delayhlp.obj
 0001:0004cd84       ??$PFromRva@PEAU_IMAGE_IMPORT_BY_NAME@@@@YAPEAU_IMAGE_IMPORT_BY_NAME@@K@Z 000000018004dd84 f i Delayimp:delayhlp.obj
 0001:0004cd94       ??$PFromRva@PEAU_IMAGE_THUNK_DATA64@@@@YAPEAU_IMAGE_THUNK_DATA64@@K@Z 000000018004dd94 f i Delayimp:delayhlp.obj
 0001:0004cda4       ??$PFromRva@PEBD@@YAPEBDK@Z 000000018004dda4 f i Delayimp:delayhlp.obj
 0001:0004cdb4       ??$PFromRva@PEBUImgDelayDescr@@@@YAPEBUImgDelayDescr@@K@Z 000000018004ddb4 f i Delayimp:delayhlp.obj
 0001:0004cdc4       ??$PFromRva@PEBU_IMAGE_THUNK_DATA64@@@@YAPEBU_IMAGE_THUNK_DATA64@@K@Z 000000018004ddc4 f i Delayimp:delayhlp.obj
 0001:0004cdd4       ?CountOfImports@@YAIPEBU_IMAGE_THUNK_DATA64@@@Z 000000018004ddd4 f i Delayimp:delayhlp.obj
 0001:0004cde8       ?DloadAcquireSectionWriteAccess@@YAXXZ 000000018004dde8 f i Delayimp:delayhlp.obj
 0001:0004ce94       ?DloadGetSRWLockFunctionPointers@@YAEXZ 000000018004de94 f i Delayimp:delayhlp.obj
 0001:0004cf34       ?DloadLock@@YAXXZ          000000018004df34 f i Delayimp:delayhlp.obj
 0001:0004cf7c       ?DloadMakePermanentImageCommit@@YAXPEAX_K@Z 000000018004df7c f i Delayimp:delayhlp.obj
 0001:0004d014       ?DloadObtainSection@@YAPEAXPEAK0@Z 000000018004e014 f i Delayimp:delayhlp.obj
 0001:0004d0b0       ?DloadProtectSection@@YAXKPEAK@Z 000000018004e0b0 f i Delayimp:delayhlp.obj
 0001:0004d140       ?DloadReleaseSectionWriteAccess@@YAXXZ 000000018004e140 f i Delayimp:delayhlp.obj
 0001:0004d1d4       ?DloadUnlock@@YAXXZ        000000018004e1d4 f i Delayimp:delayhlp.obj
 0001:0004d214       ?IndexFromPImgThunkData@@YAIPEBU_IMAGE_THUNK_DATA64@@0@Z 000000018004e214 f i Delayimp:delayhlp.obj
 0001:0004d35c       HRESULT_FROM_WIN32         000000018004e35c f i Delayimp:delayhlp.obj
 0001:0004d36c       ReadAcquire64              000000018004e36c f i Delayimp:delayhlp.obj
 0001:0004d370       ReadPointerAcquire         000000018004e370 f i Delayimp:delayhlp.obj
 0001:0004d374       WritePointerRelease        000000018004e374 f i Delayimp:delayhlp.obj
 0001:0004d378       WriteRelease64             000000018004e378 f i Delayimp:delayhlp.obj
 0001:0004d37c       __FUnloadDelayLoadedDLL2   000000018004e37c f   Delayimp:delayhlp.obj
 0001:0004d438       __HrLoadAllImportsForDll   000000018004e438 f   Delayimp:delayhlp.obj
 0001:0004d4ac       __delayLoadHelper2         000000018004e4ac f   Delayimp:delayhlp.obj
 0001:0004d790       ??3@YAXPEAX_K@Z            000000018004e790 f   LIBCMTD:delete_scalar_size.obj
 0001:0004d7b0       ??_V@YAXPEAX_K@Z           000000018004e7b0 f   LIBCMTD:delete_array_size.obj
 0001:0004d7d0       _CRT_RTC_INIT              000000018004e7d0 f   LIBCMTD:init.obj
 0001:0004d7e0       _CRT_RTC_INITW             000000018004e7e0 f   LIBCMTD:init.obj
 0001:0004d7f0       _RTC_InitBase              000000018004e7f0 f   LIBCMTD:init.obj
 0001:0004d830       _RTC_Shutdown              000000018004e830 f   LIBCMTD:init.obj
 0001:0004d860       ??1type_info@@UEAA@XZ      000000018004e860 f   LIBCMTD:std_type_info_static.obj
 0001:0004d880       ??_Etype_info@@UEAAPEAXI@Z 000000018004e880 f i LIBCMTD:std_type_info_static.obj
 0001:0004d880       ??_Gtype_info@@UEAAPEAXI@Z 000000018004e880 f i LIBCMTD:std_type_info_static.obj
 0001:0004d8c0       ?__scrt_initialize_type_info@@YAXXZ 000000018004e8c0 f   LIBCMTD:tncleanup.obj
 0001:0004d8e0       ?__scrt_uninitialize_type_info@@YAXXZ 000000018004e8e0 f   LIBCMTD:tncleanup.obj
 0001:0004d910       __chkstk                   000000018004e910 f   LIBCMTD:chkstk.obj
 0001:0004d910       _alloca_probe              000000018004e910 f   LIBCMTD:chkstk.obj
 0001:0004d960       ??3@YAXPEAX@Z              000000018004e960 f   LIBCMTD:delete_scalar.obj
 0001:0004d980       ??_V@YAXPEAX@Z             000000018004e980 f   LIBCMTD:delete_array.obj
 0001:0004ddb0       _CRT_INIT                  000000018004edb0 f   LIBCMTD:dll_dllmain.obj
 0001:0004dde0       _DllMainCRTStartup         000000018004ede0 f   LIBCMTD:dll_dllmain.obj
 0001:0004de20       _guard_check_icall_nop     000000018004ee20 f i LIBCMTD:guard_support.obj
 0001:0004de30       ReadNoFence64              000000018004ee30 f i LIBCMTD:guard_support.obj
 0001:0004de50       ReadPointerNoFence         000000018004ee50 f i LIBCMTD:guard_support.obj
 0001:0004de70       __castguard_check_failure_debugbreak 000000018004ee70 f i LIBCMTD:guard_support.obj
 0001:0004de90       __castguard_check_failure_fastfail 000000018004ee90 f i LIBCMTD:guard_support.obj
 0001:0004dec0       __castguard_check_failure_nop 000000018004eec0 f i LIBCMTD:guard_support.obj
 0001:0004ded0       __castguard_check_failure_os_handled 000000018004eed0 f i LIBCMTD:guard_support.obj
 0001:0004dfa0       __castguard_slow_path_check_debugbreak 000000018004efa0 f i LIBCMTD:guard_support.obj
 0001:0004dfe0       __castguard_slow_path_check_fastfail 000000018004efe0 f i LIBCMTD:guard_support.obj
 0001:0004e030       __castguard_slow_path_check_nop 000000018004f030 f i LIBCMTD:guard_support.obj
 0001:0004e040       __castguard_slow_path_check_os_handled 000000018004f040 f i LIBCMTD:guard_support.obj
 0001:0004e100       _guard_icall_checks_enforced 000000018004f100 f i LIBCMTD:guard_support.obj
 0001:0004e140       _guard_rf_checks_enforced  000000018004f140 f i LIBCMTD:guard_support.obj
 0001:0004e150       ?_RTC_GetErrorFunc@@YAP6AHHPEBDH00ZZPEBX@Z 000000018004f150 f   LIBCMTD:userapi.obj
 0001:0004e160       ?_RTC_GetErrorFuncW@@YAP6AHHPEB_WH00ZZPEBX@Z 000000018004f160 f   LIBCMTD:userapi.obj
 0001:0004e170       _RTC_GetErrDesc            000000018004f170 f   LIBCMTD:userapi.obj
 0001:0004e190       _RTC_NumErrors             000000018004f190 f   LIBCMTD:userapi.obj
 0001:0004e1a0       _RTC_SetErrorFunc          000000018004f1a0 f   LIBCMTD:userapi.obj
 0001:0004e1c0       _RTC_SetErrorFuncW         000000018004f1c0 f   LIBCMTD:userapi.obj
 0001:0004e1e0       _RTC_SetErrorType          000000018004f1e0 f   LIBCMTD:userapi.obj
 0001:0004e2c0       __security_init_cookie     000000018004f2c0 f   LIBCMTD:gs_support.obj
 0001:0004e340       DllMain                    000000018004f340 f   LIBCMTD:dll_dllmain_stub.obj
 0001:0004e360       __local_stdio_printf_options 000000018004f360 f i LIBCMTD:default_local_stdio_options.obj
 0001:0004e370       __local_stdio_scanf_options 000000018004f370 f i LIBCMTD:default_local_stdio_options.obj
 0001:0004e380       __scrt_initialize_default_local_stdio_options 000000018004f380 f   LIBCMTD:default_local_stdio_options.obj
 0001:0004e3d0       ?configure_argv@__scrt_narrow_argv_policy@@SAHXZ 000000018004f3d0 f i LIBCMTD:utility.obj
 0001:0004e4c0       ?initialize_environment@__scrt_narrow_environment_policy@@SAHXZ 000000018004f4c0 f i LIBCMTD:utility.obj
 0001:0004e560       NtCurrentTeb               000000018004f560 f i LIBCMTD:utility.obj
 0001:0004e570       __scrt_acquire_startup_lock 000000018004f570 f   LIBCMTD:utility.obj
 0001:0004e5e0       __scrt_dllmain_after_initialize_c 000000018004f5e0 f   LIBCMTD:utility.obj
 0001:0004e610       __scrt_dllmain_before_initialize_c 000000018004f610 f   LIBCMTD:utility.obj
 0001:0004e630       __scrt_dllmain_crt_thread_attach 000000018004f630 f   LIBCMTD:utility.obj
 0001:0004e660       __scrt_dllmain_crt_thread_detach 000000018004f660 f   LIBCMTD:utility.obj
 0001:0004e680       __scrt_dllmain_exception_filter 000000018004f680 f   LIBCMTD:utility.obj
 0001:0004e6f0       __scrt_dllmain_uninitialize_c 000000018004f6f0 f   LIBCMTD:utility.obj
 0001:0004e720       __scrt_dllmain_uninitialize_critical 000000018004f720 f   LIBCMTD:utility.obj
 0001:0004e740       __scrt_initialize_crt      000000018004f740 f   LIBCMTD:utility.obj
 0001:0004e790       __scrt_initialize_onexit_tables 000000018004f790 f   LIBCMTD:utility.obj
 0001:0004e8a0       __scrt_is_nonwritable_in_current_image 000000018004f8a0 f   LIBCMTD:utility.obj
 0001:0004e930       __scrt_release_startup_lock 000000018004f930 f   LIBCMTD:utility.obj
 0001:0004e960       __scrt_uninitialize_crt    000000018004f960 f   LIBCMTD:utility.obj
 0001:0004e9a0       _onexit                    000000018004f9a0 f   LIBCMTD:utility.obj
 0001:0004ea20       at_quick_exit              000000018004fa20 f   LIBCMTD:utility.obj
 0001:0004ea70       atexit                     000000018004fa70 f   LIBCMTD:utility.obj
 0001:0004eab0       __scrt_get_dyn_tls_init_callback 000000018004fab0 f   LIBCMTD:dyn_tls_init.obj
 0001:0004eac0       __crt_debugger_hook        000000018004fac0 f   LIBCMTD:utility_desktop.obj
 0001:0004ead0       __scrt_fastfail            000000018004fad0 f   LIBCMTD:utility_desktop.obj
 0001:0004ec70       __scrt_get_show_window_mode 000000018004fc70 f   LIBCMTD:utility_desktop.obj
 0001:0004ecd0       __scrt_initialize_mta      000000018004fcd0 f   LIBCMTD:utility_desktop.obj
 0001:0004ece0       __scrt_initialize_winrt    000000018004fce0 f   LIBCMTD:utility_desktop.obj
 0001:0004ecf0       __scrt_is_managed_app      000000018004fcf0 f   LIBCMTD:utility_desktop.obj
 0001:0004eda0       __scrt_set_unhandled_exception_filter 000000018004fda0 f   LIBCMTD:utility_desktop.obj
 0001:0004edc0       __scrt_exe_initialize_mta  000000018004fdc0 f   LIBCMTD:utility_desktop.obj
 0001:0004edc0       __scrt_stub_for_initialize_mta 000000018004fdc0 f   LIBCMTD:utility_desktop.obj
 0001:0004edd0       __scrt_unhandled_exception_filter 000000018004fdd0 f   LIBCMTD:utility_desktop.obj
 0001:0004ee70       _RTC_Initialize            000000018004fe70 f   LIBCMTD:initsect.obj
 0001:0004eec0       _RTC_Terminate             000000018004fec0 f   LIBCMTD:initsect.obj
 0001:0004efa0       ?_RTC_AllocaFailure@@YAXPEAXPEAU_RTC_ALLOCA_NODE@@H@Z 000000018004ffa0 f   LIBCMTD:error.obj
 0001:0004f100       ?_RTC_Failure@@YAXPEAXH@Z  0000000180050100 f   LIBCMTD:error.obj
 0001:0004f150       ?_RTC_StackFailure@@YAXPEAXPEBD@Z 0000000180050150 f   LIBCMTD:error.obj
 0001:0004f580       _RTC_UninitUse             0000000180050580 f   LIBCMTD:error.obj
 0001:0004f650       _vsprintf_s_l              0000000180050650 f i LIBCMTD:error.obj
 0001:0004f6c0       sprintf_s                  00000001800506c0 f i LIBCMTD:error.obj
 0001:0004f6f0       __isa_available_init       00000001800506f0 f   LIBCMTD:cpu_disp.obj
 0001:0004faa0       _get_startup_argv_mode     0000000180050aa0 f   LIBCMTD:argv_mode.obj
 0001:0004fab0       __scrt_is_ucrt_dll_in_use  0000000180050ab0 f   LIBCMTD:ucrt_detection.obj
 0001:00050000       ?_RTC_GetSrcLine@@YAHPEAEPEA_WKPEAH1K@Z 0000000180051000 f   LIBCMTD:pdblkup.obj
 0001:000503d0       __GSHandlerCheck           00000001800513d0 f   LIBCMTD:gshandler.obj
 0001:00050410       __GSHandlerCheckCommon     0000000180051410 f   LIBCMTD:gshandler.obj
 0001:00050520       __security_check_cookie    0000000180051520 f   LIBCMTD:amdsecgs.obj
 0001:00050540       __raise_securityfailure    0000000180051540 f   LIBCMTD:gs_report.obj
 0001:00050580       __report_gsfailure         0000000180051580 f   LIBCMTD:gs_report.obj
 0001:00050660       __report_rangecheckfailure 0000000180051660 f   LIBCMTD:gs_report.obj
 0001:00050680       __report_securityfailure   0000000180051680 f   LIBCMTD:gs_report.obj
 0001:00050720       __report_securityfailureEx 0000000180051720 f   LIBCMTD:gs_report.obj
 0001:00050990       ??$__crt_interlocked_exchange_pointer@$$A6AXXZP6AXXZ@@YAP6AXXZPEDS6AXXZQ6AXXZ@Z 0000000180051990 f i libvcruntimed:purevirt.obj
 0001:000509b0       ??$__crt_interlocked_read_pointer@$$A6AXXZ@@YAP6AXXZPEDS6AXXZ@Z 00000001800519b0 f i libvcruntimed:purevirt.obj
 0001:000509d0       ?__crt_interlocked_read_64@@YA_JPED_J@Z 00000001800519d0 f i libvcruntimed:purevirt.obj
 0001:000509f0       _get_purecall_handler      00000001800519f0 f   libvcruntimed:purevirt.obj
 0001:00050a10       _purecall                  0000000180051a10 f   libvcruntimed:purevirt.obj
 0001:00050a50       _set_purecall_handler      0000000180051a50 f   libvcruntimed:purevirt.obj
 0001:00050a80       memset_repstos             0000000180051a80 f   libvcruntimed:memset.obj
 0001:00050aa0       memset                     0000000180051aa0 f   libvcruntimed:memset.obj
 0001:00050e70       ??$?RD@__crt_internal_free_policy@@QEBAXQEBD@Z 0000000180051e70 f i libvcruntimed:std_type_info.obj
 0001:00050ea0       ??$?RX@__crt_internal_free_policy@@QEBAXQEBX@Z 0000000180051ea0 f i libvcruntimed:std_type_info.obj
 0001:00050ed0       ??$__crt_interlocked_compare_exchange_pointer@$$CBDPEAD$$T@@YAPEBDPEDSEBDQEAD$$T@Z 0000000180051ed0 f i libvcruntimed:std_type_info.obj
 0001:00050f10       ??$__crt_interlocked_read_pointer@$$CBD@@YAPEBDPEDSEBD@Z 0000000180051f10 f i libvcruntimed:std_type_info.obj
 0001:00050f30       ??0?$__crt_unique_heap_ptr@DU__crt_internal_free_policy@@@@QEAA@QEAD@Z 0000000180051f30 f i libvcruntimed:std_type_info.obj
 0001:00050f50       ??0?$__crt_unique_heap_ptr@XU__crt_internal_free_policy@@@@QEAA@QEAX@Z 0000000180051f50 f i libvcruntimed:std_type_info.obj
 0001:00050f70       ??1?$__crt_unique_heap_ptr@DU__crt_internal_free_policy@@@@QEAA@XZ 0000000180051f70 f i libvcruntimed:std_type_info.obj
 0001:00050f90       ??1?$__crt_unique_heap_ptr@XU__crt_internal_free_policy@@@@QEAA@XZ 0000000180051f90 f i libvcruntimed:std_type_info.obj
 0001:00050fb0       ??B?$__crt_unique_heap_ptr@DU__crt_internal_free_policy@@@@QEBA_NXZ 0000000180051fb0 f i libvcruntimed:std_type_info.obj
 0001:00050fd0       ??B?$__crt_unique_heap_ptr@XU__crt_internal_free_policy@@@@QEBA_NXZ 0000000180051fd0 f i libvcruntimed:std_type_info.obj
 0001:00051050       ?detach@?$__crt_unique_heap_ptr@XU__crt_internal_free_policy@@@@QEAAPEAXXZ 0000000180052050 f i libvcruntimed:std_type_info.obj
 0001:00051080       ?get@?$__crt_unique_heap_ptr@DU__crt_internal_free_policy@@@@QEBAPEADXZ 0000000180052080 f i libvcruntimed:std_type_info.obj
 0001:00051090       ?get@?$__crt_unique_heap_ptr@XU__crt_internal_free_policy@@@@QEBAPEAXXZ 0000000180052090 f i libvcruntimed:std_type_info.obj
 0001:000510a0       ?is_valid@?$__crt_unique_heap_ptr@DU__crt_internal_free_policy@@@@QEBA_NXZ 00000001800520a0 f i libvcruntimed:std_type_info.obj
 0001:000510d0       ?is_valid@?$__crt_unique_heap_ptr@XU__crt_internal_free_policy@@@@QEBA_NXZ 00000001800520d0 f i libvcruntimed:std_type_info.obj
 0001:00051100       ?release@?$__crt_unique_heap_ptr@DU__crt_internal_free_policy@@@@QEAAXXZ 0000000180052100 f i libvcruntimed:std_type_info.obj
 0001:00051130       ?release@?$__crt_unique_heap_ptr@XU__crt_internal_free_policy@@@@QEAAXXZ 0000000180052130 f i libvcruntimed:std_type_info.obj
 0001:00051160       __std_type_info_compare    0000000180052160 f   libvcruntimed:std_type_info.obj
 0001:000511a0       __std_type_info_destroy_list 00000001800521a0 f   libvcruntimed:std_type_info.obj
 0001:00051200       __std_type_info_hash       0000000180052200 f   libvcruntimed:std_type_info.obj
 0001:000512b0       __std_type_info_name       00000001800522b0 f   libvcruntimed:std_type_info.obj
 0001:00051550       memcpy_repmovs             0000000180052550 f   libvcruntimed:memcpy.obj
 0001:00051570       memcpy                     0000000180052570 f   libvcruntimed:memcpy.obj
 0001:00051570       memmove                    0000000180052570 f   libvcruntimed:memcpy.obj
 0001:00051bf0       strstr                     0000000180052bf0 f   libvcruntimed:strstr.obj
 0001:00052230       __C_specific_handler       0000000180053230 f   libvcruntimed:riscchandler.obj
 0001:000526a0       __vcrt_initialize          00000001800536a0 f   libvcruntimed:initialization.obj
 0001:000526e0       __vcrt_thread_attach       00000001800536e0 f   libvcruntimed:initialization.obj
 0001:00052700       __vcrt_thread_detach       0000000180053700 f   libvcruntimed:initialization.obj
 0001:00052720       __vcrt_uninitialize        0000000180053720 f   libvcruntimed:initialization.obj
 0001:00052740       __vcrt_uninitialize_critical 0000000180053740 f   libvcruntimed:initialization.obj
 0001:00052760       __DestructExceptionObject  0000000180053760 f   libvcruntimed:ehhelpers.obj
 0001:00052860       ?_CallMemberFunction0@@YAXQEAX0@Z 0000000180053860 f i libvcruntimed:ehhelpers.obj
 0001:00052930       ?raw_name@type_info@@QEBAPEBDXZ 0000000180053930 f i libvcruntimed:ehhelpers.obj
 0001:00052940       _IsExceptionObjectToBeDestroyed 0000000180053940 f   libvcruntimed:ehhelpers.obj
 0001:00052990       _SetWinRTOutOfMemoryExceptionCallback 0000000180053990 f   libvcruntimed:ehhelpers.obj
 0001:000529b0       __AdjustPointer            00000001800539b0 f   libvcruntimed:ehhelpers.obj
 0001:00052a30       __FrameUnwindFilter        0000000180053a30 f   libvcruntimed:ehhelpers.obj
 0001:00052ae0       __GetPlatformExceptionInfo 0000000180053ae0 f   libvcruntimed:ehhelpers.obj
 0001:00052b90       __current_exception        0000000180053b90 f   libvcruntimed:ehhelpers.obj
 0001:00052bb0       __current_exception_context 0000000180053bb0 f   libvcruntimed:ehhelpers.obj
 0001:00052bd0       __processing_throw         0000000180053bd0 f   libvcruntimed:ehhelpers.obj
 0001:00052bf0       __std_terminate            0000000180053bf0 f   libvcruntimed:ehhelpers.obj
 0001:00052c00       _is_exception_typeof       0000000180053c00 f   libvcruntimed:ehhelpers.obj
 0001:00052d50       __C_specific_handler_noexcept 0000000180053d50 f   libvcruntimed:chandler_noexcept.obj
 0001:00052de0       __vcrt_GetModuleFileNameW  0000000180053de0 f   libvcruntimed:winapi_thunks.obj
 0001:00052e10       __vcrt_GetModuleHandleW    0000000180053e10 f   libvcruntimed:winapi_thunks.obj
 0001:00052e30       __vcrt_LoadLibraryExW      0000000180053e30 f   libvcruntimed:winapi_thunks.obj
 0001:00052e60       ??$?0$00@DName@@QEAA@PEBDU?$StringLifeSelector@$00@@@Z 0000000180053e60 f i libvcruntimed:undname.obj
 0001:00052ed0       ??$?0$00@pcharNode@@QEAA@PEBDHU?$StringLifeSelector@$00@@@Z 0000000180053ed0 f i libvcruntimed:undname.obj
 0001:00052f30       ??$?0$01@DName@@QEAA@PEBDU?$StringLifeSelector@$01@@@Z 0000000180053f30 f i libvcruntimed:undname.obj
 0001:00052fa0       ??$?0$01@pcharNode@@QEAA@PEBDHU?$StringLifeSelector@$01@@@Z 0000000180053fa0 f i libvcruntimed:undname.obj
 0001:00053050       ??$?0$0A@@DName@@QEAA@PEBDU?$StringLifeSelector@$0A@@@@Z 0000000180054050 f i libvcruntimed:undname.obj
 0001:000530c0       ??$?0$0A@@pcharNode@@QEAA@PEBDHU?$StringLifeSelector@$0A@@@@Z 00000001800540c0 f i libvcruntimed:undname.obj
 0001:00053170       ??$?0_K$0A@@?$optional@_K@std@@QEAA@$$QEA_K@Z 0000000180054170 f i libvcruntimed:undname.obj
 0001:000531c0       ??$?0_K@?$_Optional_construct_base@_K@std@@QEAA@Uin_place_t@1@$$QEA_K@Z 00000001800541c0 f i libvcruntimed:undname.obj
 0001:000531f0       ??$?0_K@?$_Optional_destruct_base@_K$00@std@@QEAA@Uin_place_t@1@$$QEA_K@Z 00000001800541f0 f i libvcruntimed:undname.obj
 0001:00053230       ??$append@VDNameNode@@@DName@@AEAAXPEBVDNameNode@@@Z 0000000180054230 f i libvcruntimed:undname.obj
 0001:000532e0       ??$append@VDNameStatusNode@@@DName@@AEAAXPEBVDNameStatusNode@@@Z 00000001800542e0 f i libvcruntimed:undname.obj
 0001:00053390       ??$append@VcharNode@@@DName@@AEAAXPEBVcharNode@@@Z 0000000180054390 f i libvcruntimed:undname.obj
 0001:00053440       ??$append@VpDNameNode@@@DName@@AEAAXPEBVpDNameNode@@@Z 0000000180054440 f i libvcruntimed:undname.obj
 0001:000534f0       ??$append@VpcharNode@@@DName@@AEAAXPEBVpcharNode@@@Z 00000001800544f0 f i libvcruntimed:undname.obj
 0001:000535a0       ??$doPchar@$00@DName@@AEAAXPEBDH@Z 00000001800545a0 f i libvcruntimed:undname.obj
 0001:00053700       ??$doPchar@$01@DName@@AEAAXPEBDH@Z 0000000180054700 f i libvcruntimed:undname.obj
 0001:00053860       ??$doPchar@$0A@@DName@@AEAAXPEBDH@Z 0000000180054860 f i libvcruntimed:undname.obj
 0001:000539c0       ??$forward@_K@std@@YA$$QEA_KAEA_K@Z 00000001800549c0 f i libvcruntimed:undname.obj
 0001:00053b50       ??$size@D$04@std@@YA_KAEAY04$$CBD@Z 0000000180054b50 f i libvcruntimed:undname.obj
 0001:00053b60       ??0?$_Optional_construct_base@_K@std@@QEAA@XZ 0000000180054b60 f i libvcruntimed:undname.obj
 0001:00053b80       ??0?$_Optional_destruct_base@_K$00@std@@QEAA@XZ 0000000180054b80 f i libvcruntimed:undname.obj
 0001:00053bb0       ??0?$optional@_K@std@@QEAA@XZ 0000000180054bb0 f i libvcruntimed:undname.obj
 0001:00053bd0       ??0Block@_HeapManager@@QEAA@XZ 0000000180054bd0 f i libvcruntimed:undname.obj
 0001:00053bf0       ??0DName@@QEAA@AEAPEBDD@Z  0000000180054bf0 f   libvcruntimed:undname.obj
 0001:00053dc0       ??0DName@@QEAA@AEBUStringLiteral@@@Z 0000000180054dc0 f   libvcruntimed:undname.obj
 0001:00053e20       ??0DName@@QEAA@AEBV0@@Z    0000000180054e20 f i libvcruntimed:undname.obj
 0001:00053e50       ??0DName@@QEAA@D@Z         0000000180054e50 f   libvcruntimed:undname.obj
 0001:00053e90       ??0DName@@QEAA@PEAV0@@Z    0000000180054e90 f   libvcruntimed:undname.obj
 0001:00053f70       ??0DName@@QEAA@W4DNameStatus@@@Z 0000000180054f70 f   libvcruntimed:undname.obj
 0001:00054020       ??0DName@@QEAA@XZ          0000000180055020 f i libvcruntimed:undname.obj
 0001:00054050       ??0DName@@QEAA@_J@Z        0000000180055050 f   libvcruntimed:undname.obj
 0001:00054160       ??0DName@@QEAA@_K@Z        0000000180055160 f   libvcruntimed:undname.obj
 0001:00054230       ??0DNameNode@@IEAA@XZ      0000000180055230 f i libvcruntimed:undname.obj
 0001:00054250       ??0Replicator@@QEAA@XZ     0000000180055250 f i libvcruntimed:undname.obj
 0001:00054290       ??0UnDecorator@@QEAA@PEBDP6APEADJ@ZK@Z 0000000180055290 f i libvcruntimed:undname.obj
 0001:00054340       ??0_Nontrivial_dummy_type@std@@QEAA@XZ 0000000180055340 f i libvcruntimed:undname.obj
 0001:00054350       ??0charNode@@QEAA@D@Z      0000000180055350 f i libvcruntimed:undname.obj
 0001:00054390       ??0pDNameNode@@QEAA@PEAVDName@@@Z 0000000180055390 f   libvcruntimed:undname.obj
 0001:00054410       ??0pairNode@@QEAA@PEBVDNameNode@@0@Z 0000000180055410 f i libvcruntimed:undname.obj
 0001:00054490       ??2@YAPEAX_KAEAV_HeapManager@@H@Z 0000000180055490 f   libvcruntimed:undname.obj
 0001:000544f0       ??4DName@@QEAAAEAV0@AEBUStringLiteral@@@Z 00000001800554f0 f   libvcruntimed:undname.obj
 0001:00054540       ??4DName@@QEAAAEAV0@AEBV0@@Z 0000000180055540 f   libvcruntimed:undname.obj
 0001:00054570       ??4DName@@QEAAAEAV0@D@Z    0000000180055570 f i libvcruntimed:undname.obj
 0001:000545b0       ??4DName@@QEAAAEAV0@PEAV0@@Z 00000001800555b0 f   libvcruntimed:undname.obj
 0001:00054680       ??4DName@@QEAAAEAV0@W4DNameStatus@@@Z 0000000180055680 f   libvcruntimed:undname.obj
 0001:00054710       ??AReplicator@@QEBA?AVDName@@H@Z 0000000180055710 f   libvcruntimed:undname.obj
 0001:000547a0       ??B?$optional@_K@std@@QEBA_NXZ 00000001800557a0 f i libvcruntimed:undname.obj
 0001:000547b0       ??D?$_Optional_construct_base@_K@std@@QEGAAAEA_KXZ 00000001800557b0 f i libvcruntimed:undname.obj
 0001:00054850       ??H@YA?AVDName@@AEBUStringLiteral@@AEBV0@@Z 0000000180055850 f i libvcruntimed:undname.obj
 0001:000548a0       ??H@YA?AVDName@@DAEBV0@@Z  00000001800558a0 f i libvcruntimed:undname.obj
 0001:000548f0       ??H@YA?AVDName@@W4DNameStatus@@AEBV0@@Z 00000001800558f0 f i libvcruntimed:undname.obj
 0001:00054940       ??HDName@@QEBA?AV0@AEBUStringLiteral@@@Z 0000000180055940 f   libvcruntimed:undname.obj
 0001:00054990       ??HDName@@QEBA?AV0@AEBV0@@Z 0000000180055990 f   libvcruntimed:undname.obj
 0001:000549e0       ??HDName@@QEBA?AV0@D@Z     00000001800559e0 f   libvcruntimed:undname.obj
 0001:00054a30       ??HDName@@QEBA?AV0@PEAV0@@Z 0000000180055a30 f   libvcruntimed:undname.obj
 0001:00054a80       ??HDName@@QEBA?AV0@W4DNameStatus@@@Z 0000000180055a80 f   libvcruntimed:undname.obj
 0001:00054ad0       ??HStringLiteral@@QEBA?AU0@H@Z 0000000180055ad0 f i libvcruntimed:undname.obj
 0001:00054b10       ??YDName@@QEAAAEAV0@AEBUStringLiteral@@@Z 0000000180055b10 f   libvcruntimed:undname.obj
 0001:00054be0       ??YDName@@QEAAAEAV0@AEBV0@@Z 0000000180055be0 f   libvcruntimed:undname.obj
 0001:00054ca0       ??YDName@@QEAAAEAV0@D@Z    0000000180055ca0 f   libvcruntimed:undname.obj
 0001:00054d40       ??YDName@@QEAAAEAV0@PEAV0@@Z 0000000180055d40 f   libvcruntimed:undname.obj
 0001:00054e20       ??YDName@@QEAAAEAV0@W4DNameStatus@@@Z 0000000180055e20 f   libvcruntimed:undname.obj
 0001:00054e90       ??YReplicator@@QEAAAEAV0@AEBVDName@@@Z 0000000180055e90 f   libvcruntimed:undname.obj
 0001:00054f50       ??_5DName@@QEAAAEAV0@AEBV0@@Z 0000000180055f50 f   libvcruntimed:undname.obj
 0001:00054fd0       ??__K_l@@YA?AUStringLiteral@@PEBD_K@Z 0000000180055fd0 f i libvcruntimed:undname.obj
 0001:00055020       ?Constructor@_HeapManager@@QEAAXP6APEAX_K@ZP6AXPEAX@Z@Z 0000000180056020 f i libvcruntimed:undname.obj
 0001:00055080       ?Destructor@_HeapManager@@QEAAXXZ 0000000180056080 f i libvcruntimed:undname.obj
 0001:00055120       ?UScore@UnDecorator@@SA?AUStringLiteral@@W4Tokens@@@Z 0000000180056120 f   libvcruntimed:undname.obj
 0001:000551b0       ?composeDeclaration@UnDecorator@@CA?AVDName@@AEBV2@@Z 00000001800561b0 f i libvcruntimed:undname.obj
 0001:000576b0       ?dbGetString@DName@@QEBAPEADXZ 00000001800586b0 f   libvcruntimed:undname.obj
 0001:000576e0       ?doAccessSpecifiers@UnDecorator@@SAHXZ 00000001800586e0 f i libvcruntimed:undname.obj
 0001:00057710       ?doAllocationLanguage@UnDecorator@@SAHXZ 0000000180058710 f i libvcruntimed:undname.obj
 0001:00057740       ?doAllocationModel@UnDecorator@@SAHXZ 0000000180058740 f i libvcruntimed:undname.obj
 0001:00057770       ?doEcsu@UnDecorator@@SAHXZ 0000000180058770 f i libvcruntimed:undname.obj
 0001:000577a0       ?doEllipsis@UnDecorator@@SAHXZ 00000001800587a0 f i libvcruntimed:undname.obj
 0001:000577d0       ?doFunctionReturns@UnDecorator@@SAHXZ 00000001800587d0 f i libvcruntimed:undname.obj
 0001:00057800       ?doMSKeywords@UnDecorator@@SAHXZ 0000000180058800 f i libvcruntimed:undname.obj
 0001:00057830       ?doMemberTypes@UnDecorator@@SAHXZ 0000000180058830 f i libvcruntimed:undname.obj
 0001:00057860       ?doNameOnly@UnDecorator@@SAHXZ 0000000180058860 f i libvcruntimed:undname.obj
 0001:00057870       ?doNoIdentCharCheck@UnDecorator@@SAHXZ 0000000180058870 f i libvcruntimed:undname.obj
 0001:00057880       ?doPchar@DName@@AEAAXD@Z   0000000180058880 f   libvcruntimed:undname.obj
 0001:00057910       ?doPtr64@UnDecorator@@SAHXZ 0000000180058910 f i libvcruntimed:undname.obj
 0001:00057940       ?doRestrictionSpec@UnDecorator@@SAHXZ 0000000180058940 f i libvcruntimed:undname.obj
 0001:00057970       ?doThisTypes@UnDecorator@@SAHXZ 0000000180058970 f i libvcruntimed:undname.obj
 0001:000579a0       ?doThrowTypes@UnDecorator@@SAHXZ 00000001800589a0 f i libvcruntimed:undname.obj
 0001:000579d0       ?doTypeOnly@UnDecorator@@SAHXZ 00000001800589d0 f i libvcruntimed:undname.obj
 0001:000579e0       ?doUnderScore@UnDecorator@@SAHXZ 00000001800589e0 f i libvcruntimed:undname.obj
 0001:00057a10       ?getAddressOf@UnDecorator@@CA?AVDName@@XZ 0000000180058a10 f   libvcruntimed:undname.obj
 0001:00057ab0       ?getArgumentList@UnDecorator@@CA?AVDName@@XZ 0000000180058ab0 f   libvcruntimed:undname.obj
 0001:00057c40       ?getArgumentTypes@UnDecorator@@CA?AVDName@@XZ 0000000180058c40 f   libvcruntimed:undname.obj
 0001:00057ef0       ?getArrayAccess@UnDecorator@@CA?AVDName@@XZ 0000000180058ef0 f   libvcruntimed:undname.obj
 0001:00057fa0       ?getArrayObject@UnDecorator@@CA?AVDName@@XZ 0000000180058fa0 f   libvcruntimed:undname.obj
 0001:000580a0       ?getArrayType@UnDecorator@@CA?AVDName@@AEBV2@@Z 00000001800590a0 f i libvcruntimed:undname.obj
 0001:00058460       ?getBasedType@UnDecorator@@CA?AVDName@@XZ 0000000180059460 f   libvcruntimed:undname.obj
 0001:000585b0       ?getBasicDataType@UnDecorator@@CA?AVDName@@AEBV2@@Z 00000001800595b0 f   libvcruntimed:undname.obj
 0001:00059380       ?getCHPEName@UnDecorator@@QEAAPEADPEADH@Z 000000018005a380 f i libvcruntimed:undname.obj
 0001:00059550       ?getCallIndex@UnDecorator@@CA?AVDName@@XZ 000000018005a550 f i libvcruntimed:undname.obj
 0001:00059570       ?getCallingConvention@UnDecorator@@CA?AVDName@@XZ 000000018005a570 f   libvcruntimed:undname.obj
 0001:00059940       ?getDataIndirectType@UnDecorator@@CA?AVDName@@AEBV2@W4IndirectionKind@@0H@Z 000000018005a940 f   libvcruntimed:undname.obj
 0001:0005a5e0       ?getDataIndirectType@UnDecorator@@CA?AVDName@@XZ 000000018005b5e0 f i libvcruntimed:undname.obj
 0001:0005a630       ?getDataType@UnDecorator@@CA?AVDName@@PEAV2@@Z 000000018005b630 f   libvcruntimed:undname.obj
 0001:0005a7f0       ?getDecoratedName@UnDecorator@@CA?AVDName@@XZ 000000018005b7f0 f   libvcruntimed:undname.obj
 0001:0005acc0       ?getDimension@UnDecorator@@CA?AVDName@@_N@Z 000000018005bcc0 f   libvcruntimed:undname.obj
 0001:0005af70       ?getDispatchTarget@UnDecorator@@CA?AVDName@@XZ 000000018005bf70 f   libvcruntimed:undname.obj
 0001:0005b010       ?getDisplacement@UnDecorator@@CA?AVDName@@XZ 000000018005c010 f i libvcruntimed:undname.obj
 0001:0005b030       ?getECSUDataType@UnDecorator@@CA?AVDName@@XZ 000000018005c030 f   libvcruntimed:undname.obj
 0001:0005b440       ?getECSUName@UnDecorator@@CA?AVDName@@XZ 000000018005c440 f i libvcruntimed:undname.obj
 0001:0005b460       ?getEnumType@UnDecorator@@CA?AVDName@@XZ 000000018005c460 f i libvcruntimed:undname.obj
 0001:0005b700       ?getExtendedDataIndirectType@UnDecorator@@CA?AVDName@@AEAW4IndirectionKind@@AEA_NH@Z 000000018005c700 f   libvcruntimed:undname.obj
 0001:0005b9d0       ?getExternalDataType@UnDecorator@@CA?AVDName@@AEBV2@@Z 000000018005c9d0 f i libvcruntimed:undname.obj
 0001:0005bab0       ?getFloatingPoint@UnDecorator@@CA?AVDName@@H@Z 000000018005cab0 f   libvcruntimed:undname.obj
 0001:0005bc30       ?getFunctionIndirectType@UnDecorator@@CA?AVDName@@AEBV2@@Z 000000018005cc30 f   libvcruntimed:undname.obj
 0001:0005c220       ?getGuardNumber@UnDecorator@@CA?AVDName@@XZ 000000018005d220 f i libvcruntimed:undname.obj
 0001:0005c240       ?getLastChar@DName@@QEBADXZ 000000018005d240 f i libvcruntimed:undname.obj
 0001:0005c290       ?getLastChar@DNameStatusNode@@UEBADXZ 000000018005d290 f i libvcruntimed:undname.obj
 0001:0005c2d0       ?getLastChar@charNode@@UEBADXZ 000000018005d2d0 f i libvcruntimed:undname.obj
 0001:0005c2e0       ?getLastChar@pDNameNode@@UEBADXZ 000000018005d2e0 f i libvcruntimed:undname.obj
 0001:0005c320       ?getLastChar@pairNode@@UEBADXZ 000000018005d320 f i libvcruntimed:undname.obj
 0001:0005c3a0       ?getLastChar@pcharNode@@UEBADXZ 000000018005d3a0 f i libvcruntimed:undname.obj
 0001:0005c3e0       ?getLexicalFrame@UnDecorator@@CA?AVDName@@XZ 000000018005d3e0 f i libvcruntimed:undname.obj
 0001:0005c430       ?getMemberAccess@UnDecorator@@CA?AVDName@@XZ 000000018005d430 f   libvcruntimed:undname.obj
 0001:0005c4e0       ?getMemoryWithBuffer@_HeapManager@@QEAAPEAX_K@Z 000000018005d4e0 f   libvcruntimed:undname.obj
 0001:0005c630       ?getMemoryWithoutBuffer@_HeapManager@@QEAAPEAX_K@Z 000000018005d630 f   libvcruntimed:undname.obj
 0001:0005c680       ?getNoexcept@UnDecorator@@CA?AVDName@@XZ 000000018005d680 f   libvcruntimed:undname.obj
 0001:0005c710       ?getNumberOfDimensions@UnDecorator@@CAHXZ 000000018005d710 f   libvcruntimed:undname.obj
 0001:0005c7f0       ?getOperatorName@UnDecorator@@CA?AVDName@@_NPEA_N@Z 000000018005d7f0 f i libvcruntimed:undname.obj
 0001:0005d720       ?getPointerToMember@UnDecorator@@CA?AVDName@@XZ 000000018005e720 f   libvcruntimed:undname.obj
 0001:0005d850       ?getPointerType@UnDecorator@@CA?AVDName@@AEBV2@0@Z 000000018005e850 f i libvcruntimed:undname.obj
 0001:0005d890       ?getPointerTypeArray@UnDecorator@@CA?AVDName@@AEBV2@0@Z 000000018005e890 f i libvcruntimed:undname.obj
 0001:0005d8d0       ?getPrimaryDataType@UnDecorator@@CA?AVDName@@AEBV2@@Z 000000018005e8d0 f   libvcruntimed:undname.obj
 0001:0005de90       ?getPtrRefDataType@UnDecorator@@CA?AVDName@@AEBV2@H@Z 000000018005ee90 f   libvcruntimed:undname.obj
 0001:0005e260       ?getPtrRefType@UnDecorator@@CA?AVDName@@AEBV2@0W4IndirectionKind@@@Z 000000018005f260 f   libvcruntimed:undname.obj
 0001:0005e4a0       ?getReferenceType@UnDecorator@@CA?AVDName@@AEBV2@0W4IndirectionKind@@@Z 000000018005f4a0 f i libvcruntimed:undname.obj
 0001:0005e4e0       ?getRestrictionSpec@UnDecorator@@CA?AVDName@@XZ 000000018005f4e0 f   libvcruntimed:undname.obj
 0001:0005e730       ?getReturnType@UnDecorator@@CA?AVDName@@PEAV2@@Z 000000018005f730 f   libvcruntimed:undname.obj
 0001:0005e790       ?getScope@UnDecorator@@CA?AVDName@@XZ 000000018005f790 f   libvcruntimed:undname.obj
 0001:0005eea0       ?getScopedName@UnDecorator@@CA?AVDName@@XZ 000000018005fea0 f   libvcruntimed:undname.obj
 0001:0005f090       ?getSignedDimension@UnDecorator@@CA?AVDName@@XZ 0000000180060090 f   libvcruntimed:undname.obj
 0001:0005f110       ?getStorageConvention@UnDecorator@@CA?AVDName@@XZ 0000000180060110 f i libvcruntimed:undname.obj
 0001:0005f130       ?getString@DName@@QEBAPEADPEAD0@Z 0000000180060130 f i libvcruntimed:undname.obj
 0001:0005f1b0       ?getString@DName@@QEBAPEADPEADH@Z 00000001800601b0 f i libvcruntimed:undname.obj
 0001:0005f270       ?getString@DNameStatusNode@@UEBAPEADPEAD0@Z 0000000180060270 f i libvcruntimed:undname.obj
 0001:0005f2c0       ?getString@charNode@@UEBAPEADPEAD0@Z 00000001800602c0 f i libvcruntimed:undname.obj
 0001:0005f300       ?getString@pDNameNode@@UEBAPEADPEAD0@Z 0000000180060300 f i libvcruntimed:undname.obj
 0001:0005f360       ?getString@pairNode@@UEBAPEADPEAD0@Z 0000000180060360 f i libvcruntimed:undname.obj
 0001:0005f430       ?getString@pcharNode@@UEBAPEADPEAD0@Z 0000000180060430 f i libvcruntimed:undname.obj
 0001:0005f470       ?getStringEncoding@UnDecorator@@CA?AVDName@@W4PrefixKind@@H@Z 0000000180060470 f   libvcruntimed:undname.obj
 0001:0005f5a0       ?getStringHelper@@YAPEADPEADPEBD1H@Z 00000001800605a0 f i libvcruntimed:undname.obj
 0001:0005f610       ?getStringObject@UnDecorator@@CA?AVDName@@XZ 0000000180060610 f   libvcruntimed:undname.obj
 0001:0005f6c0       ?getSymbolName@UnDecorator@@CA?AVDName@@XZ 00000001800606c0 f i libvcruntimed:undname.obj
 0001:0005f750       ?getTemplateArgumentList@UnDecorator@@CA?AVDName@@XZ 0000000180060750 f   libvcruntimed:undname.obj
 0001:0005fa60       ?getTemplateName@UnDecorator@@CA?AVDName@@_N@Z 0000000180060a60 f   libvcruntimed:undname.obj
 0001:0005fc80       ?getTemplateNonTypeArgument@UnDecorator@@CA?AVDName@@XZ 0000000180060c80 f   libvcruntimed:undname.obj
 0001:000604f0       ?getTemplateTypeArgument@UnDecorator@@CA?AVDName@@XZ 00000001800614f0 f   libvcruntimed:undname.obj
 0001:00060770       ?getThisType@UnDecorator@@CA?AVDName@@XZ 0000000180061770 f i libvcruntimed:undname.obj
 0001:000607c0       ?getThrowTypes@UnDecorator@@CA?AVDName@@XZ 00000001800617c0 f   libvcruntimed:undname.obj
 0001:00060800       ?getTypeEncoding@UnDecorator@@CAHXZ 0000000180061800 f i libvcruntimed:undname.obj
 0001:000613c0       ?getUndecoratedName@UnDecorator@@QEAAPEADPEADH@Z 00000001800623c0 f i libvcruntimed:undname.obj
 0001:000615b0       ?getUnionObject@UnDecorator@@CA?AVDName@@XZ 00000001800625b0 f   libvcruntimed:undname.obj
 0001:000616b0       ?getVCallThunkType@UnDecorator@@CA?AVDName@@XZ 00000001800626b0 f i libvcruntimed:undname.obj
 0001:00061750       ?getValue@UnDecorator@@CA?AV?$optional@_K@std@@XZ 0000000180062750 f   libvcruntimed:undname.obj
 0001:00061810       ?getValueObject@UnDecorator@@CA?AVDName@@XZ 0000000180062810 f   libvcruntimed:undname.obj
 0001:000619f0       ?getVbTableType@UnDecorator@@CA?AVDName@@AEBV2@@Z 00000001800629f0 f i libvcruntimed:undname.obj
 0001:00061a20       ?getVdispMapType@UnDecorator@@CA?AVDName@@AEBV2@@Z 0000000180062a20 f i libvcruntimed:undname.obj
 0001:00061ae0       ?getVfTableType@UnDecorator@@CA?AVDName@@AEBV2@@Z 0000000180062ae0 f i libvcruntimed:undname.obj
 0001:00061d70       ?getZName@UnDecorator@@CA?AVDName@@_N0@Z 0000000180062d70 f   libvcruntimed:undname.obj
 0001:000621a0       ?get_current_character_and_increment_buffer@UnDecorator@@CADXZ 00000001800631a0 f i libvcruntimed:undname.obj
 0001:000621e0       ?haveTemplateParameters@UnDecorator@@SAHXZ 00000001800631e0 f i libvcruntimed:undname.obj
 0001:000621f0       ?increment_buffer@UnDecorator@@CA_N_K@Z 00000001800631f0 f i libvcruntimed:undname.obj
 0001:00062250       ?increment_buffer_no_check@UnDecorator@@CAXXZ 0000000180063250 f i libvcruntimed:undname.obj
 0001:00062270       ?increment_buffer_no_check@UnDecorator@@CAX_K@Z 0000000180063270 f i libvcruntimed:undname.obj
 0001:000622c0       ?isArray@DName@@QEBAHXZ    00000001800632c0 f i libvcruntimed:undname.obj
 0001:000622e0       ?isComArray@DName@@QEBAHXZ 00000001800632e0 f i libvcruntimed:undname.obj
 0001:00062300       ?isEmpty@DName@@QEBAHXZ    0000000180063300 f i libvcruntimed:undname.obj
 0001:00062330       ?isFull@Replicator@@QEBAHXZ 0000000180063330 f i libvcruntimed:undname.obj
 0001:00062360       ?isNoTE@DName@@QEBAHXZ     0000000180063360 f i libvcruntimed:undname.obj
 0001:00062380       ?isPinPtr@DName@@QEBAHXZ   0000000180063380 f i libvcruntimed:undname.obj
 0001:000623a0       ?isPtrRef@DName@@QEBAHXZ   00000001800633a0 f i libvcruntimed:undname.obj
 0001:000623c0       ?isUDC@DName@@QEBAHXZ      00000001800633c0 f i libvcruntimed:undname.obj
 0001:00062410       ?isUDTThunk@DName@@QEBAHXZ 0000000180063410 f i libvcruntimed:undname.obj
 0001:00062460       ?isVCallThunk@DName@@QEBAHXZ 0000000180063460 f i libvcruntimed:undname.obj
 0001:00062480       ?isValid@DName@@QEBAHXZ    0000000180063480 f i libvcruntimed:undname.obj
 0001:000624c0       ?length@DName@@QEBAHXZ     00000001800634c0 f i libvcruntimed:undname.obj
 0001:00062510       ?length@DNameStatusNode@@UEBAHXZ 0000000180063510 f i libvcruntimed:undname.obj
 0001:00062520       ?length@charNode@@UEBAHXZ  0000000180063520 f i libvcruntimed:undname.obj
 0001:00062530       ?length@pDNameNode@@UEBAHXZ 0000000180063530 f i libvcruntimed:undname.obj
 0001:00062570       ?length@pairNode@@UEBAHXZ  0000000180063570 f i libvcruntimed:undname.obj
 0001:00062600       ?length@pcharNode@@UEBAHXZ 0000000180063600 f i libvcruntimed:undname.obj
 0001:00062610       ?make@DNameStatusNode@@SAPEBV1@W4DNameStatus@@@Z 0000000180063610 f i libvcruntimed:undname.obj
 0001:00062660       ?parseDecoratedName@UnDecorator@@CA?AVDName@@XZ 0000000180063660 f   libvcruntimed:undname.obj
 0001:00062850       ?raw_length@DNameStatusNode@@UEBAHXZ 0000000180063850 f i libvcruntimed:undname.obj
 0001:00062870       ?raw_length@charNode@@UEBAHXZ 0000000180063870 f i libvcruntimed:undname.obj
 0001:00062890       ?raw_length@pDNameNode@@UEBAHXZ 0000000180063890 f i libvcruntimed:undname.obj
 0001:000628a0       ?raw_length@pairNode@@UEBAHXZ 00000001800638a0 f i libvcruntimed:undname.obj
 0001:000628b0       ?raw_length@pcharNode@@UEBAHXZ 00000001800638b0 f i libvcruntimed:undname.obj
 0001:000628d0       ?setIsArray@DName@@QEAAXXZ 00000001800638d0 f i libvcruntimed:undname.obj
 0001:000628f0       ?setIsComArray@DName@@QEAAXXZ 00000001800638f0 f i libvcruntimed:undname.obj
 0001:00062910       ?setIsNoTE@DName@@QEAAXXZ  0000000180063910 f i libvcruntimed:undname.obj
 0001:00062930       ?setIsPinPtr@DName@@QEAAXXZ 0000000180063930 f i libvcruntimed:undname.obj
 0001:00062950       ?setIsUDC@DName@@QEAAXXZ   0000000180063950 f i libvcruntimed:undname.obj
 0001:00062980       ?setIsVCallThunk@DName@@QEAAXXZ 0000000180063980 f i libvcruntimed:undname.obj
 0001:000629a0       ?setPtrRef@DName@@QEAAAEAV1@XZ 00000001800639a0 f i libvcruntimed:undname.obj
 0001:000629c0       ?status@DName@@QEBA?AW4DNameStatus@@XZ 00000001800639c0 f i libvcruntimed:undname.obj
 0001:00062af0       __unDName                  0000000180063af0 f   libvcruntimed:undname.obj
 0001:00062b50       __unDNameEx                0000000180063b50 f   libvcruntimed:undname.obj
 0001:00062c10       snprintf                   0000000180063c10 f i libvcruntimed:undname.obj
 0001:00062c70       unDNameGenerateCHPE        0000000180063c70 f   libvcruntimed:undname.obj
 0001:00062d20       vsnprintf                  0000000180063d20 f i libvcruntimed:undname.obj
 0001:00062db0       _NLG_Notify                0000000180063db0 f   libvcruntimed:notify.obj
 0001:00062dd0       __NLG_Dispatch2            0000000180063dd0 f   libvcruntimed:notify.obj
 0001:00062de0       __NLG_Return2              0000000180063de0 f   libvcruntimed:notify.obj
 0001:00062e00       __except_validate_context_record 0000000180063e00 f   libvcruntimed:jbcxrval.obj
 0001:00062e60       __except_validate_jump_buffer 0000000180063e60 f   libvcruntimed:jbcxrval.obj
 0001:00062e80       __except_validate_jump_buffer_common 0000000180063e80 f i libvcruntimed:jbcxrval.obj
 0001:00062f00       ??$?RU__vcrt_ptd@@@__crt_internal_free_policy@@QEBAXQEBU__vcrt_ptd@@@Z 0000000180063f00 f i libvcruntimed:per_thread_data.obj
 0001:00062f30       ??0?$__crt_unique_heap_ptr@U__vcrt_ptd@@U__crt_internal_free_policy@@@@QEAA@QEAU__vcrt_ptd@@@Z 0000000180063f30 f i libvcruntimed:per_thread_data.obj
 0001:00062f70       ??1?$__crt_unique_heap_ptr@U__vcrt_ptd@@U__crt_internal_free_policy@@@@QEAA@XZ 0000000180063f70 f i libvcruntimed:per_thread_data.obj
 0001:00062fb0       ??B?$__crt_unique_heap_ptr@U__vcrt_ptd@@U__crt_internal_free_policy@@@@QEBA_NXZ 0000000180063fb0 f i libvcruntimed:per_thread_data.obj
 0001:00062fd0       ?detach@?$__crt_unique_heap_ptr@U__vcrt_ptd@@U__crt_internal_free_policy@@@@QEAAPEAU__vcrt_ptd@@XZ 0000000180063fd0 f i libvcruntimed:per_thread_data.obj
 0001:00063000       ?get@?$__crt_unique_heap_ptr@U__vcrt_ptd@@U__crt_internal_free_policy@@@@QEBAPEAU__vcrt_ptd@@XZ 0000000180064000 f i libvcruntimed:per_thread_data.obj
 0001:00063010       ?is_valid@?$__crt_unique_heap_ptr@U__vcrt_ptd@@U__crt_internal_free_policy@@@@QEBA_NXZ 0000000180064010 f i libvcruntimed:per_thread_data.obj
 0001:00063040       ?release@?$__crt_unique_heap_ptr@U__vcrt_ptd@@U__crt_internal_free_policy@@@@QEAAXXZ 0000000180064040 f i libvcruntimed:per_thread_data.obj
 0001:000630b0       __vcrt_freefls             00000001800640b0 f   libvcruntimed:per_thread_data.obj
 0001:000630f0       __vcrt_freeptd             00000001800640f0 f   libvcruntimed:per_thread_data.obj
 0001:00063150       __vcrt_getptd              0000000180064150 f   libvcruntimed:per_thread_data.obj
 0001:00063180       __vcrt_getptd_noexit       0000000180064180 f   libvcruntimed:per_thread_data.obj
 0001:00063320       __vcrt_getptd_noinit       0000000180064320 f   libvcruntimed:per_thread_data.obj
 0001:00063380       __vcrt_initialize_ptd      0000000180064380 f   libvcruntimed:per_thread_data.obj
 0001:000633d0       __vcrt_uninitialize_ptd    00000001800643d0 f   libvcruntimed:per_thread_data.obj
 0001:00063400       __vcrt_initialize_locks    0000000180064400 f   libvcruntimed:locks.obj
 0001:00063470       __vcrt_lock                0000000180064470 f   libvcruntimed:locks.obj
 0001:000634a0       __vcrt_uninitialize_locks  00000001800644a0 f   libvcruntimed:locks.obj
 0001:00063500       __vcrt_unlock              0000000180064500 f   libvcruntimed:locks.obj
 0001:00063530       ??$?0AEAViterator@TryBlockMap4@FH4@@AEAV012@$0A@@?$pair@Viterator@TryBlockMap4@FH4@@V123@@std@@QEAA@AEAViterator@TryBlockMap4@FH4@@0@Z 0000000180064530 f i libvcruntimed:risctrnsctrl.obj
 0001:00063590       ??$?0AEAViterator@TryBlockMap@__FrameHandler3@@AEAV012@$0A@@?$pair@Viterator@TryBlockMap@__FrameHandler3@@V123@@std@@QEAA@AEAViterator@TryBlockMap@__FrameHandler3@@0@Z 0000000180064590 f i libvcruntimed:risctrnsctrl.obj
 0001:000637a0       ??$_CallSETranslator@V__FrameHandler3@@@@YAHPEAUEHExceptionRecord@@PEA_KPEAU_CONTEXT@@PEAU_xDISPATCHER_CONTEXT@@PEBU_s_FuncInfo@@K1H@Z 00000001800647a0 f i libvcruntimed:risctrnsctrl.obj
 0001:00063830       ??$_CallSETranslator@V__FrameHandler4@@@@YAHPEAUEHExceptionRecord@@PEA_KPEAU_CONTEXT@@PEAU_xDISPATCHER_CONTEXT@@PEAUFuncInfo4@FH4@@K1H@Z 0000000180064830 f i libvcruntimed:risctrnsctrl.obj
 0001:000638c0       ??$forward@AEAViterator@TryBlockMap4@FH4@@@std@@YAAEAViterator@TryBlockMap4@FH4@@AEAV123@@Z 00000001800648c0 f i libvcruntimed:risctrnsctrl.obj
 0001:000638d0       ??$forward@AEAViterator@TryBlockMap@__FrameHandler3@@@std@@YAAEAViterator@TryBlockMap@__FrameHandler3@@AEAV123@@Z 00000001800648d0 f i libvcruntimed:risctrnsctrl.obj
 0001:000638e0       ??0FuncInfo4@FH4@@QEAA@XZ  00000001800648e0 f i libvcruntimed:risctrnsctrl.obj
 0001:00063950       ??0FuncInfoHeader@FH4@@QEAA@XZ 0000000180064950 f i libvcruntimed:risctrnsctrl.obj
 0001:00063970       ??0iterator@TryBlockMap4@FH4@@QEAA@AEAV12@I@Z 0000000180064970 f i libvcruntimed:risctrnsctrl.obj
 0001:000639a0       ??0iterator@TryBlockMap@__FrameHandler3@@QEAA@AEAV12@I@Z 00000001800649a0 f i libvcruntimed:risctrnsctrl.obj
 0001:000639d0       ??4iterator@TryBlockMap4@FH4@@QEAAAEAV012@AEBV012@@Z 00000001800649d0 f i libvcruntimed:risctrnsctrl.obj
 0001:000639f0       ??9iterator@TryBlockMap4@FH4@@QEBA_NAEBV012@@Z 00000001800649f0 f i libvcruntimed:risctrnsctrl.obj
 0001:00063a30       ??Diterator@TryBlockMap4@FH4@@QEAA?AUTryBlockMapEntry4@2@XZ 0000000180064a30 f i libvcruntimed:risctrnsctrl.obj
 0001:00063a60       ??Eiterator@TryBlockMap4@FH4@@QEAAAEAV012@XZ 0000000180064a60 f i libvcruntimed:risctrnsctrl.obj
 0001:00063aa0       ?CatchTryBlock@__FrameHandler3@@SAPEBU_s_TryBlockMapEntry@@PEBU_s_FuncInfo@@H@Z 0000000180064aa0 f   libvcruntimed:risctrnsctrl.obj
 0001:00063b30       ?DecompFuncInfo@FH4@@YA_JPEAEAEAUFuncInfo4@1@_KH@Z 0000000180064b30 f i libvcruntimed:risctrnsctrl.obj
 0001:00063b70       ?DecompFuncInfo@FH4@@YA_JPEAEAEAUFuncInfo4@1@_KH_N@Z 0000000180064b70 f i libvcruntimed:risctrnsctrl.obj
 0001:00063d40       ?DecompTryBlock@TryBlockMap4@FH4@@AEAAXXZ 0000000180064d40 f i libvcruntimed:risctrnsctrl.obj
 0001:00063dc0       ?ExecutionInCatch@__FrameHandler3@@SA_NPEAU_xDISPATCHER_CONTEXT@@PEBU_s_FuncInfo@@@Z 0000000180064dc0 f   libvcruntimed:risctrnsctrl.obj
 0001:00063e10       ?ExecutionInCatch@__FrameHandler4@@SA_NPEAU_xDISPATCHER_CONTEXT@@PEAUFuncInfo4@FH4@@@Z 0000000180064e10 f   libvcruntimed:risctrnsctrl.obj
 0001:00063e30       ?FrameUnwindToEmptyState@__FrameHandler3@@SAXPEA_KPEAU_xDISPATCHER_CONTEXT@@PEBU_s_FuncInfo@@@Z 0000000180064e30 f   libvcruntimed:risctrnsctrl.obj
 0001:00063ed0       ?FrameUnwindToEmptyState@__FrameHandler4@@SAXPEA_KPEAU_xDISPATCHER_CONTEXT@@PEAUFuncInfo4@FH4@@@Z 0000000180064ed0 f   libvcruntimed:risctrnsctrl.obj
 0001:00063f20       ?GetEstablisherFrame@__FrameHandler3@@SAPEA_KPEA_KPEAU_xDISPATCHER_CONTEXT@@PEBU_s_FuncInfo@@0@Z 0000000180064f20 f   libvcruntimed:risctrnsctrl.obj
 0001:00064090       ?GetEstablisherFrame@__FrameHandler4@@SAPEA_KPEA_KPEAU_xDISPATCHER_CONTEXT@@PEAUFuncInfo4@FH4@@0@Z 0000000180065090 f   libvcruntimed:risctrnsctrl.obj
 0001:00064100       ?GetRangeOfTrysToCheck@__FrameHandler3@@SA?AU?$pair@Viterator@TryBlockMap@__FrameHandler3@@V123@@std@@AEAVTryBlockMap@1@HPEAU_xDISPATCHER_CONTEXT@@PEBU_s_FuncInfo@@H@Z 0000000180065100 f   libvcruntimed:risctrnsctrl.obj
 0001:00064340       ?GetRangeOfTrysToCheck@__FrameHandler4@@SA?AU?$pair@Viterator@TryBlockMap4@FH4@@V123@@std@@AEAVTryBlockMap4@FH4@@HPEAU_xDISPATCHER_CONTEXT@@PEAUFuncInfo4@5@H@Z 0000000180065340 f   libvcruntimed:risctrnsctrl.obj
 0001:000644f0       ?ReadInt@FH4@@YAHPEAPEAE@Z 00000001800654f0 f i libvcruntimed:risctrnsctrl.obj
 0001:00064530       ?ReadUnsigned@FH4@@YAIPEAPEAE@Z 0000000180065530 f i libvcruntimed:risctrnsctrl.obj
 0001:000645c0       ?UnwindNestedFrames@__FrameHandler3@@SAXPEA_KPEAUEHExceptionRecord@@PEAU_CONTEXT@@0PEAXPEBU_s_FuncInfo@@HHPEBU_s_HandlerType@@PEAU_xDISPATCHER_CONTEXT@@E@Z 00000001800655c0 f   libvcruntimed:risctrnsctrl.obj
 0001:00064730       ?UnwindNestedFrames@__FrameHandler4@@SAXPEA_KPEAUEHExceptionRecord@@PEAU_CONTEXT@@0PEAXPEAUFuncInfo4@FH4@@HHPEAUHandlerType4@5@PEAU_xDISPATCHER_CONTEXT@@E@Z 0000000180065730 f   libvcruntimed:risctrnsctrl.obj
 0001:00064900       ?begin@TryBlockMap4@FH4@@QEAA?AViterator@12@XZ 0000000180065900 f i libvcruntimed:risctrnsctrl.obj
 0001:00064930       ?end@TryBlockMap4@FH4@@QEAA?AViterator@12@XZ 0000000180065930 f i libvcruntimed:risctrnsctrl.obj
 0001:00064960       ?imageRelToByteBuffer@FH4@@YAPEAE_KH@Z 0000000180065960 f i libvcruntimed:risctrnsctrl.obj
 0001:00064980       ?incrementToSentinel@iterator@TryBlockMap4@FH4@@QEAAXXZ 0000000180065980 f i libvcruntimed:risctrnsctrl.obj
 0001:000649a0       ?setBuffer@TryBlockMap4@FH4@@QEAAXViterator@12@@Z 00000001800659a0 f i libvcruntimed:risctrnsctrl.obj
 0001:00064a10       _CreateFrameInfo           0000000180065a10 f   libvcruntimed:risctrnsctrl.obj
 0001:00064a80       _FindAndUnlinkFrame        0000000180065a80 f   libvcruntimed:risctrnsctrl.obj
 0001:00064b00       _GetImageBase              0000000180065b00 f   libvcruntimed:risctrnsctrl.obj
 0001:00064b20       _GetThrowImageBase         0000000180065b20 f   libvcruntimed:risctrnsctrl.obj
 0001:00064b40       _SetImageBase              0000000180065b40 f   libvcruntimed:risctrnsctrl.obj
 0001:00064b60       _SetThrowImageBase         0000000180065b60 f   libvcruntimed:risctrnsctrl.obj
 0001:00064b80       __CxxFrameHandler          0000000180065b80 f   libvcruntimed:risctrnsctrl.obj
 0001:00064bc0       __CxxFrameHandler2         0000000180065bc0 f   libvcruntimed:risctrnsctrl.obj
 0001:00064c00       __CxxFrameHandler3         0000000180065c00 f   libvcruntimed:risctrnsctrl.obj
 0001:00064ce0       __CxxFrameHandler4         0000000180065ce0 f   libvcruntimed:risctrnsctrl.obj
 0001:00064df0       ??$__crt_interlocked_exchange_pointer@UHINSTANCE__@@PEAU1@@@YAPEAUHINSTANCE__@@PEDSEAU0@QEAU0@@Z 0000000180065df0 f i libvcruntimed:winapi_downlevel.obj
 0001:00064e10       ??$__crt_interlocked_exchange_pointer@UHINSTANCE__@@PEAX@@YAPEAUHINSTANCE__@@PEDSEAU0@QEAX@Z 0000000180065e10 f i libvcruntimed:winapi_downlevel.obj
 0001:00064e30       ??$__crt_interlocked_exchange_pointer@XPEAX@@YAPEAXPEDSEAXQEAX@Z 0000000180065e30 f i libvcruntimed:winapi_downlevel.obj
 0001:00064e50       ??$__crt_interlocked_read_pointer@UHINSTANCE__@@@@YAPEAUHINSTANCE__@@PEDSEAU0@@Z 0000000180065e50 f i libvcruntimed:winapi_downlevel.obj
 0001:00064e70       ??$__crt_interlocked_read_pointer@X@@YAPEAXPEDSEAX@Z 0000000180065e70 f i libvcruntimed:winapi_downlevel.obj
 0001:00065380       __vcrt_FlsAlloc            0000000180066380 f   libvcruntimed:winapi_downlevel.obj
 0001:000653d0       __vcrt_FlsFree             00000001800663d0 f   libvcruntimed:winapi_downlevel.obj
 0001:00065420       __vcrt_FlsGetValue         0000000180066420 f   libvcruntimed:winapi_downlevel.obj
 0001:00065470       __vcrt_FlsSetValue         0000000180066470 f   libvcruntimed:winapi_downlevel.obj
 0001:000654d0       __vcrt_InitializeCriticalSectionEx 00000001800664d0 f   libvcruntimed:winapi_downlevel.obj
 0001:00065540       ?GetCurrentState@__FrameHandler3@@SAHPEA_KPEAU_xDISPATCHER_CONTEXT@@PEBU_s_FuncInfo@@@Z 0000000180066540 f   libvcruntimed:ehstate.obj
 0001:000655a0       ?GetUnwindTryBlock@__FrameHandler3@@SAHPEA_KPEAU_xDISPATCHER_CONTEXT@@PEBU_s_FuncInfo@@@Z 00000001800665a0 f   libvcruntimed:ehstate.obj
 0001:000655f0       ?SetState@__FrameHandler3@@SAXPEA_KPEBU_s_FuncInfo@@H@Z 00000001800665f0 f   libvcruntimed:ehstate.obj
 0001:00065620       ?SetUnwindTryBlock@__FrameHandler3@@SAXPEA_KPEAU_xDISPATCHER_CONTEXT@@PEBU_s_FuncInfo@@H@Z 0000000180066620 f   libvcruntimed:ehstate.obj
 0001:00065690       ?StateFromControlPc@__FrameHandler3@@SAHPEBU_s_FuncInfo@@PEAU_xDISPATCHER_CONTEXT@@@Z 0000000180066690 f   libvcruntimed:ehstate.obj
 0001:000656d0       ?StateFromControlPc@__FrameHandler4@@SAHPEAUFuncInfo4@FH4@@PEAU_xDISPATCHER_CONTEXT@@@Z 00000001800666d0 f   libvcruntimed:ehstate.obj
 0001:00065710       ?StateFromIp@__FrameHandler3@@SAHPEBU_s_FuncInfo@@PEAU_xDISPATCHER_CONTEXT@@_K@Z 0000000180066710 f   libvcruntimed:ehstate.obj
 0001:00065800       ?StateFromIp@__FrameHandler4@@SAHPEAUFuncInfo4@FH4@@PEAU_xDISPATCHER_CONTEXT@@_K@Z 0000000180066800 f   libvcruntimed:ehstate.obj
 0001:000658f0       ?__FuncRelToRealOffset@@YA_KPEAU_xDISPATCHER_CONTEXT@@I@Z 00000001800668f0 f i libvcruntimed:ehstate.obj
 0001:00065920       ?__RVAtoRealOffset@@YA_KPEAU_xDISPATCHER_CONTEXT@@H@Z 0000000180066920 f i libvcruntimed:ehstate.obj
 0001:00067b80       ??$TypeMatchHelper@V__FrameHandler3@@@@YAHPEBU_s_HandlerType@@PEBU_s_CatchableType@@PEBU_s_ThrowInfo@@@Z 0000000180068b80 f i libvcruntimed:frame.obj
 0001:00067d80       ??$TypeMatchHelper@V__FrameHandler4@@@@YAHPEAUHandlerType4@FH4@@PEBU_s_CatchableType@@PEBU_s_ThrowInfo@@@Z 0000000180068d80 f i libvcruntimed:frame.obj
 0001:00067f90       ??$__InternalCxxFrameHandler@V__FrameHandler3@@@@YA?AW4_EXCEPTION_DISPOSITION@@PEAUEHExceptionRecord@@PEA_KPEAU_CONTEXT@@PEAU_xDISPATCHER_CONTEXT@@PEBU_s_FuncInfo@@H1E@Z 0000000180068f90 f i libvcruntimed:frame.obj
 0001:00068400       ??$__InternalCxxFrameHandler@V__FrameHandler4@@@@YA?AW4_EXCEPTION_DISPOSITION@@PEAUEHExceptionRecord@@PEA_KPEAU_CONTEXT@@PEAU_xDISPATCHER_CONTEXT@@PEAUFuncInfo4@FH4@@H1E@Z 0000000180069400 f i libvcruntimed:frame.obj
 0001:00068890       ??$__InternalCxxFrameHandlerWrapper@V__FrameHandler3@@@@YA?AW4_EXCEPTION_DISPOSITION@@PEAUEHExceptionRecord@@PEA_KPEAU_CONTEXT@@PEAU_xDISPATCHER_CONTEXT@@PEBU_s_FuncInfo@@H1E@Z 0000000180069890 f i libvcruntimed:frame.obj
 0001:00068900       ??$__InternalCxxFrameHandlerWrapper@V__FrameHandler4@@@@YA?AW4_EXCEPTION_DISPOSITION@@PEAUEHExceptionRecord@@PEA_KPEAU_CONTEXT@@PEAU_xDISPATCHER_CONTEXT@@PEAUFuncInfo4@FH4@@H1E@Z 0000000180069900 f i libvcruntimed:frame.obj
 0001:000689a0       ??0HandlerMap4@FH4@@QEAA@PEBUTryBlockMapEntry4@1@_KH@Z 00000001800699a0 f i libvcruntimed:frame.obj
 0001:00068a60       ??0HandlerMap@__FrameHandler3@@QEAA@PEBU_s_TryBlockMapEntry@@_KI@Z 0000000180069a60 f i libvcruntimed:frame.obj
 0001:00068ab0       ??0HandlerType4@FH4@@QEAA@XZ 0000000180069ab0 f i libvcruntimed:frame.obj
 0001:00068ad0       ??0TryBlockMap4@FH4@@QEAA@PEBUFuncInfo4@1@_K@Z 0000000180069ad0 f i libvcruntimed:frame.obj
 0001:00068b60       ??0TryBlockMap@__FrameHandler3@@QEAA@PEBU_s_FuncInfo@@_K@Z 0000000180069b60 f i libvcruntimed:frame.obj
 0001:00068b90       ??0UWMap4@FH4@@QEAA@PEBUFuncInfo4@1@_K@Z 0000000180069b90 f i libvcruntimed:frame.obj
 0001:00068c00       ??0bad_exception@std@@QEAA@AEBV01@@Z 0000000180069c00 f i libvcruntimed:frame.obj
 0001:00068c40       ??0bad_exception@std@@QEAA@XZ 0000000180069c40 f i libvcruntimed:frame.obj
 0001:00068c80       ??0exception@std@@QEAA@AEBV01@@Z 0000000180069c80 f i libvcruntimed:frame.obj
 0001:00068ce0       ??0exception@std@@QEAA@QEBDH@Z 0000000180069ce0 f i libvcruntimed:frame.obj
 0001:00068d30       ??0iterator@HandlerMap4@FH4@@QEAA@AEAV12@I@Z 0000000180069d30 f i libvcruntimed:frame.obj
 0001:00068d60       ??0iterator@HandlerMap@__FrameHandler3@@QEAA@AEAV12@I@Z 0000000180069d60 f i libvcruntimed:frame.obj
 0001:00068d90       ??0iterator@UWMap4@FH4@@QEAA@AEAV12@PEAE@Z 0000000180069d90 f i libvcruntimed:frame.obj
 0001:00068dc0       ??1bad_exception@std@@UEAA@XZ 0000000180069dc0 f i libvcruntimed:frame.obj
 0001:00068de0       ??1exception@std@@UEAA@XZ  0000000180069de0 f i libvcruntimed:frame.obj
 0001:00068e10       ??4iterator@UWMap4@FH4@@QEAAAEAV012@AEBV012@@Z 0000000180069e10 f i libvcruntimed:frame.obj
 0001:00068e60       ??8iterator@HandlerMap4@FH4@@QEBA_NAEBV012@@Z 0000000180069e60 f i libvcruntimed:frame.obj
 0001:00068ea0       ??8iterator@HandlerMap@__FrameHandler3@@QEBA_NAEBV012@@Z 0000000180069ea0 f i libvcruntimed:frame.obj
 0001:00068ee0       ??8type_info@@QEBA_NAEBV0@@Z 0000000180069ee0 f i libvcruntimed:frame.obj
 0001:00068f60       ??9iterator@HandlerMap4@FH4@@QEBA_NAEBV012@@Z 0000000180069f60 f i libvcruntimed:frame.obj
 0001:00068fa0       ??9iterator@HandlerMap@__FrameHandler3@@QEBA_NAEBV012@@Z 0000000180069fa0 f i libvcruntimed:frame.obj
 0001:00068fe0       ??Diterator@HandlerMap4@FH4@@QEAA?AUHandlerType4@2@XZ 0000000180069fe0 f i libvcruntimed:frame.obj
 0001:00069010       ??Diterator@HandlerMap@__FrameHandler3@@QEAA?BU_s_HandlerType@@XZ 000000018006a010 f i libvcruntimed:frame.obj
 0001:00069050       ??Diterator@TryBlockMap@__FrameHandler3@@QEAA?BU_s_TryBlockMapEntry@@XZ 000000018006a050 f i libvcruntimed:frame.obj
 0001:000690a0       ??Diterator@UWMap4@FH4@@QEAA?AUUnwindMapEntry4@2@XZ 000000018006a0a0 f i libvcruntimed:frame.obj
 0001:00069120       ??Eiterator@HandlerMap4@FH4@@QEAAAEAV012@XZ 000000018006a120 f i libvcruntimed:frame.obj
 0001:00069160       ??Eiterator@HandlerMap@__FrameHandler3@@QEAAAEAV012@XZ 000000018006a160 f i libvcruntimed:frame.obj
 0001:00069180       ??Eiterator@TryBlockMap@__FrameHandler3@@QEAAAEAV012@XZ 000000018006a180 f i libvcruntimed:frame.obj
 0001:000691a0       ??Eiterator@UWMap4@FH4@@QEAAAEAV012@XZ 000000018006a1a0 f i libvcruntimed:frame.obj
 0001:000691e0       ??Giterator@UWMap4@FH4@@QEBA_JAEBV012@@Z 000000018006a1e0 f i libvcruntimed:frame.obj
 0001:00069200       ??Miterator@TryBlockMap4@FH4@@QEBA_NAEBV012@@Z 000000018006a200 f i libvcruntimed:frame.obj
 0001:00069240       ??Miterator@TryBlockMap@__FrameHandler3@@QEBA_NAEBV012@@Z 000000018006a240 f i libvcruntimed:frame.obj
 0001:00069280       ??Oiterator@UWMap4@FH4@@QEBA_NAEBV012@@Z 000000018006a280 f i libvcruntimed:frame.obj
 0001:000692c0       ??Piterator@UWMap4@FH4@@QEBA_NAEBV012@@Z 000000018006a2c0 f i libvcruntimed:frame.obj
 0001:00069300       ??_Ebad_exception@std@@UEAAPEAXI@Z 000000018006a300 f i libvcruntimed:frame.obj
 0001:00069300       ??_Gbad_exception@std@@UEAAPEAXI@Z 000000018006a300 f i libvcruntimed:frame.obj
 0001:00069340       ??_Eexception@std@@UEAAPEAXI@Z 000000018006a340 f i libvcruntimed:frame.obj
 0001:00069340       ??_Gexception@std@@UEAAPEAXI@Z 000000018006a340 f i libvcruntimed:frame.obj
 0001:00069380       ?BuildCatchObject@__FrameHandler3@@SAXPEAUEHExceptionRecord@@PEAXPEBU_s_HandlerType@@PEBU_s_CatchableType@@@Z 000000018006a380 f   libvcruntimed:frame.obj
 0001:000693c0       ?BuildCatchObject@__FrameHandler4@@SAXPEAUEHExceptionRecord@@PEAXPEAUHandlerType4@FH4@@PEBU_s_CatchableType@@@Z 000000018006a3c0 f   libvcruntimed:frame.obj
 0001:00069400       ?BuildCatchObjectHelper@__FrameHandler3@@SAHPEAUEHExceptionRecord@@PEAXPEBU_s_HandlerType@@PEBU_s_CatchableType@@@Z 000000018006a400 f   libvcruntimed:frame.obj
 0001:00069440       ?BuildCatchObjectHelper@__FrameHandler4@@SAHPEAUEHExceptionRecord@@PEAXPEAUHandlerType4@FH4@@PEBU_s_CatchableType@@@Z 000000018006a440 f   libvcruntimed:frame.obj
 0001:00069480       ?CxxCallCatchBlock@__FrameHandler3@@SAPEAXPEAU_EXCEPTION_RECORD@@@Z 000000018006a480 f   libvcruntimed:frame.obj
 0001:000696e0       ?CxxCallCatchBlock@__FrameHandler4@@SAPEAXPEAU_EXCEPTION_RECORD@@@Z 000000018006a6e0 f   libvcruntimed:frame.obj
 0001:00069a10       ?DecompHandler@HandlerMap4@FH4@@AEAAXXZ 000000018006aa10 f i libvcruntimed:frame.obj
 0001:00069de0       ?FrameUnwindToState@__FrameHandler3@@SAXPEA_KPEAU_xDISPATCHER_CONTEXT@@PEBU_s_FuncInfo@@H@Z 000000018006ade0 f   libvcruntimed:frame.obj
 0001:0006a030       ?FrameUnwindToState@__FrameHandler4@@SAXPEA_KPEAU_xDISPATCHER_CONTEXT@@PEAUFuncInfo4@FH4@@H@Z 000000018006b030 f   libvcruntimed:frame.obj
 0001:0006a340       ?GetHandlerSearchState@__FrameHandler3@@SAHPEA_KPEAU_xDISPATCHER_CONTEXT@@PEBU_s_FuncInfo@@@Z 000000018006b340 f i libvcruntimed:frame.obj
 0001:0006a3f0       ?GetHandlerSearchState@__FrameHandler4@@SAHPEA_KPEAU_xDISPATCHER_CONTEXT@@PEAUFuncInfo4@FH4@@@Z 000000018006b3f0 f i libvcruntimed:frame.obj
 0001:0006a470       ?GetMaxState@__FrameHandler3@@SAHPEAU_xDISPATCHER_CONTEXT@@PEBU_s_FuncInfo@@@Z 000000018006b470 f i libvcruntimed:frame.obj
 0001:0006a490       ?GetMaxState@__FrameHandler4@@SAHPEAU_xDISPATCHER_CONTEXT@@PEAUFuncInfo4@FH4@@@Z 000000018006b490 f i libvcruntimed:frame.obj
 0001:0006a6c0       ?ReadEntry@UWMap4@FH4@@AEAAXPEAPEAE@Z 000000018006b6c0 f i libvcruntimed:frame.obj
 0001:0006a770       ?TypeMatch@__FrameHandler3@@SAHPEBU_s_HandlerType@@PEBU_s_CatchableType@@PEBU_s_ThrowInfo@@@Z 000000018006b770 f   libvcruntimed:frame.obj
 0001:0006a7a0       ?TypeMatch@__FrameHandler4@@SAHPEAUHandlerType4@FH4@@PEBU_s_CatchableType@@PEBU_s_ThrowInfo@@@Z 000000018006b7a0 f   libvcruntimed:frame.obj
 0001:0006a7d0       ?WalkBack@UWMap4@FH4@@AEAAXPEAPEAE@Z 000000018006b7d0 f i libvcruntimed:frame.obj
 0001:0006a820       ?WalkBack@iterator@UWMap4@FH4@@QEAAXXZ 000000018006b820 f i libvcruntimed:frame.obj
 0001:0006a860       ?WalkForward@UWMap4@FH4@@AEAAXPEAPEAE@Z 000000018006b860 f i libvcruntimed:frame.obj
 0001:0006a890       ?_CallMemberFunction1@@YAXQEAX00@Z 000000018006b890 f i libvcruntimed:frame.obj
 0001:0006a8d0       ?_CallMemberFunction2@@YAXQEAX00H@Z 000000018006b8d0 f i libvcruntimed:frame.obj
 0001:0006a960       ?begin@HandlerMap4@FH4@@QEAA?AViterator@12@XZ 000000018006b960 f i libvcruntimed:frame.obj
 0001:0006a990       ?begin@HandlerMap@__FrameHandler3@@QEAA?AViterator@12@XZ 000000018006b990 f i libvcruntimed:frame.obj
 0001:0006a9c0       ?begin@UWMap4@FH4@@QEAA?AViterator@12@XZ 000000018006b9c0 f i libvcruntimed:frame.obj
 0001:0006a9f0       ?end@HandlerMap4@FH4@@QEAA?AViterator@12@XZ 000000018006b9f0 f i libvcruntimed:frame.obj
 0001:0006aa20       ?end@HandlerMap@__FrameHandler3@@QEAA?AViterator@12@XZ 000000018006ba20 f i libvcruntimed:frame.obj
 0001:0006aa50       ?getESTypes@__FrameHandler3@@SAPEBU_s_ESTypeList@@PEBU_s_FuncInfo@@@Z 000000018006ba50 f i libvcruntimed:frame.obj
 0001:0006aa90       ?getESTypes@__FrameHandler4@@SAPEBU_s_ESTypeList@@PEAUFuncInfo4@FH4@@@Z 000000018006ba90 f i libvcruntimed:frame.obj
 0001:0006aaa0       ?getLastEntry@HandlerMap4@FH4@@QEAAPEAUHandlerType4@2@XZ 000000018006baa0 f i libvcruntimed:frame.obj
 0001:0006aae0       ?getLastEntry@HandlerMap@__FrameHandler3@@QEAAPEBU_s_HandlerType@@XZ 000000018006bae0 f i libvcruntimed:frame.obj
 0001:0006ab00       ?getMagicNum@__FrameHandler3@@SAIPEBU_s_FuncInfo@@@Z 000000018006bb00 f i libvcruntimed:frame.obj
 0001:0006ab20       ?getMagicNum@__FrameHandler4@@SAIPEAUFuncInfo4@FH4@@@Z 000000018006bb20 f i libvcruntimed:frame.obj
 0001:0006ab30       ?getNumTryBlocks@TryBlockMap4@FH4@@QEAAIXZ 000000018006bb30 f i libvcruntimed:frame.obj
 0001:0006ab40       ?getNumTryBlocks@TryBlockMap@__FrameHandler3@@QEAAIXZ 000000018006bb40 f i libvcruntimed:frame.obj
 0001:0006ab60       ?getStartStop@UWMap4@FH4@@QEAAXHHAEAViterator@12@0@Z 000000018006bb60 f i libvcruntimed:frame.obj
 0001:0006ac80       ?getStateFromIterators@UWMap4@FH4@@SAHAEBViterator@12@H0H0@Z 000000018006bc80 f i libvcruntimed:frame.obj
 0001:0006adc0       ?isEHs@__FrameHandler3@@SA_NPEBU_s_FuncInfo@@@Z 000000018006bdc0 f i libvcruntimed:frame.obj
 0001:0006ae00       ?isEHs@__FrameHandler4@@SA_NPEAUFuncInfo4@FH4@@@Z 000000018006be00 f i libvcruntimed:frame.obj
 0001:0006ae20       ?isNoExcept@__FrameHandler3@@SA_NPEBU_s_FuncInfo@@@Z 000000018006be20 f i libvcruntimed:frame.obj
 0001:0006ae60       ?isNoExcept@__FrameHandler4@@SA_NPEAUFuncInfo4@FH4@@@Z 000000018006be60 f i libvcruntimed:frame.obj
 0001:0006ae80       ?reset@HandlerType4@FH4@@QEAAXXZ 000000018006be80 f i libvcruntimed:frame.obj
 0001:0006aee0       ?resetBuffer@HandlerMap4@FH4@@QEAAXXZ 000000018006bee0 f i libvcruntimed:frame.obj
 0001:0006af00       ?setBuffer@HandlerMap4@FH4@@QEAAXI@Z 000000018006bf00 f i libvcruntimed:frame.obj
 0001:0006af60       ?what@exception@std@@UEBAPEBDXZ 000000018006bf60 f i libvcruntimed:frame.obj
 0001:0006afa0       __BuildCatchObject         000000018006bfa0 f   libvcruntimed:frame.obj
 0001:0006afe0       __BuildCatchObjectHelper   000000018006bfe0 f   libvcruntimed:frame.obj
 0001:0006b020       __TypeMatch                000000018006c020 f   libvcruntimed:frame.obj
 0001:0006b050       __vcrt_EncodePointer       000000018006c050 f i libvcruntimed:frame.obj
 0001:0006b080       _CallSettingFrame          000000018006c080 f   libvcruntimed:handlers.obj
 0001:0006b0d0       _CallSettingFrame_LookupContinuationIndex 000000018006c0d0 f   libvcruntimed:handlers.obj
 0001:0006b100       _CallSettingFrame_NotifyContinuationAddr 000000018006c100 f   libvcruntimed:handlers.obj
 0001:0006b130       _CallSettingFrameEncoded   000000018006c130 f   libvcruntimed:handlers.obj
 0001:0006b180       ??$?RD@__crt_public_free_policy@@QEBAXQEBD@Z 000000018006c180 f i libvcruntimed:std_exception.obj
 0001:0006b1a0       ??0?$__crt_unique_heap_ptr@DU__crt_public_free_policy@@@@QEAA@QEAD@Z 000000018006c1a0 f i libvcruntimed:std_exception.obj
 0001:0006b1c0       ??1?$__crt_unique_heap_ptr@DU__crt_public_free_policy@@@@QEAA@XZ 000000018006c1c0 f i libvcruntimed:std_exception.obj
 0001:0006b1e0       ??B?$__crt_unique_heap_ptr@DU__crt_public_free_policy@@@@QEBA_NXZ 000000018006c1e0 f i libvcruntimed:std_exception.obj
 0001:0006b200       ?detach@?$__crt_unique_heap_ptr@DU__crt_public_free_policy@@@@QEAAPEADXZ 000000018006c200 f i libvcruntimed:std_exception.obj
 0001:0006b230       ?get@?$__crt_unique_heap_ptr@DU__crt_public_free_policy@@@@QEBAPEADXZ 000000018006c230 f i libvcruntimed:std_exception.obj
 0001:0006b240       ?is_valid@?$__crt_unique_heap_ptr@DU__crt_public_free_policy@@@@QEBA_NXZ 000000018006c240 f i libvcruntimed:std_exception.obj
 0001:0006b270       ?release@?$__crt_unique_heap_ptr@DU__crt_public_free_policy@@@@QEAAXXZ 000000018006c270 f i libvcruntimed:std_exception.obj
 0001:0006b2a0       __std_exception_copy       000000018006c2a0 f   libvcruntimed:std_exception.obj
 0001:0006b3e0       __std_exception_destroy    000000018006c3e0 f   libvcruntimed:std_exception.obj
 0001:0006b420       _CxxThrowException         000000018006c420 f   libvcruntimed:throw.obj
 0001:0006b550       _local_unwind              000000018006c550 f   libvcruntimed:jmpuwind.obj
 0001:0006b590       strcmp                     000000018006c590 f   libucrtd:strcmp.obj
 0001:0006b620       fabs                       000000018006c620 f   libucrtd:fabs.obj
 0001:0006b640       atan2f                     000000018006c640 f   libucrtd:atan2f.obj
 0001:0006c140       sqrtf                      000000018006d140 f   libucrtd:sqrtf.obj
 0001:0006c280       floorf                     000000018006d280 f   libucrtd:floorf.obj
 0001:0006c3d0       _fpclass                   000000018006d3d0 f   libucrtd:ieeemisc.obj
 0001:0006c590       _fpclassf                  000000018006d590 f   libucrtd:ieeemisc.obj
 0001:0006c6c0       _isnan                     000000018006d6c0 f   libucrtd:ieeemisc.obj
 0001:0006c720       _isnanf                    000000018006d720 f   libucrtd:ieeemisc.obj
 0001:0006c770       _nextafter                 000000018006d770 f   libucrtd:ieeemisc.obj
 0001:0006c7a0       _nextafterf                000000018006d7a0 f   libucrtd:ieeemisc.obj
 0001:0006c7d0       _scalb                     000000018006d7d0 f   libucrtd:ieeemisc.obj
 0001:0006cbe0       _scalbf                    000000018006dbe0 f   libucrtd:ieeemisc.obj
 0001:0006cf50       ??$__crt_interlocked_read@J@@YAJPEDJ@Z 000000018006df50 f i libucrtd:assert.obj
 0001:0006f0e0       ??$ftprintf@PEAU_iobuf@@PEBDAEBQEBDAEBQEBDAEBI@?$__crt_char_traits@D@@SAH$$QEAPEAU_iobuf@@$$QEAPEBDAEBQEBD2AEBI@Z 00000001800700e0 f i libucrtd:assert.obj
 0001:0006f130       ??$ftprintf@PEAU_iobuf@@PEB_WAEBQEB_WAEBQEB_WAEBI@?$__crt_char_traits@_W@@SAH$$QEAPEAU_iobuf@@$$QEAPEB_WAEBQEB_W2AEBI@Z 0000000180070130 f i libucrtd:assert.obj
 0001:0006f180       ??$get_module_file_name@AEAPEAUHINSTANCE__@@AEAY0BAF@DK@?$__crt_char_traits@D@@SAKAEAPEAUHINSTANCE__@@AEAY0BAF@D$$QEAK@Z 0000000180070180 f i libucrtd:assert.obj
 0001:0006f1c0       ??$get_module_file_name@AEAPEAUHINSTANCE__@@AEAY0BAF@_WK@?$__crt_char_traits@_W@@SAKAEAPEAUHINSTANCE__@@AEAY0BAF@_W$$QEAK@Z 00000001800701c0 f i libucrtd:assert.obj
 0001:0006f200       ??$itot_s@AEBIPEAD_KH@?$__crt_char_traits@D@@SAHAEBI$$QEAPEAD$$QEA_K$$QEAH@Z 0000000180070200 f i libucrtd:assert.obj
 0001:0006f250       ??$itot_s@AEBIPEA_W_KH@?$__crt_char_traits@_W@@SAHAEBI$$QEAPEA_W$$QEA_K$$QEAH@Z 0000000180070250 f i libucrtd:assert.obj
 0001:0006f2a0       ??$show_message_box@AEAY0CEA@DPEBDJ@?$__crt_char_traits@D@@SAHAEAY0CEA@D$$QEAPEBD$$QEAJ@Z 00000001800702a0 f i libucrtd:assert.obj
 0001:0006f2e0       ??$show_message_box@AEAY0CEA@_WPEB_WJ@?$__crt_char_traits@_W@@SAHAEAY0CEA@_W$$QEAPEB_W$$QEAJ@Z 00000001800702e0 f i libucrtd:assert.obj
 0001:0006f320       ??$tcscat_s@AEBQEADAEB_KAEAPEAD@?$__crt_char_traits@D@@SAHAEBQEADAEB_KAEAPEAD@Z 0000000180070320 f i libucrtd:assert.obj
 0001:0006f360       ??$tcscat_s@AEBQEADAEB_KAEBQEBD@?$__crt_char_traits@D@@SAHAEBQEADAEB_KAEBQEBD@Z 0000000180070360 f i libucrtd:assert.obj
 0001:0006f3a0       ??$tcscat_s@AEBQEADAEB_KPEBD@?$__crt_char_traits@D@@SAHAEBQEADAEB_K$$QEAPEBD@Z 00000001800703a0 f i libucrtd:assert.obj
 0001:0006f3e0       ??$tcscat_s@AEBQEA_WAEB_KAEAPEA_W@?$__crt_char_traits@_W@@SAHAEBQEA_WAEB_KAEAPEA_W@Z 00000001800703e0 f i libucrtd:assert.obj
 0001:0006f420       ??$tcscat_s@AEBQEA_WAEB_KAEBQEB_W@?$__crt_char_traits@_W@@SAHAEBQEA_WAEB_KAEBQEB_W@Z 0000000180070420 f i libucrtd:assert.obj
 0001:0006f460       ??$tcscat_s@AEBQEA_WAEB_KPEB_W@?$__crt_char_traits@_W@@SAHAEBQEA_WAEB_K$$QEAPEB_W@Z 0000000180070460 f i libucrtd:assert.obj
 0001:0006f4a0       ??$tcscpy_s@AEAY0BAF@D_KPEBD@?$__crt_char_traits@D@@SAHAEAY0BAF@D$$QEA_K$$QEAPEBD@Z 00000001800704a0 f i libucrtd:assert.obj
 0001:0006f4e0       ??$tcscpy_s@AEAY0BAF@_W_KPEB_W@?$__crt_char_traits@_W@@SAHAEAY0BAF@_W$$QEA_K$$QEAPEB_W@Z 00000001800704e0 f i libucrtd:assert.obj
 0001:0006f520       ??$tcscpy_s@AEBQEADAEB_KPEBD@?$__crt_char_traits@D@@SAHAEBQEADAEB_K$$QEAPEBD@Z 0000000180070520 f i libucrtd:assert.obj
 0001:0006f560       ??$tcscpy_s@AEBQEA_WAEB_KPEB_W@?$__crt_char_traits@_W@@SAHAEBQEA_WAEB_K$$QEAPEB_W@Z 0000000180070560 f i libucrtd:assert.obj
 0001:0006f5a0       ??$tcslen@AEAY0BAF@D@?$__crt_char_traits@D@@SA_KAEAY0BAF@D@Z 00000001800705a0 f i libucrtd:assert.obj
 0001:0006f5c0       ??$tcslen@AEAY0BAF@_W@?$__crt_char_traits@_W@@SA_KAEAY0BAF@_W@Z 00000001800705c0 f i libucrtd:assert.obj
 0001:0006f5e0       ??$tcslen@AEBQEAD@?$__crt_char_traits@D@@SA_KAEBQEAD@Z 00000001800705e0 f i libucrtd:assert.obj
 0001:0006f600       ??$tcslen@AEBQEA_W@?$__crt_char_traits@_W@@SA_KAEBQEA_W@Z 0000000180070600 f i libucrtd:assert.obj
 0001:0006f620       ??$tcslen@AEBQEBD@?$__crt_char_traits@D@@SA_KAEBQEBD@Z 0000000180070620 f i libucrtd:assert.obj
 0001:0006f640       ??$tcslen@AEBQEB_W@?$__crt_char_traits@_W@@SA_KAEBQEB_W@Z 0000000180070640 f i libucrtd:assert.obj
 0001:0006f660       ??$tcsncat_s@AEBQEADAEB_KAEAPEBD_K@?$__crt_char_traits@D@@SAHAEBQEADAEB_KAEAPEBD$$QEA_K@Z 0000000180070660 f i libucrtd:assert.obj
 0001:0006f6b0       ??$tcsncat_s@AEBQEADAEB_KAEBQEBDAEB_K@?$__crt_char_traits@D@@SAHAEBQEADAEB_KAEBQEBD1@Z 00000001800706b0 f i libucrtd:assert.obj
 0001:0006f700       ??$tcsncat_s@AEBQEADAEB_KPEBD_K@?$__crt_char_traits@D@@SAHAEBQEADAEB_K$$QEAPEBD$$QEA_K@Z 0000000180070700 f i libucrtd:assert.obj
 0001:0006f750       ??$tcsncat_s@AEBQEA_WAEB_KAEAPEB_W_K@?$__crt_char_traits@_W@@SAHAEBQEA_WAEB_KAEAPEB_W$$QEA_K@Z 0000000180070750 f i libucrtd:assert.obj
 0001:0006f7a0       ??$tcsncat_s@AEBQEA_WAEB_KAEBQEB_WAEB_K@?$__crt_char_traits@_W@@SAHAEBQEA_WAEB_KAEBQEB_W1@Z 00000001800707a0 f i libucrtd:assert.obj
 0001:0006f7f0       ??$tcsncat_s@AEBQEA_WAEB_KPEB_W_K@?$__crt_char_traits@_W@@SAHAEBQEA_WAEB_K$$QEAPEB_W$$QEA_K@Z 00000001800707f0 f i libucrtd:assert.obj
 0001:0006f840       ??0__crt_stdio_stream@@QEAA@QEAU_iobuf@@@Z 0000000180070840 f i libucrtd:assert.obj
 0001:0006f860       ?__crt_interlocked_read_32@@YAHPEDH@Z 0000000180070860 f i libucrtd:assert.obj
 0001:0006fa70       ?get_flags@__crt_stdio_stream@@QEBAJXZ 0000000180070a70 f i libucrtd:assert.obj
 0001:0006fb60       ?has_any_buffer@__crt_stdio_stream@@QEBA_NXZ 0000000180070b60 f i libucrtd:assert.obj
 0001:0006fb80       ?has_any_of@__crt_stdio_stream@@QEBA_NJ@Z 0000000180070b80 f i libucrtd:assert.obj
 0001:0006fbc0       _assert                    0000000180070bc0 f   libucrtd:assert.obj
 0001:0006fc00       _invoke_watson_if_error    0000000180070c00 f i libucrtd:assert.obj
 0001:0006fc50       _vfprintf_l                0000000180070c50 f i libucrtd:assert.obj
 0001:0006fca0       _vfwprintf_l               0000000180070ca0 f i libucrtd:assert.obj
 0001:0006fcf0       _vswprintf_c_l             0000000180070cf0 f i libucrtd:assert.obj
 0001:0006fd60       _wassert                   0000000180070d60 f   libucrtd:assert.obj
 0001:0006fda0       fprintf                    0000000180070da0 f i libucrtd:assert.obj
 0001:0006fdf0       fwprintf                   0000000180070df0 f i libucrtd:assert.obj
 0001:0006ff80       swprintf                   0000000180070f80 f i libucrtd:assert.obj
 0001:0006ffe0       _abs64                     0000000180070fe0 f   libucrtd:abs.obj
 0001:00070020       abs                        0000000180071020 f   libucrtd:abs.obj
 0001:00070050       powf                       0000000180071050 f   libucrtd:powf.obj
 0001:00070f20       cosf                       0000000180071f20 f   libucrtd:cosf.obj
 0001:00071420       sinf                       0000000180072420 f   libucrtd:sinf.obj
 0001:00071b20       ??$?RU?$__crt_report_hook_node@D@@@__crt_internal_free_policy@@QEBAXQEBU?$__crt_report_hook_node@D@@@Z 0000000180072b20 f i libucrtd:dbgrpt.obj
 0001:00071b50       ??$?RU?$__crt_report_hook_node@_W@@@__crt_internal_free_policy@@QEBAXQEBU?$__crt_report_hook_node@_W@@@Z 0000000180072b50 f i libucrtd:dbgrpt.obj
 0001:00072eb0       ??0?$__crt_unique_heap_ptr@U?$__crt_report_hook_node@D@@U__crt_internal_free_policy@@@@QEAA@QEAU?$__crt_report_hook_node@D@@@Z 0000000180073eb0 f i libucrtd:dbgrpt.obj
 0001:00072ed0       ??0?$__crt_unique_heap_ptr@U?$__crt_report_hook_node@_W@@U__crt_internal_free_policy@@@@QEAA@QEAU?$__crt_report_hook_node@_W@@@Z 0000000180073ed0 f i libucrtd:dbgrpt.obj
 0001:00072ef0       ??1?$__crt_unique_heap_ptr@U?$__crt_report_hook_node@D@@U__crt_internal_free_policy@@@@QEAA@XZ 0000000180073ef0 f i libucrtd:dbgrpt.obj
 0001:00072f10       ??1?$__crt_unique_heap_ptr@U?$__crt_report_hook_node@_W@@U__crt_internal_free_policy@@@@QEAA@XZ 0000000180073f10 f i libucrtd:dbgrpt.obj
 0001:00072f30       ??B?$__crt_unique_heap_ptr@U?$__crt_report_hook_node@D@@U__crt_internal_free_policy@@@@QEBA_NXZ 0000000180073f30 f i libucrtd:dbgrpt.obj
 0001:00072f50       ??B?$__crt_unique_heap_ptr@U?$__crt_report_hook_node@_W@@U__crt_internal_free_policy@@@@QEBA_NXZ 0000000180073f50 f i libucrtd:dbgrpt.obj
 0001:00073670       ?detach@?$__crt_unique_heap_ptr@U?$__crt_report_hook_node@D@@U__crt_internal_free_policy@@@@QEAAPEAU?$__crt_report_hook_node@D@@XZ 0000000180074670 f i libucrtd:dbgrpt.obj
 0001:000736a0       ?detach@?$__crt_unique_heap_ptr@U?$__crt_report_hook_node@_W@@U__crt_internal_free_policy@@@@QEAAPEAU?$__crt_report_hook_node@_W@@XZ 00000001800746a0 f i libucrtd:dbgrpt.obj
 0001:000736d0       ?get@?$__crt_unique_heap_ptr@U?$__crt_report_hook_node@D@@U__crt_internal_free_policy@@@@QEBAPEAU?$__crt_report_hook_node@D@@XZ 00000001800746d0 f i libucrtd:dbgrpt.obj
 0001:000736e0       ?get@?$__crt_unique_heap_ptr@U?$__crt_report_hook_node@_W@@U__crt_internal_free_policy@@@@QEBAPEAU?$__crt_report_hook_node@_W@@XZ 00000001800746e0 f i libucrtd:dbgrpt.obj
 0001:00073750       ?is_valid@?$__crt_unique_heap_ptr@U?$__crt_report_hook_node@D@@U__crt_internal_free_policy@@@@QEBA_NXZ 0000000180074750 f i libucrtd:dbgrpt.obj
 0001:00073780       ?is_valid@?$__crt_unique_heap_ptr@U?$__crt_report_hook_node@_W@@U__crt_internal_free_policy@@@@QEBA_NXZ 0000000180074780 f i libucrtd:dbgrpt.obj
 0001:000737b0       ?release@?$__crt_unique_heap_ptr@U?$__crt_report_hook_node@D@@U__crt_internal_free_policy@@@@QEAAXXZ 00000001800747b0 f i libucrtd:dbgrpt.obj
 0001:000737e0       ?release@?$__crt_unique_heap_ptr@U?$__crt_report_hook_node@_W@@U__crt_internal_free_policy@@@@QEAAXXZ 00000001800747e0 f i libucrtd:dbgrpt.obj
 0001:00073810       _CrtDbgReport              0000000180074810 f   libucrtd:dbgrpt.obj
 0001:00073890       _CrtDbgReportW             0000000180074890 f   libucrtd:dbgrpt.obj
 0001:00073910       _CrtSetReportHook2         0000000180074910 f   libucrtd:dbgrpt.obj
 0001:00073930       _CrtSetReportHookW2        0000000180074930 f   libucrtd:dbgrpt.obj
 0001:00073950       __acrt_MessageWindowA      0000000180074950 f   libucrtd:dbgrpt.obj
 0001:000739a0       __acrt_MessageWindowW      00000001800749a0 f   libucrtd:dbgrpt.obj
 0001:000739f0       _invoke_watson_if_oneof    00000001800749f0 f i libucrtd:dbgrpt.obj
 0001:00073a50       _snwprintf_s               0000000180074a50 f i libucrtd:dbgrpt.obj
 0001:00073ac0       _vsnwprintf_s_l            0000000180074ac0 f i libucrtd:dbgrpt.obj
 0001:00073b40       ??0_LocaleUpdate@@QEAA@QEAU__crt_locale_pointers@@@Z 0000000180074b40 f i libucrtd:debug_heap.obj
 0001:00073c60       ??1_LocaleUpdate@@QEAA@XZ  0000000180074c60 f i libucrtd:debug_heap.obj
 0001:00073c90       ?GetLocaleT@_LocaleUpdate@@QEAAPEAU__crt_locale_pointers@@XZ 0000000180074c90 f i libucrtd:debug_heap.obj
 0001:00076040       _CrtCheckMemory            0000000180077040 f   libucrtd:debug_heap.obj
 0001:000761d0       _CrtDoForAllClientObjects  00000001800771d0 f   libucrtd:debug_heap.obj
 0001:00076320       _CrtDumpMemoryLeaks        0000000180077320 f   libucrtd:debug_heap.obj
 0001:000763e0       _CrtGetAllocHook           00000001800773e0 f   libucrtd:debug_heap.obj
 0001:000763f0       _CrtGetDumpClient          00000001800773f0 f   libucrtd:debug_heap.obj
 0001:00076400       _CrtIsMemoryBlock          0000000180077400 f   libucrtd:debug_heap.obj
 0001:00076540       _CrtIsValidHeapPointer     0000000180077540 f   libucrtd:debug_heap.obj
 0001:00076590       _CrtIsValidPointer         0000000180077590 f   libucrtd:debug_heap.obj
 0001:000765d0       _CrtMemCheckpoint          00000001800775d0 f   libucrtd:debug_heap.obj
 0001:00076850       _CrtMemDifference          0000000180077850 f   libucrtd:debug_heap.obj
 0001:00076bb0       _CrtMemDumpAllObjectsSince 0000000180077bb0 f   libucrtd:debug_heap.obj
 0001:00076c10       _CrtMemDumpStatistics      0000000180077c10 f   libucrtd:debug_heap.obj
 0001:00076db0       _CrtReportBlockType        0000000180077db0 f   libucrtd:debug_heap.obj
 0001:00076de0       _CrtSetAllocHook           0000000180077de0 f   libucrtd:debug_heap.obj
 0001:00076e10       _CrtSetBreakAlloc          0000000180077e10 f   libucrtd:debug_heap.obj
 0001:00076e40       _CrtSetDbgBlockType        0000000180077e40 f   libucrtd:debug_heap.obj
 0001:00076ee0       _CrtSetDbgFlag             0000000180077ee0 f   libucrtd:debug_heap.obj
 0001:00077040       _CrtSetDumpClient          0000000180078040 f   libucrtd:debug_heap.obj
 0001:00077070       __acrt_disable_global_locale_sync 0000000180078070 f i libucrtd:debug_heap.obj
 0001:000770a0       __acrt_enable_global_locale_sync 00000001800780a0 f i libucrtd:debug_heap.obj
 0001:000770d0       __acrt_get_locale_data_prefix 00000001800780d0 f i libucrtd:debug_heap.obj
 0001:000770f0       __acrt_locale_changed      00000001800780f0 f i libucrtd:debug_heap.obj
 0001:00077120       __p__crtBreakAlloc         0000000180078120 f   libucrtd:debug_heap.obj
 0001:00077130       __p__crtDbgFlag            0000000180078130 f   libucrtd:debug_heap.obj
 0001:00077140       _aligned_free_dbg          0000000180078140 f   libucrtd:debug_heap.obj
 0001:00077230       _aligned_malloc_dbg        0000000180078230 f   libucrtd:debug_heap.obj
 0001:00077270       _aligned_msize_dbg         0000000180078270 f   libucrtd:debug_heap.obj
 0001:00077440       _aligned_offset_malloc_dbg 0000000180078440 f   libucrtd:debug_heap.obj
 0001:00077730       _aligned_offset_realloc_dbg 0000000180078730 f   libucrtd:debug_heap.obj
 0001:00077be0       _aligned_offset_recalloc_dbg 0000000180078be0 f   libucrtd:debug_heap.obj
 0001:00077d00       _aligned_realloc_dbg       0000000180078d00 f   libucrtd:debug_heap.obj
 0001:00077d50       _aligned_recalloc_dbg      0000000180078d50 f   libucrtd:debug_heap.obj
 0001:00077db0       _calloc_dbg                0000000180078db0 f   libucrtd:debug_heap.obj
 0001:00077e50       _chvalidchk_l              0000000180078e50 f i libucrtd:debug_heap.obj
 0001:00077e80       _expand_dbg                0000000180078e80 f   libucrtd:debug_heap.obj
 0001:00077fb0       _free_dbg                  0000000180078fb0 f   libucrtd:debug_heap.obj
 0001:00078020       _ischartype_l              0000000180079020 f i libucrtd:debug_heap.obj
 0001:000780b0       _malloc_dbg                00000001800790b0 f   libucrtd:debug_heap.obj
 0001:000780f0       _msize_dbg                 00000001800790f0 f   libucrtd:debug_heap.obj
 0001:00078290       _realloc_dbg               0000000180079290 f   libucrtd:debug_heap.obj
 0001:00078300       _recalloc_dbg              0000000180079300 f   libucrtd:debug_heap.obj
 0001:00078400       _initterm                  0000000180079400 f   libucrtd:initterm.obj
 0001:00078470       _initterm_e                0000000180079470 f   libucrtd:initterm.obj
 0001:00078560       _seh_filter_dll            0000000180079560 f   libucrtd:exception_filter.obj
 0001:00078590       _seh_filter_exe            0000000180079590 f   libucrtd:exception_filter.obj
 0001:00078860       ??$?B$$A6AXPEAXK0@Z@__crt_fast_encoded_nullptr_t@@QEBAP6AXPEAXK0@ZXZ 0000000180079860 f i libucrtd:exit.obj
 0001:00078920       ??$__crt_fast_decode_pointer@P6AXPEAXK0@Z@@YAP6AXPEAXK0@ZQ6AX0K0@Z@Z 0000000180079920 f i libucrtd:exit.obj
 0001:00078960       ??$__crt_fast_encode_pointer@P6AXPEAXK0@Z@@YAP6AXPEAXK0@ZQ6AX0K0@Z@Z 0000000180079960 f i libucrtd:exit.obj
 0001:000789a0       ??$__crt_get_proc_address@P6AXI@Z@@YAP6AXI@ZQEAUHINSTANCE__@@QEBD@Z 00000001800799a0 f i libucrtd:exit.obj
 0001:00078a60       ??0?$__crt_unique_handle_t@U__crt_hmodule_traits@@@@QEAA@QEAUHINSTANCE__@@@Z 0000000180079a60 f i libucrtd:exit.obj
 0001:00078a80       ??1?$__crt_unique_handle_t@U__crt_hmodule_traits@@@@QEAA@XZ 0000000180079a80 f i libucrtd:exit.obj
 0001:00078c00       ?__acrt_select_exit_lock@@YA?AW4__acrt_lock_id@@XZ 0000000180079c00 f i libucrtd:exit.obj
 0001:00078c10       ?__crt_fast_encode_pointer@@YA?AU__crt_fast_encoded_nullptr_t@@$$T@Z 0000000180079c10 f i libucrtd:exit.obj
 0001:00078c30       ?__crt_rotate_pointer_value@@YA_K_KH@Z 0000000180079c30 f i libucrtd:exit.obj
 0001:00078c70       ?close@?$__crt_unique_handle_t@U__crt_hmodule_traits@@@@QEAAXXZ 0000000180079c70 f i libucrtd:exit.obj
 0001:00078cb0       ?close@__crt_hmodule_traits@@SA_NPEAUHINSTANCE__@@@Z 0000000180079cb0 f i libucrtd:exit.obj
 0001:00078dd0       ?get@?$__crt_unique_handle_t@U__crt_hmodule_traits@@@@QEBAPEAUHINSTANCE__@@XZ 0000000180079dd0 f i libucrtd:exit.obj
 0001:00078de0       ?get_address_of@?$__crt_unique_handle_t@U__crt_hmodule_traits@@@@QEAAPEAPEAUHINSTANCE__@@XZ 0000000180079de0 f i libucrtd:exit.obj
 0001:00078df0       ?get_invalid_value@__crt_hmodule_traits@@SAPEAUHINSTANCE__@@XZ 0000000180079df0 f i libucrtd:exit.obj
 0001:00078fa0       _Exit                      0000000180079fa0 f   libucrtd:exit.obj
 0001:00078fc0       __acrt_initialize_thread_local_exit_callback 0000000180079fc0 f   libucrtd:exit.obj
 0001:00078fe0       _c_exit                    0000000180079fe0 f   libucrtd:exit.obj
 0001:00079000       _cexit                     000000018007a000 f   libucrtd:exit.obj
 0001:00079020       _exit                      000000018007a020 f   libucrtd:exit.obj
 0001:00079040       _is_c_termination_complete 000000018007a040 f   libucrtd:exit.obj
 0001:00079060       _register_thread_local_exe_atexit_callback 000000018007a060 f   libucrtd:exit.obj
 0001:000790b0       exit                       000000018007a0b0 f   libucrtd:exit.obj
 0001:000790d0       quick_exit                 000000018007a0d0 f   libucrtd:exit.obj
 0001:000790f0       ??$?RE@__crt_internal_free_policy@@QEBAXQEBE@Z 000000018007a0f0 f i libucrtd:argv_parsing.obj
 0001:00079120       ??$?RPEAD@__crt_internal_free_policy@@QEBAXQEBQEAD@Z 000000018007a120 f i libucrtd:argv_parsing.obj
 0001:00079150       ??$?RPEA_W@__crt_internal_free_policy@@QEBAXQEBQEA_W@Z 000000018007a150 f i libucrtd:argv_parsing.obj
 0001:000798a0       ??$get_module_file_name@$$TAEAY0BAF@DH@?$__crt_char_traits@D@@SAK$$QEA$$TAEAY0BAF@D$$QEAH@Z 000000018007a8a0 f i libucrtd:argv_parsing.obj
 0001:000798e0       ??$get_module_file_name@$$TAEAY0BAF@_WH@?$__crt_char_traits@_W@@SAK$$QEA$$TAEAY0BAF@_W$$QEAH@Z 000000018007a8e0 f i libucrtd:argv_parsing.obj
 0001:0007a2e0       ??$set_program_name@PEAD@?$__crt_char_traits@D@@SAX$$QEAPEAD@Z 000000018007b2e0 f i libucrtd:argv_parsing.obj
 0001:0007a300       ??$set_program_name@PEA_W@?$__crt_char_traits@_W@@SAX$$QEAPEA_W@Z 000000018007b300 f i libucrtd:argv_parsing.obj
 0001:0007a360       ??0?$__crt_unique_heap_ptr@EU__crt_internal_free_policy@@@@QEAA@QEAE@Z 000000018007b360 f i libucrtd:argv_parsing.obj
 0001:0007a380       ??0?$__crt_unique_heap_ptr@PEADU__crt_internal_free_policy@@@@QEAA@QEAPEAD@Z 000000018007b380 f i libucrtd:argv_parsing.obj
 0001:0007a3a0       ??0?$__crt_unique_heap_ptr@PEA_WU__crt_internal_free_policy@@@@QEAA@QEAPEA_W@Z 000000018007b3a0 f i libucrtd:argv_parsing.obj
 0001:0007a3c0       ??1?$__crt_unique_heap_ptr@EU__crt_internal_free_policy@@@@QEAA@XZ 000000018007b3c0 f i libucrtd:argv_parsing.obj
 0001:0007a3e0       ??1?$__crt_unique_heap_ptr@PEADU__crt_internal_free_policy@@@@QEAA@XZ 000000018007b3e0 f i libucrtd:argv_parsing.obj
 0001:0007a400       ??1?$__crt_unique_heap_ptr@PEA_WU__crt_internal_free_policy@@@@QEAA@XZ 000000018007b400 f i libucrtd:argv_parsing.obj
 0001:0007a420       ??B?$__crt_unique_heap_ptr@EU__crt_internal_free_policy@@@@QEBA_NXZ 000000018007b420 f i libucrtd:argv_parsing.obj
 0001:0007a500       ?detach@?$__crt_unique_heap_ptr@EU__crt_internal_free_policy@@@@QEAAPEAEXZ 000000018007b500 f i libucrtd:argv_parsing.obj
 0001:0007a530       ?detach@?$__crt_unique_heap_ptr@PEADU__crt_internal_free_policy@@@@QEAAPEAPEADXZ 000000018007b530 f i libucrtd:argv_parsing.obj
 0001:0007a560       ?detach@?$__crt_unique_heap_ptr@PEA_WU__crt_internal_free_policy@@@@QEAAPEAPEA_WXZ 000000018007b560 f i libucrtd:argv_parsing.obj
 0001:0007a620       ?get@?$__crt_unique_heap_ptr@EU__crt_internal_free_policy@@@@QEBAPEAEXZ 000000018007b620 f i libucrtd:argv_parsing.obj
 0001:0007a630       ?get@?$__crt_unique_heap_ptr@PEADU__crt_internal_free_policy@@@@QEBAPEAPEADXZ 000000018007b630 f i libucrtd:argv_parsing.obj
 0001:0007a640       ?get@?$__crt_unique_heap_ptr@PEA_WU__crt_internal_free_policy@@@@QEBAPEAPEA_WXZ 000000018007b640 f i libucrtd:argv_parsing.obj
 0001:0007a650       ?get_address_of@?$__crt_unique_heap_ptr@PEADU__crt_internal_free_policy@@@@QEAAPEAPEAPEADXZ 000000018007b650 f i libucrtd:argv_parsing.obj
 0001:0007a660       ?get_address_of@?$__crt_unique_heap_ptr@PEA_WU__crt_internal_free_policy@@@@QEAAPEAPEAPEA_WXZ 000000018007b660 f i libucrtd:argv_parsing.obj
 0001:0007a6b0       ?is_valid@?$__crt_unique_heap_ptr@EU__crt_internal_free_policy@@@@QEBA_NXZ 000000018007b6b0 f i libucrtd:argv_parsing.obj
 0001:0007a6e0       ?release@?$__crt_unique_heap_ptr@EU__crt_internal_free_policy@@@@QEAAXXZ 000000018007b6e0 f i libucrtd:argv_parsing.obj
 0001:0007a710       ?release@?$__crt_unique_heap_ptr@PEADU__crt_internal_free_policy@@@@QEAAXXZ 000000018007b710 f i libucrtd:argv_parsing.obj
 0001:0007a740       ?release@?$__crt_unique_heap_ptr@PEA_WU__crt_internal_free_policy@@@@QEAAXXZ 000000018007b740 f i libucrtd:argv_parsing.obj
 0001:0007a7c0       __acrt_allocate_buffer_for_argv 000000018007b7c0 f   libucrtd:argv_parsing.obj
 0001:0007a8e0       _configure_narrow_argv     000000018007b8e0 f   libucrtd:argv_parsing.obj
 0001:0007a900       _configure_wide_argv       000000018007b900 f   libucrtd:argv_parsing.obj
 0001:0007a920       _set_pgmptr                000000018007b920 f i libucrtd:argv_parsing.obj
 0001:0007a940       _set_wpgmptr               000000018007b940 f i libucrtd:argv_parsing.obj
 0001:0007a960       ??$?R_W@__crt_internal_free_policy@@QEBAXQEB_W@Z 000000018007b960 f i libucrtd:environment_initialization.obj
 0001:0007b320       ??$get_environment_from_os@$$V@?$__crt_char_traits@D@@SAPEADXZ 000000018007c320 f i libucrtd:environment_initialization.obj
 0001:0007b330       ??$get_environment_from_os@$$V@?$__crt_char_traits@_W@@SAPEA_WXZ 000000018007c330 f i libucrtd:environment_initialization.obj
 0001:0007b640       ??$set_variable_in_environment_nolock@PEADH@?$__crt_char_traits@D@@SAH$$QEAPEAD$$QEAH@Z 000000018007c640 f i libucrtd:environment_initialization.obj
 0001:0007b670       ??$set_variable_in_environment_nolock@PEA_WH@?$__crt_char_traits@_W@@SAH$$QEAPEA_W$$QEAH@Z 000000018007c670 f i libucrtd:environment_initialization.obj
 0001:0007b6a0       ??$tcscpy_s@PEADAEB_KAEAPEAD@?$__crt_char_traits@D@@SAH$$QEAPEADAEB_KAEAPEAD@Z 000000018007c6a0 f i libucrtd:environment_initialization.obj
 0001:0007b6e0       ??$tcscpy_s@PEA_WAEB_KAEAPEA_W@?$__crt_char_traits@_W@@SAH$$QEAPEA_WAEB_KAEAPEA_W@Z 000000018007c6e0 f i libucrtd:environment_initialization.obj
 0001:0007b720       ??$tcslen@AEAPEAD@?$__crt_char_traits@D@@SA_KAEAPEAD@Z 000000018007c720 f i libucrtd:environment_initialization.obj
 0001:0007b740       ??$tcslen@AEAPEA_W@?$__crt_char_traits@_W@@SA_KAEAPEA_W@Z 000000018007c740 f i libucrtd:environment_initialization.obj
 0001:0007b760       ??$uninitialize@A6AXAEAPEAPEAD@_E@?$dual_state_global@PEAPEAD@__crt_state_management@@QEAAXA6AXAEAPEAPEAD@_E@Z 000000018007c760 f i libucrtd:environment_initialization.obj
 0001:0007b7e0       ??$uninitialize@A6AXAEAPEAPEA_W@_E@?$dual_state_global@PEAPEA_W@__crt_state_management@@QEAAXA6AXAEAPEAPEA_W@_E@Z 000000018007c7e0 f i libucrtd:environment_initialization.obj
 0001:0007b8e0       ??0?$__crt_unique_heap_ptr@_WU__crt_internal_free_policy@@@@QEAA@QEA_W@Z 000000018007c8e0 f i libucrtd:environment_initialization.obj
 0001:0007b900       ??1?$__crt_unique_heap_ptr@_WU__crt_internal_free_policy@@@@QEAA@XZ 000000018007c900 f i libucrtd:environment_initialization.obj
 0001:0007b920       ??B?$__crt_unique_heap_ptr@PEADU__crt_internal_free_policy@@@@QEBA_NXZ 000000018007c920 f i libucrtd:environment_initialization.obj
 0001:0007b940       ??B?$__crt_unique_heap_ptr@PEA_WU__crt_internal_free_policy@@@@QEBA_NXZ 000000018007c940 f i libucrtd:environment_initialization.obj
 0001:0007b960       ??B?$__crt_unique_heap_ptr@_WU__crt_internal_free_policy@@@@QEBA_NXZ 000000018007c960 f i libucrtd:environment_initialization.obj
 0001:0007b980       ?__crt_compute_required_transform_buffer_count@@YA_KIQEBD@Z 000000018007c980 f i libucrtd:environment_initialization.obj
 0001:0007b9c0       ?__crt_compute_required_transform_buffer_count@@YA_KIQEB_W@Z 000000018007c9c0 f i libucrtd:environment_initialization.obj
 0001:0007ba10       ?__crt_transform_string@@YA_KIQEBDQEA_W_K@Z 000000018007ca10 f i libucrtd:environment_initialization.obj
 0001:0007ba60       ?__crt_transform_string@@YA_KIQEB_WQEAD_K@Z 000000018007ca60 f i libucrtd:environment_initialization.obj
 0001:0007bac0       ?detach@?$__crt_unique_heap_ptr@DU__crt_internal_free_policy@@@@QEAAPEADXZ 000000018007cac0 f i libucrtd:environment_initialization.obj
 0001:0007baf0       ?detach@?$__crt_unique_heap_ptr@_WU__crt_internal_free_policy@@@@QEAAPEA_WXZ 000000018007caf0 f i libucrtd:environment_initialization.obj
 0001:0007bb20       ?get@?$__crt_unique_heap_ptr@_WU__crt_internal_free_policy@@@@QEBAPEA_WXZ 000000018007cb20 f i libucrtd:environment_initialization.obj
 0001:0007bb30       ?get_current_state_index@__crt_state_management@@YA_KXZ 000000018007cb30 f i libucrtd:environment_initialization.obj
 0001:0007bbc0       ?initialize@?$dual_state_global@PEAPEAD@__crt_state_management@@QEAAXQEAPEAD@Z 000000018007cbc0 f i libucrtd:environment_initialization.obj
 0001:0007bc10       ?initialize@?$dual_state_global@PEAPEA_W@__crt_state_management@@QEAAXQEAPEA_W@Z 000000018007cc10 f i libucrtd:environment_initialization.obj
 0001:0007bc60       ?is_valid@?$__crt_unique_heap_ptr@PEADU__crt_internal_free_policy@@@@QEBA_NXZ 000000018007cc60 f i libucrtd:environment_initialization.obj
 0001:0007bc90       ?is_valid@?$__crt_unique_heap_ptr@PEA_WU__crt_internal_free_policy@@@@QEBA_NXZ 000000018007cc90 f i libucrtd:environment_initialization.obj
 0001:0007bcc0       ?is_valid@?$__crt_unique_heap_ptr@_WU__crt_internal_free_policy@@@@QEBA_NXZ 000000018007ccc0 f i libucrtd:environment_initialization.obj
 0001:0007bd20       ?release@?$__crt_unique_heap_ptr@_WU__crt_internal_free_policy@@@@QEAAXXZ 000000018007cd20 f i libucrtd:environment_initialization.obj
 0001:0007bd50       ?value@?$dual_state_global@PEAPEAD@__crt_state_management@@QEAAAEAPEAPEADXZ 000000018007cd50 f i libucrtd:environment_initialization.obj
 0001:0007bd70       ?value@?$dual_state_global@PEAPEA_W@__crt_state_management@@QEAAAEAPEAPEA_WXZ 000000018007cd70 f i libucrtd:environment_initialization.obj
 0001:0007bd90       __dcrt_get_or_create_narrow_environment_nolock 000000018007cd90 f   libucrtd:environment_initialization.obj
 0001:0007bda0       __dcrt_get_or_create_wide_environment_nolock 000000018007cda0 f   libucrtd:environment_initialization.obj
 0001:0007bdb0       __dcrt_uninitialize_environments_nolock 000000018007cdb0 f   libucrtd:environment_initialization.obj
 0001:0007be00       __p__environ               000000018007ce00 f   libucrtd:environment_initialization.obj
 0001:0007be20       __p__wenviron              000000018007ce20 f   libucrtd:environment_initialization.obj
 0001:0007be40       _get_initial_narrow_environment 000000018007ce40 f   libucrtd:environment_initialization.obj
 0001:0007be50       _get_initial_wide_environment 000000018007ce50 f   libucrtd:environment_initialization.obj
 0001:0007be60       _initialize_narrow_environment 000000018007ce60 f   libucrtd:environment_initialization.obj
 0001:0007be70       _initialize_wide_environment 000000018007ce70 f   libucrtd:environment_initialization.obj
 0001:0007be80       ??$?B$$A6AXXZ@__crt_fast_encoded_nullptr_t@@QEBAP6AXXZXZ 000000018007ce80 f i libucrtd:onexit.obj
 0001:0007bea0       ??$?BP6AXXZ@__crt_fast_encoded_nullptr_t@@QEBAPEAP6AXXZXZ 000000018007cea0 f i libucrtd:onexit.obj
 0001:0007bec0       ??$?RP6AXXZ@__crt_internal_free_policy@@QEBAXQEBQ6AXXZ@Z 000000018007cec0 f i libucrtd:onexit.obj
 0001:0007c050       ??$__crt_fast_decode_pointer@P6AXXZ@@YAP6AXXZQ6AXXZ@Z 000000018007d050 f i libucrtd:onexit.obj
 0001:0007c090       ??$__crt_fast_decode_pointer@PEAP6AXXZ@@YAPEAP6AXXZQEAP6AXXZ@Z 000000018007d090 f i libucrtd:onexit.obj
 0001:0007c0d0       ??$__crt_fast_encode_pointer@P6AHXZ@@YAP6AHXZQ6AHXZ@Z 000000018007d0d0 f i libucrtd:onexit.obj
 0001:0007c110       ??$__crt_fast_encode_pointer@P6AXXZ@@YAP6AXXZQ6AXXZ@Z 000000018007d110 f i libucrtd:onexit.obj
 0001:0007c150       ??$__crt_fast_encode_pointer@PEAP6AXXZ@@YAPEAP6AXXZQEAP6AXXZ@Z 000000018007d150 f i libucrtd:onexit.obj
 0001:0007c260       ??0?$__crt_unique_heap_ptr@P6AXXZU__crt_internal_free_policy@@@@QEAA@QEAP6AXXZ@Z 000000018007d260 f i libucrtd:onexit.obj
 0001:0007c280       ??1?$__crt_unique_heap_ptr@P6AXXZU__crt_internal_free_policy@@@@QEAA@XZ 000000018007d280 f i libucrtd:onexit.obj
 0001:0007c2a0       ??1scoped_global_state_reset@__crt_state_management@@QEAA@XZ 000000018007d2a0 f i libucrtd:onexit.obj
 0001:0007c8a0       ?detach@?$__crt_unique_heap_ptr@P6AXXZU__crt_internal_free_policy@@@@QEAAPEAP6AXXZXZ 000000018007d8a0 f i libucrtd:onexit.obj
 0001:0007c8d0       ?release@?$__crt_unique_heap_ptr@P6AXXZU__crt_internal_free_policy@@@@QEAAXXZ 000000018007d8d0 f i libucrtd:onexit.obj
 0001:0007c900       _crt_at_quick_exit         000000018007d900 f   libucrtd:onexit.obj
 0001:0007c920       _crt_atexit                000000018007d920 f   libucrtd:onexit.obj
 0001:0007c940       _execute_onexit_table      000000018007d940 f   libucrtd:onexit.obj
 0001:0007c980       _initialize_onexit_table   000000018007d980 f   libucrtd:onexit.obj
 0001:0007ca00       _register_onexit_function  000000018007da00 f   libucrtd:onexit.obj
 0001:0007cc80       ??$?BX@__crt_fast_encoded_nullptr_t@@QEBAPEAXXZ 000000018007dc80 f i libucrtd:initialization.obj
 0001:0007cca0       ??$__crt_fast_encode_pointer@PEAX@@YAPEAXQEAX@Z 000000018007dca0 f i libucrtd:initialization.obj
 0001:0007cda0       ?initialize@?$dual_state_global@PEAU__crt_locale_data@@@__crt_state_management@@QEAAXQEAU__crt_locale_data@@@Z 000000018007dda0 f i libucrtd:initialization.obj
 0001:0007cdf0       __acrt_initialize          000000018007ddf0 f   libucrtd:initialization.obj
 0001:0007ce20       __acrt_thread_attach       000000018007de20 f   libucrtd:initialization.obj
 0001:0007ce40       __acrt_thread_detach       000000018007de40 f   libucrtd:initialization.obj
 0001:0007ce50       __acrt_uninitialize        000000018007de50 f   libucrtd:initialization.obj
 0001:0007ce80       __acrt_uninitialize_critical 000000018007de80 f   libucrtd:initialization.obj
 0001:0007cee0       _get_terminate             000000018007dee0 f   libucrtd:terminate.obj
 0001:0007cf00       set_terminate              000000018007df00 f   libucrtd:terminate.obj
 0001:0007cf40       terminate                  000000018007df40 f   libucrtd:terminate.obj
 0001:0007d470       strcpy_s                   000000018007e470 f   libucrtd:strcpy_s.obj
 0001:0007db10       strcat_s                   000000018007eb10 f   libucrtd:strcat_s.obj
 0001:0007db40       ??$?0AEBV?$stream_output_adapter@D@__crt_stdio_output@@AEB_KAEBQEBDAEAV__crt_cached_ptd_host@@AEBQEAD@?$format_validation_base@DV?$stream_output_adapter@D@__crt_stdio_output@@@__crt_stdio_output@@IEAA@AEBV?$stream_output_adapter@D@1@AEB_KAEBQEBDAEAV__crt_cached_ptd_host@@AEBQEAD@Z 000000018007eb40 f i libucrtd:output.obj
 0001:0007db90       ??$?0AEBV?$stream_output_adapter@D@__crt_stdio_output@@AEB_KAEBQEBDAEAV__crt_cached_ptd_host@@AEBQEAD@?$positional_parameter_base@DV?$stream_output_adapter@D@__crt_stdio_output@@@__crt_stdio_output@@IEAA@AEBV?$stream_output_adapter@D@1@AEB_KAEBQEBDAEAV__crt_cached_ptd_host@@AEBQEAD@Z 000000018007eb90 f i libucrtd:output.obj
 0001:0007dc30       ??$?0AEBV?$stream_output_adapter@D@__crt_stdio_output@@AEB_KAEBQEBDAEAV__crt_cached_ptd_host@@AEBQEAD@?$standard_base@DV?$stream_output_adapter@D@__crt_stdio_output@@@__crt_stdio_output@@IEAA@AEBV?$stream_output_adapter@D@1@AEB_KAEBQEBDAEAV__crt_cached_ptd_host@@AEBQEAD@Z 000000018007ec30 f i libucrtd:output.obj
 0001:0007dca0       ??$?0AEBV?$stream_output_adapter@_W@__crt_stdio_output@@AEB_KAEBQEB_WAEAV__crt_cached_ptd_host@@AEBQEAD@?$format_validation_base@_WV?$stream_output_adapter@_W@__crt_stdio_output@@@__crt_stdio_output@@IEAA@AEBV?$stream_output_adapter@_W@1@AEB_KAEBQEB_WAEAV__crt_cached_ptd_host@@AEBQEAD@Z 000000018007eca0 f i libucrtd:output.obj
 0001:0007dcf0       ??$?0AEBV?$stream_output_adapter@_W@__crt_stdio_output@@AEB_KAEBQEB_WAEAV__crt_cached_ptd_host@@AEBQEAD@?$positional_parameter_base@_WV?$stream_output_adapter@_W@__crt_stdio_output@@@__crt_stdio_output@@IEAA@AEBV?$stream_output_adapter@_W@1@AEB_KAEBQEB_WAEAV__crt_cached_ptd_host@@AEBQEAD@Z 000000018007ecf0 f i libucrtd:output.obj
 0001:0007dd90       ??$?0AEBV?$stream_output_adapter@_W@__crt_stdio_output@@AEB_KAEBQEB_WAEAV__crt_cached_ptd_host@@AEBQEAD@?$standard_base@_WV?$stream_output_adapter@_W@__crt_stdio_output@@@__crt_stdio_output@@IEAA@AEBV?$stream_output_adapter@_W@1@AEB_KAEBQEB_WAEAV__crt_cached_ptd_host@@AEBQEAD@Z 000000018007ed90 f i libucrtd:output.obj
 0001:0007de00       ??$?0AEBV?$string_output_adapter@D@__crt_stdio_output@@AEB_KAEBQEBDAEAV__crt_cached_ptd_host@@AEBQEAD@?$format_validation_base@DV?$string_output_adapter@D@__crt_stdio_output@@@__crt_stdio_output@@IEAA@AEBV?$string_output_adapter@D@1@AEB_KAEBQEBDAEAV__crt_cached_ptd_host@@AEBQEAD@Z 000000018007ee00 f i libucrtd:output.obj
 0001:0007de50       ??$?0AEBV?$string_output_adapter@D@__crt_stdio_output@@AEB_KAEBQEBDAEAV__crt_cached_ptd_host@@AEBQEAD@?$positional_parameter_base@DV?$string_output_adapter@D@__crt_stdio_output@@@__crt_stdio_output@@IEAA@AEBV?$string_output_adapter@D@1@AEB_KAEBQEBDAEAV__crt_cached_ptd_host@@AEBQEAD@Z 000000018007ee50 f i libucrtd:output.obj
 0001:0007def0       ??$?0AEBV?$string_output_adapter@D@__crt_stdio_output@@AEB_KAEBQEBDAEAV__crt_cached_ptd_host@@AEBQEAD@?$standard_base@DV?$string_output_adapter@D@__crt_stdio_output@@@__crt_stdio_output@@IEAA@AEBV?$string_output_adapter@D@1@AEB_KAEBQEBDAEAV__crt_cached_ptd_host@@AEBQEAD@Z 000000018007eef0 f i libucrtd:output.obj
 0001:0007df60       ??$?0AEBV?$string_output_adapter@_W@__crt_stdio_output@@AEB_KAEBQEB_WAEAV__crt_cached_ptd_host@@AEBQEAD@?$format_validation_base@_WV?$string_output_adapter@_W@__crt_stdio_output@@@__crt_stdio_output@@IEAA@AEBV?$string_output_adapter@_W@1@AEB_KAEBQEB_WAEAV__crt_cached_ptd_host@@AEBQEAD@Z 000000018007ef60 f i libucrtd:output.obj
 0001:0007dfb0       ??$?0AEBV?$string_output_adapter@_W@__crt_stdio_output@@AEB_KAEBQEB_WAEAV__crt_cached_ptd_host@@AEBQEAD@?$positional_parameter_base@_WV?$string_output_adapter@_W@__crt_stdio_output@@@__crt_stdio_output@@IEAA@AEBV?$string_output_adapter@_W@1@AEB_KAEBQEB_WAEAV__crt_cached_ptd_host@@AEBQEAD@Z 000000018007efb0 f i libucrtd:output.obj
 0001:0007e050       ??$?0AEBV?$string_output_adapter@_W@__crt_stdio_output@@AEB_KAEBQEB_WAEAV__crt_cached_ptd_host@@AEBQEAD@?$standard_base@_WV?$string_output_adapter@_W@__crt_stdio_output@@@__crt_stdio_output@@IEAA@AEBV?$string_output_adapter@_W@1@AEB_KAEBQEB_WAEAV__crt_cached_ptd_host@@AEBQEAD@Z 000000018007f050 f i libucrtd:output.obj
 0001:0007e4e0       ??$_tcstol_internal@DPEAPEAD$0A@@@YAJAEAV__crt_cached_ptd_host@@QEBDQEAPEADH@Z 000000018007f4e0 f i libucrtd:output.obj
 0001:0007e530       ??$_tcstol_internal@_WPEAPEA_W$0A@@@YAJAEAV__crt_cached_ptd_host@@QEB_WQEAPEA_WH@Z 000000018007f530 f i libucrtd:output.obj
 0001:00082550       ??$count@D@formatting_buffer@__crt_stdio_output@@QEBA_KXZ 0000000180083550 f i libucrtd:output.obj
 0001:000825a0       ??$count@_W@formatting_buffer@__crt_stdio_output@@QEBA_KXZ 00000001800835a0 f i libucrtd:output.obj
 0001:000825f0       ??$data@D@formatting_buffer@__crt_stdio_output@@QEAAPEADXZ 00000001800835f0 f i libucrtd:output.obj
 0001:00082640       ??$data@_W@formatting_buffer@__crt_stdio_output@@QEAAPEA_WXZ 0000000180083640 f i libucrtd:output.obj
 0001:00082690       ??$ensure_buffer_is_big_enough@D@formatting_buffer@__crt_stdio_output@@QEAA_N_KAEAV__crt_cached_ptd_host@@@Z 0000000180083690 f i libucrtd:output.obj
 0001:000827d0       ??$ensure_buffer_is_big_enough@_W@formatting_buffer@__crt_stdio_output@@QEAA_N_KAEAV__crt_cached_ptd_host@@@Z 00000001800837d0 f i libucrtd:output.obj
 0001:00082910       ??$extract_argument_from_va_list@C_J@?$positional_parameter_base@DV?$stream_output_adapter@D@__crt_stdio_output@@@__crt_stdio_output@@IEAA_NAEA_J@Z 0000000180083910 f i libucrtd:output.obj
 0001:00082ad0       ??$extract_argument_from_va_list@C_J@?$positional_parameter_base@DV?$string_output_adapter@D@__crt_stdio_output@@@__crt_stdio_output@@IEAA_NAEA_J@Z 0000000180083ad0 f i libucrtd:output.obj
 0001:00082c90       ??$extract_argument_from_va_list@C_J@?$positional_parameter_base@_WV?$stream_output_adapter@_W@__crt_stdio_output@@@__crt_stdio_output@@IEAA_NAEA_J@Z 0000000180083c90 f i libucrtd:output.obj
 0001:00082e50       ??$extract_argument_from_va_list@C_J@?$positional_parameter_base@_WV?$string_output_adapter@_W@__crt_stdio_output@@@__crt_stdio_output@@IEAA_NAEA_J@Z 0000000180083e50 f i libucrtd:output.obj
 0001:00083010       ??$extract_argument_from_va_list@C_J@?$standard_base@DV?$stream_output_adapter@D@__crt_stdio_output@@@__crt_stdio_output@@IEAA_NAEA_J@Z 0000000180084010 f i libucrtd:output.obj
 0001:00083050       ??$extract_argument_from_va_list@C_J@?$standard_base@DV?$string_output_adapter@D@__crt_stdio_output@@@__crt_stdio_output@@IEAA_NAEA_J@Z 0000000180084050 f i libucrtd:output.obj
 0001:00083090       ??$extract_argument_from_va_list@C_J@?$standard_base@_WV?$stream_output_adapter@_W@__crt_stdio_output@@@__crt_stdio_output@@IEAA_NAEA_J@Z 0000000180084090 f i libucrtd:output.obj
 0001:000830d0       ??$extract_argument_from_va_list@C_J@?$standard_base@_WV?$string_output_adapter@_W@__crt_stdio_output@@@__crt_stdio_output@@IEAA_NAEA_J@Z 00000001800840d0 f i libucrtd:output.obj
 0001:00083110       ??$extract_argument_from_va_list@E_J@?$positional_parameter_base@DV?$stream_output_adapter@D@__crt_stdio_output@@@__crt_stdio_output@@IEAA_NAEA_J@Z 0000000180084110 f i libucrtd:output.obj
 0001:000832d0       ??$extract_argument_from_va_list@E_J@?$positional_parameter_base@DV?$string_output_adapter@D@__crt_stdio_output@@@__crt_stdio_output@@IEAA_NAEA_J@Z 00000001800842d0 f i libucrtd:output.obj
 0001:00083490       ??$extract_argument_from_va_list@E_J@?$positional_parameter_base@_WV?$stream_output_adapter@_W@__crt_stdio_output@@@__crt_stdio_output@@IEAA_NAEA_J@Z 0000000180084490 f i libucrtd:output.obj
 0001:00083650       ??$extract_argument_from_va_list@E_J@?$positional_parameter_base@_WV?$string_output_adapter@_W@__crt_stdio_output@@@__crt_stdio_output@@IEAA_NAEA_J@Z 0000000180084650 f i libucrtd:output.obj
 0001:00083810       ??$extract_argument_from_va_list@E_J@?$standard_base@DV?$stream_output_adapter@D@__crt_stdio_output@@@__crt_stdio_output@@IEAA_NAEA_J@Z 0000000180084810 f i libucrtd:output.obj
 0001:00083850       ??$extract_argument_from_va_list@E_J@?$standard_base@DV?$string_output_adapter@D@__crt_stdio_output@@@__crt_stdio_output@@IEAA_NAEA_J@Z 0000000180084850 f i libucrtd:output.obj
 0001:00083890       ??$extract_argument_from_va_list@E_J@?$standard_base@_WV?$stream_output_adapter@_W@__crt_stdio_output@@@__crt_stdio_output@@IEAA_NAEA_J@Z 0000000180084890 f i libucrtd:output.obj
 0001:000838d0       ??$extract_argument_from_va_list@E_J@?$standard_base@_WV?$string_output_adapter@_W@__crt_stdio_output@@@__crt_stdio_output@@IEAA_NAEA_J@Z 00000001800848d0 f i libucrtd:output.obj
 0001:00083910       ??$extract_argument_from_va_list@F_J@?$positional_parameter_base@DV?$stream_output_adapter@D@__crt_stdio_output@@@__crt_stdio_output@@IEAA_NAEA_J@Z 0000000180084910 f i libucrtd:output.obj
 0001:00083ad0       ??$extract_argument_from_va_list@F_J@?$positional_parameter_base@DV?$string_output_adapter@D@__crt_stdio_output@@@__crt_stdio_output@@IEAA_NAEA_J@Z 0000000180084ad0 f i libucrtd:output.obj
 0001:00083c90       ??$extract_argument_from_va_list@F_J@?$positional_parameter_base@_WV?$stream_output_adapter@_W@__crt_stdio_output@@@__crt_stdio_output@@IEAA_NAEA_J@Z 0000000180084c90 f i libucrtd:output.obj
 0001:00083e50       ??$extract_argument_from_va_list@F_J@?$positional_parameter_base@_WV?$string_output_adapter@_W@__crt_stdio_output@@@__crt_stdio_output@@IEAA_NAEA_J@Z 0000000180084e50 f i libucrtd:output.obj
 0001:00084010       ??$extract_argument_from_va_list@F_J@?$standard_base@DV?$stream_output_adapter@D@__crt_stdio_output@@@__crt_stdio_output@@IEAA_NAEA_J@Z 0000000180085010 f i libucrtd:output.obj
 0001:00084050       ??$extract_argument_from_va_list@F_J@?$standard_base@DV?$string_output_adapter@D@__crt_stdio_output@@@__crt_stdio_output@@IEAA_NAEA_J@Z 0000000180085050 f i libucrtd:output.obj
 0001:00084090       ??$extract_argument_from_va_list@F_J@?$standard_base@_WV?$stream_output_adapter@_W@__crt_stdio_output@@@__crt_stdio_output@@IEAA_NAEA_J@Z 0000000180085090 f i libucrtd:output.obj
 0001:000840d0       ??$extract_argument_from_va_list@F_J@?$standard_base@_WV?$string_output_adapter@_W@__crt_stdio_output@@@__crt_stdio_output@@IEAA_NAEA_J@Z 00000001800850d0 f i libucrtd:output.obj
 0001:00084110       ??$extract_argument_from_va_list@GD@?$positional_parameter_base@DV?$stream_output_adapter@D@__crt_stdio_output@@@__crt_stdio_output@@IEAA_NAEAD@Z 0000000180085110 f i libucrtd:output.obj
 0001:000842d0       ??$extract_argument_from_va_list@GD@?$positional_parameter_base@DV?$string_output_adapter@D@__crt_stdio_output@@@__crt_stdio_output@@IEAA_NAEAD@Z 00000001800852d0 f i libucrtd:output.obj
 0001:00084490       ??$extract_argument_from_va_list@GD@?$standard_base@DV?$stream_output_adapter@D@__crt_stdio_output@@@__crt_stdio_output@@IEAA_NAEAD@Z 0000000180085490 f i libucrtd:output.obj
 0001:000844c0       ??$extract_argument_from_va_list@GD@?$standard_base@DV?$string_output_adapter@D@__crt_stdio_output@@@__crt_stdio_output@@IEAA_NAEAD@Z 00000001800854c0 f i libucrtd:output.obj
 0001:000844f0       ??$extract_argument_from_va_list@G_J@?$positional_parameter_base@DV?$stream_output_adapter@D@__crt_stdio_output@@@__crt_stdio_output@@IEAA_NAEA_J@Z 00000001800854f0 f i libucrtd:output.obj
 0001:000846b0       ??$extract_argument_from_va_list@G_J@?$positional_parameter_base@DV?$string_output_adapter@D@__crt_stdio_output@@@__crt_stdio_output@@IEAA_NAEA_J@Z 00000001800856b0 f i libucrtd:output.obj
 0001:00084870       ??$extract_argument_from_va_list@G_J@?$positional_parameter_base@_WV?$stream_output_adapter@_W@__crt_stdio_output@@@__crt_stdio_output@@IEAA_NAEA_J@Z 0000000180085870 f i libucrtd:output.obj
 0001:00084a30       ??$extract_argument_from_va_list@G_J@?$positional_parameter_base@_WV?$string_output_adapter@_W@__crt_stdio_output@@@__crt_stdio_output@@IEAA_NAEA_J@Z 0000000180085a30 f i libucrtd:output.obj
 0001:00084bf0       ??$extract_argument_from_va_list@G_J@?$standard_base@DV?$stream_output_adapter@D@__crt_stdio_output@@@__crt_stdio_output@@IEAA_NAEA_J@Z 0000000180085bf0 f i libucrtd:output.obj
 0001:00084c30       ??$extract_argument_from_va_list@G_J@?$standard_base@DV?$string_output_adapter@D@__crt_stdio_output@@@__crt_stdio_output@@IEAA_NAEA_J@Z 0000000180085c30 f i libucrtd:output.obj
 0001:00084c70       ??$extract_argument_from_va_list@G_J@?$standard_base@_WV?$stream_output_adapter@_W@__crt_stdio_output@@@__crt_stdio_output@@IEAA_NAEA_J@Z 0000000180085c70 f i libucrtd:output.obj
 0001:00084cb0       ??$extract_argument_from_va_list@G_J@?$standard_base@_WV?$string_output_adapter@_W@__crt_stdio_output@@@__crt_stdio_output@@IEAA_NAEA_J@Z 0000000180085cb0 f i libucrtd:output.obj
 0001:00084cf0       ??$extract_argument_from_va_list@H_J@?$positional_parameter_base@DV?$stream_output_adapter@D@__crt_stdio_output@@@__crt_stdio_output@@IEAA_NAEA_J@Z 0000000180085cf0 f i libucrtd:output.obj
 0001:00084eb0       ??$extract_argument_from_va_list@H_J@?$positional_parameter_base@DV?$string_output_adapter@D@__crt_stdio_output@@@__crt_stdio_output@@IEAA_NAEA_J@Z 0000000180085eb0 f i libucrtd:output.obj
 0001:00085070       ??$extract_argument_from_va_list@H_J@?$positional_parameter_base@_WV?$stream_output_adapter@_W@__crt_stdio_output@@@__crt_stdio_output@@IEAA_NAEA_J@Z 0000000180086070 f i libucrtd:output.obj
 0001:00085230       ??$extract_argument_from_va_list@H_J@?$positional_parameter_base@_WV?$string_output_adapter@_W@__crt_stdio_output@@@__crt_stdio_output@@IEAA_NAEA_J@Z 0000000180086230 f i libucrtd:output.obj
 0001:000853f0       ??$extract_argument_from_va_list@H_J@?$standard_base@DV?$stream_output_adapter@D@__crt_stdio_output@@@__crt_stdio_output@@IEAA_NAEA_J@Z 00000001800863f0 f i libucrtd:output.obj
 0001:00085420       ??$extract_argument_from_va_list@H_J@?$standard_base@DV?$string_output_adapter@D@__crt_stdio_output@@@__crt_stdio_output@@IEAA_NAEA_J@Z 0000000180086420 f i libucrtd:output.obj
 0001:00085450       ??$extract_argument_from_va_list@H_J@?$standard_base@_WV?$stream_output_adapter@_W@__crt_stdio_output@@@__crt_stdio_output@@IEAA_NAEA_J@Z 0000000180086450 f i libucrtd:output.obj
 0001:00085480       ??$extract_argument_from_va_list@H_J@?$standard_base@_WV?$string_output_adapter@_W@__crt_stdio_output@@@__crt_stdio_output@@IEAA_NAEA_J@Z 0000000180086480 f i libucrtd:output.obj
 0001:000854b0       ??$extract_argument_from_va_list@I_J@?$positional_parameter_base@DV?$stream_output_adapter@D@__crt_stdio_output@@@__crt_stdio_output@@IEAA_NAEA_J@Z 00000001800864b0 f i libucrtd:output.obj
 0001:00085670       ??$extract_argument_from_va_list@I_J@?$positional_parameter_base@DV?$string_output_adapter@D@__crt_stdio_output@@@__crt_stdio_output@@IEAA_NAEA_J@Z 0000000180086670 f i libucrtd:output.obj
 0001:00085830       ??$extract_argument_from_va_list@I_J@?$positional_parameter_base@_WV?$stream_output_adapter@_W@__crt_stdio_output@@@__crt_stdio_output@@IEAA_NAEA_J@Z 0000000180086830 f i libucrtd:output.obj
 0001:000859f0       ??$extract_argument_from_va_list@I_J@?$positional_parameter_base@_WV?$string_output_adapter@_W@__crt_stdio_output@@@__crt_stdio_output@@IEAA_NAEA_J@Z 00000001800869f0 f i libucrtd:output.obj
 0001:00085bb0       ??$extract_argument_from_va_list@I_J@?$standard_base@DV?$stream_output_adapter@D@__crt_stdio_output@@@__crt_stdio_output@@IEAA_NAEA_J@Z 0000000180086bb0 f i libucrtd:output.obj
 0001:00085be0       ??$extract_argument_from_va_list@I_J@?$standard_base@DV?$string_output_adapter@D@__crt_stdio_output@@@__crt_stdio_output@@IEAA_NAEA_J@Z 0000000180086be0 f i libucrtd:output.obj
 0001:00085c10       ??$extract_argument_from_va_list@I_J@?$standard_base@_WV?$stream_output_adapter@_W@__crt_stdio_output@@@__crt_stdio_output@@IEAA_NAEA_J@Z 0000000180086c10 f i libucrtd:output.obj
 0001:00085c40       ??$extract_argument_from_va_list@I_J@?$standard_base@_WV?$string_output_adapter@_W@__crt_stdio_output@@@__crt_stdio_output@@IEAA_NAEA_J@Z 0000000180086c40 f i libucrtd:output.obj
 0001:00085c70       ??$extract_argument_from_va_list@PEADPEAD@?$positional_parameter_base@DV?$stream_output_adapter@D@__crt_stdio_output@@@__crt_stdio_output@@IEAA_NAEAPEAD@Z 0000000180086c70 f i libucrtd:output.obj
 0001:00085e30       ??$extract_argument_from_va_list@PEADPEAD@?$positional_parameter_base@DV?$string_output_adapter@D@__crt_stdio_output@@@__crt_stdio_output@@IEAA_NAEAPEAD@Z 0000000180086e30 f i libucrtd:output.obj
 0001:00085ff0       ??$extract_argument_from_va_list@PEADPEAD@?$positional_parameter_base@_WV?$stream_output_adapter@_W@__crt_stdio_output@@@__crt_stdio_output@@IEAA_NAEAPEAD@Z 0000000180086ff0 f i libucrtd:output.obj
 0001:000861b0       ??$extract_argument_from_va_list@PEADPEAD@?$positional_parameter_base@_WV?$string_output_adapter@_W@__crt_stdio_output@@@__crt_stdio_output@@IEAA_NAEAPEAD@Z 00000001800871b0 f i libucrtd:output.obj
 0001:00086370       ??$extract_argument_from_va_list@PEADPEAD@?$standard_base@DV?$stream_output_adapter@D@__crt_stdio_output@@@__crt_stdio_output@@IEAA_NAEAPEAD@Z 0000000180087370 f i libucrtd:output.obj
 0001:000863a0       ??$extract_argument_from_va_list@PEADPEAD@?$standard_base@DV?$string_output_adapter@D@__crt_stdio_output@@@__crt_stdio_output@@IEAA_NAEAPEAD@Z 00000001800873a0 f i libucrtd:output.obj
 0001:000863d0       ??$extract_argument_from_va_list@PEADPEAD@?$standard_base@_WV?$stream_output_adapter@_W@__crt_stdio_output@@@__crt_stdio_output@@IEAA_NAEAPEAD@Z 00000001800873d0 f i libucrtd:output.obj
 0001:00086400       ??$extract_argument_from_va_list@PEADPEAD@?$standard_base@_WV?$string_output_adapter@_W@__crt_stdio_output@@@__crt_stdio_output@@IEAA_NAEAPEAD@Z 0000000180087400 f i libucrtd:output.obj
 0001:00086430       ??$extract_argument_from_va_list@PEAUansi_string@?1??type_case_Z@?$output_processor@DV?$stream_output_adapter@D@__crt_stdio_output@@V?$format_validation_base@DV?$stream_output_adapter@D@__crt_stdio_output@@@2@@__crt_stdio_output@@AEAA_NXZ@PEAU1?1??234@AEAA_NXZ@@?$standard_base@DV?$stream_output_adapter@D@__crt_stdio_output@@@__crt_stdio_output@@IEAA_NAEAPEAUansi_string@?1??type_case_Z@?$output_processor@DV?$stream_output_adapter@D@__crt_stdio_output@@V?$format_validation_base@DV?$stream_output_adapter@D@__crt_stdio_output@@@2@@1@AEAA_NXZ@@Z 0000000180087430 f i libucrtd:output.obj
 0001:00086460       ??$extract_argument_from_va_list@PEAUansi_string@?1??type_case_Z@?$output_processor@DV?$stream_output_adapter@D@__crt_stdio_output@@V?$positional_parameter_base@DV?$stream_output_adapter@D@__crt_stdio_output@@@2@@__crt_stdio_output@@AEAA_NXZ@PEAU1?1??234@AEAA_NXZ@@?$positional_parameter_base@DV?$stream_output_adapter@D@__crt_stdio_output@@@__crt_stdio_output@@IEAA_NAEAPEAUansi_string@?1??type_case_Z@?$output_processor@DV?$stream_output_adapter@D@__crt_stdio_output@@V?$positional_parameter_base@DV?$stream_output_adapter@D@__crt_stdio_output@@@2@@1@AEAA_NXZ@@Z 0000000180087460 f i libucrtd:output.obj
 0001:00086620       ??$extract_argument_from_va_list@PEAUansi_string@?1??type_case_Z@?$output_processor@DV?$stream_output_adapter@D@__crt_stdio_output@@V?$positional_parameter_base@DV?$stream_output_adapter@D@__crt_stdio_output@@@2@@__crt_stdio_output@@AEAA_NXZ@PEAU1?1??234@AEAA_NXZ@@?$standard_base@DV?$stream_output_adapter@D@__crt_stdio_output@@@__crt_stdio_output@@IEAA_NAEAPEAUansi_string@?1??type_case_Z@?$output_processor@DV?$stream_output_adapter@D@__crt_stdio_output@@V?$positional_parameter_base@DV?$stream_output_adapter@D@__crt_stdio_output@@@2@@1@AEAA_NXZ@@Z 0000000180087620 f i libucrtd:output.obj
 0001:00086650       ??$extract_argument_from_va_list@PEAUansi_string@?1??type_case_Z@?$output_processor@DV?$stream_output_adapter@D@__crt_stdio_output@@V?$standard_base@DV?$stream_output_adapter@D@__crt_stdio_output@@@2@@__crt_stdio_output@@AEAA_NXZ@PEAU1?1??234@AEAA_NXZ@@?$standard_base@DV?$stream_output_adapter@D@__crt_stdio_output@@@__crt_stdio_output@@IEAA_NAEAPEAUansi_string@?1??type_case_Z@?$output_processor@DV?$stream_output_adapter@D@__crt_stdio_output@@V?$standard_base@DV?$stream_output_adapter@D@__crt_stdio_output@@@2@@1@AEAA_NXZ@@Z 0000000180087650 f i libucrtd:output.obj
 0001:00086680       ??$extract_argument_from_va_list@PEAUansi_string@?1??type_case_Z@?$output_processor@DV?$string_output_adapter@D@__crt_stdio_output@@V?$format_validation_base@DV?$string_output_adapter@D@__crt_stdio_output@@@2@@__crt_stdio_output@@AEAA_NXZ@PEAU1?1??234@AEAA_NXZ@@?$standard_base@DV?$string_output_adapter@D@__crt_stdio_output@@@__crt_stdio_output@@IEAA_NAEAPEAUansi_string@?1??type_case_Z@?$output_processor@DV?$string_output_adapter@D@__crt_stdio_output@@V?$format_validation_base@DV?$string_output_adapter@D@__crt_stdio_output@@@2@@1@AEAA_NXZ@@Z 0000000180087680 f i libucrtd:output.obj
 0001:000866b0       ??$extract_argument_from_va_list@PEAUansi_string@?1??type_case_Z@?$output_processor@DV?$string_output_adapter@D@__crt_stdio_output@@V?$positional_parameter_base@DV?$string_output_adapter@D@__crt_stdio_output@@@2@@__crt_stdio_output@@AEAA_NXZ@PEAU1?1??234@AEAA_NXZ@@?$positional_parameter_base@DV?$string_output_adapter@D@__crt_stdio_output@@@__crt_stdio_output@@IEAA_NAEAPEAUansi_string@?1??type_case_Z@?$output_processor@DV?$string_output_adapter@D@__crt_stdio_output@@V?$positional_parameter_base@DV?$string_output_adapter@D@__crt_stdio_output@@@2@@1@AEAA_NXZ@@Z 00000001800876b0 f i libucrtd:output.obj
 0001:00086870       ??$extract_argument_from_va_list@PEAUansi_string@?1??type_case_Z@?$output_processor@DV?$string_output_adapter@D@__crt_stdio_output@@V?$positional_parameter_base@DV?$string_output_adapter@D@__crt_stdio_output@@@2@@__crt_stdio_output@@AEAA_NXZ@PEAU1?1??234@AEAA_NXZ@@?$standard_base@DV?$string_output_adapter@D@__crt_stdio_output@@@__crt_stdio_output@@IEAA_NAEAPEAUansi_string@?1??type_case_Z@?$output_processor@DV?$string_output_adapter@D@__crt_stdio_output@@V?$positional_parameter_base@DV?$string_output_adapter@D@__crt_stdio_output@@@2@@1@AEAA_NXZ@@Z 0000000180087870 f i libucrtd:output.obj
 0001:000868a0       ??$extract_argument_from_va_list@PEAUansi_string@?1??type_case_Z@?$output_processor@DV?$string_output_adapter@D@__crt_stdio_output@@V?$standard_base@DV?$string_output_adapter@D@__crt_stdio_output@@@2@@__crt_stdio_output@@AEAA_NXZ@PEAU1?1??234@AEAA_NXZ@@?$standard_base@DV?$string_output_adapter@D@__crt_stdio_output@@@__crt_stdio_output@@IEAA_NAEAPEAUansi_string@?1??type_case_Z@?$output_processor@DV?$string_output_adapter@D@__crt_stdio_output@@V?$standard_base@DV?$string_output_adapter@D@__crt_stdio_output@@@2@@1@AEAA_NXZ@@Z 00000001800878a0 f i libucrtd:output.obj
 0001:000868d0       ??$extract_argument_from_va_list@PEAUansi_string@?1??type_case_Z@?$output_processor@_WV?$stream_output_adapter@_W@__crt_stdio_output@@V?$format_validation_base@_WV?$stream_output_adapter@_W@__crt_stdio_output@@@2@@__crt_stdio_output@@AEAA_NXZ@PEAU1?1??234@AEAA_NXZ@@?$standard_base@_WV?$stream_output_adapter@_W@__crt_stdio_output@@@__crt_stdio_output@@IEAA_NAEAPEAUansi_string@?1??type_case_Z@?$output_processor@_WV?$stream_output_adapter@_W@__crt_stdio_output@@V?$format_validation_base@_WV?$stream_output_adapter@_W@__crt_stdio_output@@@2@@1@AEAA_NXZ@@Z 00000001800878d0 f i libucrtd:output.obj
 0001:00086900       ??$extract_argument_from_va_list@PEAUansi_string@?1??type_case_Z@?$output_processor@_WV?$stream_output_adapter@_W@__crt_stdio_output@@V?$positional_parameter_base@_WV?$stream_output_adapter@_W@__crt_stdio_output@@@2@@__crt_stdio_output@@AEAA_NXZ@PEAU1?1??234@AEAA_NXZ@@?$positional_parameter_base@_WV?$stream_output_adapter@_W@__crt_stdio_output@@@__crt_stdio_output@@IEAA_NAEAPEAUansi_string@?1??type_case_Z@?$output_processor@_WV?$stream_output_adapter@_W@__crt_stdio_output@@V?$positional_parameter_base@_WV?$stream_output_adapter@_W@__crt_stdio_output@@@2@@1@AEAA_NXZ@@Z 0000000180087900 f i libucrtd:output.obj
 0001:00086ac0       ??$extract_argument_from_va_list@PEAUansi_string@?1??type_case_Z@?$output_processor@_WV?$stream_output_adapter@_W@__crt_stdio_output@@V?$positional_parameter_base@_WV?$stream_output_adapter@_W@__crt_stdio_output@@@2@@__crt_stdio_output@@AEAA_NXZ@PEAU1?1??234@AEAA_NXZ@@?$standard_base@_WV?$stream_output_adapter@_W@__crt_stdio_output@@@__crt_stdio_output@@IEAA_NAEAPEAUansi_string@?1??type_case_Z@?$output_processor@_WV?$stream_output_adapter@_W@__crt_stdio_output@@V?$positional_parameter_base@_WV?$stream_output_adapter@_W@__crt_stdio_output@@@2@@1@AEAA_NXZ@@Z 0000000180087ac0 f i libucrtd:output.obj
 0001:00086af0       ??$extract_argument_from_va_list@PEAUansi_string@?1??type_case_Z@?$output_processor@_WV?$stream_output_adapter@_W@__crt_stdio_output@@V?$standard_base@_WV?$stream_output_adapter@_W@__crt_stdio_output@@@2@@__crt_stdio_output@@AEAA_NXZ@PEAU1?1??234@AEAA_NXZ@@?$standard_base@_WV?$stream_output_adapter@_W@__crt_stdio_output@@@__crt_stdio_output@@IEAA_NAEAPEAUansi_string@?1??type_case_Z@?$output_processor@_WV?$stream_output_adapter@_W@__crt_stdio_output@@V?$standard_base@_WV?$stream_output_adapter@_W@__crt_stdio_output@@@2@@1@AEAA_NXZ@@Z 0000000180087af0 f i libucrtd:output.obj
 0001:00086b20       ??$extract_argument_from_va_list@PEAUansi_string@?1??type_case_Z@?$output_processor@_WV?$string_output_adapter@_W@__crt_stdio_output@@V?$format_validation_base@_WV?$string_output_adapter@_W@__crt_stdio_output@@@2@@__crt_stdio_output@@AEAA_NXZ@PEAU1?1??234@AEAA_NXZ@@?$standard_base@_WV?$string_output_adapter@_W@__crt_stdio_output@@@__crt_stdio_output@@IEAA_NAEAPEAUansi_string@?1??type_case_Z@?$output_processor@_WV?$string_output_adapter@_W@__crt_stdio_output@@V?$format_validation_base@_WV?$string_output_adapter@_W@__crt_stdio_output@@@2@@1@AEAA_NXZ@@Z 0000000180087b20 f i libucrtd:output.obj
 0001:00086b50       ??$extract_argument_from_va_list@PEAUansi_string@?1??type_case_Z@?$output_processor@_WV?$string_output_adapter@_W@__crt_stdio_output@@V?$positional_parameter_base@_WV?$string_output_adapter@_W@__crt_stdio_output@@@2@@__crt_stdio_output@@AEAA_NXZ@PEAU1?1??234@AEAA_NXZ@@?$positional_parameter_base@_WV?$string_output_adapter@_W@__crt_stdio_output@@@__crt_stdio_output@@IEAA_NAEAPEAUansi_string@?1??type_case_Z@?$output_processor@_WV?$string_output_adapter@_W@__crt_stdio_output@@V?$positional_parameter_base@_WV?$string_output_adapter@_W@__crt_stdio_output@@@2@@1@AEAA_NXZ@@Z 0000000180087b50 f i libucrtd:output.obj
 0001:00086d10       ??$extract_argument_from_va_list@PEAUansi_string@?1??type_case_Z@?$output_processor@_WV?$string_output_adapter@_W@__crt_stdio_output@@V?$positional_parameter_base@_WV?$string_output_adapter@_W@__crt_stdio_output@@@2@@__crt_stdio_output@@AEAA_NXZ@PEAU1?1??234@AEAA_NXZ@@?$standard_base@_WV?$string_output_adapter@_W@__crt_stdio_output@@@__crt_stdio_output@@IEAA_NAEAPEAUansi_string@?1??type_case_Z@?$output_processor@_WV?$string_output_adapter@_W@__crt_stdio_output@@V?$positional_parameter_base@_WV?$string_output_adapter@_W@__crt_stdio_output@@@2@@1@AEAA_NXZ@@Z 0000000180087d10 f i libucrtd:output.obj
 0001:00086d40       ??$extract_argument_from_va_list@PEAUansi_string@?1??type_case_Z@?$output_processor@_WV?$string_output_adapter@_W@__crt_stdio_output@@V?$standard_base@_WV?$string_output_adapter@_W@__crt_stdio_output@@@2@@__crt_stdio_output@@AEAA_NXZ@PEAU1?1??234@AEAA_NXZ@@?$standard_base@_WV?$string_output_adapter@_W@__crt_stdio_output@@@__crt_stdio_output@@IEAA_NAEAPEAUansi_string@?1??type_case_Z@?$output_processor@_WV?$string_output_adapter@_W@__crt_stdio_output@@V?$standard_base@_WV?$string_output_adapter@_W@__crt_stdio_output@@@2@@1@AEAA_NXZ@@Z 0000000180087d40 f i libucrtd:output.obj
 0001:00086d70       ??$extract_argument_from_va_list@PEAXPEAX@?$positional_parameter_base@DV?$stream_output_adapter@D@__crt_stdio_output@@@__crt_stdio_output@@IEAA_NAEAPEAX@Z 0000000180087d70 f i libucrtd:output.obj
 0001:00086f30       ??$extract_argument_from_va_list@PEAXPEAX@?$positional_parameter_base@DV?$string_output_adapter@D@__crt_stdio_output@@@__crt_stdio_output@@IEAA_NAEAPEAX@Z 0000000180087f30 f i libucrtd:output.obj
 0001:000870f0       ??$extract_argument_from_va_list@PEAXPEAX@?$positional_parameter_base@_WV?$stream_output_adapter@_W@__crt_stdio_output@@@__crt_stdio_output@@IEAA_NAEAPEAX@Z 00000001800880f0 f i libucrtd:output.obj
 0001:000872b0       ??$extract_argument_from_va_list@PEAXPEAX@?$positional_parameter_base@_WV?$string_output_adapter@_W@__crt_stdio_output@@@__crt_stdio_output@@IEAA_NAEAPEAX@Z 00000001800882b0 f i libucrtd:output.obj
 0001:00087470       ??$extract_argument_from_va_list@PEAXPEAX@?$standard_base@DV?$stream_output_adapter@D@__crt_stdio_output@@@__crt_stdio_output@@IEAA_NAEAPEAX@Z 0000000180088470 f i libucrtd:output.obj
 0001:000874a0       ??$extract_argument_from_va_list@PEAXPEAX@?$standard_base@DV?$string_output_adapter@D@__crt_stdio_output@@@__crt_stdio_output@@IEAA_NAEAPEAX@Z 00000001800884a0 f i libucrtd:output.obj
 0001:000874d0       ??$extract_argument_from_va_list@PEAXPEAX@?$standard_base@_WV?$stream_output_adapter@_W@__crt_stdio_output@@@__crt_stdio_output@@IEAA_NAEAPEAX@Z 00000001800884d0 f i libucrtd:output.obj
 0001:00087500       ??$extract_argument_from_va_list@PEAXPEAX@?$standard_base@_WV?$string_output_adapter@_W@__crt_stdio_output@@@__crt_stdio_output@@IEAA_NAEAPEAX@Z 0000000180088500 f i libucrtd:output.obj
 0001:00087530       ??$extract_argument_from_va_list@U_CRT_DOUBLE@@U1@@?$positional_parameter_base@DV?$stream_output_adapter@D@__crt_stdio_output@@@__crt_stdio_output@@IEAA_NAEAU_CRT_DOUBLE@@@Z 0000000180088530 f i libucrtd:output.obj
 0001:00087750       ??$extract_argument_from_va_list@U_CRT_DOUBLE@@U1@@?$positional_parameter_base@DV?$string_output_adapter@D@__crt_stdio_output@@@__crt_stdio_output@@IEAA_NAEAU_CRT_DOUBLE@@@Z 0000000180088750 f i libucrtd:output.obj
 0001:00087970       ??$extract_argument_from_va_list@U_CRT_DOUBLE@@U1@@?$positional_parameter_base@_WV?$stream_output_adapter@_W@__crt_stdio_output@@@__crt_stdio_output@@IEAA_NAEAU_CRT_DOUBLE@@@Z 0000000180088970 f i libucrtd:output.obj
 0001:00087b90       ??$extract_argument_from_va_list@U_CRT_DOUBLE@@U1@@?$positional_parameter_base@_WV?$string_output_adapter@_W@__crt_stdio_output@@@__crt_stdio_output@@IEAA_NAEAU_CRT_DOUBLE@@@Z 0000000180088b90 f i libucrtd:output.obj
 0001:00087db0       ??$extract_argument_from_va_list@U_CRT_DOUBLE@@U1@@?$standard_base@DV?$stream_output_adapter@D@__crt_stdio_output@@@__crt_stdio_output@@IEAA_NAEAU_CRT_DOUBLE@@@Z 0000000180088db0 f i libucrtd:output.obj
 0001:00087e00       ??$extract_argument_from_va_list@U_CRT_DOUBLE@@U1@@?$standard_base@DV?$string_output_adapter@D@__crt_stdio_output@@@__crt_stdio_output@@IEAA_NAEAU_CRT_DOUBLE@@@Z 0000000180088e00 f i libucrtd:output.obj
 0001:00087e50       ??$extract_argument_from_va_list@U_CRT_DOUBLE@@U1@@?$standard_base@_WV?$stream_output_adapter@_W@__crt_stdio_output@@@__crt_stdio_output@@IEAA_NAEAU_CRT_DOUBLE@@@Z 0000000180088e50 f i libucrtd:output.obj
 0001:00087ea0       ??$extract_argument_from_va_list@U_CRT_DOUBLE@@U1@@?$standard_base@_WV?$string_output_adapter@_W@__crt_stdio_output@@@__crt_stdio_output@@IEAA_NAEAU_CRT_DOUBLE@@@Z 0000000180088ea0 f i libucrtd:output.obj
 0001:00087ef0       ??$extract_argument_from_va_list@_J_J@?$positional_parameter_base@DV?$stream_output_adapter@D@__crt_stdio_output@@@__crt_stdio_output@@IEAA_NAEA_J@Z 0000000180088ef0 f i libucrtd:output.obj
 0001:000880b0       ??$extract_argument_from_va_list@_J_J@?$positional_parameter_base@DV?$string_output_adapter@D@__crt_stdio_output@@@__crt_stdio_output@@IEAA_NAEA_J@Z 00000001800890b0 f i libucrtd:output.obj
 0001:00088270       ??$extract_argument_from_va_list@_J_J@?$positional_parameter_base@_WV?$stream_output_adapter@_W@__crt_stdio_output@@@__crt_stdio_output@@IEAA_NAEA_J@Z 0000000180089270 f i libucrtd:output.obj
 0001:00088430       ??$extract_argument_from_va_list@_J_J@?$positional_parameter_base@_WV?$string_output_adapter@_W@__crt_stdio_output@@@__crt_stdio_output@@IEAA_NAEA_J@Z 0000000180089430 f i libucrtd:output.obj
 0001:000885f0       ??$extract_argument_from_va_list@_J_J@?$standard_base@DV?$stream_output_adapter@D@__crt_stdio_output@@@__crt_stdio_output@@IEAA_NAEA_J@Z 00000001800895f0 f i libucrtd:output.obj
 0001:00088620       ??$extract_argument_from_va_list@_J_J@?$standard_base@DV?$string_output_adapter@D@__crt_stdio_output@@@__crt_stdio_output@@IEAA_NAEA_J@Z 0000000180089620 f i libucrtd:output.obj
 0001:00088650       ??$extract_argument_from_va_list@_J_J@?$standard_base@_WV?$stream_output_adapter@_W@__crt_stdio_output@@@__crt_stdio_output@@IEAA_NAEA_J@Z 0000000180089650 f i libucrtd:output.obj
 0001:00088680       ??$extract_argument_from_va_list@_J_J@?$standard_base@_WV?$string_output_adapter@_W@__crt_stdio_output@@@__crt_stdio_output@@IEAA_NAEA_J@Z 0000000180089680 f i libucrtd:output.obj
 0001:000886b0       ??$extract_argument_from_va_list@_K_J@?$positional_parameter_base@DV?$stream_output_adapter@D@__crt_stdio_output@@@__crt_stdio_output@@IEAA_NAEA_J@Z 00000001800896b0 f i libucrtd:output.obj
 0001:00088870       ??$extract_argument_from_va_list@_K_J@?$positional_parameter_base@DV?$string_output_adapter@D@__crt_stdio_output@@@__crt_stdio_output@@IEAA_NAEA_J@Z 0000000180089870 f i libucrtd:output.obj
 0001:00088a30       ??$extract_argument_from_va_list@_K_J@?$positional_parameter_base@_WV?$stream_output_adapter@_W@__crt_stdio_output@@@__crt_stdio_output@@IEAA_NAEA_J@Z 0000000180089a30 f i libucrtd:output.obj
 0001:00088bf0       ??$extract_argument_from_va_list@_K_J@?$positional_parameter_base@_WV?$string_output_adapter@_W@__crt_stdio_output@@@__crt_stdio_output@@IEAA_NAEA_J@Z 0000000180089bf0 f i libucrtd:output.obj
 0001:00088db0       ??$extract_argument_from_va_list@_K_J@?$standard_base@DV?$stream_output_adapter@D@__crt_stdio_output@@@__crt_stdio_output@@IEAA_NAEA_J@Z 0000000180089db0 f i libucrtd:output.obj
 0001:00088de0       ??$extract_argument_from_va_list@_K_J@?$standard_base@DV?$string_output_adapter@D@__crt_stdio_output@@@__crt_stdio_output@@IEAA_NAEA_J@Z 0000000180089de0 f i libucrtd:output.obj
 0001:00088e10       ??$extract_argument_from_va_list@_K_J@?$standard_base@_WV?$stream_output_adapter@_W@__crt_stdio_output@@@__crt_stdio_output@@IEAA_NAEA_J@Z 0000000180089e10 f i libucrtd:output.obj
 0001:00088e40       ??$extract_argument_from_va_list@_K_J@?$standard_base@_WV?$string_output_adapter@_W@__crt_stdio_output@@@__crt_stdio_output@@IEAA_NAEA_J@Z 0000000180089e40 f i libucrtd:output.obj
 0001:00088e70       ??$extract_argument_from_va_list@_W_W@?$positional_parameter_base@DV?$stream_output_adapter@D@__crt_stdio_output@@@__crt_stdio_output@@IEAA_NAEA_W@Z 0000000180089e70 f i libucrtd:output.obj
 0001:00089030       ??$extract_argument_from_va_list@_W_W@?$positional_parameter_base@DV?$string_output_adapter@D@__crt_stdio_output@@@__crt_stdio_output@@IEAA_NAEA_W@Z 000000018008a030 f i libucrtd:output.obj
 0001:000891f0       ??$extract_argument_from_va_list@_W_W@?$positional_parameter_base@_WV?$stream_output_adapter@_W@__crt_stdio_output@@@__crt_stdio_output@@IEAA_NAEA_W@Z 000000018008a1f0 f i libucrtd:output.obj
 0001:000893b0       ??$extract_argument_from_va_list@_W_W@?$positional_parameter_base@_WV?$string_output_adapter@_W@__crt_stdio_output@@@__crt_stdio_output@@IEAA_NAEA_W@Z 000000018008a3b0 f i libucrtd:output.obj
 0001:00089570       ??$extract_argument_from_va_list@_W_W@?$standard_base@DV?$stream_output_adapter@D@__crt_stdio_output@@@__crt_stdio_output@@IEAA_NAEA_W@Z 000000018008a570 f i libucrtd:output.obj
 0001:000895a0       ??$extract_argument_from_va_list@_W_W@?$standard_base@DV?$string_output_adapter@D@__crt_stdio_output@@@__crt_stdio_output@@IEAA_NAEA_W@Z 000000018008a5a0 f i libucrtd:output.obj
 0001:000895d0       ??$extract_argument_from_va_list@_W_W@?$standard_base@_WV?$stream_output_adapter@_W@__crt_stdio_output@@@__crt_stdio_output@@IEAA_NAEA_W@Z 000000018008a5d0 f i libucrtd:output.obj
 0001:00089600       ??$extract_argument_from_va_list@_W_W@?$standard_base@_WV?$string_output_adapter@_W@__crt_stdio_output@@@__crt_stdio_output@@IEAA_NAEA_W@Z 000000018008a600 f i libucrtd:output.obj
 0001:00089630       ??$get_parameter_type@D@?$positional_parameter_base@DV?$stream_output_adapter@D@__crt_stdio_output@@@__crt_stdio_output@@CA?AW4parameter_type@01@PEAD@Z 000000018008a630 f i libucrtd:output.obj
 0001:00089640       ??$get_parameter_type@D@?$positional_parameter_base@DV?$string_output_adapter@D@__crt_stdio_output@@@__crt_stdio_output@@CA?AW4parameter_type@01@PEAD@Z 000000018008a640 f i libucrtd:output.obj
 0001:00089650       ??$get_parameter_type@D@?$positional_parameter_base@_WV?$stream_output_adapter@_W@__crt_stdio_output@@@__crt_stdio_output@@CA?AW4parameter_type@01@PEAD@Z 000000018008a650 f i libucrtd:output.obj
 0001:00089660       ??$get_parameter_type@D@?$positional_parameter_base@_WV?$string_output_adapter@_W@__crt_stdio_output@@@__crt_stdio_output@@CA?AW4parameter_type@01@PEAD@Z 000000018008a660 f i libucrtd:output.obj
 0001:00089670       ??$get_parameter_type@Uansi_string@?1??type_case_Z@?$output_processor@DV?$stream_output_adapter@D@__crt_stdio_output@@V?$positional_parameter_base@DV?$stream_output_adapter@D@__crt_stdio_output@@@2@@__crt_stdio_output@@AEAA_NXZ@@?$positional_parameter_base@DV?$stream_output_adapter@D@__crt_stdio_output@@@__crt_stdio_output@@CA?AW4parameter_type@01@PEAUansi_string@?1??type_case_Z@?$output_processor@DV?$stream_output_adapter@D@__crt_stdio_output@@V?$positional_parameter_base@DV?$stream_output_adapter@D@__crt_stdio_output@@@2@@1@AEAA_NXZ@@Z 000000018008a670 f i libucrtd:output.obj
 0001:00089680       ??$get_parameter_type@Uansi_string@?1??type_case_Z@?$output_processor@DV?$string_output_adapter@D@__crt_stdio_output@@V?$positional_parameter_base@DV?$string_output_adapter@D@__crt_stdio_output@@@2@@__crt_stdio_output@@AEAA_NXZ@@?$positional_parameter_base@DV?$string_output_adapter@D@__crt_stdio_output@@@__crt_stdio_output@@CA?AW4parameter_type@01@PEAUansi_string@?1??type_case_Z@?$output_processor@DV?$string_output_adapter@D@__crt_stdio_output@@V?$positional_parameter_base@DV?$string_output_adapter@D@__crt_stdio_output@@@2@@1@AEAA_NXZ@@Z 000000018008a680 f i libucrtd:output.obj
 0001:00089690       ??$get_parameter_type@Uansi_string@?1??type_case_Z@?$output_processor@_WV?$stream_output_adapter@_W@__crt_stdio_output@@V?$positional_parameter_base@_WV?$stream_output_adapter@_W@__crt_stdio_output@@@2@@__crt_stdio_output@@AEAA_NXZ@@?$positional_parameter_base@_WV?$stream_output_adapter@_W@__crt_stdio_output@@@__crt_stdio_output@@CA?AW4parameter_type@01@PEAUansi_string@?1??type_case_Z@?$output_processor@_WV?$stream_output_adapter@_W@__crt_stdio_output@@V?$positional_parameter_base@_WV?$stream_output_adapter@_W@__crt_stdio_output@@@2@@1@AEAA_NXZ@@Z 000000018008a690 f i libucrtd:output.obj
 0001:000896a0       ??$get_parameter_type@Uansi_string@?1??type_case_Z@?$output_processor@_WV?$string_output_adapter@_W@__crt_stdio_output@@V?$positional_parameter_base@_WV?$string_output_adapter@_W@__crt_stdio_output@@@2@@__crt_stdio_output@@AEAA_NXZ@@?$positional_parameter_base@_WV?$string_output_adapter@_W@__crt_stdio_output@@@__crt_stdio_output@@CA?AW4parameter_type@01@PEAUansi_string@?1??type_case_Z@?$output_processor@_WV?$string_output_adapter@_W@__crt_stdio_output@@V?$positional_parameter_base@_WV?$string_output_adapter@_W@__crt_stdio_output@@@2@@1@AEAA_NXZ@@Z 000000018008a6a0 f i libucrtd:output.obj
 0001:000896b0       ??$get_parameter_type@X@?$positional_parameter_base@DV?$stream_output_adapter@D@__crt_stdio_output@@@__crt_stdio_output@@CA?AW4parameter_type@01@PEAX@Z 000000018008a6b0 f i libucrtd:output.obj
 0001:000896c0       ??$get_parameter_type@X@?$positional_parameter_base@DV?$string_output_adapter@D@__crt_stdio_output@@@__crt_stdio_output@@CA?AW4parameter_type@01@PEAX@Z 000000018008a6c0 f i libucrtd:output.obj
 0001:000896d0       ??$get_parameter_type@X@?$positional_parameter_base@_WV?$stream_output_adapter@_W@__crt_stdio_output@@@__crt_stdio_output@@CA?AW4parameter_type@01@PEAX@Z 000000018008a6d0 f i libucrtd:output.obj
 0001:000896e0       ??$get_parameter_type@X@?$positional_parameter_base@_WV?$string_output_adapter@_W@__crt_stdio_output@@@__crt_stdio_output@@CA?AW4parameter_type@01@PEAX@Z 000000018008a6e0 f i libucrtd:output.obj
 0001:000896f0       ??$is_character_specifier@D@?$positional_parameter_base@DV?$stream_output_adapter@D@__crt_stdio_output@@@__crt_stdio_output@@CA_ND@Z 000000018008a6f0 f i libucrtd:output.obj
 0001:00089730       ??$is_character_specifier@D@?$positional_parameter_base@DV?$string_output_adapter@D@__crt_stdio_output@@@__crt_stdio_output@@CA_ND@Z 000000018008a730 f i libucrtd:output.obj
 0001:00089770       ??$is_character_specifier@_W@?$positional_parameter_base@_WV?$stream_output_adapter@_W@__crt_stdio_output@@@__crt_stdio_output@@CA_N_W@Z 000000018008a770 f i libucrtd:output.obj
 0001:000897b0       ??$is_character_specifier@_W@?$positional_parameter_base@_WV?$string_output_adapter@_W@__crt_stdio_output@@@__crt_stdio_output@@CA_N_W@Z 000000018008a7b0 f i libucrtd:output.obj
 0001:000897f0       ??$is_integral_specifier@D@?$positional_parameter_base@DV?$stream_output_adapter@D@__crt_stdio_output@@@__crt_stdio_output@@CA_ND@Z 000000018008a7f0 f i libucrtd:output.obj
 0001:00089860       ??$is_integral_specifier@D@?$positional_parameter_base@DV?$string_output_adapter@D@__crt_stdio_output@@@__crt_stdio_output@@CA_ND@Z 000000018008a860 f i libucrtd:output.obj
 0001:000898d0       ??$is_integral_specifier@_W@?$positional_parameter_base@_WV?$stream_output_adapter@_W@__crt_stdio_output@@@__crt_stdio_output@@CA_N_W@Z 000000018008a8d0 f i libucrtd:output.obj
 0001:00089940       ??$is_integral_specifier@_W@?$positional_parameter_base@_WV?$string_output_adapter@_W@__crt_stdio_output@@@__crt_stdio_output@@CA_N_W@Z 000000018008a940 f i libucrtd:output.obj
 0001:000899b0       ??$is_overflow_condition@K@__crt_strtox@@YA_NIK@Z 000000018008a9b0 f i libucrtd:output.obj
 0001:00089a20       ??$is_pointer_specifier@D@?$positional_parameter_base@DV?$stream_output_adapter@D@__crt_stdio_output@@@__crt_stdio_output@@CA_ND@Z 000000018008aa20 f i libucrtd:output.obj
 0001:00089a50       ??$is_pointer_specifier@D@?$positional_parameter_base@DV?$string_output_adapter@D@__crt_stdio_output@@@__crt_stdio_output@@CA_ND@Z 000000018008aa50 f i libucrtd:output.obj
 0001:00089a80       ??$is_pointer_specifier@_W@?$positional_parameter_base@_WV?$stream_output_adapter@_W@__crt_stdio_output@@@__crt_stdio_output@@CA_N_W@Z 000000018008aa80 f i libucrtd:output.obj
 0001:00089ab0       ??$is_pointer_specifier@_W@?$positional_parameter_base@_WV?$string_output_adapter@_W@__crt_stdio_output@@@__crt_stdio_output@@CA_N_W@Z 000000018008aab0 f i libucrtd:output.obj
 0001:00089ae0       ??$is_string_specifier@D@?$positional_parameter_base@DV?$stream_output_adapter@D@__crt_stdio_output@@@__crt_stdio_output@@CA_ND@Z 000000018008aae0 f i libucrtd:output.obj
 0001:00089b20       ??$is_string_specifier@D@?$positional_parameter_base@DV?$string_output_adapter@D@__crt_stdio_output@@@__crt_stdio_output@@CA_ND@Z 000000018008ab20 f i libucrtd:output.obj
 0001:00089b60       ??$is_string_specifier@_W@?$positional_parameter_base@_WV?$stream_output_adapter@_W@__crt_stdio_output@@@__crt_stdio_output@@CA_N_W@Z 000000018008ab60 f i libucrtd:output.obj
 0001:00089ba0       ??$is_string_specifier@_W@?$positional_parameter_base@_WV?$string_output_adapter@_W@__crt_stdio_output@@@__crt_stdio_output@@CA_N_W@Z 000000018008aba0 f i libucrtd:output.obj
 0001:00089be0       ??$is_wide_character_specifier@D@__crt_stdio_output@@YA_N_KDW4length_modifier@0@@Z 000000018008abe0 f i libucrtd:output.obj
 0001:00089c80       ??$is_wide_character_specifier@_W@__crt_stdio_output@@YA_N_K_WW4length_modifier@0@@Z 000000018008ac80 f i libucrtd:output.obj
 0001:00089d50       ??$make_c_string_character_source@DPEAPEAD@__crt_strtox@@YA?AV?$c_string_character_source@D@0@QEBDQEAPEAD@Z 000000018008ad50 f i libucrtd:output.obj
 0001:00089d90       ??$make_c_string_character_source@_WPEAPEA_W@__crt_strtox@@YA?AV?$c_string_character_source@_W@0@QEB_WQEAPEA_W@Z 000000018008ad90 f i libucrtd:output.obj
 0001:00089dd0       ??$parse_integer@KV?$c_string_character_source@D@__crt_strtox@@$0A@@__crt_strtox@@YAKAEAV__crt_cached_ptd_host@@V?$c_string_character_source@D@0@H_N@Z 000000018008add0 f i libucrtd:output.obj
 0001:0008a250       ??$parse_integer@KV?$c_string_character_source@_W@__crt_strtox@@$0A@@__crt_strtox@@YAKAEAV__crt_cached_ptd_host@@V?$c_string_character_source@_W@0@H_N@Z 000000018008b250 f i libucrtd:output.obj
 0001:0008a6d0       ??$peek_va_arg@C@__crt_stdio_output@@YACPEAD@Z 000000018008b6d0 f i libucrtd:output.obj
 0001:0008a730       ??$peek_va_arg@E@__crt_stdio_output@@YAEPEAD@Z 000000018008b730 f i libucrtd:output.obj
 0001:0008a790       ??$peek_va_arg@F@__crt_stdio_output@@YAFPEAD@Z 000000018008b790 f i libucrtd:output.obj
 0001:0008a7f0       ??$peek_va_arg@G@__crt_stdio_output@@YAGPEAD@Z 000000018008b7f0 f i libucrtd:output.obj
 0001:0008a850       ??$peek_va_arg@H@__crt_stdio_output@@YAHPEAD@Z 000000018008b850 f i libucrtd:output.obj
 0001:0008a8a0       ??$peek_va_arg@I@__crt_stdio_output@@YAIPEAD@Z 000000018008b8a0 f i libucrtd:output.obj
 0001:0008a8f0       ??$peek_va_arg@PEAD@__crt_stdio_output@@YAPEADPEAD@Z 000000018008b8f0 f i libucrtd:output.obj
 0001:0008a950       ??$peek_va_arg@PEAUansi_string@?1??type_case_Z@?$output_processor@DV?$stream_output_adapter@D@__crt_stdio_output@@V?$positional_parameter_base@DV?$stream_output_adapter@D@__crt_stdio_output@@@2@@__crt_stdio_output@@AEAA_NXZ@@__crt_stdio_output@@YAPEAUansi_string@?1??type_case_Z@?$output_processor@DV?$stream_output_adapter@D@__crt_stdio_output@@V?$positional_parameter_base@DV?$stream_output_adapter@D@__crt_stdio_output@@@2@@0@AEAA_NXZ@PEAD@Z 000000018008b950 f i libucrtd:output.obj
 0001:0008a9b0       ??$peek_va_arg@PEAUansi_string@?1??type_case_Z@?$output_processor@DV?$string_output_adapter@D@__crt_stdio_output@@V?$positional_parameter_base@DV?$string_output_adapter@D@__crt_stdio_output@@@2@@__crt_stdio_output@@AEAA_NXZ@@__crt_stdio_output@@YAPEAUansi_string@?1??type_case_Z@?$output_processor@DV?$string_output_adapter@D@__crt_stdio_output@@V?$positional_parameter_base@DV?$string_output_adapter@D@__crt_stdio_output@@@2@@0@AEAA_NXZ@PEAD@Z 000000018008b9b0 f i libucrtd:output.obj
 0001:0008aa10       ??$peek_va_arg@PEAUansi_string@?1??type_case_Z@?$output_processor@_WV?$stream_output_adapter@_W@__crt_stdio_output@@V?$positional_parameter_base@_WV?$stream_output_adapter@_W@__crt_stdio_output@@@2@@__crt_stdio_output@@AEAA_NXZ@@__crt_stdio_output@@YAPEAUansi_string@?1??type_case_Z@?$output_processor@_WV?$stream_output_adapter@_W@__crt_stdio_output@@V?$positional_parameter_base@_WV?$stream_output_adapter@_W@__crt_stdio_output@@@2@@0@AEAA_NXZ@PEAD@Z 000000018008ba10 f i libucrtd:output.obj
 0001:0008aa70       ??$peek_va_arg@PEAUansi_string@?1??type_case_Z@?$output_processor@_WV?$string_output_adapter@_W@__crt_stdio_output@@V?$positional_parameter_base@_WV?$string_output_adapter@_W@__crt_stdio_output@@@2@@__crt_stdio_output@@AEAA_NXZ@@__crt_stdio_output@@YAPEAUansi_string@?1??type_case_Z@?$output_processor@_WV?$string_output_adapter@_W@__crt_stdio_output@@V?$positional_parameter_base@_WV?$string_output_adapter@_W@__crt_stdio_output@@@2@@0@AEAA_NXZ@PEAD@Z 000000018008ba70 f i libucrtd:output.obj
 0001:0008aad0       ??$peek_va_arg@PEAX@__crt_stdio_output@@YAPEAXPEAD@Z 000000018008bad0 f i libucrtd:output.obj
 0001:0008ab30       ??$peek_va_arg@U_CRT_DOUBLE@@@__crt_stdio_output@@YA?AU_CRT_DOUBLE@@PEAD@Z 000000018008bb30 f i libucrtd:output.obj
 0001:0008ab90       ??$peek_va_arg@_J@__crt_stdio_output@@YA_JPEAD@Z 000000018008bb90 f i libucrtd:output.obj
 0001:0008abf0       ??$peek_va_arg@_K@__crt_stdio_output@@YA_KPEAD@Z 000000018008bbf0 f i libucrtd:output.obj
 0001:0008ac50       ??$peek_va_arg@_W@__crt_stdio_output@@YA_WPEAD@Z 000000018008bc50 f i libucrtd:output.obj
 0001:0008acb0       ??$puttc_nolock_internal@AEBDPEAU_iobuf@@AEAV__crt_cached_ptd_host@@@?$__crt_char_traits@D@@SAHAEBD$$QEAPEAU_iobuf@@AEAV__crt_cached_ptd_host@@@Z 000000018008bcb0 f i libucrtd:output.obj
 0001:0008acf0       ??$puttc_nolock_internal@AEB_WPEAU_iobuf@@AEAV__crt_cached_ptd_host@@@?$__crt_char_traits@_W@@SAGAEB_W$$QEAPEAU_iobuf@@AEAV__crt_cached_ptd_host@@@Z 000000018008bcf0 f i libucrtd:output.obj
 0001:0008ad30       ??$read_va_arg@C@__crt_stdio_output@@YACAEAPEAD@Z 000000018008bd30 f i libucrtd:output.obj
 0001:0008ada0       ??$read_va_arg@E@__crt_stdio_output@@YAEAEAPEAD@Z 000000018008bda0 f i libucrtd:output.obj
 0001:0008ae10       ??$read_va_arg@F@__crt_stdio_output@@YAFAEAPEAD@Z 000000018008be10 f i libucrtd:output.obj
 0001:0008ae80       ??$read_va_arg@G@__crt_stdio_output@@YAGAEAPEAD@Z 000000018008be80 f i libucrtd:output.obj
 0001:0008aef0       ??$read_va_arg@H@__crt_stdio_output@@YAHAEAPEAD@Z 000000018008bef0 f i libucrtd:output.obj
 0001:0008af50       ??$read_va_arg@I@__crt_stdio_output@@YAIAEAPEAD@Z 000000018008bf50 f i libucrtd:output.obj
 0001:0008afb0       ??$read_va_arg@PEAD@__crt_stdio_output@@YAPEADAEAPEAD@Z 000000018008bfb0 f i libucrtd:output.obj
 0001:0008b020       ??$read_va_arg@PEAUansi_string@?1??type_case_Z@?$output_processor@DV?$stream_output_adapter@D@__crt_stdio_output@@V?$format_validation_base@DV?$stream_output_adapter@D@__crt_stdio_output@@@2@@__crt_stdio_output@@AEAA_NXZ@@__crt_stdio_output@@YAPEAUansi_string@?1??type_case_Z@?$output_processor@DV?$stream_output_adapter@D@__crt_stdio_output@@V?$format_validation_base@DV?$stream_output_adapter@D@__crt_stdio_output@@@2@@0@AEAA_NXZ@AEAPEAD@Z 000000018008c020 f i libucrtd:output.obj
 0001:0008b090       ??$read_va_arg@PEAUansi_string@?1??type_case_Z@?$output_processor@DV?$stream_output_adapter@D@__crt_stdio_output@@V?$positional_parameter_base@DV?$stream_output_adapter@D@__crt_stdio_output@@@2@@__crt_stdio_output@@AEAA_NXZ@@__crt_stdio_output@@YAPEAUansi_string@?1??type_case_Z@?$output_processor@DV?$stream_output_adapter@D@__crt_stdio_output@@V?$positional_parameter_base@DV?$stream_output_adapter@D@__crt_stdio_output@@@2@@0@AEAA_NXZ@AEAPEAD@Z 000000018008c090 f i libucrtd:output.obj
 0001:0008b100       ??$read_va_arg@PEAUansi_string@?1??type_case_Z@?$output_processor@DV?$stream_output_adapter@D@__crt_stdio_output@@V?$standard_base@DV?$stream_output_adapter@D@__crt_stdio_output@@@2@@__crt_stdio_output@@AEAA_NXZ@@__crt_stdio_output@@YAPEAUansi_string@?1??type_case_Z@?$output_processor@DV?$stream_output_adapter@D@__crt_stdio_output@@V?$standard_base@DV?$stream_output_adapter@D@__crt_stdio_output@@@2@@0@AEAA_NXZ@AEAPEAD@Z 000000018008c100 f i libucrtd:output.obj
 0001:0008b170       ??$read_va_arg@PEAUansi_string@?1??type_case_Z@?$output_processor@DV?$string_output_adapter@D@__crt_stdio_output@@V?$format_validation_base@DV?$string_output_adapter@D@__crt_stdio_output@@@2@@__crt_stdio_output@@AEAA_NXZ@@__crt_stdio_output@@YAPEAUansi_string@?1??type_case_Z@?$output_processor@DV?$string_output_adapter@D@__crt_stdio_output@@V?$format_validation_base@DV?$string_output_adapter@D@__crt_stdio_output@@@2@@0@AEAA_NXZ@AEAPEAD@Z 000000018008c170 f i libucrtd:output.obj
 0001:0008b1e0       ??$read_va_arg@PEAUansi_string@?1??type_case_Z@?$output_processor@DV?$string_output_adapter@D@__crt_stdio_output@@V?$positional_parameter_base@DV?$string_output_adapter@D@__crt_stdio_output@@@2@@__crt_stdio_output@@AEAA_NXZ@@__crt_stdio_output@@YAPEAUansi_string@?1??type_case_Z@?$output_processor@DV?$string_output_adapter@D@__crt_stdio_output@@V?$positional_parameter_base@DV?$string_output_adapter@D@__crt_stdio_output@@@2@@0@AEAA_NXZ@AEAPEAD@Z 000000018008c1e0 f i libucrtd:output.obj
 0001:0008b250       ??$read_va_arg@PEAUansi_string@?1??type_case_Z@?$output_processor@DV?$string_output_adapter@D@__crt_stdio_output@@V?$standard_base@DV?$string_output_adapter@D@__crt_stdio_output@@@2@@__crt_stdio_output@@AEAA_NXZ@@__crt_stdio_output@@YAPEAUansi_string@?1??type_case_Z@?$output_processor@DV?$string_output_adapter@D@__crt_stdio_output@@V?$standard_base@DV?$string_output_adapter@D@__crt_stdio_output@@@2@@0@AEAA_NXZ@AEAPEAD@Z 000000018008c250 f i libucrtd:output.obj
 0001:0008b2c0       ??$read_va_arg@PEAUansi_string@?1??type_case_Z@?$output_processor@_WV?$stream_output_adapter@_W@__crt_stdio_output@@V?$format_validation_base@_WV?$stream_output_adapter@_W@__crt_stdio_output@@@2@@__crt_stdio_output@@AEAA_NXZ@@__crt_stdio_output@@YAPEAUansi_string@?1??type_case_Z@?$output_processor@_WV?$stream_output_adapter@_W@__crt_stdio_output@@V?$format_validation_base@_WV?$stream_output_adapter@_W@__crt_stdio_output@@@2@@0@AEAA_NXZ@AEAPEAD@Z 000000018008c2c0 f i libucrtd:output.obj
 0001:0008b330       ??$read_va_arg@PEAUansi_string@?1??type_case_Z@?$output_processor@_WV?$stream_output_adapter@_W@__crt_stdio_output@@V?$positional_parameter_base@_WV?$stream_output_adapter@_W@__crt_stdio_output@@@2@@__crt_stdio_output@@AEAA_NXZ@@__crt_stdio_output@@YAPEAUansi_string@?1??type_case_Z@?$output_processor@_WV?$stream_output_adapter@_W@__crt_stdio_output@@V?$positional_parameter_base@_WV?$stream_output_adapter@_W@__crt_stdio_output@@@2@@0@AEAA_NXZ@AEAPEAD@Z 000000018008c330 f i libucrtd:output.obj
 0001:0008b3a0       ??$read_va_arg@PEAUansi_string@?1??type_case_Z@?$output_processor@_WV?$stream_output_adapter@_W@__crt_stdio_output@@V?$standard_base@_WV?$stream_output_adapter@_W@__crt_stdio_output@@@2@@__crt_stdio_output@@AEAA_NXZ@@__crt_stdio_output@@YAPEAUansi_string@?1??type_case_Z@?$output_processor@_WV?$stream_output_adapter@_W@__crt_stdio_output@@V?$standard_base@_WV?$stream_output_adapter@_W@__crt_stdio_output@@@2@@0@AEAA_NXZ@AEAPEAD@Z 000000018008c3a0 f i libucrtd:output.obj
 0001:0008b410       ??$read_va_arg@PEAUansi_string@?1??type_case_Z@?$output_processor@_WV?$string_output_adapter@_W@__crt_stdio_output@@V?$format_validation_base@_WV?$string_output_adapter@_W@__crt_stdio_output@@@2@@__crt_stdio_output@@AEAA_NXZ@@__crt_stdio_output@@YAPEAUansi_string@?1??type_case_Z@?$output_processor@_WV?$string_output_adapter@_W@__crt_stdio_output@@V?$format_validation_base@_WV?$string_output_adapter@_W@__crt_stdio_output@@@2@@0@AEAA_NXZ@AEAPEAD@Z 000000018008c410 f i libucrtd:output.obj
 0001:0008b480       ??$read_va_arg@PEAUansi_string@?1??type_case_Z@?$output_processor@_WV?$string_output_adapter@_W@__crt_stdio_output@@V?$positional_parameter_base@_WV?$string_output_adapter@_W@__crt_stdio_output@@@2@@__crt_stdio_output@@AEAA_NXZ@@__crt_stdio_output@@YAPEAUansi_string@?1??type_case_Z@?$output_processor@_WV?$string_output_adapter@_W@__crt_stdio_output@@V?$positional_parameter_base@_WV?$string_output_adapter@_W@__crt_stdio_output@@@2@@0@AEAA_NXZ@AEAPEAD@Z 000000018008c480 f i libucrtd:output.obj
 0001:0008b4f0       ??$read_va_arg@PEAUansi_string@?1??type_case_Z@?$output_processor@_WV?$string_output_adapter@_W@__crt_stdio_output@@V?$standard_base@_WV?$string_output_adapter@_W@__crt_stdio_output@@@2@@__crt_stdio_output@@AEAA_NXZ@@__crt_stdio_output@@YAPEAUansi_string@?1??type_case_Z@?$output_processor@_WV?$string_output_adapter@_W@__crt_stdio_output@@V?$standard_base@_WV?$string_output_adapter@_W@__crt_stdio_output@@@2@@0@AEAA_NXZ@AEAPEAD@Z 000000018008c4f0 f i libucrtd:output.obj
 0001:0008b560       ??$read_va_arg@PEAX@__crt_stdio_output@@YAPEAXAEAPEAD@Z 000000018008c560 f i libucrtd:output.obj
 0001:0008b5d0       ??$read_va_arg@U_CRT_DOUBLE@@@__crt_stdio_output@@YA?AU_CRT_DOUBLE@@AEAPEAD@Z 000000018008c5d0 f i libucrtd:output.obj
 0001:0008b640       ??$read_va_arg@_J@__crt_stdio_output@@YA_JAEAPEAD@Z 000000018008c640 f i libucrtd:output.obj
 0001:0008b6b0       ??$read_va_arg@_K@__crt_stdio_output@@YA_KAEAPEAD@Z 000000018008c6b0 f i libucrtd:output.obj
 0001:0008b720       ??$read_va_arg@_W@__crt_stdio_output@@YA_WAEAPEAD@Z 000000018008c720 f i libucrtd:output.obj
 0001:0008b790       ??$scratch_count@D@formatting_buffer@__crt_stdio_output@@QEBA_KXZ 000000018008c790 f i libucrtd:output.obj
 0001:0008b7b0       ??$scratch_data@D@formatting_buffer@__crt_stdio_output@@QEAAPEADXZ 000000018008c7b0 f i libucrtd:output.obj
 0001:0008b820       ??$type_case_integer@$07@?$output_processor@DV?$stream_output_adapter@D@__crt_stdio_output@@V?$format_validation_base@DV?$stream_output_adapter@D@__crt_stdio_output@@@2@@__crt_stdio_output@@AEAA_N_N@Z 000000018008c820 f i libucrtd:output.obj
 0001:0008bca0       ??$type_case_integer@$07@?$output_processor@DV?$stream_output_adapter@D@__crt_stdio_output@@V?$positional_parameter_base@DV?$stream_output_adapter@D@__crt_stdio_output@@@2@@__crt_stdio_output@@AEAA_N_N@Z 000000018008cca0 f i libucrtd:output.obj
 0001:0008c120       ??$type_case_integer@$07@?$output_processor@DV?$stream_output_adapter@D@__crt_stdio_output@@V?$standard_base@DV?$stream_output_adapter@D@__crt_stdio_output@@@2@@__crt_stdio_output@@AEAA_N_N@Z 000000018008d120 f i libucrtd:output.obj
 0001:0008c5a0       ??$type_case_integer@$07@?$output_processor@DV?$string_output_adapter@D@__crt_stdio_output@@V?$format_validation_base@DV?$string_output_adapter@D@__crt_stdio_output@@@2@@__crt_stdio_output@@AEAA_N_N@Z 000000018008d5a0 f i libucrtd:output.obj
 0001:0008ca20       ??$type_case_integer@$07@?$output_processor@DV?$string_output_adapter@D@__crt_stdio_output@@V?$positional_parameter_base@DV?$string_output_adapter@D@__crt_stdio_output@@@2@@__crt_stdio_output@@AEAA_N_N@Z 000000018008da20 f i libucrtd:output.obj
 0001:0008cea0       ??$type_case_integer@$07@?$output_processor@DV?$string_output_adapter@D@__crt_stdio_output@@V?$standard_base@DV?$string_output_adapter@D@__crt_stdio_output@@@2@@__crt_stdio_output@@AEAA_N_N@Z 000000018008dea0 f i libucrtd:output.obj
 0001:0008d320       ??$type_case_integer@$07@?$output_processor@_WV?$stream_output_adapter@_W@__crt_stdio_output@@V?$format_validation_base@_WV?$stream_output_adapter@_W@__crt_stdio_output@@@2@@__crt_stdio_output@@AEAA_N_N@Z 000000018008e320 f i libucrtd:output.obj
 0001:0008d7a0       ??$type_case_integer@$07@?$output_processor@_WV?$stream_output_adapter@_W@__crt_stdio_output@@V?$positional_parameter_base@_WV?$stream_output_adapter@_W@__crt_stdio_output@@@2@@__crt_stdio_output@@AEAA_N_N@Z 000000018008e7a0 f i libucrtd:output.obj
 0001:0008dc20       ??$type_case_integer@$07@?$output_processor@_WV?$stream_output_adapter@_W@__crt_stdio_output@@V?$standard_base@_WV?$stream_output_adapter@_W@__crt_stdio_output@@@2@@__crt_stdio_output@@AEAA_N_N@Z 000000018008ec20 f i libucrtd:output.obj
 0001:0008e0a0       ??$type_case_integer@$07@?$output_processor@_WV?$string_output_adapter@_W@__crt_stdio_output@@V?$format_validation_base@_WV?$string_output_adapter@_W@__crt_stdio_output@@@2@@__crt_stdio_output@@AEAA_N_N@Z 000000018008f0a0 f i libucrtd:output.obj
 0001:0008e520       ??$type_case_integer@$07@?$output_processor@_WV?$string_output_adapter@_W@__crt_stdio_output@@V?$positional_parameter_base@_WV?$string_output_adapter@_W@__crt_stdio_output@@@2@@__crt_stdio_output@@AEAA_N_N@Z 000000018008f520 f i libucrtd:output.obj
 0001:0008e9a0       ??$type_case_integer@$07@?$output_processor@_WV?$string_output_adapter@_W@__crt_stdio_output@@V?$standard_base@_WV?$string_output_adapter@_W@__crt_stdio_output@@@2@@__crt_stdio_output@@AEAA_N_N@Z 000000018008f9a0 f i libucrtd:output.obj
 0001:0008ee20       ??$type_case_integer@$09@?$output_processor@DV?$stream_output_adapter@D@__crt_stdio_output@@V?$format_validation_base@DV?$stream_output_adapter@D@__crt_stdio_output@@@2@@__crt_stdio_output@@AEAA_N_N@Z 000000018008fe20 f i libucrtd:output.obj
 0001:0008f2a0       ??$type_case_integer@$09@?$output_processor@DV?$stream_output_adapter@D@__crt_stdio_output@@V?$positional_parameter_base@DV?$stream_output_adapter@D@__crt_stdio_output@@@2@@__crt_stdio_output@@AEAA_N_N@Z 00000001800902a0 f i libucrtd:output.obj
 0001:0008f720       ??$type_case_integer@$09@?$output_processor@DV?$stream_output_adapter@D@__crt_stdio_output@@V?$standard_base@DV?$stream_output_adapter@D@__crt_stdio_output@@@2@@__crt_stdio_output@@AEAA_N_N@Z 0000000180090720 f i libucrtd:output.obj
 0001:0008fba0       ??$type_case_integer@$09@?$output_processor@DV?$string_output_adapter@D@__crt_stdio_output@@V?$format_validation_base@DV?$string_output_adapter@D@__crt_stdio_output@@@2@@__crt_stdio_output@@AEAA_N_N@Z 0000000180090ba0 f i libucrtd:output.obj
 0001:00090020       ??$type_case_integer@$09@?$output_processor@DV?$string_output_adapter@D@__crt_stdio_output@@V?$positional_parameter_base@DV?$string_output_adapter@D@__crt_stdio_output@@@2@@__crt_stdio_output@@AEAA_N_N@Z 0000000180091020 f i libucrtd:output.obj
 0001:000904a0       ??$type_case_integer@$09@?$output_processor@DV?$string_output_adapter@D@__crt_stdio_output@@V?$standard_base@DV?$string_output_adapter@D@__crt_stdio_output@@@2@@__crt_stdio_output@@AEAA_N_N@Z 00000001800914a0 f i libucrtd:output.obj
 0001:00090920       ??$type_case_integer@$09@?$output_processor@_WV?$stream_output_adapter@_W@__crt_stdio_output@@V?$format_validation_base@_WV?$stream_output_adapter@_W@__crt_stdio_output@@@2@@__crt_stdio_output@@AEAA_N_N@Z 0000000180091920 f i libucrtd:output.obj
 0001:00090da0       ??$type_case_integer@$09@?$output_processor@_WV?$stream_output_adapter@_W@__crt_stdio_output@@V?$positional_parameter_base@_WV?$stream_output_adapter@_W@__crt_stdio_output@@@2@@__crt_stdio_output@@AEAA_N_N@Z 0000000180091da0 f i libucrtd:output.obj
 0001:00091220       ??$type_case_integer@$09@?$output_processor@_WV?$stream_output_adapter@_W@__crt_stdio_output@@V?$standard_base@_WV?$stream_output_adapter@_W@__crt_stdio_output@@@2@@__crt_stdio_output@@AEAA_N_N@Z 0000000180092220 f i libucrtd:output.obj
 0001:000916a0       ??$type_case_integer@$09@?$output_processor@_WV?$string_output_adapter@_W@__crt_stdio_output@@V?$format_validation_base@_WV?$string_output_adapter@_W@__crt_stdio_output@@@2@@__crt_stdio_output@@AEAA_N_N@Z 00000001800926a0 f i libucrtd:output.obj
 0001:00091b20       ??$type_case_integer@$09@?$output_processor@_WV?$string_output_adapter@_W@__crt_stdio_output@@V?$positional_parameter_base@_WV?$string_output_adapter@_W@__crt_stdio_output@@@2@@__crt_stdio_output@@AEAA_N_N@Z 0000000180092b20 f i libucrtd:output.obj
 0001:00091fa0       ??$type_case_integer@$09@?$output_processor@_WV?$string_output_adapter@_W@__crt_stdio_output@@V?$standard_base@_WV?$string_output_adapter@_W@__crt_stdio_output@@@2@@__crt_stdio_output@@AEAA_N_N@Z 0000000180092fa0 f i libucrtd:output.obj
 0001:00092420       ??$type_case_integer@$0BA@@?$output_processor@DV?$stream_output_adapter@D@__crt_stdio_output@@V?$format_validation_base@DV?$stream_output_adapter@D@__crt_stdio_output@@@2@@__crt_stdio_output@@AEAA_N_N@Z 0000000180093420 f i libucrtd:output.obj
 0001:000928a0       ??$type_case_integer@$0BA@@?$output_processor@DV?$stream_output_adapter@D@__crt_stdio_output@@V?$positional_parameter_base@DV?$stream_output_adapter@D@__crt_stdio_output@@@2@@__crt_stdio_output@@AEAA_N_N@Z 00000001800938a0 f i libucrtd:output.obj
 0001:00092d20       ??$type_case_integer@$0BA@@?$output_processor@DV?$stream_output_adapter@D@__crt_stdio_output@@V?$standard_base@DV?$stream_output_adapter@D@__crt_stdio_output@@@2@@__crt_stdio_output@@AEAA_N_N@Z 0000000180093d20 f i libucrtd:output.obj
 0001:000931a0       ??$type_case_integer@$0BA@@?$output_processor@DV?$string_output_adapter@D@__crt_stdio_output@@V?$format_validation_base@DV?$string_output_adapter@D@__crt_stdio_output@@@2@@__crt_stdio_output@@AEAA_N_N@Z 00000001800941a0 f i libucrtd:output.obj
 0001:00093620       ??$type_case_integer@$0BA@@?$output_processor@DV?$string_output_adapter@D@__crt_stdio_output@@V?$positional_parameter_base@DV?$string_output_adapter@D@__crt_stdio_output@@@2@@__crt_stdio_output@@AEAA_N_N@Z 0000000180094620 f i libucrtd:output.obj
 0001:00093aa0       ??$type_case_integer@$0BA@@?$output_processor@DV?$string_output_adapter@D@__crt_stdio_output@@V?$standard_base@DV?$string_output_adapter@D@__crt_stdio_output@@@2@@__crt_stdio_output@@AEAA_N_N@Z 0000000180094aa0 f i libucrtd:output.obj
 0001:00093f20       ??$type_case_integer@$0BA@@?$output_processor@_WV?$stream_output_adapter@_W@__crt_stdio_output@@V?$format_validation_base@_WV?$stream_output_adapter@_W@__crt_stdio_output@@@2@@__crt_stdio_output@@AEAA_N_N@Z 0000000180094f20 f i libucrtd:output.obj
 0001:000943a0       ??$type_case_integer@$0BA@@?$output_processor@_WV?$stream_output_adapter@_W@__crt_stdio_output@@V?$positional_parameter_base@_WV?$stream_output_adapter@_W@__crt_stdio_output@@@2@@__crt_stdio_output@@AEAA_N_N@Z 00000001800953a0 f i libucrtd:output.obj
 0001:00094820       ??$type_case_integer@$0BA@@?$output_processor@_WV?$stream_output_adapter@_W@__crt_stdio_output@@V?$standard_base@_WV?$stream_output_adapter@_W@__crt_stdio_output@@@2@@__crt_stdio_output@@AEAA_N_N@Z 0000000180095820 f i libucrtd:output.obj
 0001:00094ca0       ??$type_case_integer@$0BA@@?$output_processor@_WV?$string_output_adapter@_W@__crt_stdio_output@@V?$format_validation_base@_WV?$string_output_adapter@_W@__crt_stdio_output@@@2@@__crt_stdio_output@@AEAA_N_N@Z 0000000180095ca0 f i libucrtd:output.obj
 0001:00095120       ??$type_case_integer@$0BA@@?$output_processor@_WV?$string_output_adapter@_W@__crt_stdio_output@@V?$positional_parameter_base@_WV?$string_output_adapter@_W@__crt_stdio_output@@@2@@__crt_stdio_output@@AEAA_N_N@Z 0000000180096120 f i libucrtd:output.obj
 0001:000955a0       ??$type_case_integer@$0BA@@?$output_processor@_WV?$string_output_adapter@_W@__crt_stdio_output@@V?$standard_base@_WV?$string_output_adapter@_W@__crt_stdio_output@@@2@@__crt_stdio_output@@AEAA_N_N@Z 00000001800965a0 f i libucrtd:output.obj
 0001:00095a20       ??$type_case_integer_parse_into_buffer@I$07@?$output_processor@DV?$stream_output_adapter@D@__crt_stdio_output@@V?$format_validation_base@DV?$stream_output_adapter@D@__crt_stdio_output@@@2@@__crt_stdio_output@@AEAAXI_N@Z 0000000180096a20 f i libucrtd:output.obj
 0001:00095b50       ??$type_case_integer_parse_into_buffer@I$07@?$output_processor@DV?$stream_output_adapter@D@__crt_stdio_output@@V?$positional_parameter_base@DV?$stream_output_adapter@D@__crt_stdio_output@@@2@@__crt_stdio_output@@AEAAXI_N@Z 0000000180096b50 f i libucrtd:output.obj
 0001:00095c80       ??$type_case_integer_parse_into_buffer@I$07@?$output_processor@DV?$stream_output_adapter@D@__crt_stdio_output@@V?$standard_base@DV?$stream_output_adapter@D@__crt_stdio_output@@@2@@__crt_stdio_output@@AEAAXI_N@Z 0000000180096c80 f i libucrtd:output.obj
 0001:00095db0       ??$type_case_integer_parse_into_buffer@I$07@?$output_processor@DV?$string_output_adapter@D@__crt_stdio_output@@V?$format_validation_base@DV?$string_output_adapter@D@__crt_stdio_output@@@2@@__crt_stdio_output@@AEAAXI_N@Z 0000000180096db0 f i libucrtd:output.obj
 0001:00095ee0       ??$type_case_integer_parse_into_buffer@I$07@?$output_processor@DV?$string_output_adapter@D@__crt_stdio_output@@V?$positional_parameter_base@DV?$string_output_adapter@D@__crt_stdio_output@@@2@@__crt_stdio_output@@AEAAXI_N@Z 0000000180096ee0 f i libucrtd:output.obj
 0001:00096010       ??$type_case_integer_parse_into_buffer@I$07@?$output_processor@DV?$string_output_adapter@D@__crt_stdio_output@@V?$standard_base@DV?$string_output_adapter@D@__crt_stdio_output@@@2@@__crt_stdio_output@@AEAAXI_N@Z 0000000180097010 f i libucrtd:output.obj
 0001:00096140       ??$type_case_integer_parse_into_buffer@I$07@?$output_processor@_WV?$stream_output_adapter@_W@__crt_stdio_output@@V?$format_validation_base@_WV?$stream_output_adapter@_W@__crt_stdio_output@@@2@@__crt_stdio_output@@AEAAXI_N@Z 0000000180097140 f i libucrtd:output.obj
 0001:00096280       ??$type_case_integer_parse_into_buffer@I$07@?$output_processor@_WV?$stream_output_adapter@_W@__crt_stdio_output@@V?$positional_parameter_base@_WV?$stream_output_adapter@_W@__crt_stdio_output@@@2@@__crt_stdio_output@@AEAAXI_N@Z 0000000180097280 f i libucrtd:output.obj
 0001:000963c0       ??$type_case_integer_parse_into_buffer@I$07@?$output_processor@_WV?$stream_output_adapter@_W@__crt_stdio_output@@V?$standard_base@_WV?$stream_output_adapter@_W@__crt_stdio_output@@@2@@__crt_stdio_output@@AEAAXI_N@Z 00000001800973c0 f i libucrtd:output.obj
 0001:00096500       ??$type_case_integer_parse_into_buffer@I$07@?$output_processor@_WV?$string_output_adapter@_W@__crt_stdio_output@@V?$format_validation_base@_WV?$string_output_adapter@_W@__crt_stdio_output@@@2@@__crt_stdio_output@@AEAAXI_N@Z 0000000180097500 f i libucrtd:output.obj
 0001:00096640       ??$type_case_integer_parse_into_buffer@I$07@?$output_processor@_WV?$string_output_adapter@_W@__crt_stdio_output@@V?$positional_parameter_base@_WV?$string_output_adapter@_W@__crt_stdio_output@@@2@@__crt_stdio_output@@AEAAXI_N@Z 0000000180097640 f i libucrtd:output.obj
 0001:00096780       ??$type_case_integer_parse_into_buffer@I$07@?$output_processor@_WV?$string_output_adapter@_W@__crt_stdio_output@@V?$standard_base@_WV?$string_output_adapter@_W@__crt_stdio_output@@@2@@__crt_stdio_output@@AEAAXI_N@Z 0000000180097780 f i libucrtd:output.obj
 0001:000968c0       ??$type_case_integer_parse_into_buffer@I$09@?$output_processor@DV?$stream_output_adapter@D@__crt_stdio_output@@V?$format_validation_base@DV?$stream_output_adapter@D@__crt_stdio_output@@@2@@__crt_stdio_output@@AEAAXI_N@Z 00000001800978c0 f i libucrtd:output.obj
 0001:000969f0       ??$type_case_integer_parse_into_buffer@I$09@?$output_processor@DV?$stream_output_adapter@D@__crt_stdio_output@@V?$positional_parameter_base@DV?$stream_output_adapter@D@__crt_stdio_output@@@2@@__crt_stdio_output@@AEAAXI_N@Z 00000001800979f0 f i libucrtd:output.obj
 0001:00096b20       ??$type_case_integer_parse_into_buffer@I$09@?$output_processor@DV?$stream_output_adapter@D@__crt_stdio_output@@V?$standard_base@DV?$stream_output_adapter@D@__crt_stdio_output@@@2@@__crt_stdio_output@@AEAAXI_N@Z 0000000180097b20 f i libucrtd:output.obj
 0001:00096c50       ??$type_case_integer_parse_into_buffer@I$09@?$output_processor@DV?$string_output_adapter@D@__crt_stdio_output@@V?$format_validation_base@DV?$string_output_adapter@D@__crt_stdio_output@@@2@@__crt_stdio_output@@AEAAXI_N@Z 0000000180097c50 f i libucrtd:output.obj
 0001:00096d80       ??$type_case_integer_parse_into_buffer@I$09@?$output_processor@DV?$string_output_adapter@D@__crt_stdio_output@@V?$positional_parameter_base@DV?$string_output_adapter@D@__crt_stdio_output@@@2@@__crt_stdio_output@@AEAAXI_N@Z 0000000180097d80 f i libucrtd:output.obj
 0001:00096eb0       ??$type_case_integer_parse_into_buffer@I$09@?$output_processor@DV?$string_output_adapter@D@__crt_stdio_output@@V?$standard_base@DV?$string_output_adapter@D@__crt_stdio_output@@@2@@__crt_stdio_output@@AEAAXI_N@Z 0000000180097eb0 f i libucrtd:output.obj
 0001:00096fe0       ??$type_case_integer_parse_into_buffer@I$09@?$output_processor@_WV?$stream_output_adapter@_W@__crt_stdio_output@@V?$format_validation_base@_WV?$stream_output_adapter@_W@__crt_stdio_output@@@2@@__crt_stdio_output@@AEAAXI_N@Z 0000000180097fe0 f i libucrtd:output.obj
 0001:00097120       ??$type_case_integer_parse_into_buffer@I$09@?$output_processor@_WV?$stream_output_adapter@_W@__crt_stdio_output@@V?$positional_parameter_base@_WV?$stream_output_adapter@_W@__crt_stdio_output@@@2@@__crt_stdio_output@@AEAAXI_N@Z 0000000180098120 f i libucrtd:output.obj
 0001:00097260       ??$type_case_integer_parse_into_buffer@I$09@?$output_processor@_WV?$stream_output_adapter@_W@__crt_stdio_output@@V?$standard_base@_WV?$stream_output_adapter@_W@__crt_stdio_output@@@2@@__crt_stdio_output@@AEAAXI_N@Z 0000000180098260 f i libucrtd:output.obj
 0001:000973a0       ??$type_case_integer_parse_into_buffer@I$09@?$output_processor@_WV?$string_output_adapter@_W@__crt_stdio_output@@V?$format_validation_base@_WV?$string_output_adapter@_W@__crt_stdio_output@@@2@@__crt_stdio_output@@AEAAXI_N@Z 00000001800983a0 f i libucrtd:output.obj
 0001:000974e0       ??$type_case_integer_parse_into_buffer@I$09@?$output_processor@_WV?$string_output_adapter@_W@__crt_stdio_output@@V?$positional_parameter_base@_WV?$string_output_adapter@_W@__crt_stdio_output@@@2@@__crt_stdio_output@@AEAAXI_N@Z 00000001800984e0 f i libucrtd:output.obj
 0001:00097620       ??$type_case_integer_parse_into_buffer@I$09@?$output_processor@_WV?$string_output_adapter@_W@__crt_stdio_output@@V?$standard_base@_WV?$string_output_adapter@_W@__crt_stdio_output@@@2@@__crt_stdio_output@@AEAAXI_N@Z 0000000180098620 f i libucrtd:output.obj
 0001:00097760       ??$type_case_integer_parse_into_buffer@I$0BA@@?$output_processor@DV?$stream_output_adapter@D@__crt_stdio_output@@V?$format_validation_base@DV?$stream_output_adapter@D@__crt_stdio_output@@@2@@__crt_stdio_output@@AEAAXI_N@Z 0000000180098760 f i libucrtd:output.obj
 0001:00097890       ??$type_case_integer_parse_into_buffer@I$0BA@@?$output_processor@DV?$stream_output_adapter@D@__crt_stdio_output@@V?$positional_parameter_base@DV?$stream_output_adapter@D@__crt_stdio_output@@@2@@__crt_stdio_output@@AEAAXI_N@Z 0000000180098890 f i libucrtd:output.obj
 0001:000979c0       ??$type_case_integer_parse_into_buffer@I$0BA@@?$output_processor@DV?$stream_output_adapter@D@__crt_stdio_output@@V?$standard_base@DV?$stream_output_adapter@D@__crt_stdio_output@@@2@@__crt_stdio_output@@AEAAXI_N@Z 00000001800989c0 f i libucrtd:output.obj
 0001:00097af0       ??$type_case_integer_parse_into_buffer@I$0BA@@?$output_processor@DV?$string_output_adapter@D@__crt_stdio_output@@V?$format_validation_base@DV?$string_output_adapter@D@__crt_stdio_output@@@2@@__crt_stdio_output@@AEAAXI_N@Z 0000000180098af0 f i libucrtd:output.obj
 0001:00097c20       ??$type_case_integer_parse_into_buffer@I$0BA@@?$output_processor@DV?$string_output_adapter@D@__crt_stdio_output@@V?$positional_parameter_base@DV?$string_output_adapter@D@__crt_stdio_output@@@2@@__crt_stdio_output@@AEAAXI_N@Z 0000000180098c20 f i libucrtd:output.obj
 0001:00097d50       ??$type_case_integer_parse_into_buffer@I$0BA@@?$output_processor@DV?$string_output_adapter@D@__crt_stdio_output@@V?$standard_base@DV?$string_output_adapter@D@__crt_stdio_output@@@2@@__crt_stdio_output@@AEAAXI_N@Z 0000000180098d50 f i libucrtd:output.obj
 0001:00097e80       ??$type_case_integer_parse_into_buffer@I$0BA@@?$output_processor@_WV?$stream_output_adapter@_W@__crt_stdio_output@@V?$format_validation_base@_WV?$stream_output_adapter@_W@__crt_stdio_output@@@2@@__crt_stdio_output@@AEAAXI_N@Z 0000000180098e80 f i libucrtd:output.obj
 0001:00097fc0       ??$type_case_integer_parse_into_buffer@I$0BA@@?$output_processor@_WV?$stream_output_adapter@_W@__crt_stdio_output@@V?$positional_parameter_base@_WV?$stream_output_adapter@_W@__crt_stdio_output@@@2@@__crt_stdio_output@@AEAAXI_N@Z 0000000180098fc0 f i libucrtd:output.obj
 0001:00098100       ??$type_case_integer_parse_into_buffer@I$0BA@@?$output_processor@_WV?$stream_output_adapter@_W@__crt_stdio_output@@V?$standard_base@_WV?$stream_output_adapter@_W@__crt_stdio_output@@@2@@__crt_stdio_output@@AEAAXI_N@Z 0000000180099100 f i libucrtd:output.obj
 0001:00098240       ??$type_case_integer_parse_into_buffer@I$0BA@@?$output_processor@_WV?$string_output_adapter@_W@__crt_stdio_output@@V?$format_validation_base@_WV?$string_output_adapter@_W@__crt_stdio_output@@@2@@__crt_stdio_output@@AEAAXI_N@Z 0000000180099240 f i libucrtd:output.obj
 0001:00098380       ??$type_case_integer_parse_into_buffer@I$0BA@@?$output_processor@_WV?$string_output_adapter@_W@__crt_stdio_output@@V?$positional_parameter_base@_WV?$string_output_adapter@_W@__crt_stdio_output@@@2@@__crt_stdio_output@@AEAAXI_N@Z 0000000180099380 f i libucrtd:output.obj
 0001:000984c0       ??$type_case_integer_parse_into_buffer@I$0BA@@?$output_processor@_WV?$string_output_adapter@_W@__crt_stdio_output@@V?$standard_base@_WV?$string_output_adapter@_W@__crt_stdio_output@@@2@@__crt_stdio_output@@AEAAXI_N@Z 00000001800994c0 f i libucrtd:output.obj
 0001:00098600       ??$type_case_integer_parse_into_buffer@_K$07@?$output_processor@DV?$stream_output_adapter@D@__crt_stdio_output@@V?$format_validation_base@DV?$stream_output_adapter@D@__crt_stdio_output@@@2@@__crt_stdio_output@@AEAAX_K_N@Z 0000000180099600 f i libucrtd:output.obj
 0001:00098740       ??$type_case_integer_parse_into_buffer@_K$07@?$output_processor@DV?$stream_output_adapter@D@__crt_stdio_output@@V?$positional_parameter_base@DV?$stream_output_adapter@D@__crt_stdio_output@@@2@@__crt_stdio_output@@AEAAX_K_N@Z 0000000180099740 f i libucrtd:output.obj
 0001:00098880       ??$type_case_integer_parse_into_buffer@_K$07@?$output_processor@DV?$stream_output_adapter@D@__crt_stdio_output@@V?$standard_base@DV?$stream_output_adapter@D@__crt_stdio_output@@@2@@__crt_stdio_output@@AEAAX_K_N@Z 0000000180099880 f i libucrtd:output.obj
 0001:000989c0       ??$type_case_integer_parse_into_buffer@_K$07@?$output_processor@DV?$string_output_adapter@D@__crt_stdio_output@@V?$format_validation_base@DV?$string_output_adapter@D@__crt_stdio_output@@@2@@__crt_stdio_output@@AEAAX_K_N@Z 00000001800999c0 f i libucrtd:output.obj
 0001:00098b00       ??$type_case_integer_parse_into_buffer@_K$07@?$output_processor@DV?$string_output_adapter@D@__crt_stdio_output@@V?$positional_parameter_base@DV?$string_output_adapter@D@__crt_stdio_output@@@2@@__crt_stdio_output@@AEAAX_K_N@Z 0000000180099b00 f i libucrtd:output.obj
 0001:00098c40       ??$type_case_integer_parse_into_buffer@_K$07@?$output_processor@DV?$string_output_adapter@D@__crt_stdio_output@@V?$standard_base@DV?$string_output_adapter@D@__crt_stdio_output@@@2@@__crt_stdio_output@@AEAAX_K_N@Z 0000000180099c40 f i libucrtd:output.obj
 0001:00098d80       ??$type_case_integer_parse_into_buffer@_K$07@?$output_processor@_WV?$stream_output_adapter@_W@__crt_stdio_output@@V?$format_validation_base@_WV?$stream_output_adapter@_W@__crt_stdio_output@@@2@@__crt_stdio_output@@AEAAX_K_N@Z 0000000180099d80 f i libucrtd:output.obj
 0001:00098ec0       ??$type_case_integer_parse_into_buffer@_K$07@?$output_processor@_WV?$stream_output_adapter@_W@__crt_stdio_output@@V?$positional_parameter_base@_WV?$stream_output_adapter@_W@__crt_stdio_output@@@2@@__crt_stdio_output@@AEAAX_K_N@Z 0000000180099ec0 f i libucrtd:output.obj
 0001:00099000       ??$type_case_integer_parse_into_buffer@_K$07@?$output_processor@_WV?$stream_output_adapter@_W@__crt_stdio_output@@V?$standard_base@_WV?$stream_output_adapter@_W@__crt_stdio_output@@@2@@__crt_stdio_output@@AEAAX_K_N@Z 000000018009a000 f i libucrtd:output.obj
 0001:00099140       ??$type_case_integer_parse_into_buffer@_K$07@?$output_processor@_WV?$string_output_adapter@_W@__crt_stdio_output@@V?$format_validation_base@_WV?$string_output_adapter@_W@__crt_stdio_output@@@2@@__crt_stdio_output@@AEAAX_K_N@Z 000000018009a140 f i libucrtd:output.obj
 0001:00099280       ??$type_case_integer_parse_into_buffer@_K$07@?$output_processor@_WV?$string_output_adapter@_W@__crt_stdio_output@@V?$positional_parameter_base@_WV?$string_output_adapter@_W@__crt_stdio_output@@@2@@__crt_stdio_output@@AEAAX_K_N@Z 000000018009a280 f i libucrtd:output.obj
 0001:000993c0       ??$type_case_integer_parse_into_buffer@_K$07@?$output_processor@_WV?$string_output_adapter@_W@__crt_stdio_output@@V?$standard_base@_WV?$string_output_adapter@_W@__crt_stdio_output@@@2@@__crt_stdio_output@@AEAAX_K_N@Z 000000018009a3c0 f i libucrtd:output.obj
 0001:00099500       ??$type_case_integer_parse_into_buffer@_K$09@?$output_processor@DV?$stream_output_adapter@D@__crt_stdio_output@@V?$format_validation_base@DV?$stream_output_adapter@D@__crt_stdio_output@@@2@@__crt_stdio_output@@AEAAX_K_N@Z 000000018009a500 f i libucrtd:output.obj
 0001:00099640       ??$type_case_integer_parse_into_buffer@_K$09@?$output_processor@DV?$stream_output_adapter@D@__crt_stdio_output@@V?$positional_parameter_base@DV?$stream_output_adapter@D@__crt_stdio_output@@@2@@__crt_stdio_output@@AEAAX_K_N@Z 000000018009a640 f i libucrtd:output.obj
 0001:00099780       ??$type_case_integer_parse_into_buffer@_K$09@?$output_processor@DV?$stream_output_adapter@D@__crt_stdio_output@@V?$standard_base@DV?$stream_output_adapter@D@__crt_stdio_output@@@2@@__crt_stdio_output@@AEAAX_K_N@Z 000000018009a780 f i libucrtd:output.obj
 0001:000998c0       ??$type_case_integer_parse_into_buffer@_K$09@?$output_processor@DV?$string_output_adapter@D@__crt_stdio_output@@V?$format_validation_base@DV?$string_output_adapter@D@__crt_stdio_output@@@2@@__crt_stdio_output@@AEAAX_K_N@Z 000000018009a8c0 f i libucrtd:output.obj
 0001:00099a00       ??$type_case_integer_parse_into_buffer@_K$09@?$output_processor@DV?$string_output_adapter@D@__crt_stdio_output@@V?$positional_parameter_base@DV?$string_output_adapter@D@__crt_stdio_output@@@2@@__crt_stdio_output@@AEAAX_K_N@Z 000000018009aa00 f i libucrtd:output.obj
 0001:00099b40       ??$type_case_integer_parse_into_buffer@_K$09@?$output_processor@DV?$string_output_adapter@D@__crt_stdio_output@@V?$standard_base@DV?$string_output_adapter@D@__crt_stdio_output@@@2@@__crt_stdio_output@@AEAAX_K_N@Z 000000018009ab40 f i libucrtd:output.obj
 0001:00099c80       ??$type_case_integer_parse_into_buffer@_K$09@?$output_processor@_WV?$stream_output_adapter@_W@__crt_stdio_output@@V?$format_validation_base@_WV?$stream_output_adapter@_W@__crt_stdio_output@@@2@@__crt_stdio_output@@AEAAX_K_N@Z 000000018009ac80 f i libucrtd:output.obj
 0001:00099dc0       ??$type_case_integer_parse_into_buffer@_K$09@?$output_processor@_WV?$stream_output_adapter@_W@__crt_stdio_output@@V?$positional_parameter_base@_WV?$stream_output_adapter@_W@__crt_stdio_output@@@2@@__crt_stdio_output@@AEAAX_K_N@Z 000000018009adc0 f i libucrtd:output.obj
 0001:00099f00       ??$type_case_integer_parse_into_buffer@_K$09@?$output_processor@_WV?$stream_output_adapter@_W@__crt_stdio_output@@V?$standard_base@_WV?$stream_output_adapter@_W@__crt_stdio_output@@@2@@__crt_stdio_output@@AEAAX_K_N@Z 000000018009af00 f i libucrtd:output.obj
 0001:0009a040       ??$type_case_integer_parse_into_buffer@_K$09@?$output_processor@_WV?$string_output_adapter@_W@__crt_stdio_output@@V?$format_validation_base@_WV?$string_output_adapter@_W@__crt_stdio_output@@@2@@__crt_stdio_output@@AEAAX_K_N@Z 000000018009b040 f i libucrtd:output.obj
 0001:0009a180       ??$type_case_integer_parse_into_buffer@_K$09@?$output_processor@_WV?$string_output_adapter@_W@__crt_stdio_output@@V?$positional_parameter_base@_WV?$string_output_adapter@_W@__crt_stdio_output@@@2@@__crt_stdio_output@@AEAAX_K_N@Z 000000018009b180 f i libucrtd:output.obj
 0001:0009a2c0       ??$type_case_integer_parse_into_buffer@_K$09@?$output_processor@_WV?$string_output_adapter@_W@__crt_stdio_output@@V?$standard_base@_WV?$string_output_adapter@_W@__crt_stdio_output@@@2@@__crt_stdio_output@@AEAAX_K_N@Z 000000018009b2c0 f i libucrtd:output.obj
 0001:0009a400       ??$type_case_integer_parse_into_buffer@_K$0BA@@?$output_processor@DV?$stream_output_adapter@D@__crt_stdio_output@@V?$format_validation_base@DV?$stream_output_adapter@D@__crt_stdio_output@@@2@@__crt_stdio_output@@AEAAX_K_N@Z 000000018009b400 f i libucrtd:output.obj
 0001:0009a540       ??$type_case_integer_parse_into_buffer@_K$0BA@@?$output_processor@DV?$stream_output_adapter@D@__crt_stdio_output@@V?$positional_parameter_base@DV?$stream_output_adapter@D@__crt_stdio_output@@@2@@__crt_stdio_output@@AEAAX_K_N@Z 000000018009b540 f i libucrtd:output.obj
 0001:0009a680       ??$type_case_integer_parse_into_buffer@_K$0BA@@?$output_processor@DV?$stream_output_adapter@D@__crt_stdio_output@@V?$standard_base@DV?$stream_output_adapter@D@__crt_stdio_output@@@2@@__crt_stdio_output@@AEAAX_K_N@Z 000000018009b680 f i libucrtd:output.obj
 0001:0009a7c0       ??$type_case_integer_parse_into_buffer@_K$0BA@@?$output_processor@DV?$string_output_adapter@D@__crt_stdio_output@@V?$format_validation_base@DV?$string_output_adapter@D@__crt_stdio_output@@@2@@__crt_stdio_output@@AEAAX_K_N@Z 000000018009b7c0 f i libucrtd:output.obj
 0001:0009a900       ??$type_case_integer_parse_into_buffer@_K$0BA@@?$output_processor@DV?$string_output_adapter@D@__crt_stdio_output@@V?$positional_parameter_base@DV?$string_output_adapter@D@__crt_stdio_output@@@2@@__crt_stdio_output@@AEAAX_K_N@Z 000000018009b900 f i libucrtd:output.obj
 0001:0009aa40       ??$type_case_integer_parse_into_buffer@_K$0BA@@?$output_processor@DV?$string_output_adapter@D@__crt_stdio_output@@V?$standard_base@DV?$string_output_adapter@D@__crt_stdio_output@@@2@@__crt_stdio_output@@AEAAX_K_N@Z 000000018009ba40 f i libucrtd:output.obj
 0001:0009ab80       ??$type_case_integer_parse_into_buffer@_K$0BA@@?$output_processor@_WV?$stream_output_adapter@_W@__crt_stdio_output@@V?$format_validation_base@_WV?$stream_output_adapter@_W@__crt_stdio_output@@@2@@__crt_stdio_output@@AEAAX_K_N@Z 000000018009bb80 f i libucrtd:output.obj
 0001:0009acc0       ??$type_case_integer_parse_into_buffer@_K$0BA@@?$output_processor@_WV?$stream_output_adapter@_W@__crt_stdio_output@@V?$positional_parameter_base@_WV?$stream_output_adapter@_W@__crt_stdio_output@@@2@@__crt_stdio_output@@AEAAX_K_N@Z 000000018009bcc0 f i libucrtd:output.obj
 0001:0009ae00       ??$type_case_integer_parse_into_buffer@_K$0BA@@?$output_processor@_WV?$stream_output_adapter@_W@__crt_stdio_output@@V?$standard_base@_WV?$stream_output_adapter@_W@__crt_stdio_output@@@2@@__crt_stdio_output@@AEAAX_K_N@Z 000000018009be00 f i libucrtd:output.obj
 0001:0009af40       ??$type_case_integer_parse_into_buffer@_K$0BA@@?$output_processor@_WV?$string_output_adapter@_W@__crt_stdio_output@@V?$format_validation_base@_WV?$string_output_adapter@_W@__crt_stdio_output@@@2@@__crt_stdio_output@@AEAAX_K_N@Z 000000018009bf40 f i libucrtd:output.obj
 0001:0009b080       ??$type_case_integer_parse_into_buffer@_K$0BA@@?$output_processor@_WV?$string_output_adapter@_W@__crt_stdio_output@@V?$positional_parameter_base@_WV?$string_output_adapter@_W@__crt_stdio_output@@@2@@__crt_stdio_output@@AEAAX_K_N@Z 000000018009c080 f i libucrtd:output.obj
 0001:0009b1c0       ??$type_case_integer_parse_into_buffer@_K$0BA@@?$output_processor@_WV?$string_output_adapter@_W@__crt_stdio_output@@V?$standard_base@_WV?$string_output_adapter@_W@__crt_stdio_output@@@2@@__crt_stdio_output@@AEAAX_K_N@Z 000000018009c1c0 f i libucrtd:output.obj
 0001:0009b300       ??$write_multiple_characters@V?$stream_output_adapter@D@__crt_stdio_output@@D@__crt_stdio_output@@YAXAEBV?$stream_output_adapter@D@0@DHQEAHAEAV__crt_cached_ptd_host@@@Z 000000018009c300 f i libucrtd:output.obj
 0001:0009b370       ??$write_multiple_characters@V?$stream_output_adapter@_W@__crt_stdio_output@@D@__crt_stdio_output@@YAXAEBV?$stream_output_adapter@_W@0@DHQEAHAEAV__crt_cached_ptd_host@@@Z 000000018009c370 f i libucrtd:output.obj
 0001:0009b3e0       ??$write_multiple_characters@V?$string_output_adapter@D@__crt_stdio_output@@D@__crt_stdio_output@@YAXAEBV?$string_output_adapter@D@0@DHQEAHAEAV__crt_cached_ptd_host@@@Z 000000018009c3e0 f i libucrtd:output.obj
 0001:0009b450       ??$write_multiple_characters@V?$string_output_adapter@_W@__crt_stdio_output@@D@__crt_stdio_output@@YAXAEBV?$string_output_adapter@_W@0@DHQEAHAEAV__crt_cached_ptd_host@@@Z 000000018009c450 f i libucrtd:output.obj
 0001:0009b880       ??0?$c_string_character_source@D@__crt_strtox@@QEAA@QEBDQEAPEBD@Z 000000018009c880 f i libucrtd:output.obj
 0001:0009b8d0       ??0?$c_string_character_source@_W@__crt_strtox@@QEAA@QEB_WQEAPEB_W@Z 000000018009c8d0 f i libucrtd:output.obj
 0001:0009b920       ??0?$cached@H@__crt_cached_ptd_host@@QEAA@XZ 000000018009c920 f i libucrtd:output.obj
 0001:0009b940       ??0?$cached@K@__crt_cached_ptd_host@@QEAA@XZ 000000018009c940 f i libucrtd:output.obj
 0001:0009b960       ??0?$common_data@D@__crt_stdio_output@@IEAA@AEAV__crt_cached_ptd_host@@@Z 000000018009c960 f i libucrtd:output.obj
 0001:0009ba20       ??0?$common_data@_W@__crt_stdio_output@@IEAA@AEAV__crt_cached_ptd_host@@@Z 000000018009ca20 f i libucrtd:output.obj
 0001:0009bae0       ??0?$output_adapter_data@DV?$stream_output_adapter@D@__crt_stdio_output@@@__crt_stdio_output@@IEAA@AEBV?$stream_output_adapter@D@1@_KQEBDAEAV__crt_cached_ptd_host@@QEAD@Z 000000018009cae0 f i libucrtd:output.obj
 0001:0009bb60       ??0?$output_adapter_data@DV?$string_output_adapter@D@__crt_stdio_output@@@__crt_stdio_output@@IEAA@AEBV?$string_output_adapter@D@1@_KQEBDAEAV__crt_cached_ptd_host@@QEAD@Z 000000018009cb60 f i libucrtd:output.obj
 0001:0009bbe0       ??0?$output_adapter_data@_WV?$stream_output_adapter@_W@__crt_stdio_output@@@__crt_stdio_output@@IEAA@AEBV?$stream_output_adapter@_W@1@_KQEB_WAEAV__crt_cached_ptd_host@@QEAD@Z 000000018009cbe0 f i libucrtd:output.obj
 0001:0009bc60       ??0?$output_adapter_data@_WV?$string_output_adapter@_W@__crt_stdio_output@@@__crt_stdio_output@@IEAA@AEBV?$string_output_adapter@_W@1@_KQEB_WAEAV__crt_cached_ptd_host@@QEAD@Z 000000018009cc60 f i libucrtd:output.obj
 0001:0009bce0       ??0?$output_processor@DV?$stream_output_adapter@D@__crt_stdio_output@@V?$format_validation_base@DV?$stream_output_adapter@D@__crt_stdio_output@@@2@@__crt_stdio_output@@QEAA@AEBV?$stream_output_adapter@D@1@_KQEBDAEAV__crt_cached_ptd_host@@QEAD@Z 000000018009cce0 f i libucrtd:output.obj
 0001:0009bd30       ??0?$output_processor@DV?$stream_output_adapter@D@__crt_stdio_output@@V?$positional_parameter_base@DV?$stream_output_adapter@D@__crt_stdio_output@@@2@@__crt_stdio_output@@QEAA@AEBV?$stream_output_adapter@D@1@_KQEBDAEAV__crt_cached_ptd_host@@QEAD@Z 000000018009cd30 f i libucrtd:output.obj
 0001:0009bd80       ??0?$output_processor@DV?$stream_output_adapter@D@__crt_stdio_output@@V?$standard_base@DV?$stream_output_adapter@D@__crt_stdio_output@@@2@@__crt_stdio_output@@QEAA@AEBV?$stream_output_adapter@D@1@_KQEBDAEAV__crt_cached_ptd_host@@QEAD@Z 000000018009cd80 f i libucrtd:output.obj
 0001:0009bdd0       ??0?$output_processor@DV?$string_output_adapter@D@__crt_stdio_output@@V?$format_validation_base@DV?$string_output_adapter@D@__crt_stdio_output@@@2@@__crt_stdio_output@@QEAA@AEBV?$string_output_adapter@D@1@_KQEBDAEAV__crt_cached_ptd_host@@QEAD@Z 000000018009cdd0 f i libucrtd:output.obj
 0001:0009be20       ??0?$output_processor@DV?$string_output_adapter@D@__crt_stdio_output@@V?$positional_parameter_base@DV?$string_output_adapter@D@__crt_stdio_output@@@2@@__crt_stdio_output@@QEAA@AEBV?$string_output_adapter@D@1@_KQEBDAEAV__crt_cached_ptd_host@@QEAD@Z 000000018009ce20 f i libucrtd:output.obj
 0001:0009be70       ??0?$output_processor@DV?$string_output_adapter@D@__crt_stdio_output@@V?$standard_base@DV?$string_output_adapter@D@__crt_stdio_output@@@2@@__crt_stdio_output@@QEAA@AEBV?$string_output_adapter@D@1@_KQEBDAEAV__crt_cached_ptd_host@@QEAD@Z 000000018009ce70 f i libucrtd:output.obj
 0001:0009bec0       ??0?$output_processor@_WV?$stream_output_adapter@_W@__crt_stdio_output@@V?$format_validation_base@_WV?$stream_output_adapter@_W@__crt_stdio_output@@@2@@__crt_stdio_output@@QEAA@AEBV?$stream_output_adapter@_W@1@_KQEB_WAEAV__crt_cached_ptd_host@@QEAD@Z 000000018009cec0 f i libucrtd:output.obj
 0001:0009bf10       ??0?$output_processor@_WV?$stream_output_adapter@_W@__crt_stdio_output@@V?$positional_parameter_base@_WV?$stream_output_adapter@_W@__crt_stdio_output@@@2@@__crt_stdio_output@@QEAA@AEBV?$stream_output_adapter@_W@1@_KQEB_WAEAV__crt_cached_ptd_host@@QEAD@Z 000000018009cf10 f i libucrtd:output.obj
 0001:0009bf60       ??0?$output_processor@_WV?$stream_output_adapter@_W@__crt_stdio_output@@V?$standard_base@_WV?$stream_output_adapter@_W@__crt_stdio_output@@@2@@__crt_stdio_output@@QEAA@AEBV?$stream_output_adapter@_W@1@_KQEB_WAEAV__crt_cached_ptd_host@@QEAD@Z 000000018009cf60 f i libucrtd:output.obj
 0001:0009bfb0       ??0?$output_processor@_WV?$string_output_adapter@_W@__crt_stdio_output@@V?$format_validation_base@_WV?$string_output_adapter@_W@__crt_stdio_output@@@2@@__crt_stdio_output@@QEAA@AEBV?$string_output_adapter@_W@1@_KQEB_WAEAV__crt_cached_ptd_host@@QEAD@Z 000000018009cfb0 f i libucrtd:output.obj
 0001:0009c000       ??0?$output_processor@_WV?$string_output_adapter@_W@__crt_stdio_output@@V?$positional_parameter_base@_WV?$string_output_adapter@_W@__crt_stdio_output@@@2@@__crt_stdio_output@@QEAA@AEBV?$string_output_adapter@_W@1@_KQEB_WAEAV__crt_cached_ptd_host@@QEAD@Z 000000018009d000 f i libucrtd:output.obj
 0001:0009c050       ??0?$output_processor@_WV?$string_output_adapter@_W@__crt_stdio_output@@V?$standard_base@_WV?$string_output_adapter@_W@__crt_stdio_output@@@2@@__crt_stdio_output@@QEAA@AEBV?$string_output_adapter@_W@1@_KQEB_WAEAV__crt_cached_ptd_host@@QEAD@Z 000000018009d050 f i libucrtd:output.obj
 0001:0009c0a0       ??0?$stream_output_adapter@D@__crt_stdio_output@@QEAA@QEAU_iobuf@@@Z 000000018009d0a0 f i libucrtd:output.obj
 0001:0009c0e0       ??0?$stream_output_adapter@_W@__crt_stdio_output@@QEAA@QEAU_iobuf@@@Z 000000018009d0e0 f i libucrtd:output.obj
 0001:0009c120       ??0?$string_output_adapter@D@__crt_stdio_output@@QEAA@QEAU?$string_output_adapter_context@D@1@@Z 000000018009d120 f i libucrtd:output.obj
 0001:0009c140       ??0?$string_output_adapter@_W@__crt_stdio_output@@QEAA@QEAU?$string_output_adapter_context@_W@1@@Z 000000018009d140 f i libucrtd:output.obj
 0001:0009c160       ??0__acrt_stdio_temporary_buffering_guard@@QEAA@QEAU_iobuf@@AEAV__crt_cached_ptd_host@@@Z 000000018009d160 f i libucrtd:output.obj
 0001:0009c1b0       ??0__crt_cached_ptd_host@@QEAA@QEAU__crt_locale_pointers@@@Z 000000018009d1b0 f i libucrtd:output.obj
 0001:0009c270       ??0__crt_scoped_get_last_error_reset@@QEAA@XZ 000000018009d270 f i libucrtd:output.obj
 0001:0009c290       ??0formatting_buffer@__crt_stdio_output@@QEAA@XZ 000000018009d290 f i libucrtd:output.obj
 0001:0009c2d0       ??0guard@?$cached@H@__crt_cached_ptd_host@@QEAA@AEAU12@@Z 000000018009d2d0 f i libucrtd:output.obj
 0001:0009c310       ??1?$c_string_character_source@D@__crt_strtox@@QEAA@XZ 000000018009d310 f i libucrtd:output.obj
 0001:0009c340       ??1?$c_string_character_source@_W@__crt_strtox@@QEAA@XZ 000000018009d340 f i libucrtd:output.obj
 0001:0009c370       ??1?$common_data@D@__crt_stdio_output@@QEAA@XZ 000000018009d370 f i libucrtd:output.obj
 0001:0009c390       ??1?$common_data@_W@__crt_stdio_output@@QEAA@XZ 000000018009d390 f i libucrtd:output.obj
 0001:0009c3b0       ??1?$format_validation_base@DV?$stream_output_adapter@D@__crt_stdio_output@@@__crt_stdio_output@@QEAA@XZ 000000018009d3b0 f i libucrtd:output.obj
 0001:0009c3d0       ??1?$format_validation_base@DV?$string_output_adapter@D@__crt_stdio_output@@@__crt_stdio_output@@QEAA@XZ 000000018009d3d0 f i libucrtd:output.obj
 0001:0009c3f0       ??1?$format_validation_base@_WV?$stream_output_adapter@_W@__crt_stdio_output@@@__crt_stdio_output@@QEAA@XZ 000000018009d3f0 f i libucrtd:output.obj
 0001:0009c410       ??1?$format_validation_base@_WV?$string_output_adapter@_W@__crt_stdio_output@@@__crt_stdio_output@@QEAA@XZ 000000018009d410 f i libucrtd:output.obj
 0001:0009c430       ??1?$output_adapter_data@DV?$stream_output_adapter@D@__crt_stdio_output@@@__crt_stdio_output@@QEAA@XZ 000000018009d430 f i libucrtd:output.obj
 0001:0009c450       ??1?$output_adapter_data@DV?$string_output_adapter@D@__crt_stdio_output@@@__crt_stdio_output@@QEAA@XZ 000000018009d450 f i libucrtd:output.obj
 0001:0009c470       ??1?$output_adapter_data@_WV?$stream_output_adapter@_W@__crt_stdio_output@@@__crt_stdio_output@@QEAA@XZ 000000018009d470 f i libucrtd:output.obj
 0001:0009c490       ??1?$output_adapter_data@_WV?$string_output_adapter@_W@__crt_stdio_output@@@__crt_stdio_output@@QEAA@XZ 000000018009d490 f i libucrtd:output.obj
 0001:0009c4b0       ??1?$output_processor@DV?$stream_output_adapter@D@__crt_stdio_output@@V?$format_validation_base@DV?$stream_output_adapter@D@__crt_stdio_output@@@2@@__crt_stdio_output@@QEAA@XZ 000000018009d4b0 f i libucrtd:output.obj
 0001:0009c4d0       ??1?$output_processor@DV?$stream_output_adapter@D@__crt_stdio_output@@V?$positional_parameter_base@DV?$stream_output_adapter@D@__crt_stdio_output@@@2@@__crt_stdio_output@@QEAA@XZ 000000018009d4d0 f i libucrtd:output.obj
 0001:0009c4f0       ??1?$output_processor@DV?$stream_output_adapter@D@__crt_stdio_output@@V?$standard_base@DV?$stream_output_adapter@D@__crt_stdio_output@@@2@@__crt_stdio_output@@QEAA@XZ 000000018009d4f0 f i libucrtd:output.obj
 0001:0009c510       ??1?$output_processor@DV?$string_output_adapter@D@__crt_stdio_output@@V?$format_validation_base@DV?$string_output_adapter@D@__crt_stdio_output@@@2@@__crt_stdio_output@@QEAA@XZ 000000018009d510 f i libucrtd:output.obj
 0001:0009c530       ??1?$output_processor@DV?$string_output_adapter@D@__crt_stdio_output@@V?$positional_parameter_base@DV?$string_output_adapter@D@__crt_stdio_output@@@2@@__crt_stdio_output@@QEAA@XZ 000000018009d530 f i libucrtd:output.obj
 0001:0009c550       ??1?$output_processor@DV?$string_output_adapter@D@__crt_stdio_output@@V?$standard_base@DV?$string_output_adapter@D@__crt_stdio_output@@@2@@__crt_stdio_output@@QEAA@XZ 000000018009d550 f i libucrtd:output.obj
 0001:0009c570       ??1?$output_processor@_WV?$stream_output_adapter@_W@__crt_stdio_output@@V?$format_validation_base@_WV?$stream_output_adapter@_W@__crt_stdio_output@@@2@@__crt_stdio_output@@QEAA@XZ 000000018009d570 f i libucrtd:output.obj
 0001:0009c590       ??1?$output_processor@_WV?$stream_output_adapter@_W@__crt_stdio_output@@V?$positional_parameter_base@_WV?$stream_output_adapter@_W@__crt_stdio_output@@@2@@__crt_stdio_output@@QEAA@XZ 000000018009d590 f i libucrtd:output.obj
 0001:0009c5b0       ??1?$output_processor@_WV?$stream_output_adapter@_W@__crt_stdio_output@@V?$standard_base@_WV?$stream_output_adapter@_W@__crt_stdio_output@@@2@@__crt_stdio_output@@QEAA@XZ 000000018009d5b0 f i libucrtd:output.obj
 0001:0009c5d0       ??1?$output_processor@_WV?$string_output_adapter@_W@__crt_stdio_output@@V?$format_validation_base@_WV?$string_output_adapter@_W@__crt_stdio_output@@@2@@__crt_stdio_output@@QEAA@XZ 000000018009d5d0 f i libucrtd:output.obj
 0001:0009c5f0       ??1?$output_processor@_WV?$string_output_adapter@_W@__crt_stdio_output@@V?$positional_parameter_base@_WV?$string_output_adapter@_W@__crt_stdio_output@@@2@@__crt_stdio_output@@QEAA@XZ 000000018009d5f0 f i libucrtd:output.obj
 0001:0009c610       ??1?$output_processor@_WV?$string_output_adapter@_W@__crt_stdio_output@@V?$standard_base@_WV?$string_output_adapter@_W@__crt_stdio_output@@@2@@__crt_stdio_output@@QEAA@XZ 000000018009d610 f i libucrtd:output.obj
 0001:0009c630       ??1?$positional_parameter_base@DV?$stream_output_adapter@D@__crt_stdio_output@@@__crt_stdio_output@@QEAA@XZ 000000018009d630 f i libucrtd:output.obj
 0001:0009c650       ??1?$positional_parameter_base@DV?$string_output_adapter@D@__crt_stdio_output@@@__crt_stdio_output@@QEAA@XZ 000000018009d650 f i libucrtd:output.obj
 0001:0009c670       ??1?$positional_parameter_base@_WV?$stream_output_adapter@_W@__crt_stdio_output@@@__crt_stdio_output@@QEAA@XZ 000000018009d670 f i libucrtd:output.obj
 0001:0009c690       ??1?$positional_parameter_base@_WV?$string_output_adapter@_W@__crt_stdio_output@@@__crt_stdio_output@@QEAA@XZ 000000018009d690 f i libucrtd:output.obj
 0001:0009c6b0       ??1?$standard_base@DV?$stream_output_adapter@D@__crt_stdio_output@@@__crt_stdio_output@@QEAA@XZ 000000018009d6b0 f i libucrtd:output.obj
 0001:0009c6d0       ??1?$standard_base@DV?$string_output_adapter@D@__crt_stdio_output@@@__crt_stdio_output@@QEAA@XZ 000000018009d6d0 f i libucrtd:output.obj
 0001:0009c6f0       ??1?$standard_base@_WV?$stream_output_adapter@_W@__crt_stdio_output@@@__crt_stdio_output@@QEAA@XZ 000000018009d6f0 f i libucrtd:output.obj
 0001:0009c710       ??1?$standard_base@_WV?$string_output_adapter@_W@__crt_stdio_output@@@__crt_stdio_output@@QEAA@XZ 000000018009d710 f i libucrtd:output.obj
 0001:0009c730       ??1__acrt_stdio_temporary_buffering_guard@@QEAA@XZ 000000018009d730 f i libucrtd:output.obj
 0001:0009c760       ??1__crt_cached_ptd_host@@QEAA@XZ 000000018009d760 f i libucrtd:output.obj
 0001:0009c810       ??1__crt_scoped_get_last_error_reset@@QEAA@XZ 000000018009d810 f i libucrtd:output.obj
 0001:0009c830       ??1formatting_buffer@__crt_stdio_output@@QEAA@XZ 000000018009d830 f i libucrtd:output.obj
 0001:0009c860       ??1guard@?$cached@H@__crt_cached_ptd_host@@QEAA@XZ 000000018009d860 f i libucrtd:output.obj
 0001:0009c890       ??4?$__crt_unique_heap_ptr@DU__crt_internal_free_policy@@@@QEAAAEAV0@$$QEAV0@@Z 000000018009d890 f i libucrtd:output.obj
 0001:0009c8d0       ??A?$spectre_mitigated_lookup_table@Ustate_transition_pair@__crt_stdio_output@@$0IA@@__crt_stdio_output@@QEBAAEBUstate_transition_pair@1@_K@Z 000000018009d8d0 f i libucrtd:output.obj
 0001:0009c8f0       ??C__crt_stdio_stream@@QEBAPEAU__crt_stdio_stream_data@@XZ 000000018009d8f0 f i libucrtd:output.obj
 0001:0009d140       ?adjust_hexit@?$output_processor@DV?$stream_output_adapter@D@__crt_stdio_output@@V?$format_validation_base@DV?$stream_output_adapter@D@__crt_stdio_output@@@2@@__crt_stdio_output@@CADH_N@Z 000000018009e140 f i libucrtd:output.obj
 0001:0009d190       ?adjust_hexit@?$output_processor@DV?$stream_output_adapter@D@__crt_stdio_output@@V?$positional_parameter_base@DV?$stream_output_adapter@D@__crt_stdio_output@@@2@@__crt_stdio_output@@CADH_N@Z 000000018009e190 f i libucrtd:output.obj
 0001:0009d1e0       ?adjust_hexit@?$output_processor@DV?$stream_output_adapter@D@__crt_stdio_output@@V?$standard_base@DV?$stream_output_adapter@D@__crt_stdio_output@@@2@@__crt_stdio_output@@CADH_N@Z 000000018009e1e0 f i libucrtd:output.obj
 0001:0009d230       ?adjust_hexit@?$output_processor@DV?$string_output_adapter@D@__crt_stdio_output@@V?$format_validation_base@DV?$string_output_adapter@D@__crt_stdio_output@@@2@@__crt_stdio_output@@CADH_N@Z 000000018009e230 f i libucrtd:output.obj
 0001:0009d280       ?adjust_hexit@?$output_processor@DV?$string_output_adapter@D@__crt_stdio_output@@V?$positional_parameter_base@DV?$string_output_adapter@D@__crt_stdio_output@@@2@@__crt_stdio_output@@CADH_N@Z 000000018009e280 f i libucrtd:output.obj
 0001:0009d2d0       ?adjust_hexit@?$output_processor@DV?$string_output_adapter@D@__crt_stdio_output@@V?$standard_base@DV?$string_output_adapter@D@__crt_stdio_output@@@2@@__crt_stdio_output@@CADH_N@Z 000000018009e2d0 f i libucrtd:output.obj
 0001:0009d320       ?adjust_hexit@?$output_processor@_WV?$stream_output_adapter@_W@__crt_stdio_output@@V?$format_validation_base@_WV?$stream_output_adapter@_W@__crt_stdio_output@@@2@@__crt_stdio_output@@CADH_N@Z 000000018009e320 f i libucrtd:output.obj
 0001:0009d370       ?adjust_hexit@?$output_processor@_WV?$stream_output_adapter@_W@__crt_stdio_output@@V?$positional_parameter_base@_WV?$stream_output_adapter@_W@__crt_stdio_output@@@2@@__crt_stdio_output@@CADH_N@Z 000000018009e370 f i libucrtd:output.obj
 0001:0009d3c0       ?adjust_hexit@?$output_processor@_WV?$stream_output_adapter@_W@__crt_stdio_output@@V?$standard_base@_WV?$stream_output_adapter@_W@__crt_stdio_output@@@2@@__crt_stdio_output@@CADH_N@Z 000000018009e3c0 f i libucrtd:output.obj
 0001:0009d410       ?adjust_hexit@?$output_processor@_WV?$string_output_adapter@_W@__crt_stdio_output@@V?$format_validation_base@_WV?$string_output_adapter@_W@__crt_stdio_output@@@2@@__crt_stdio_output@@CADH_N@Z 000000018009e410 f i libucrtd:output.obj
 0001:0009d460       ?adjust_hexit@?$output_processor@_WV?$string_output_adapter@_W@__crt_stdio_output@@V?$positional_parameter_base@_WV?$string_output_adapter@_W@__crt_stdio_output@@@2@@__crt_stdio_output@@CADH_N@Z 000000018009e460 f i libucrtd:output.obj
 0001:0009d4b0       ?adjust_hexit@?$output_processor@_WV?$string_output_adapter@_W@__crt_stdio_output@@V?$standard_base@_WV?$string_output_adapter@_W@__crt_stdio_output@@@2@@__crt_stdio_output@@CADH_N@Z 000000018009e4b0 f i libucrtd:output.obj
 0001:0009d500       ?advance_to_next_pass@?$positional_parameter_base@DV?$stream_output_adapter@D@__crt_stdio_output@@@__crt_stdio_output@@IEAA_NXZ 000000018009e500 f i libucrtd:output.obj
 0001:0009d5b0       ?advance_to_next_pass@?$positional_parameter_base@DV?$string_output_adapter@D@__crt_stdio_output@@@__crt_stdio_output@@IEAA_NXZ 000000018009e5b0 f i libucrtd:output.obj
 0001:0009d660       ?advance_to_next_pass@?$positional_parameter_base@_WV?$stream_output_adapter@_W@__crt_stdio_output@@@__crt_stdio_output@@IEAA_NXZ 000000018009e660 f i libucrtd:output.obj
 0001:0009d710       ?advance_to_next_pass@?$positional_parameter_base@_WV?$string_output_adapter@_W@__crt_stdio_output@@@__crt_stdio_output@@IEAA_NXZ 000000018009e710 f i libucrtd:output.obj
 0001:0009d7c0       ?advance_to_next_pass@?$standard_base@DV?$stream_output_adapter@D@__crt_stdio_output@@@__crt_stdio_output@@IEAA_NXZ 000000018009e7c0 f i libucrtd:output.obj
 0001:0009d810       ?advance_to_next_pass@?$standard_base@DV?$string_output_adapter@D@__crt_stdio_output@@@__crt_stdio_output@@IEAA_NXZ 000000018009e810 f i libucrtd:output.obj
 0001:0009d860       ?advance_to_next_pass@?$standard_base@_WV?$stream_output_adapter@_W@__crt_stdio_output@@@__crt_stdio_output@@IEAA_NXZ 000000018009e860 f i libucrtd:output.obj
 0001:0009d8b0       ?advance_to_next_pass@?$standard_base@_WV?$string_output_adapter@_W@__crt_stdio_output@@@__crt_stdio_output@@IEAA_NXZ 000000018009e8b0 f i libucrtd:output.obj
 0001:0009d900       ?check@?$cached@H@__crt_cached_ptd_host@@QEBA_NH@Z 000000018009e900 f i libucrtd:output.obj
 0001:0009d940       ?check_synchronize_global_state_index@__crt_cached_ptd_host@@AEAA_KAEBV__crt_scoped_get_last_error_reset@@@Z 000000018009e940 f i libucrtd:output.obj
 0001:0009d980       ?check_synchronize_per_thread_data@__crt_cached_ptd_host@@AEAAPEAU__acrt_ptd@@XZ 000000018009e980 f i libucrtd:output.obj
 0001:0009d9c0       ?create_guard@?$cached@H@__crt_cached_ptd_host@@QEAA?AVguard@12@XZ 000000018009e9c0 f i libucrtd:output.obj
 0001:0009d9f0       ?crop_zeroes@__crt_stdio_output@@YAXPEADQEAU__crt_locale_pointers@@@Z 000000018009e9f0 f i libucrtd:output.obj
 0001:0009db40       ?disable@guard@?$cached@H@__crt_cached_ptd_host@@QEAAXXZ 000000018009eb40 f i libucrtd:output.obj
 0001:0009db50       ?enable@guard@?$cached@H@__crt_cached_ptd_host@@QEAAXXZ 000000018009eb50 f i libucrtd:output.obj
 0001:0009db60       ?find_next_state@?$output_processor@DV?$stream_output_adapter@D@__crt_stdio_output@@V?$format_validation_base@DV?$stream_output_adapter@D@__crt_stdio_output@@@2@@__crt_stdio_output@@AEBA?AW4state@2@DW432@@Z 000000018009eb60 f i libucrtd:output.obj
 0001:0009dc00       ?find_next_state@?$output_processor@DV?$stream_output_adapter@D@__crt_stdio_output@@V?$positional_parameter_base@DV?$stream_output_adapter@D@__crt_stdio_output@@@2@@__crt_stdio_output@@AEBA?AW4state@2@DW432@@Z 000000018009ec00 f i libucrtd:output.obj
 0001:0009dca0       ?find_next_state@?$output_processor@DV?$stream_output_adapter@D@__crt_stdio_output@@V?$standard_base@DV?$stream_output_adapter@D@__crt_stdio_output@@@2@@__crt_stdio_output@@AEBA?AW4state@2@DW432@@Z 000000018009eca0 f i libucrtd:output.obj
 0001:0009dd40       ?find_next_state@?$output_processor@DV?$string_output_adapter@D@__crt_stdio_output@@V?$format_validation_base@DV?$string_output_adapter@D@__crt_stdio_output@@@2@@__crt_stdio_output@@AEBA?AW4state@2@DW432@@Z 000000018009ed40 f i libucrtd:output.obj
 0001:0009dde0       ?find_next_state@?$output_processor@DV?$string_output_adapter@D@__crt_stdio_output@@V?$positional_parameter_base@DV?$string_output_adapter@D@__crt_stdio_output@@@2@@__crt_stdio_output@@AEBA?AW4state@2@DW432@@Z 000000018009ede0 f i libucrtd:output.obj
 0001:0009de80       ?find_next_state@?$output_processor@DV?$string_output_adapter@D@__crt_stdio_output@@V?$standard_base@DV?$string_output_adapter@D@__crt_stdio_output@@@2@@__crt_stdio_output@@AEBA?AW4state@2@DW432@@Z 000000018009ee80 f i libucrtd:output.obj
 0001:0009df20       ?find_next_state@?$output_processor@_WV?$stream_output_adapter@_W@__crt_stdio_output@@V?$format_validation_base@_WV?$stream_output_adapter@_W@__crt_stdio_output@@@2@@__crt_stdio_output@@AEBA?AW4state@2@_WW432@@Z 000000018009ef20 f i libucrtd:output.obj
 0001:0009dfc0       ?find_next_state@?$output_processor@_WV?$stream_output_adapter@_W@__crt_stdio_output@@V?$positional_parameter_base@_WV?$stream_output_adapter@_W@__crt_stdio_output@@@2@@__crt_stdio_output@@AEBA?AW4state@2@_WW432@@Z 000000018009efc0 f i libucrtd:output.obj
 0001:0009e060       ?find_next_state@?$output_processor@_WV?$stream_output_adapter@_W@__crt_stdio_output@@V?$standard_base@_WV?$stream_output_adapter@_W@__crt_stdio_output@@@2@@__crt_stdio_output@@AEBA?AW4state@2@_WW432@@Z 000000018009f060 f i libucrtd:output.obj
 0001:0009e100       ?find_next_state@?$output_processor@_WV?$string_output_adapter@_W@__crt_stdio_output@@V?$format_validation_base@_WV?$string_output_adapter@_W@__crt_stdio_output@@@2@@__crt_stdio_output@@AEBA?AW4state@2@_WW432@@Z 000000018009f100 f i libucrtd:output.obj
 0001:0009e1a0       ?find_next_state@?$output_processor@_WV?$string_output_adapter@_W@__crt_stdio_output@@V?$positional_parameter_base@_WV?$string_output_adapter@_W@__crt_stdio_output@@@2@@__crt_stdio_output@@AEBA?AW4state@2@_WW432@@Z 000000018009f1a0 f i libucrtd:output.obj
 0001:0009e240       ?find_next_state@?$output_processor@_WV?$string_output_adapter@_W@__crt_stdio_output@@V?$standard_base@_WV?$string_output_adapter@_W@__crt_stdio_output@@@2@@__crt_stdio_output@@AEBA?AW4state@2@_WW432@@Z 000000018009f240 f i libucrtd:output.obj
 0001:0009e2e0       ?force_decimal_point@__crt_stdio_output@@YAXPEADQEAU__crt_locale_pointers@@@Z 000000018009f2e0 f i libucrtd:output.obj
 0001:0009e3e0       ?force_synchronize_global_state_index@__crt_cached_ptd_host@@AEAA_KAEBV__crt_scoped_get_last_error_reset@@@Z 000000018009f3e0 f i libucrtd:output.obj
 0001:0009e420       ?force_synchronize_per_thread_data@__crt_cached_ptd_host@@AEAAPEAU__acrt_ptd@@XZ 000000018009f420 f i libucrtd:output.obj
 0001:0009e480       ?get@?$c_string_character_source@D@__crt_strtox@@QEAADXZ 000000018009f480 f i libucrtd:output.obj
 0001:0009e4c0       ?get@?$c_string_character_source@_W@__crt_strtox@@QEAA_WXZ 000000018009f4c0 f i libucrtd:output.obj
 0001:0009e500       ?get_current_state_index@__crt_state_management@@YA_KAEBV__crt_scoped_get_last_error_reset@@@Z 000000018009f500 f i libucrtd:output.obj
 0001:0009e510       ?get_errno@__crt_cached_ptd_host@@QEAA@XZ 000000018009f510 f i libucrtd:output.obj
 0001:0009e520       ?get_locale@__crt_cached_ptd_host@@QEAAPEAU__crt_locale_pointers@@XZ 000000018009f520 f i libucrtd:output.obj
 0001:0009e550       ?get_parameter_type@?$positional_parameter_base@DV?$stream_output_adapter@D@__crt_stdio_output@@@__crt_stdio_output@@CA?AW4parameter_type@12@F@Z 000000018009f550 f i libucrtd:output.obj
 0001:0009e560       ?get_parameter_type@?$positional_parameter_base@DV?$stream_output_adapter@D@__crt_stdio_output@@@__crt_stdio_output@@CA?AW4parameter_type@12@G@Z 000000018009f560 f i libucrtd:output.obj
 0001:0009e570       ?get_parameter_type@?$positional_parameter_base@DV?$stream_output_adapter@D@__crt_stdio_output@@@__crt_stdio_output@@CA?AW4parameter_type@12@H@Z 000000018009f570 f i libucrtd:output.obj
 0001:0009e580       ?get_parameter_type@?$positional_parameter_base@DV?$stream_output_adapter@D@__crt_stdio_output@@@__crt_stdio_output@@CA?AW4parameter_type@12@I@Z 000000018009f580 f i libucrtd:output.obj
 0001:0009e590       ?get_parameter_type@?$positional_parameter_base@DV?$stream_output_adapter@D@__crt_stdio_output@@@__crt_stdio_output@@CA?AW4parameter_type@12@U_CRT_DOUBLE@@@Z 000000018009f590 f i libucrtd:output.obj
 0001:0009e5a0       ?get_parameter_type@?$positional_parameter_base@DV?$stream_output_adapter@D@__crt_stdio_output@@@__crt_stdio_output@@CA?AW4parameter_type@12@_J@Z 000000018009f5a0 f i libucrtd:output.obj
 0001:0009e5b0       ?get_parameter_type@?$positional_parameter_base@DV?$stream_output_adapter@D@__crt_stdio_output@@@__crt_stdio_output@@CA?AW4parameter_type@12@_K@Z 000000018009f5b0 f i libucrtd:output.obj
 0001:0009e5c0       ?get_parameter_type@?$positional_parameter_base@DV?$stream_output_adapter@D@__crt_stdio_output@@@__crt_stdio_output@@CA?AW4parameter_type@12@_W@Z 000000018009f5c0 f i libucrtd:output.obj
 0001:0009e5d0       ?get_parameter_type@?$positional_parameter_base@DV?$string_output_adapter@D@__crt_stdio_output@@@__crt_stdio_output@@CA?AW4parameter_type@12@F@Z 000000018009f5d0 f i libucrtd:output.obj
 0001:0009e5e0       ?get_parameter_type@?$positional_parameter_base@DV?$string_output_adapter@D@__crt_stdio_output@@@__crt_stdio_output@@CA?AW4parameter_type@12@G@Z 000000018009f5e0 f i libucrtd:output.obj
 0001:0009e5f0       ?get_parameter_type@?$positional_parameter_base@DV?$string_output_adapter@D@__crt_stdio_output@@@__crt_stdio_output@@CA?AW4parameter_type@12@H@Z 000000018009f5f0 f i libucrtd:output.obj
 0001:0009e600       ?get_parameter_type@?$positional_parameter_base@DV?$string_output_adapter@D@__crt_stdio_output@@@__crt_stdio_output@@CA?AW4parameter_type@12@I@Z 000000018009f600 f i libucrtd:output.obj
 0001:0009e610       ?get_parameter_type@?$positional_parameter_base@DV?$string_output_adapter@D@__crt_stdio_output@@@__crt_stdio_output@@CA?AW4parameter_type@12@U_CRT_DOUBLE@@@Z 000000018009f610 f i libucrtd:output.obj
 0001:0009e620       ?get_parameter_type@?$positional_parameter_base@DV?$string_output_adapter@D@__crt_stdio_output@@@__crt_stdio_output@@CA?AW4parameter_type@12@_J@Z 000000018009f620 f i libucrtd:output.obj
 0001:0009e630       ?get_parameter_type@?$positional_parameter_base@DV?$string_output_adapter@D@__crt_stdio_output@@@__crt_stdio_output@@CA?AW4parameter_type@12@_K@Z 000000018009f630 f i libucrtd:output.obj
 0001:0009e640       ?get_parameter_type@?$positional_parameter_base@DV?$string_output_adapter@D@__crt_stdio_output@@@__crt_stdio_output@@CA?AW4parameter_type@12@_W@Z 000000018009f640 f i libucrtd:output.obj
 0001:0009e650       ?get_parameter_type@?$positional_parameter_base@_WV?$stream_output_adapter@_W@__crt_stdio_output@@@__crt_stdio_output@@CA?AW4parameter_type@12@F@Z 000000018009f650 f i libucrtd:output.obj
 0001:0009e660       ?get_parameter_type@?$positional_parameter_base@_WV?$stream_output_adapter@_W@__crt_stdio_output@@@__crt_stdio_output@@CA?AW4parameter_type@12@G@Z 000000018009f660 f i libucrtd:output.obj
 0001:0009e670       ?get_parameter_type@?$positional_parameter_base@_WV?$stream_output_adapter@_W@__crt_stdio_output@@@__crt_stdio_output@@CA?AW4parameter_type@12@H@Z 000000018009f670 f i libucrtd:output.obj
 0001:0009e680       ?get_parameter_type@?$positional_parameter_base@_WV?$stream_output_adapter@_W@__crt_stdio_output@@@__crt_stdio_output@@CA?AW4parameter_type@12@I@Z 000000018009f680 f i libucrtd:output.obj
 0001:0009e690       ?get_parameter_type@?$positional_parameter_base@_WV?$stream_output_adapter@_W@__crt_stdio_output@@@__crt_stdio_output@@CA?AW4parameter_type@12@U_CRT_DOUBLE@@@Z 000000018009f690 f i libucrtd:output.obj
 0001:0009e6a0       ?get_parameter_type@?$positional_parameter_base@_WV?$stream_output_adapter@_W@__crt_stdio_output@@@__crt_stdio_output@@CA?AW4parameter_type@12@_J@Z 000000018009f6a0 f i libucrtd:output.obj
 0001:0009e6b0       ?get_parameter_type@?$positional_parameter_base@_WV?$stream_output_adapter@_W@__crt_stdio_output@@@__crt_stdio_output@@CA?AW4parameter_type@12@_K@Z 000000018009f6b0 f i libucrtd:output.obj
 0001:0009e6c0       ?get_parameter_type@?$positional_parameter_base@_WV?$stream_output_adapter@_W@__crt_stdio_output@@@__crt_stdio_output@@CA?AW4parameter_type@12@_W@Z 000000018009f6c0 f i libucrtd:output.obj
 0001:0009e6d0       ?get_parameter_type@?$positional_parameter_base@_WV?$string_output_adapter@_W@__crt_stdio_output@@@__crt_stdio_output@@CA?AW4parameter_type@12@F@Z 000000018009f6d0 f i libucrtd:output.obj
 0001:0009e6e0       ?get_parameter_type@?$positional_parameter_base@_WV?$string_output_adapter@_W@__crt_stdio_output@@@__crt_stdio_output@@CA?AW4parameter_type@12@G@Z 000000018009f6e0 f i libucrtd:output.obj
 0001:0009e6f0       ?get_parameter_type@?$positional_parameter_base@_WV?$string_output_adapter@_W@__crt_stdio_output@@@__crt_stdio_output@@CA?AW4parameter_type@12@H@Z 000000018009f6f0 f i libucrtd:output.obj
 0001:0009e700       ?get_parameter_type@?$positional_parameter_base@_WV?$string_output_adapter@_W@__crt_stdio_output@@@__crt_stdio_output@@CA?AW4parameter_type@12@I@Z 000000018009f700 f i libucrtd:output.obj
 0001:0009e710       ?get_parameter_type@?$positional_parameter_base@_WV?$string_output_adapter@_W@__crt_stdio_output@@@__crt_stdio_output@@CA?AW4parameter_type@12@U_CRT_DOUBLE@@@Z 000000018009f710 f i libucrtd:output.obj
 0001:0009e720       ?get_parameter_type@?$positional_parameter_base@_WV?$string_output_adapter@_W@__crt_stdio_output@@@__crt_stdio_output@@CA?AW4parameter_type@12@_J@Z 000000018009f720 f i libucrtd:output.obj
 0001:0009e730       ?get_parameter_type@?$positional_parameter_base@_WV?$string_output_adapter@_W@__crt_stdio_output@@@__crt_stdio_output@@CA?AW4parameter_type@12@_K@Z 000000018009f730 f i libucrtd:output.obj
 0001:0009e740       ?get_parameter_type@?$positional_parameter_base@_WV?$string_output_adapter@_W@__crt_stdio_output@@@__crt_stdio_output@@CA?AW4parameter_type@12@_W@Z 000000018009f740 f i libucrtd:output.obj
 0001:0009e750       ?get_raw_ptd@__crt_cached_ptd_host@@QEAAPEAU__acrt_ptd@@XZ 000000018009f750 f i libucrtd:output.obj
 0001:0009e770       ?has_flag@?$output_processor@DV?$stream_output_adapter@D@__crt_stdio_output@@V?$format_validation_base@DV?$stream_output_adapter@D@__crt_stdio_output@@@2@@__crt_stdio_output@@AEBA_NI@Z 000000018009f770 f i libucrtd:output.obj
 0001:0009e7b0       ?has_flag@?$output_processor@DV?$stream_output_adapter@D@__crt_stdio_output@@V?$positional_parameter_base@DV?$stream_output_adapter@D@__crt_stdio_output@@@2@@__crt_stdio_output@@AEBA_NI@Z 000000018009f7b0 f i libucrtd:output.obj
 0001:0009e7f0       ?has_flag@?$output_processor@DV?$stream_output_adapter@D@__crt_stdio_output@@V?$standard_base@DV?$stream_output_adapter@D@__crt_stdio_output@@@2@@__crt_stdio_output@@AEBA_NI@Z 000000018009f7f0 f i libucrtd:output.obj
 0001:0009e830       ?has_flag@?$output_processor@DV?$string_output_adapter@D@__crt_stdio_output@@V?$format_validation_base@DV?$string_output_adapter@D@__crt_stdio_output@@@2@@__crt_stdio_output@@AEBA_NI@Z 000000018009f830 f i libucrtd:output.obj
 0001:0009e870       ?has_flag@?$output_processor@DV?$string_output_adapter@D@__crt_stdio_output@@V?$positional_parameter_base@DV?$string_output_adapter@D@__crt_stdio_output@@@2@@__crt_stdio_output@@AEBA_NI@Z 000000018009f870 f i libucrtd:output.obj
 0001:0009e8b0       ?has_flag@?$output_processor@DV?$string_output_adapter@D@__crt_stdio_output@@V?$standard_base@DV?$string_output_adapter@D@__crt_stdio_output@@@2@@__crt_stdio_output@@AEBA_NI@Z 000000018009f8b0 f i libucrtd:output.obj
 0001:0009e8f0       ?has_flag@?$output_processor@_WV?$stream_output_adapter@_W@__crt_stdio_output@@V?$format_validation_base@_WV?$stream_output_adapter@_W@__crt_stdio_output@@@2@@__crt_stdio_output@@AEBA_NI@Z 000000018009f8f0 f i libucrtd:output.obj
 0001:0009e930       ?has_flag@?$output_processor@_WV?$stream_output_adapter@_W@__crt_stdio_output@@V?$positional_parameter_base@_WV?$stream_output_adapter@_W@__crt_stdio_output@@@2@@__crt_stdio_output@@AEBA_NI@Z 000000018009f930 f i libucrtd:output.obj
 0001:0009e970       ?has_flag@?$output_processor@_WV?$stream_output_adapter@_W@__crt_stdio_output@@V?$standard_base@_WV?$stream_output_adapter@_W@__crt_stdio_output@@@2@@__crt_stdio_output@@AEBA_NI@Z 000000018009f970 f i libucrtd:output.obj
 0001:0009e9b0       ?has_flag@?$output_processor@_WV?$string_output_adapter@_W@__crt_stdio_output@@V?$format_validation_base@_WV?$string_output_adapter@_W@__crt_stdio_output@@@2@@__crt_stdio_output@@AEBA_NI@Z 000000018009f9b0 f i libucrtd:output.obj
 0001:0009e9f0       ?has_flag@?$output_processor@_WV?$string_output_adapter@_W@__crt_stdio_output@@V?$positional_parameter_base@_WV?$string_output_adapter@_W@__crt_stdio_output@@@2@@__crt_stdio_output@@AEBA_NI@Z 000000018009f9f0 f i libucrtd:output.obj
 0001:0009ea30       ?has_flag@?$output_processor@_WV?$string_output_adapter@_W@__crt_stdio_output@@V?$standard_base@_WV?$string_output_adapter@_W@__crt_stdio_output@@@2@@__crt_stdio_output@@AEBA_NI@Z 000000018009fa30 f i libucrtd:output.obj
 0001:0009ea70       ?is_positional_parameter_reappearance_consistent@?$positional_parameter_base@DV?$stream_output_adapter@D@__crt_stdio_output@@@__crt_stdio_output@@AEAA_NAEBUparameter_data@12@W4parameter_type@12@DW4length_modifier@2@@Z 000000018009fa70 f i libucrtd:output.obj
 0001:0009ecd0       ?is_positional_parameter_reappearance_consistent@?$positional_parameter_base@DV?$string_output_adapter@D@__crt_stdio_output@@@__crt_stdio_output@@AEAA_NAEBUparameter_data@12@W4parameter_type@12@DW4length_modifier@2@@Z 000000018009fcd0 f i libucrtd:output.obj
 0001:0009ef30       ?is_positional_parameter_reappearance_consistent@?$positional_parameter_base@_WV?$stream_output_adapter@_W@__crt_stdio_output@@@__crt_stdio_output@@AEAA_NAEBUparameter_data@12@W4parameter_type@12@_WW4length_modifier@2@@Z 000000018009ff30 f i libucrtd:output.obj
 0001:0009f190       ?is_positional_parameter_reappearance_consistent@?$positional_parameter_base@_WV?$string_output_adapter@_W@__crt_stdio_output@@@__crt_stdio_output@@AEAA_NAEBUparameter_data@12@W4parameter_type@12@_WW4length_modifier@2@@Z 00000001800a0190 f i libucrtd:output.obj
 0001:0009f3f0       ?is_string_backed@__crt_stdio_stream@@QEBA_NXZ 00000001800a03f0 f i libucrtd:output.obj
 0001:0009f430       ?maximum_signed_value@__crt_strtox@@YAJK@Z 00000001800a0430 f i libucrtd:output.obj
 0001:0009f440       ?minimum_signed_value@__crt_strtox@@YAJK@Z 00000001800a0440 f i libucrtd:output.obj
 0001:0009f450       ?narrow_null_string@?$output_processor@DV?$stream_output_adapter@D@__crt_stdio_output@@V?$format_validation_base@DV?$stream_output_adapter@D@__crt_stdio_output@@@2@@__crt_stdio_output@@CAPEADXZ 00000001800a0450 f i libucrtd:output.obj
 0001:0009f460       ?narrow_null_string@?$output_processor@DV?$stream_output_adapter@D@__crt_stdio_output@@V?$positional_parameter_base@DV?$stream_output_adapter@D@__crt_stdio_output@@@2@@__crt_stdio_output@@CAPEADXZ 00000001800a0460 f i libucrtd:output.obj
 0001:0009f470       ?narrow_null_string@?$output_processor@DV?$stream_output_adapter@D@__crt_stdio_output@@V?$standard_base@DV?$stream_output_adapter@D@__crt_stdio_output@@@2@@__crt_stdio_output@@CAPEADXZ 00000001800a0470 f i libucrtd:output.obj
 0001:0009f480       ?narrow_null_string@?$output_processor@DV?$string_output_adapter@D@__crt_stdio_output@@V?$format_validation_base@DV?$string_output_adapter@D@__crt_stdio_output@@@2@@__crt_stdio_output@@CAPEADXZ 00000001800a0480 f i libucrtd:output.obj
 0001:0009f490       ?narrow_null_string@?$output_processor@DV?$string_output_adapter@D@__crt_stdio_output@@V?$positional_parameter_base@DV?$string_output_adapter@D@__crt_stdio_output@@@2@@__crt_stdio_output@@CAPEADXZ 00000001800a0490 f i libucrtd:output.obj
 0001:0009f4a0       ?narrow_null_string@?$output_processor@DV?$string_output_adapter@D@__crt_stdio_output@@V?$standard_base@DV?$string_output_adapter@D@__crt_stdio_output@@@2@@__crt_stdio_output@@CAPEADXZ 00000001800a04a0 f i libucrtd:output.obj
 0001:0009f4b0       ?narrow_null_string@?$output_processor@_WV?$stream_output_adapter@_W@__crt_stdio_output@@V?$format_validation_base@_WV?$stream_output_adapter@_W@__crt_stdio_output@@@2@@__crt_stdio_output@@CAPEADXZ 00000001800a04b0 f i libucrtd:output.obj
 0001:0009f4c0       ?narrow_null_string@?$output_processor@_WV?$stream_output_adapter@_W@__crt_stdio_output@@V?$positional_parameter_base@_WV?$stream_output_adapter@_W@__crt_stdio_output@@@2@@__crt_stdio_output@@CAPEADXZ 00000001800a04c0 f i libucrtd:output.obj
 0001:0009f4d0       ?narrow_null_string@?$output_processor@_WV?$stream_output_adapter@_W@__crt_stdio_output@@V?$standard_base@_WV?$stream_output_adapter@_W@__crt_stdio_output@@@2@@__crt_stdio_output@@CAPEADXZ 00000001800a04d0 f i libucrtd:output.obj
 0001:0009f4e0       ?narrow_null_string@?$output_processor@_WV?$string_output_adapter@_W@__crt_stdio_output@@V?$format_validation_base@_WV?$string_output_adapter@_W@__crt_stdio_output@@@2@@__crt_stdio_output@@CAPEADXZ 00000001800a04e0 f i libucrtd:output.obj
 0001:0009f4f0       ?narrow_null_string@?$output_processor@_WV?$string_output_adapter@_W@__crt_stdio_output@@V?$positional_parameter_base@_WV?$string_output_adapter@_W@__crt_stdio_output@@@2@@__crt_stdio_output@@CAPEADXZ 00000001800a04f0 f i libucrtd:output.obj
 0001:0009f500       ?narrow_null_string@?$output_processor@_WV?$string_output_adapter@_W@__crt_stdio_output@@V?$standard_base@_WV?$string_output_adapter@_W@__crt_stdio_output@@@2@@__crt_stdio_output@@CAPEADXZ 00000001800a0500 f i libucrtd:output.obj
 0001:0009f510       ?parse_digit@__crt_strtox@@YAID@Z 00000001800a0510 f i libucrtd:output.obj
 0001:0009f580       ?parse_digit@__crt_strtox@@YAI_W@Z 00000001800a0580 f i libucrtd:output.obj
 0001:0009f5d0       ?parse_int_from_format_string@?$output_processor@DV?$stream_output_adapter@D@__crt_stdio_output@@V?$format_validation_base@DV?$stream_output_adapter@D@__crt_stdio_output@@@2@@__crt_stdio_output@@AEAA_NQEAH@Z 00000001800a05d0 f i libucrtd:output.obj
 0001:0009f6d0       ?parse_int_from_format_string@?$output_processor@DV?$stream_output_adapter@D@__crt_stdio_output@@V?$positional_parameter_base@DV?$stream_output_adapter@D@__crt_stdio_output@@@2@@__crt_stdio_output@@AEAA_NQEAH@Z 00000001800a06d0 f i libucrtd:output.obj
 0001:0009f7d0       ?parse_int_from_format_string@?$output_processor@DV?$stream_output_adapter@D@__crt_stdio_output@@V?$standard_base@DV?$stream_output_adapter@D@__crt_stdio_output@@@2@@__crt_stdio_output@@AEAA_NQEAH@Z 00000001800a07d0 f i libucrtd:output.obj
 0001:0009f8d0       ?parse_int_from_format_string@?$output_processor@DV?$string_output_adapter@D@__crt_stdio_output@@V?$format_validation_base@DV?$string_output_adapter@D@__crt_stdio_output@@@2@@__crt_stdio_output@@AEAA_NQEAH@Z 00000001800a08d0 f i libucrtd:output.obj
 0001:0009f9d0       ?parse_int_from_format_string@?$output_processor@DV?$string_output_adapter@D@__crt_stdio_output@@V?$positional_parameter_base@DV?$string_output_adapter@D@__crt_stdio_output@@@2@@__crt_stdio_output@@AEAA_NQEAH@Z 00000001800a09d0 f i libucrtd:output.obj
 0001:0009fad0       ?parse_int_from_format_string@?$output_processor@DV?$string_output_adapter@D@__crt_stdio_output@@V?$standard_base@DV?$string_output_adapter@D@__crt_stdio_output@@@2@@__crt_stdio_output@@AEAA_NQEAH@Z 00000001800a0ad0 f i libucrtd:output.obj
 0001:0009fbd0       ?parse_int_from_format_string@?$output_processor@_WV?$stream_output_adapter@_W@__crt_stdio_output@@V?$format_validation_base@_WV?$stream_output_adapter@_W@__crt_stdio_output@@@2@@__crt_stdio_output@@AEAA_NQEAH@Z 00000001800a0bd0 f i libucrtd:output.obj
 0001:0009fcd0       ?parse_int_from_format_string@?$output_processor@_WV?$stream_output_adapter@_W@__crt_stdio_output@@V?$positional_parameter_base@_WV?$stream_output_adapter@_W@__crt_stdio_output@@@2@@__crt_stdio_output@@AEAA_NQEAH@Z 00000001800a0cd0 f i libucrtd:output.obj
 0001:0009fdd0       ?parse_int_from_format_string@?$output_processor@_WV?$stream_output_adapter@_W@__crt_stdio_output@@V?$standard_base@_WV?$stream_output_adapter@_W@__crt_stdio_output@@@2@@__crt_stdio_output@@AEAA_NQEAH@Z 00000001800a0dd0 f i libucrtd:output.obj
 0001:0009fed0       ?parse_int_from_format_string@?$output_processor@_WV?$string_output_adapter@_W@__crt_stdio_output@@V?$format_validation_base@_WV?$string_output_adapter@_W@__crt_stdio_output@@@2@@__crt_stdio_output@@AEAA_NQEAH@Z 00000001800a0ed0 f i libucrtd:output.obj
 0001:0009ffd0       ?parse_int_from_format_string@?$output_processor@_WV?$string_output_adapter@_W@__crt_stdio_output@@V?$positional_parameter_base@_WV?$string_output_adapter@_W@__crt_stdio_output@@@2@@__crt_stdio_output@@AEAA_NQEAH@Z 00000001800a0fd0 f i libucrtd:output.obj
 0001:000a00d0       ?parse_int_from_format_string@?$output_processor@_WV?$string_output_adapter@_W@__crt_stdio_output@@V?$standard_base@_WV?$string_output_adapter@_W@__crt_stdio_output@@@2@@__crt_stdio_output@@AEAA_NQEAH@Z 00000001800a10d0 f i libucrtd:output.obj
 0001:000a01d0       ?process@?$output_processor@DV?$stream_output_adapter@D@__crt_stdio_output@@V?$format_validation_base@DV?$stream_output_adapter@D@__crt_stdio_output@@@2@@__crt_stdio_output@@QEAAHXZ 00000001800a11d0 f i libucrtd:output.obj
 0001:000a0590       ?process@?$output_processor@DV?$stream_output_adapter@D@__crt_stdio_output@@V?$positional_parameter_base@DV?$stream_output_adapter@D@__crt_stdio_output@@@2@@__crt_stdio_output@@QEAAHXZ 00000001800a1590 f i libucrtd:output.obj
 0001:000a0950       ?process@?$output_processor@DV?$stream_output_adapter@D@__crt_stdio_output@@V?$standard_base@DV?$stream_output_adapter@D@__crt_stdio_output@@@2@@__crt_stdio_output@@QEAAHXZ 00000001800a1950 f i libucrtd:output.obj
 0001:000a0d10       ?process@?$output_processor@DV?$string_output_adapter@D@__crt_stdio_output@@V?$format_validation_base@DV?$string_output_adapter@D@__crt_stdio_output@@@2@@__crt_stdio_output@@QEAAHXZ 00000001800a1d10 f i libucrtd:output.obj
 0001:000a10d0       ?process@?$output_processor@DV?$string_output_adapter@D@__crt_stdio_output@@V?$positional_parameter_base@DV?$string_output_adapter@D@__crt_stdio_output@@@2@@__crt_stdio_output@@QEAAHXZ 00000001800a20d0 f i libucrtd:output.obj
 0001:000a1490       ?process@?$output_processor@DV?$string_output_adapter@D@__crt_stdio_output@@V?$standard_base@DV?$string_output_adapter@D@__crt_stdio_output@@@2@@__crt_stdio_output@@QEAAHXZ 00000001800a2490 f i libucrtd:output.obj
 0001:000a1850       ?process@?$output_processor@_WV?$stream_output_adapter@_W@__crt_stdio_output@@V?$format_validation_base@_WV?$stream_output_adapter@_W@__crt_stdio_output@@@2@@__crt_stdio_output@@QEAAHXZ 00000001800a2850 f i libucrtd:output.obj
 0001:000a1c10       ?process@?$output_processor@_WV?$stream_output_adapter@_W@__crt_stdio_output@@V?$positional_parameter_base@_WV?$stream_output_adapter@_W@__crt_stdio_output@@@2@@__crt_stdio_output@@QEAAHXZ 00000001800a2c10 f i libucrtd:output.obj
 0001:000a1fd0       ?process@?$output_processor@_WV?$stream_output_adapter@_W@__crt_stdio_output@@V?$standard_base@_WV?$stream_output_adapter@_W@__crt_stdio_output@@@2@@__crt_stdio_output@@QEAAHXZ 00000001800a2fd0 f i libucrtd:output.obj
 0001:000a2390       ?process@?$output_processor@_WV?$string_output_adapter@_W@__crt_stdio_output@@V?$format_validation_base@_WV?$string_output_adapter@_W@__crt_stdio_output@@@2@@__crt_stdio_output@@QEAAHXZ 00000001800a3390 f i libucrtd:output.obj
 0001:000a2750       ?process@?$output_processor@_WV?$string_output_adapter@_W@__crt_stdio_output@@V?$positional_parameter_base@_WV?$string_output_adapter@_W@__crt_stdio_output@@@2@@__crt_stdio_output@@QEAAHXZ 00000001800a3750 f i libucrtd:output.obj
 0001:000a2b10       ?process@?$output_processor@_WV?$string_output_adapter@_W@__crt_stdio_output@@V?$standard_base@_WV?$string_output_adapter@_W@__crt_stdio_output@@@2@@__crt_stdio_output@@QEAAHXZ 00000001800a3b10 f i libucrtd:output.obj
 0001:000a2ed0       ?public_stream@__crt_stdio_stream@@QEBAPEAU_iobuf@@XZ 00000001800a3ed0 f i libucrtd:output.obj
 0001:000a2ee0       ?restore_state@?$c_string_character_source@D@__crt_strtox@@QEAA_NQEBD@Z 00000001800a3ee0 f i libucrtd:output.obj
 0001:000a2f00       ?restore_state@?$c_string_character_source@_W@__crt_strtox@@QEAA_NQEB_W@Z 00000001800a3f00 f i libucrtd:output.obj
 0001:000a2f20       ?save_state@?$c_string_character_source@D@__crt_strtox@@QEBAPEBDXZ 00000001800a3f20 f i libucrtd:output.obj
 0001:000a2f30       ?save_state@?$c_string_character_source@_W@__crt_strtox@@QEBAPEB_WXZ 00000001800a3f30 f i libucrtd:output.obj
 0001:000a2f40       ?set@?$cached@H@__crt_cached_ptd_host@@QEAAHH@Z 00000001800a3f40 f i libucrtd:output.obj
 0001:000a2f70       ?set_flag@?$output_processor@DV?$stream_output_adapter@D@__crt_stdio_output@@V?$format_validation_base@DV?$stream_output_adapter@D@__crt_stdio_output@@@2@@__crt_stdio_output@@AEAAXI@Z 00000001800a3f70 f i libucrtd:output.obj
 0001:000a2f90       ?set_flag@?$output_processor@DV?$stream_output_adapter@D@__crt_stdio_output@@V?$positional_parameter_base@DV?$stream_output_adapter@D@__crt_stdio_output@@@2@@__crt_stdio_output@@AEAAXI@Z 00000001800a3f90 f i libucrtd:output.obj
 0001:000a2fb0       ?set_flag@?$output_processor@DV?$stream_output_adapter@D@__crt_stdio_output@@V?$standard_base@DV?$stream_output_adapter@D@__crt_stdio_output@@@2@@__crt_stdio_output@@AEAAXI@Z 00000001800a3fb0 f i libucrtd:output.obj
 0001:000a2fd0       ?set_flag@?$output_processor@DV?$string_output_adapter@D@__crt_stdio_output@@V?$format_validation_base@DV?$string_output_adapter@D@__crt_stdio_output@@@2@@__crt_stdio_output@@AEAAXI@Z 00000001800a3fd0 f i libucrtd:output.obj
 0001:000a2ff0       ?set_flag@?$output_processor@DV?$string_output_adapter@D@__crt_stdio_output@@V?$positional_parameter_base@DV?$string_output_adapter@D@__crt_stdio_output@@@2@@__crt_stdio_output@@AEAAXI@Z 00000001800a3ff0 f i libucrtd:output.obj
 0001:000a3010       ?set_flag@?$output_processor@DV?$string_output_adapter@D@__crt_stdio_output@@V?$standard_base@DV?$string_output_adapter@D@__crt_stdio_output@@@2@@__crt_stdio_output@@AEAAXI@Z 00000001800a4010 f i libucrtd:output.obj
 0001:000a3030       ?set_flag@?$output_processor@_WV?$stream_output_adapter@_W@__crt_stdio_output@@V?$format_validation_base@_WV?$stream_output_adapter@_W@__crt_stdio_output@@@2@@__crt_stdio_output@@AEAAXI@Z 00000001800a4030 f i libucrtd:output.obj
 0001:000a3050       ?set_flag@?$output_processor@_WV?$stream_output_adapter@_W@__crt_stdio_output@@V?$positional_parameter_base@_WV?$stream_output_adapter@_W@__crt_stdio_output@@@2@@__crt_stdio_output@@AEAAXI@Z 00000001800a4050 f i libucrtd:output.obj
 0001:000a3070       ?set_flag@?$output_processor@_WV?$stream_output_adapter@_W@__crt_stdio_output@@V?$standard_base@_WV?$stream_output_adapter@_W@__crt_stdio_output@@@2@@__crt_stdio_output@@AEAAXI@Z 00000001800a4070 f i libucrtd:output.obj
 0001:000a3090       ?set_flag@?$output_processor@_WV?$string_output_adapter@_W@__crt_stdio_output@@V?$format_validation_base@_WV?$string_output_adapter@_W@__crt_stdio_output@@@2@@__crt_stdio_output@@AEAAXI@Z 00000001800a4090 f i libucrtd:output.obj
 0001:000a30b0       ?set_flag@?$output_processor@_WV?$string_output_adapter@_W@__crt_stdio_output@@V?$positional_parameter_base@_WV?$string_output_adapter@_W@__crt_stdio_output@@@2@@__crt_stdio_output@@AEAAXI@Z 00000001800a40b0 f i libucrtd:output.obj
 0001:000a30d0       ?set_flag@?$output_processor@_WV?$string_output_adapter@_W@__crt_stdio_output@@V?$standard_base@_WV?$string_output_adapter@_W@__crt_stdio_output@@@2@@__crt_stdio_output@@AEAAXI@Z 00000001800a40d0 f i libucrtd:output.obj
 0001:000a30f0       ?should_format@?$positional_parameter_base@DV?$stream_output_adapter@D@__crt_stdio_output@@@__crt_stdio_output@@IEAA_NXZ 00000001800a40f0 f i libucrtd:output.obj
 0001:000a3130       ?should_format@?$positional_parameter_base@DV?$string_output_adapter@D@__crt_stdio_output@@@__crt_stdio_output@@IEAA_NXZ 00000001800a4130 f i libucrtd:output.obj
 0001:000a3170       ?should_format@?$positional_parameter_base@_WV?$stream_output_adapter@_W@__crt_stdio_output@@@__crt_stdio_output@@IEAA_NXZ 00000001800a4170 f i libucrtd:output.obj
 0001:000a31b0       ?should_format@?$positional_parameter_base@_WV?$string_output_adapter@_W@__crt_stdio_output@@@__crt_stdio_output@@IEAA_NXZ 00000001800a41b0 f i libucrtd:output.obj
 0001:000a31f0       ?should_format@?$standard_base@DV?$stream_output_adapter@D@__crt_stdio_output@@@__crt_stdio_output@@IEAA_NXZ 00000001800a41f0 f i libucrtd:output.obj
 0001:000a3200       ?should_format@?$standard_base@DV?$string_output_adapter@D@__crt_stdio_output@@@__crt_stdio_output@@IEAA_NXZ 00000001800a4200 f i libucrtd:output.obj
 0001:000a3210       ?should_format@?$standard_base@_WV?$stream_output_adapter@_W@__crt_stdio_output@@@__crt_stdio_output@@IEAA_NXZ 00000001800a4210 f i libucrtd:output.obj
 0001:000a3220       ?should_format@?$standard_base@_WV?$string_output_adapter@_W@__crt_stdio_output@@@__crt_stdio_output@@IEAA_NXZ 00000001800a4220 f i libucrtd:output.obj
 0001:000a3230       ?should_skip_normal_state_processing@?$positional_parameter_base@DV?$stream_output_adapter@D@__crt_stdio_output@@@__crt_stdio_output@@IEAA_NXZ 00000001800a4230 f i libucrtd:output.obj
 0001:000a3280       ?should_skip_normal_state_processing@?$positional_parameter_base@DV?$string_output_adapter@D@__crt_stdio_output@@@__crt_stdio_output@@IEAA_NXZ 00000001800a4280 f i libucrtd:output.obj
 0001:000a32d0       ?should_skip_normal_state_processing@?$positional_parameter_base@_WV?$stream_output_adapter@_W@__crt_stdio_output@@@__crt_stdio_output@@IEAA_NXZ 00000001800a42d0 f i libucrtd:output.obj
 0001:000a3320       ?should_skip_normal_state_processing@?$positional_parameter_base@_WV?$string_output_adapter@_W@__crt_stdio_output@@@__crt_stdio_output@@IEAA_NXZ 00000001800a4320 f i libucrtd:output.obj
 0001:000a3370       ?should_skip_normal_state_processing@?$standard_base@DV?$stream_output_adapter@D@__crt_stdio_output@@@__crt_stdio_output@@IEAA_NXZ 00000001800a4370 f i libucrtd:output.obj
 0001:000a3380       ?should_skip_normal_state_processing@?$standard_base@DV?$string_output_adapter@D@__crt_stdio_output@@@__crt_stdio_output@@IEAA_NXZ 00000001800a4380 f i libucrtd:output.obj
 0001:000a3390       ?should_skip_normal_state_processing@?$standard_base@_WV?$stream_output_adapter@_W@__crt_stdio_output@@@__crt_stdio_output@@IEAA_NXZ 00000001800a4390 f i libucrtd:output.obj
 0001:000a33a0       ?should_skip_normal_state_processing@?$standard_base@_WV?$string_output_adapter@_W@__crt_stdio_output@@@__crt_stdio_output@@IEAA_NXZ 00000001800a43a0 f i libucrtd:output.obj
 0001:000a33b0       ?should_skip_type_state_output@?$positional_parameter_base@DV?$stream_output_adapter@D@__crt_stdio_output@@@__crt_stdio_output@@IEBA_NXZ 00000001800a43b0 f i libucrtd:output.obj
 0001:000a33f0       ?should_skip_type_state_output@?$positional_parameter_base@DV?$string_output_adapter@D@__crt_stdio_output@@@__crt_stdio_output@@IEBA_NXZ 00000001800a43f0 f i libucrtd:output.obj
 0001:000a3430       ?should_skip_type_state_output@?$positional_parameter_base@_WV?$stream_output_adapter@_W@__crt_stdio_output@@@__crt_stdio_output@@IEBA_NXZ 00000001800a4430 f i libucrtd:output.obj
 0001:000a3470       ?should_skip_type_state_output@?$positional_parameter_base@_WV?$string_output_adapter@_W@__crt_stdio_output@@@__crt_stdio_output@@IEBA_NXZ 00000001800a4470 f i libucrtd:output.obj
 0001:000a34b0       ?should_skip_type_state_output@?$standard_base@DV?$stream_output_adapter@D@__crt_stdio_output@@@__crt_stdio_output@@IEBA_NXZ 00000001800a44b0 f i libucrtd:output.obj
 0001:000a34c0       ?should_skip_type_state_output@?$standard_base@DV?$string_output_adapter@D@__crt_stdio_output@@@__crt_stdio_output@@IEBA_NXZ 00000001800a44c0 f i libucrtd:output.obj
 0001:000a34d0       ?should_skip_type_state_output@?$standard_base@_WV?$stream_output_adapter@_W@__crt_stdio_output@@@__crt_stdio_output@@IEBA_NXZ 00000001800a44d0 f i libucrtd:output.obj
 0001:000a34e0       ?should_skip_type_state_output@?$standard_base@_WV?$string_output_adapter@_W@__crt_stdio_output@@@__crt_stdio_output@@IEBA_NXZ 00000001800a44e0 f i libucrtd:output.obj
 0001:000a34f0       ?state_case_dot@?$output_processor@DV?$stream_output_adapter@D@__crt_stdio_output@@V?$format_validation_base@DV?$stream_output_adapter@D@__crt_stdio_output@@@2@@__crt_stdio_output@@AEAA_NXZ 00000001800a44f0 f i libucrtd:output.obj
 0001:000a3510       ?state_case_dot@?$output_processor@DV?$stream_output_adapter@D@__crt_stdio_output@@V?$positional_parameter_base@DV?$stream_output_adapter@D@__crt_stdio_output@@@2@@__crt_stdio_output@@AEAA_NXZ 00000001800a4510 f i libucrtd:output.obj
 0001:000a3530       ?state_case_dot@?$output_processor@DV?$stream_output_adapter@D@__crt_stdio_output@@V?$standard_base@DV?$stream_output_adapter@D@__crt_stdio_output@@@2@@__crt_stdio_output@@AEAA_NXZ 00000001800a4530 f i libucrtd:output.obj
 0001:000a3550       ?state_case_dot@?$output_processor@DV?$string_output_adapter@D@__crt_stdio_output@@V?$format_validation_base@DV?$string_output_adapter@D@__crt_stdio_output@@@2@@__crt_stdio_output@@AEAA_NXZ 00000001800a4550 f i libucrtd:output.obj
 0001:000a3570       ?state_case_dot@?$output_processor@DV?$string_output_adapter@D@__crt_stdio_output@@V?$positional_parameter_base@DV?$string_output_adapter@D@__crt_stdio_output@@@2@@__crt_stdio_output@@AEAA_NXZ 00000001800a4570 f i libucrtd:output.obj
 0001:000a3590       ?state_case_dot@?$output_processor@DV?$string_output_adapter@D@__crt_stdio_output@@V?$standard_base@DV?$string_output_adapter@D@__crt_stdio_output@@@2@@__crt_stdio_output@@AEAA_NXZ 00000001800a4590 f i libucrtd:output.obj
 0001:000a35b0       ?state_case_dot@?$output_processor@_WV?$stream_output_adapter@_W@__crt_stdio_output@@V?$format_validation_base@_WV?$stream_output_adapter@_W@__crt_stdio_output@@@2@@__crt_stdio_output@@AEAA_NXZ 00000001800a45b0 f i libucrtd:output.obj
 0001:000a35d0       ?state_case_dot@?$output_processor@_WV?$stream_output_adapter@_W@__crt_stdio_output@@V?$positional_parameter_base@_WV?$stream_output_adapter@_W@__crt_stdio_output@@@2@@__crt_stdio_output@@AEAA_NXZ 00000001800a45d0 f i libucrtd:output.obj
 0001:000a35f0       ?state_case_dot@?$output_processor@_WV?$stream_output_adapter@_W@__crt_stdio_output@@V?$standard_base@_WV?$stream_output_adapter@_W@__crt_stdio_output@@@2@@__crt_stdio_output@@AEAA_NXZ 00000001800a45f0 f i libucrtd:output.obj
 0001:000a3610       ?state_case_dot@?$output_processor@_WV?$string_output_adapter@_W@__crt_stdio_output@@V?$format_validation_base@_WV?$string_output_adapter@_W@__crt_stdio_output@@@2@@__crt_stdio_output@@AEAA_NXZ 00000001800a4610 f i libucrtd:output.obj
 0001:000a3630       ?state_case_dot@?$output_processor@_WV?$string_output_adapter@_W@__crt_stdio_output@@V?$positional_parameter_base@_WV?$string_output_adapter@_W@__crt_stdio_output@@@2@@__crt_stdio_output@@AEAA_NXZ 00000001800a4630 f i libucrtd:output.obj
 0001:000a3650       ?state_case_dot@?$output_processor@_WV?$string_output_adapter@_W@__crt_stdio_output@@V?$standard_base@_WV?$string_output_adapter@_W@__crt_stdio_output@@@2@@__crt_stdio_output@@AEAA_NXZ 00000001800a4650 f i libucrtd:output.obj
 0001:000a3670       ?state_case_flag@?$output_processor@DV?$stream_output_adapter@D@__crt_stdio_output@@V?$format_validation_base@DV?$stream_output_adapter@D@__crt_stdio_output@@@2@@__crt_stdio_output@@AEAA_NXZ 00000001800a4670 f i libucrtd:output.obj
 0001:000a3710       ?state_case_flag@?$output_processor@DV?$stream_output_adapter@D@__crt_stdio_output@@V?$positional_parameter_base@DV?$stream_output_adapter@D@__crt_stdio_output@@@2@@__crt_stdio_output@@AEAA_NXZ 00000001800a4710 f i libucrtd:output.obj
 0001:000a37b0       ?state_case_flag@?$output_processor@DV?$stream_output_adapter@D@__crt_stdio_output@@V?$standard_base@DV?$stream_output_adapter@D@__crt_stdio_output@@@2@@__crt_stdio_output@@AEAA_NXZ 00000001800a47b0 f i libucrtd:output.obj
 0001:000a3850       ?state_case_flag@?$output_processor@DV?$string_output_adapter@D@__crt_stdio_output@@V?$format_validation_base@DV?$string_output_adapter@D@__crt_stdio_output@@@2@@__crt_stdio_output@@AEAA_NXZ 00000001800a4850 f i libucrtd:output.obj
 0001:000a38f0       ?state_case_flag@?$output_processor@DV?$string_output_adapter@D@__crt_stdio_output@@V?$positional_parameter_base@DV?$string_output_adapter@D@__crt_stdio_output@@@2@@__crt_stdio_output@@AEAA_NXZ 00000001800a48f0 f i libucrtd:output.obj
 0001:000a3990       ?state_case_flag@?$output_processor@DV?$string_output_adapter@D@__crt_stdio_output@@V?$standard_base@DV?$string_output_adapter@D@__crt_stdio_output@@@2@@__crt_stdio_output@@AEAA_NXZ 00000001800a4990 f i libucrtd:output.obj
 0001:000a3a30       ?state_case_flag@?$output_processor@_WV?$stream_output_adapter@_W@__crt_stdio_output@@V?$format_validation_base@_WV?$stream_output_adapter@_W@__crt_stdio_output@@@2@@__crt_stdio_output@@AEAA_NXZ 00000001800a4a30 f i libucrtd:output.obj
 0001:000a3ad0       ?state_case_flag@?$output_processor@_WV?$stream_output_adapter@_W@__crt_stdio_output@@V?$positional_parameter_base@_WV?$stream_output_adapter@_W@__crt_stdio_output@@@2@@__crt_stdio_output@@AEAA_NXZ 00000001800a4ad0 f i libucrtd:output.obj
 0001:000a3b70       ?state_case_flag@?$output_processor@_WV?$stream_output_adapter@_W@__crt_stdio_output@@V?$standard_base@_WV?$stream_output_adapter@_W@__crt_stdio_output@@@2@@__crt_stdio_output@@AEAA_NXZ 00000001800a4b70 f i libucrtd:output.obj
 0001:000a3c10       ?state_case_flag@?$output_processor@_WV?$string_output_adapter@_W@__crt_stdio_output@@V?$format_validation_base@_WV?$string_output_adapter@_W@__crt_stdio_output@@@2@@__crt_stdio_output@@AEAA_NXZ 00000001800a4c10 f i libucrtd:output.obj
 0001:000a3cb0       ?state_case_flag@?$output_processor@_WV?$string_output_adapter@_W@__crt_stdio_output@@V?$positional_parameter_base@_WV?$string_output_adapter@_W@__crt_stdio_output@@@2@@__crt_stdio_output@@AEAA_NXZ 00000001800a4cb0 f i libucrtd:output.obj
 0001:000a3d50       ?state_case_flag@?$output_processor@_WV?$string_output_adapter@_W@__crt_stdio_output@@V?$standard_base@_WV?$string_output_adapter@_W@__crt_stdio_output@@@2@@__crt_stdio_output@@AEAA_NXZ 00000001800a4d50 f i libucrtd:output.obj
 0001:000a3df0       ?state_case_normal@?$output_processor@DV?$stream_output_adapter@D@__crt_stdio_output@@V?$format_validation_base@DV?$stream_output_adapter@D@__crt_stdio_output@@@2@@__crt_stdio_output@@AEAA_NXZ 00000001800a4df0 f i libucrtd:output.obj
 0001:000a3ef0       ?state_case_normal@?$output_processor@DV?$stream_output_adapter@D@__crt_stdio_output@@V?$positional_parameter_base@DV?$stream_output_adapter@D@__crt_stdio_output@@@2@@__crt_stdio_output@@AEAA_NXZ 00000001800a4ef0 f i libucrtd:output.obj
 0001:000a3ff0       ?state_case_normal@?$output_processor@DV?$stream_output_adapter@D@__crt_stdio_output@@V?$standard_base@DV?$stream_output_adapter@D@__crt_stdio_output@@@2@@__crt_stdio_output@@AEAA_NXZ 00000001800a4ff0 f i libucrtd:output.obj
 0001:000a40f0       ?state_case_normal@?$output_processor@DV?$string_output_adapter@D@__crt_stdio_output@@V?$format_validation_base@DV?$string_output_adapter@D@__crt_stdio_output@@@2@@__crt_stdio_output@@AEAA_NXZ 00000001800a50f0 f i libucrtd:output.obj
 0001:000a41f0       ?state_case_normal@?$output_processor@DV?$string_output_adapter@D@__crt_stdio_output@@V?$positional_parameter_base@DV?$string_output_adapter@D@__crt_stdio_output@@@2@@__crt_stdio_output@@AEAA_NXZ 00000001800a51f0 f i libucrtd:output.obj
 0001:000a42f0       ?state_case_normal@?$output_processor@DV?$string_output_adapter@D@__crt_stdio_output@@V?$standard_base@DV?$string_output_adapter@D@__crt_stdio_output@@@2@@__crt_stdio_output@@AEAA_NXZ 00000001800a52f0 f i libucrtd:output.obj
 0001:000a43f0       ?state_case_normal@?$output_processor@_WV?$stream_output_adapter@_W@__crt_stdio_output@@V?$format_validation_base@_WV?$stream_output_adapter@_W@__crt_stdio_output@@@2@@__crt_stdio_output@@AEAA_NXZ 00000001800a53f0 f i libucrtd:output.obj
 0001:000a44f0       ?state_case_normal@?$output_processor@_WV?$stream_output_adapter@_W@__crt_stdio_output@@V?$positional_parameter_base@_WV?$stream_output_adapter@_W@__crt_stdio_output@@@2@@__crt_stdio_output@@AEAA_NXZ 00000001800a54f0 f i libucrtd:output.obj
 0001:000a45f0       ?state_case_normal@?$output_processor@_WV?$stream_output_adapter@_W@__crt_stdio_output@@V?$standard_base@_WV?$stream_output_adapter@_W@__crt_stdio_output@@@2@@__crt_stdio_output@@AEAA_NXZ 00000001800a55f0 f i libucrtd:output.obj
 0001:000a46f0       ?state_case_normal@?$output_processor@_WV?$string_output_adapter@_W@__crt_stdio_output@@V?$format_validation_base@_WV?$string_output_adapter@_W@__crt_stdio_output@@@2@@__crt_stdio_output@@AEAA_NXZ 00000001800a56f0 f i libucrtd:output.obj
 0001:000a47f0       ?state_case_normal@?$output_processor@_WV?$string_output_adapter@_W@__crt_stdio_output@@V?$positional_parameter_base@_WV?$string_output_adapter@_W@__crt_stdio_output@@@2@@__crt_stdio_output@@AEAA_NXZ 00000001800a57f0 f i libucrtd:output.obj
 0001:000a48f0       ?state_case_normal@?$output_processor@_WV?$string_output_adapter@_W@__crt_stdio_output@@V?$standard_base@_WV?$string_output_adapter@_W@__crt_stdio_output@@@2@@__crt_stdio_output@@AEAA_NXZ 00000001800a58f0 f i libucrtd:output.obj
 0001:000a49f0       ?state_case_normal_common@?$output_processor@DV?$stream_output_adapter@D@__crt_stdio_output@@V?$format_validation_base@DV?$stream_output_adapter@D@__crt_stdio_output@@@2@@__crt_stdio_output@@AEAA_NXZ 00000001800a59f0 f i libucrtd:output.obj
 0001:000a4a50       ?state_case_normal_common@?$output_processor@DV?$stream_output_adapter@D@__crt_stdio_output@@V?$positional_parameter_base@DV?$stream_output_adapter@D@__crt_stdio_output@@@2@@__crt_stdio_output@@AEAA_NXZ 00000001800a5a50 f i libucrtd:output.obj
 0001:000a4ab0       ?state_case_normal_common@?$output_processor@DV?$stream_output_adapter@D@__crt_stdio_output@@V?$standard_base@DV?$stream_output_adapter@D@__crt_stdio_output@@@2@@__crt_stdio_output@@AEAA_NXZ 00000001800a5ab0 f i libucrtd:output.obj
 0001:000a4b10       ?state_case_normal_common@?$output_processor@DV?$string_output_adapter@D@__crt_stdio_output@@V?$format_validation_base@DV?$string_output_adapter@D@__crt_stdio_output@@@2@@__crt_stdio_output@@AEAA_NXZ 00000001800a5b10 f i libucrtd:output.obj
 0001:000a4b70       ?state_case_normal_common@?$output_processor@DV?$string_output_adapter@D@__crt_stdio_output@@V?$positional_parameter_base@DV?$string_output_adapter@D@__crt_stdio_output@@@2@@__crt_stdio_output@@AEAA_NXZ 00000001800a5b70 f i libucrtd:output.obj
 0001:000a4bd0       ?state_case_normal_common@?$output_processor@DV?$string_output_adapter@D@__crt_stdio_output@@V?$standard_base@DV?$string_output_adapter@D@__crt_stdio_output@@@2@@__crt_stdio_output@@AEAA_NXZ 00000001800a5bd0 f i libucrtd:output.obj
 0001:000a4c30       ?state_case_normal_common@?$output_processor@_WV?$stream_output_adapter@_W@__crt_stdio_output@@V?$format_validation_base@_WV?$stream_output_adapter@_W@__crt_stdio_output@@@2@@__crt_stdio_output@@AEAA_NXZ 00000001800a5c30 f i libucrtd:output.obj
 0001:000a4c90       ?state_case_normal_common@?$output_processor@_WV?$stream_output_adapter@_W@__crt_stdio_output@@V?$positional_parameter_base@_WV?$stream_output_adapter@_W@__crt_stdio_output@@@2@@__crt_stdio_output@@AEAA_NXZ 00000001800a5c90 f i libucrtd:output.obj
 0001:000a4cf0       ?state_case_normal_common@?$output_processor@_WV?$stream_output_adapter@_W@__crt_stdio_output@@V?$standard_base@_WV?$stream_output_adapter@_W@__crt_stdio_output@@@2@@__crt_stdio_output@@AEAA_NXZ 00000001800a5cf0 f i libucrtd:output.obj
 0001:000a4d50       ?state_case_normal_common@?$output_processor@_WV?$string_output_adapter@_W@__crt_stdio_output@@V?$format_validation_base@_WV?$string_output_adapter@_W@__crt_stdio_output@@@2@@__crt_stdio_output@@AEAA_NXZ 00000001800a5d50 f i libucrtd:output.obj
 0001:000a4db0       ?state_case_normal_common@?$output_processor@_WV?$string_output_adapter@_W@__crt_stdio_output@@V?$positional_parameter_base@_WV?$string_output_adapter@_W@__crt_stdio_output@@@2@@__crt_stdio_output@@AEAA_NXZ 00000001800a5db0 f i libucrtd:output.obj
 0001:000a4e10       ?state_case_normal_common@?$output_processor@_WV?$string_output_adapter@_W@__crt_stdio_output@@V?$standard_base@_WV?$string_output_adapter@_W@__crt_stdio_output@@@2@@__crt_stdio_output@@AEAA_NXZ 00000001800a5e10 f i libucrtd:output.obj
 0001:000a4e70       ?state_case_normal_tchar@?$output_processor@DV?$stream_output_adapter@D@__crt_stdio_output@@V?$format_validation_base@DV?$stream_output_adapter@D@__crt_stdio_output@@@2@@__crt_stdio_output@@AEAA_ND@Z 00000001800a5e70 f i libucrtd:output.obj
 0001:000a5000       ?state_case_normal_tchar@?$output_processor@DV?$stream_output_adapter@D@__crt_stdio_output@@V?$positional_parameter_base@DV?$stream_output_adapter@D@__crt_stdio_output@@@2@@__crt_stdio_output@@AEAA_ND@Z 00000001800a6000 f i libucrtd:output.obj
 0001:000a5190       ?state_case_normal_tchar@?$output_processor@DV?$stream_output_adapter@D@__crt_stdio_output@@V?$standard_base@DV?$stream_output_adapter@D@__crt_stdio_output@@@2@@__crt_stdio_output@@AEAA_ND@Z 00000001800a6190 f i libucrtd:output.obj
 0001:000a5320       ?state_case_normal_tchar@?$output_processor@DV?$string_output_adapter@D@__crt_stdio_output@@V?$format_validation_base@DV?$string_output_adapter@D@__crt_stdio_output@@@2@@__crt_stdio_output@@AEAA_ND@Z 00000001800a6320 f i libucrtd:output.obj
 0001:000a54b0       ?state_case_normal_tchar@?$output_processor@DV?$string_output_adapter@D@__crt_stdio_output@@V?$positional_parameter_base@DV?$string_output_adapter@D@__crt_stdio_output@@@2@@__crt_stdio_output@@AEAA_ND@Z 00000001800a64b0 f i libucrtd:output.obj
 0001:000a5640       ?state_case_normal_tchar@?$output_processor@DV?$string_output_adapter@D@__crt_stdio_output@@V?$standard_base@DV?$string_output_adapter@D@__crt_stdio_output@@@2@@__crt_stdio_output@@AEAA_ND@Z 00000001800a6640 f i libucrtd:output.obj
 0001:000a57d0       ?state_case_normal_tchar@?$output_processor@_WV?$stream_output_adapter@_W@__crt_stdio_output@@V?$format_validation_base@_WV?$stream_output_adapter@_W@__crt_stdio_output@@@2@@__crt_stdio_output@@AEAA_N_W@Z 00000001800a67d0 f i libucrtd:output.obj
 0001:000a57f0       ?state_case_normal_tchar@?$output_processor@_WV?$stream_output_adapter@_W@__crt_stdio_output@@V?$positional_parameter_base@_WV?$stream_output_adapter@_W@__crt_stdio_output@@@2@@__crt_stdio_output@@AEAA_N_W@Z 00000001800a67f0 f i libucrtd:output.obj
 0001:000a5810       ?state_case_normal_tchar@?$output_processor@_WV?$stream_output_adapter@_W@__crt_stdio_output@@V?$standard_base@_WV?$stream_output_adapter@_W@__crt_stdio_output@@@2@@__crt_stdio_output@@AEAA_N_W@Z 00000001800a6810 f i libucrtd:output.obj
 0001:000a5830       ?state_case_normal_tchar@?$output_processor@_WV?$string_output_adapter@_W@__crt_stdio_output@@V?$format_validation_base@_WV?$string_output_adapter@_W@__crt_stdio_output@@@2@@__crt_stdio_output@@AEAA_N_W@Z 00000001800a6830 f i libucrtd:output.obj
 0001:000a5850       ?state_case_normal_tchar@?$output_processor@_WV?$string_output_adapter@_W@__crt_stdio_output@@V?$positional_parameter_base@_WV?$string_output_adapter@_W@__crt_stdio_output@@@2@@__crt_stdio_output@@AEAA_N_W@Z 00000001800a6850 f i libucrtd:output.obj
 0001:000a5870       ?state_case_normal_tchar@?$output_processor@_WV?$string_output_adapter@_W@__crt_stdio_output@@V?$standard_base@_WV?$string_output_adapter@_W@__crt_stdio_output@@@2@@__crt_stdio_output@@AEAA_N_W@Z 00000001800a6870 f i libucrtd:output.obj
 0001:000a5890       ?state_case_percent@?$output_processor@DV?$stream_output_adapter@D@__crt_stdio_output@@V?$format_validation_base@DV?$stream_output_adapter@D@__crt_stdio_output@@@2@@__crt_stdio_output@@AEAA_NXZ 00000001800a6890 f i libucrtd:output.obj
 0001:000a58e0       ?state_case_percent@?$output_processor@DV?$stream_output_adapter@D@__crt_stdio_output@@V?$positional_parameter_base@DV?$stream_output_adapter@D@__crt_stdio_output@@@2@@__crt_stdio_output@@AEAA_NXZ 00000001800a68e0 f i libucrtd:output.obj
 0001:000a5930       ?state_case_percent@?$output_processor@DV?$stream_output_adapter@D@__crt_stdio_output@@V?$standard_base@DV?$stream_output_adapter@D@__crt_stdio_output@@@2@@__crt_stdio_output@@AEAA_NXZ 00000001800a6930 f i libucrtd:output.obj
 0001:000a5980       ?state_case_percent@?$output_processor@DV?$string_output_adapter@D@__crt_stdio_output@@V?$format_validation_base@DV?$string_output_adapter@D@__crt_stdio_output@@@2@@__crt_stdio_output@@AEAA_NXZ 00000001800a6980 f i libucrtd:output.obj
 0001:000a59d0       ?state_case_percent@?$output_processor@DV?$string_output_adapter@D@__crt_stdio_output@@V?$positional_parameter_base@DV?$string_output_adapter@D@__crt_stdio_output@@@2@@__crt_stdio_output@@AEAA_NXZ 00000001800a69d0 f i libucrtd:output.obj
 0001:000a5a20       ?state_case_percent@?$output_processor@DV?$string_output_adapter@D@__crt_stdio_output@@V?$standard_base@DV?$string_output_adapter@D@__crt_stdio_output@@@2@@__crt_stdio_output@@AEAA_NXZ 00000001800a6a20 f i libucrtd:output.obj
 0001:000a5a70       ?state_case_percent@?$output_processor@_WV?$stream_output_adapter@_W@__crt_stdio_output@@V?$format_validation_base@_WV?$stream_output_adapter@_W@__crt_stdio_output@@@2@@__crt_stdio_output@@AEAA_NXZ 00000001800a6a70 f i libucrtd:output.obj
 0001:000a5ac0       ?state_case_percent@?$output_processor@_WV?$stream_output_adapter@_W@__crt_stdio_output@@V?$positional_parameter_base@_WV?$stream_output_adapter@_W@__crt_stdio_output@@@2@@__crt_stdio_output@@AEAA_NXZ 00000001800a6ac0 f i libucrtd:output.obj
 0001:000a5b10       ?state_case_percent@?$output_processor@_WV?$stream_output_adapter@_W@__crt_stdio_output@@V?$standard_base@_WV?$stream_output_adapter@_W@__crt_stdio_output@@@2@@__crt_stdio_output@@AEAA_NXZ 00000001800a6b10 f i libucrtd:output.obj
 0001:000a5b60       ?state_case_percent@?$output_processor@_WV?$string_output_adapter@_W@__crt_stdio_output@@V?$format_validation_base@_WV?$string_output_adapter@_W@__crt_stdio_output@@@2@@__crt_stdio_output@@AEAA_NXZ 00000001800a6b60 f i libucrtd:output.obj
 0001:000a5bb0       ?state_case_percent@?$output_processor@_WV?$string_output_adapter@_W@__crt_stdio_output@@V?$positional_parameter_base@_WV?$string_output_adapter@_W@__crt_stdio_output@@@2@@__crt_stdio_output@@AEAA_NXZ 00000001800a6bb0 f i libucrtd:output.obj
 0001:000a5c00       ?state_case_percent@?$output_processor@_WV?$string_output_adapter@_W@__crt_stdio_output@@V?$standard_base@_WV?$string_output_adapter@_W@__crt_stdio_output@@@2@@__crt_stdio_output@@AEAA_NXZ 00000001800a6c00 f i libucrtd:output.obj
 0001:000a5c50       ?state_case_precision@?$output_processor@DV?$stream_output_adapter@D@__crt_stdio_output@@V?$format_validation_base@DV?$stream_output_adapter@D@__crt_stdio_output@@@2@@__crt_stdio_output@@AEAA_NXZ 00000001800a6c50 f i libucrtd:output.obj
 0001:000a5cd0       ?state_case_precision@?$output_processor@DV?$stream_output_adapter@D@__crt_stdio_output@@V?$positional_parameter_base@DV?$stream_output_adapter@D@__crt_stdio_output@@@2@@__crt_stdio_output@@AEAA_NXZ 00000001800a6cd0 f i libucrtd:output.obj
 0001:000a5d50       ?state_case_precision@?$output_processor@DV?$stream_output_adapter@D@__crt_stdio_output@@V?$standard_base@DV?$stream_output_adapter@D@__crt_stdio_output@@@2@@__crt_stdio_output@@AEAA_NXZ 00000001800a6d50 f i libucrtd:output.obj
 0001:000a5dd0       ?state_case_precision@?$output_processor@DV?$string_output_adapter@D@__crt_stdio_output@@V?$format_validation_base@DV?$string_output_adapter@D@__crt_stdio_output@@@2@@__crt_stdio_output@@AEAA_NXZ 00000001800a6dd0 f i libucrtd:output.obj
 0001:000a5e50       ?state_case_precision@?$output_processor@DV?$string_output_adapter@D@__crt_stdio_output@@V?$positional_parameter_base@DV?$string_output_adapter@D@__crt_stdio_output@@@2@@__crt_stdio_output@@AEAA_NXZ 00000001800a6e50 f i libucrtd:output.obj
 0001:000a5ed0       ?state_case_precision@?$output_processor@DV?$string_output_adapter@D@__crt_stdio_output@@V?$standard_base@DV?$string_output_adapter@D@__crt_stdio_output@@@2@@__crt_stdio_output@@AEAA_NXZ 00000001800a6ed0 f i libucrtd:output.obj
 0001:000a5f50       ?state_case_precision@?$output_processor@_WV?$stream_output_adapter@_W@__crt_stdio_output@@V?$format_validation_base@_WV?$stream_output_adapter@_W@__crt_stdio_output@@@2@@__crt_stdio_output@@AEAA_NXZ 00000001800a6f50 f i libucrtd:output.obj
 0001:000a5fd0       ?state_case_precision@?$output_processor@_WV?$stream_output_adapter@_W@__crt_stdio_output@@V?$positional_parameter_base@_WV?$stream_output_adapter@_W@__crt_stdio_output@@@2@@__crt_stdio_output@@AEAA_NXZ 00000001800a6fd0 f i libucrtd:output.obj
 0001:000a6050       ?state_case_precision@?$output_processor@_WV?$stream_output_adapter@_W@__crt_stdio_output@@V?$standard_base@_WV?$stream_output_adapter@_W@__crt_stdio_output@@@2@@__crt_stdio_output@@AEAA_NXZ 00000001800a7050 f i libucrtd:output.obj
 0001:000a60d0       ?state_case_precision@?$output_processor@_WV?$string_output_adapter@_W@__crt_stdio_output@@V?$format_validation_base@_WV?$string_output_adapter@_W@__crt_stdio_output@@@2@@__crt_stdio_output@@AEAA_NXZ 00000001800a70d0 f i libucrtd:output.obj
 0001:000a6150       ?state_case_precision@?$output_processor@_WV?$string_output_adapter@_W@__crt_stdio_output@@V?$positional_parameter_base@_WV?$string_output_adapter@_W@__crt_stdio_output@@@2@@__crt_stdio_output@@AEAA_NXZ 00000001800a7150 f i libucrtd:output.obj
 0001:000a61d0       ?state_case_precision@?$output_processor@_WV?$string_output_adapter@_W@__crt_stdio_output@@V?$standard_base@_WV?$string_output_adapter@_W@__crt_stdio_output@@@2@@__crt_stdio_output@@AEAA_NXZ 00000001800a71d0 f i libucrtd:output.obj
 0001:000a6250       ?state_case_size@?$output_processor@DV?$stream_output_adapter@D@__crt_stdio_output@@V?$format_validation_base@DV?$stream_output_adapter@D@__crt_stdio_output@@@2@@__crt_stdio_output@@AEAA_NXZ 00000001800a7250 f i libucrtd:output.obj
 0001:000a6710       ?state_case_size@?$output_processor@DV?$stream_output_adapter@D@__crt_stdio_output@@V?$positional_parameter_base@DV?$stream_output_adapter@D@__crt_stdio_output@@@2@@__crt_stdio_output@@AEAA_NXZ 00000001800a7710 f i libucrtd:output.obj
 0001:000a6bd0       ?state_case_size@?$output_processor@DV?$stream_output_adapter@D@__crt_stdio_output@@V?$standard_base@DV?$stream_output_adapter@D@__crt_stdio_output@@@2@@__crt_stdio_output@@AEAA_NXZ 00000001800a7bd0 f i libucrtd:output.obj
 0001:000a7090       ?state_case_size@?$output_processor@DV?$string_output_adapter@D@__crt_stdio_output@@V?$format_validation_base@DV?$string_output_adapter@D@__crt_stdio_output@@@2@@__crt_stdio_output@@AEAA_NXZ 00000001800a8090 f i libucrtd:output.obj
 0001:000a7550       ?state_case_size@?$output_processor@DV?$string_output_adapter@D@__crt_stdio_output@@V?$positional_parameter_base@DV?$string_output_adapter@D@__crt_stdio_output@@@2@@__crt_stdio_output@@AEAA_NXZ 00000001800a8550 f i libucrtd:output.obj
 0001:000a7a10       ?state_case_size@?$output_processor@DV?$string_output_adapter@D@__crt_stdio_output@@V?$standard_base@DV?$string_output_adapter@D@__crt_stdio_output@@@2@@__crt_stdio_output@@AEAA_NXZ 00000001800a8a10 f i libucrtd:output.obj
 0001:000a7ed0       ?state_case_size@?$output_processor@_WV?$stream_output_adapter@_W@__crt_stdio_output@@V?$format_validation_base@_WV?$stream_output_adapter@_W@__crt_stdio_output@@@2@@__crt_stdio_output@@AEAA_NXZ 00000001800a8ed0 f i libucrtd:output.obj
 0001:000a8390       ?state_case_size@?$output_processor@_WV?$stream_output_adapter@_W@__crt_stdio_output@@V?$positional_parameter_base@_WV?$stream_output_adapter@_W@__crt_stdio_output@@@2@@__crt_stdio_output@@AEAA_NXZ 00000001800a9390 f i libucrtd:output.obj
 0001:000a8850       ?state_case_size@?$output_processor@_WV?$stream_output_adapter@_W@__crt_stdio_output@@V?$standard_base@_WV?$stream_output_adapter@_W@__crt_stdio_output@@@2@@__crt_stdio_output@@AEAA_NXZ 00000001800a9850 f i libucrtd:output.obj
 0001:000a8d10       ?state_case_size@?$output_processor@_WV?$string_output_adapter@_W@__crt_stdio_output@@V?$format_validation_base@_WV?$string_output_adapter@_W@__crt_stdio_output@@@2@@__crt_stdio_output@@AEAA_NXZ 00000001800a9d10 f i libucrtd:output.obj
 0001:000a91d0       ?state_case_size@?$output_processor@_WV?$string_output_adapter@_W@__crt_stdio_output@@V?$positional_parameter_base@_WV?$string_output_adapter@_W@__crt_stdio_output@@@2@@__crt_stdio_output@@AEAA_NXZ 00000001800aa1d0 f i libucrtd:output.obj
 0001:000a9690       ?state_case_size@?$output_processor@_WV?$string_output_adapter@_W@__crt_stdio_output@@V?$standard_base@_WV?$string_output_adapter@_W@__crt_stdio_output@@@2@@__crt_stdio_output@@AEAA_NXZ 00000001800aa690 f i libucrtd:output.obj
 0001:000a9b50       ?state_case_type@?$output_processor@DV?$stream_output_adapter@D@__crt_stdio_output@@V?$format_validation_base@DV?$stream_output_adapter@D@__crt_stdio_output@@@2@@__crt_stdio_output@@AEAA_NXZ 00000001800aab50 f i libucrtd:output.obj
 0001:000aa010       ?state_case_type@?$output_processor@DV?$stream_output_adapter@D@__crt_stdio_output@@V?$positional_parameter_base@DV?$stream_output_adapter@D@__crt_stdio_output@@@2@@__crt_stdio_output@@AEAA_NXZ 00000001800ab010 f i libucrtd:output.obj
 0001:000aa4d0       ?state_case_type@?$output_processor@DV?$stream_output_adapter@D@__crt_stdio_output@@V?$standard_base@DV?$stream_output_adapter@D@__crt_stdio_output@@@2@@__crt_stdio_output@@AEAA_NXZ 00000001800ab4d0 f i libucrtd:output.obj
 0001:000aa990       ?state_case_type@?$output_processor@DV?$string_output_adapter@D@__crt_stdio_output@@V?$format_validation_base@DV?$string_output_adapter@D@__crt_stdio_output@@@2@@__crt_stdio_output@@AEAA_NXZ 00000001800ab990 f i libucrtd:output.obj
 0001:000aae50       ?state_case_type@?$output_processor@DV?$string_output_adapter@D@__crt_stdio_output@@V?$positional_parameter_base@DV?$string_output_adapter@D@__crt_stdio_output@@@2@@__crt_stdio_output@@AEAA_NXZ 00000001800abe50 f i libucrtd:output.obj
 0001:000ab310       ?state_case_type@?$output_processor@DV?$string_output_adapter@D@__crt_stdio_output@@V?$standard_base@DV?$string_output_adapter@D@__crt_stdio_output@@@2@@__crt_stdio_output@@AEAA_NXZ 00000001800ac310 f i libucrtd:output.obj
 0001:000ab7d0       ?state_case_type@?$output_processor@_WV?$stream_output_adapter@_W@__crt_stdio_output@@V?$format_validation_base@_WV?$stream_output_adapter@_W@__crt_stdio_output@@@2@@__crt_stdio_output@@AEAA_NXZ 00000001800ac7d0 f i libucrtd:output.obj
 0001:000abd60       ?state_case_type@?$output_processor@_WV?$stream_output_adapter@_W@__crt_stdio_output@@V?$positional_parameter_base@_WV?$stream_output_adapter@_W@__crt_stdio_output@@@2@@__crt_stdio_output@@AEAA_NXZ 00000001800acd60 f i libucrtd:output.obj
 0001:000ac2f0       ?state_case_type@?$output_processor@_WV?$stream_output_adapter@_W@__crt_stdio_output@@V?$standard_base@_WV?$stream_output_adapter@_W@__crt_stdio_output@@@2@@__crt_stdio_output@@AEAA_NXZ 00000001800ad2f0 f i libucrtd:output.obj
 0001:000ac880       ?state_case_type@?$output_processor@_WV?$string_output_adapter@_W@__crt_stdio_output@@V?$format_validation_base@_WV?$string_output_adapter@_W@__crt_stdio_output@@@2@@__crt_stdio_output@@AEAA_NXZ 00000001800ad880 f i libucrtd:output.obj
 0001:000ace10       ?state_case_type@?$output_processor@_WV?$string_output_adapter@_W@__crt_stdio_output@@V?$positional_parameter_base@_WV?$string_output_adapter@_W@__crt_stdio_output@@@2@@__crt_stdio_output@@AEAA_NXZ 00000001800ade10 f i libucrtd:output.obj
 0001:000ad3a0       ?state_case_type@?$output_processor@_WV?$string_output_adapter@_W@__crt_stdio_output@@V?$standard_base@_WV?$string_output_adapter@_W@__crt_stdio_output@@@2@@__crt_stdio_output@@AEAA_NXZ 00000001800ae3a0 f i libucrtd:output.obj
 0001:000ad930       ?state_case_width@?$output_processor@DV?$stream_output_adapter@D@__crt_stdio_output@@V?$format_validation_base@DV?$stream_output_adapter@D@__crt_stdio_output@@@2@@__crt_stdio_output@@AEAA_NXZ 00000001800ae930 f i libucrtd:output.obj
 0001:000ad9c0       ?state_case_width@?$output_processor@DV?$stream_output_adapter@D@__crt_stdio_output@@V?$positional_parameter_base@DV?$stream_output_adapter@D@__crt_stdio_output@@@2@@__crt_stdio_output@@AEAA_NXZ 00000001800ae9c0 f i libucrtd:output.obj
 0001:000ada50       ?state_case_width@?$output_processor@DV?$stream_output_adapter@D@__crt_stdio_output@@V?$standard_base@DV?$stream_output_adapter@D@__crt_stdio_output@@@2@@__crt_stdio_output@@AEAA_NXZ 00000001800aea50 f i libucrtd:output.obj
 0001:000adae0       ?state_case_width@?$output_processor@DV?$string_output_adapter@D@__crt_stdio_output@@V?$format_validation_base@DV?$string_output_adapter@D@__crt_stdio_output@@@2@@__crt_stdio_output@@AEAA_NXZ 00000001800aeae0 f i libucrtd:output.obj
 0001:000adb70       ?state_case_width@?$output_processor@DV?$string_output_adapter@D@__crt_stdio_output@@V?$positional_parameter_base@DV?$string_output_adapter@D@__crt_stdio_output@@@2@@__crt_stdio_output@@AEAA_NXZ 00000001800aeb70 f i libucrtd:output.obj
 0001:000adc00       ?state_case_width@?$output_processor@DV?$string_output_adapter@D@__crt_stdio_output@@V?$standard_base@DV?$string_output_adapter@D@__crt_stdio_output@@@2@@__crt_stdio_output@@AEAA_NXZ 00000001800aec00 f i libucrtd:output.obj
 0001:000adc90       ?state_case_width@?$output_processor@_WV?$stream_output_adapter@_W@__crt_stdio_output@@V?$format_validation_base@_WV?$stream_output_adapter@_W@__crt_stdio_output@@@2@@__crt_stdio_output@@AEAA_NXZ 00000001800aec90 f i libucrtd:output.obj
 0001:000add20       ?state_case_width@?$output_processor@_WV?$stream_output_adapter@_W@__crt_stdio_output@@V?$positional_parameter_base@_WV?$stream_output_adapter@_W@__crt_stdio_output@@@2@@__crt_stdio_output@@AEAA_NXZ 00000001800aed20 f i libucrtd:output.obj
 0001:000addb0       ?state_case_width@?$output_processor@_WV?$stream_output_adapter@_W@__crt_stdio_output@@V?$standard_base@_WV?$stream_output_adapter@_W@__crt_stdio_output@@@2@@__crt_stdio_output@@AEAA_NXZ 00000001800aedb0 f i libucrtd:output.obj
 0001:000ade40       ?state_case_width@?$output_processor@_WV?$string_output_adapter@_W@__crt_stdio_output@@V?$format_validation_base@_WV?$string_output_adapter@_W@__crt_stdio_output@@@2@@__crt_stdio_output@@AEAA_NXZ 00000001800aee40 f i libucrtd:output.obj
 0001:000aded0       ?state_case_width@?$output_processor@_WV?$string_output_adapter@_W@__crt_stdio_output@@V?$positional_parameter_base@_WV?$string_output_adapter@_W@__crt_stdio_output@@@2@@__crt_stdio_output@@AEAA_NXZ 00000001800aeed0 f i libucrtd:output.obj
 0001:000adf60       ?state_case_width@?$output_processor@_WV?$string_output_adapter@_W@__crt_stdio_output@@V?$standard_base@_WV?$string_output_adapter@_W@__crt_stdio_output@@@2@@__crt_stdio_output@@AEAA_NXZ 00000001800aef60 f i libucrtd:output.obj
 0001:000adff0       ?state_count@?$format_validation_base@DV?$stream_output_adapter@D@__crt_stdio_output@@@__crt_stdio_output@@KAIXZ 00000001800aeff0 f i libucrtd:output.obj
 0001:000ae000       ?state_count@?$format_validation_base@DV?$string_output_adapter@D@__crt_stdio_output@@@__crt_stdio_output@@KAIXZ 00000001800af000 f i libucrtd:output.obj
 0001:000ae010       ?state_count@?$format_validation_base@_WV?$stream_output_adapter@_W@__crt_stdio_output@@@__crt_stdio_output@@KAIXZ 00000001800af010 f i libucrtd:output.obj
 0001:000ae020       ?state_count@?$format_validation_base@_WV?$string_output_adapter@_W@__crt_stdio_output@@@__crt_stdio_output@@KAIXZ 00000001800af020 f i libucrtd:output.obj
 0001:000ae030       ?state_count@?$standard_base@DV?$stream_output_adapter@D@__crt_stdio_output@@@__crt_stdio_output@@KAIXZ 00000001800af030 f i libucrtd:output.obj
 0001:000ae040       ?state_count@?$standard_base@DV?$string_output_adapter@D@__crt_stdio_output@@@__crt_stdio_output@@KAIXZ 00000001800af040 f i libucrtd:output.obj
 0001:000ae050       ?state_count@?$standard_base@_WV?$stream_output_adapter@_W@__crt_stdio_output@@@__crt_stdio_output@@KAIXZ 00000001800af050 f i libucrtd:output.obj
 0001:000ae060       ?state_count@?$standard_base@_WV?$string_output_adapter@_W@__crt_stdio_output@@@__crt_stdio_output@@KAIXZ 00000001800af060 f i libucrtd:output.obj
 0001:000ae070       ?state_transition_table@?$format_validation_base@DV?$stream_output_adapter@D@__crt_stdio_output@@@__crt_stdio_output@@KAAEBV?$spectre_mitigated_lookup_table@Ustate_transition_pair@__crt_stdio_output@@$0IA@@2@XZ 00000001800af070 f i libucrtd:output.obj
 0001:000ae080       ?state_transition_table@?$format_validation_base@DV?$string_output_adapter@D@__crt_stdio_output@@@__crt_stdio_output@@KAAEBV?$spectre_mitigated_lookup_table@Ustate_transition_pair@__crt_stdio_output@@$0IA@@2@XZ 00000001800af080 f i libucrtd:output.obj
 0001:000ae090       ?state_transition_table@?$format_validation_base@_WV?$stream_output_adapter@_W@__crt_stdio_output@@@__crt_stdio_output@@KAAEBV?$spectre_mitigated_lookup_table@Ustate_transition_pair@__crt_stdio_output@@$0IA@@2@XZ 00000001800af090 f i libucrtd:output.obj
 0001:000ae0a0       ?state_transition_table@?$format_validation_base@_WV?$string_output_adapter@_W@__crt_stdio_output@@@__crt_stdio_output@@KAAEBV?$spectre_mitigated_lookup_table@Ustate_transition_pair@__crt_stdio_output@@$0IA@@2@XZ 00000001800af0a0 f i libucrtd:output.obj
 0001:000ae0b0       ?state_transition_table@?$standard_base@DV?$stream_output_adapter@D@__crt_stdio_output@@@__crt_stdio_output@@KAAEBV?$spectre_mitigated_lookup_table@Ustate_transition_pair@__crt_stdio_output@@$0IA@@2@XZ 00000001800af0b0 f i libucrtd:output.obj
 0001:000ae0c0       ?state_transition_table@?$standard_base@DV?$string_output_adapter@D@__crt_stdio_output@@@__crt_stdio_output@@KAAEBV?$spectre_mitigated_lookup_table@Ustate_transition_pair@__crt_stdio_output@@$0IA@@2@XZ 00000001800af0c0 f i libucrtd:output.obj
 0001:000ae0d0       ?state_transition_table@?$standard_base@_WV?$stream_output_adapter@_W@__crt_stdio_output@@@__crt_stdio_output@@KAAEBV?$spectre_mitigated_lookup_table@Ustate_transition_pair@__crt_stdio_output@@$0IA@@2@XZ 00000001800af0d0 f i libucrtd:output.obj
 0001:000ae0e0       ?state_transition_table@?$standard_base@_WV?$string_output_adapter@_W@__crt_stdio_output@@@__crt_stdio_output@@KAAEBV?$spectre_mitigated_lookup_table@Ustate_transition_pair@__crt_stdio_output@@$0IA@@2@XZ 00000001800af0e0 f i libucrtd:output.obj
 0001:000ae0f0       ?tchar_string@?$common_data@D@__crt_stdio_output@@IEAAAEAPEADD@Z 00000001800af0f0 f i libucrtd:output.obj
 0001:000ae110       ?tchar_string@?$common_data@D@__crt_stdio_output@@IEAAAEAPEADXZ 00000001800af110 f i libucrtd:output.obj
 0001:000ae130       ?tchar_string@?$common_data@_W@__crt_stdio_output@@IEAAAEAPEA_WXZ 00000001800af130 f i libucrtd:output.obj
 0001:000ae150       ?tchar_string@?$common_data@_W@__crt_stdio_output@@IEAAAEAPEA_W_W@Z 00000001800af150 f i libucrtd:output.obj
 0001:000ae170       ?to_integer_size@__crt_stdio_output@@YA_KW4length_modifier@1@@Z 00000001800af170 f i libucrtd:output.obj
 0001:000ae220       ?type_case_X@?$output_processor@DV?$stream_output_adapter@D@__crt_stdio_output@@V?$format_validation_base@DV?$stream_output_adapter@D@__crt_stdio_output@@@2@@__crt_stdio_output@@AEAA_NXZ 00000001800af220 f i libucrtd:output.obj
 0001:000ae240       ?type_case_X@?$output_processor@DV?$stream_output_adapter@D@__crt_stdio_output@@V?$positional_parameter_base@DV?$stream_output_adapter@D@__crt_stdio_output@@@2@@__crt_stdio_output@@AEAA_NXZ 00000001800af240 f i libucrtd:output.obj
 0001:000ae260       ?type_case_X@?$output_processor@DV?$stream_output_adapter@D@__crt_stdio_output@@V?$standard_base@DV?$stream_output_adapter@D@__crt_stdio_output@@@2@@__crt_stdio_output@@AEAA_NXZ 00000001800af260 f i libucrtd:output.obj
 0001:000ae280       ?type_case_X@?$output_processor@DV?$string_output_adapter@D@__crt_stdio_output@@V?$format_validation_base@DV?$string_output_adapter@D@__crt_stdio_output@@@2@@__crt_stdio_output@@AEAA_NXZ 00000001800af280 f i libucrtd:output.obj
 0001:000ae2a0       ?type_case_X@?$output_processor@DV?$string_output_adapter@D@__crt_stdio_output@@V?$positional_parameter_base@DV?$string_output_adapter@D@__crt_stdio_output@@@2@@__crt_stdio_output@@AEAA_NXZ 00000001800af2a0 f i libucrtd:output.obj
 0001:000ae2c0       ?type_case_X@?$output_processor@DV?$string_output_adapter@D@__crt_stdio_output@@V?$standard_base@DV?$string_output_adapter@D@__crt_stdio_output@@@2@@__crt_stdio_output@@AEAA_NXZ 00000001800af2c0 f i libucrtd:output.obj
 0001:000ae2e0       ?type_case_X@?$output_processor@_WV?$stream_output_adapter@_W@__crt_stdio_output@@V?$format_validation_base@_WV?$stream_output_adapter@_W@__crt_stdio_output@@@2@@__crt_stdio_output@@AEAA_NXZ 00000001800af2e0 f i libucrtd:output.obj
 0001:000ae300       ?type_case_X@?$output_processor@_WV?$stream_output_adapter@_W@__crt_stdio_output@@V?$positional_parameter_base@_WV?$stream_output_adapter@_W@__crt_stdio_output@@@2@@__crt_stdio_output@@AEAA_NXZ 00000001800af300 f i libucrtd:output.obj
 0001:000ae320       ?type_case_X@?$output_processor@_WV?$stream_output_adapter@_W@__crt_stdio_output@@V?$standard_base@_WV?$stream_output_adapter@_W@__crt_stdio_output@@@2@@__crt_stdio_output@@AEAA_NXZ 00000001800af320 f i libucrtd:output.obj
 0001:000ae340       ?type_case_X@?$output_processor@_WV?$string_output_adapter@_W@__crt_stdio_output@@V?$format_validation_base@_WV?$string_output_adapter@_W@__crt_stdio_output@@@2@@__crt_stdio_output@@AEAA_NXZ 00000001800af340 f i libucrtd:output.obj
 0001:000ae360       ?type_case_X@?$output_processor@_WV?$string_output_adapter@_W@__crt_stdio_output@@V?$positional_parameter_base@_WV?$string_output_adapter@_W@__crt_stdio_output@@@2@@__crt_stdio_output@@AEAA_NXZ 00000001800af360 f i libucrtd:output.obj
 0001:000ae380       ?type_case_X@?$output_processor@_WV?$string_output_adapter@_W@__crt_stdio_output@@V?$standard_base@_WV?$string_output_adapter@_W@__crt_stdio_output@@@2@@__crt_stdio_output@@AEAA_NXZ 00000001800af380 f i libucrtd:output.obj
 0001:000ae3a0       ?type_case_Z@?$output_processor@DV?$stream_output_adapter@D@__crt_stdio_output@@V?$format_validation_base@DV?$stream_output_adapter@D@__crt_stdio_output@@@2@@__crt_stdio_output@@AEAA_NXZ 00000001800af3a0 f i libucrtd:output.obj
 0001:000ae4c0       ?type_case_Z@?$output_processor@DV?$stream_output_adapter@D@__crt_stdio_output@@V?$positional_parameter_base@DV?$stream_output_adapter@D@__crt_stdio_output@@@2@@__crt_stdio_output@@AEAA_NXZ 00000001800af4c0 f i libucrtd:output.obj
 0001:000ae5e0       ?type_case_Z@?$output_processor@DV?$stream_output_adapter@D@__crt_stdio_output@@V?$standard_base@DV?$stream_output_adapter@D@__crt_stdio_output@@@2@@__crt_stdio_output@@AEAA_NXZ 00000001800af5e0 f i libucrtd:output.obj
 0001:000ae700       ?type_case_Z@?$output_processor@DV?$string_output_adapter@D@__crt_stdio_output@@V?$format_validation_base@DV?$string_output_adapter@D@__crt_stdio_output@@@2@@__crt_stdio_output@@AEAA_NXZ 00000001800af700 f i libucrtd:output.obj
 0001:000ae820       ?type_case_Z@?$output_processor@DV?$string_output_adapter@D@__crt_stdio_output@@V?$positional_parameter_base@DV?$string_output_adapter@D@__crt_stdio_output@@@2@@__crt_stdio_output@@AEAA_NXZ 00000001800af820 f i libucrtd:output.obj
 0001:000ae940       ?type_case_Z@?$output_processor@DV?$string_output_adapter@D@__crt_stdio_output@@V?$standard_base@DV?$string_output_adapter@D@__crt_stdio_output@@@2@@__crt_stdio_output@@AEAA_NXZ 00000001800af940 f i libucrtd:output.obj
 0001:000aea60       ?type_case_Z@?$output_processor@_WV?$stream_output_adapter@_W@__crt_stdio_output@@V?$format_validation_base@_WV?$stream_output_adapter@_W@__crt_stdio_output@@@2@@__crt_stdio_output@@AEAA_NXZ 00000001800afa60 f i libucrtd:output.obj
 0001:000aeb80       ?type_case_Z@?$output_processor@_WV?$stream_output_adapter@_W@__crt_stdio_output@@V?$positional_parameter_base@_WV?$stream_output_adapter@_W@__crt_stdio_output@@@2@@__crt_stdio_output@@AEAA_NXZ 00000001800afb80 f i libucrtd:output.obj
 0001:000aeca0       ?type_case_Z@?$output_processor@_WV?$stream_output_adapter@_W@__crt_stdio_output@@V?$standard_base@_WV?$stream_output_adapter@_W@__crt_stdio_output@@@2@@__crt_stdio_output@@AEAA_NXZ 00000001800afca0 f i libucrtd:output.obj
 0001:000aedc0       ?type_case_Z@?$output_processor@_WV?$string_output_adapter@_W@__crt_stdio_output@@V?$format_validation_base@_WV?$string_output_adapter@_W@__crt_stdio_output@@@2@@__crt_stdio_output@@AEAA_NXZ 00000001800afdc0 f i libucrtd:output.obj
 0001:000aeee0       ?type_case_Z@?$output_processor@_WV?$string_output_adapter@_W@__crt_stdio_output@@V?$positional_parameter_base@_WV?$string_output_adapter@_W@__crt_stdio_output@@@2@@__crt_stdio_output@@AEAA_NXZ 00000001800afee0 f i libucrtd:output.obj
 0001:000af000       ?type_case_Z@?$output_processor@_WV?$string_output_adapter@_W@__crt_stdio_output@@V?$standard_base@_WV?$string_output_adapter@_W@__crt_stdio_output@@@2@@__crt_stdio_output@@AEAA_NXZ 00000001800b0000 f i libucrtd:output.obj
 0001:000af120       ?type_case_a@?$output_processor@DV?$stream_output_adapter@D@__crt_stdio_output@@V?$format_validation_base@DV?$stream_output_adapter@D@__crt_stdio_output@@@2@@__crt_stdio_output@@AEAA_NXZ 00000001800b0120 f i libucrtd:output.obj
 0001:000af580       ?type_case_a@?$output_processor@DV?$stream_output_adapter@D@__crt_stdio_output@@V?$positional_parameter_base@DV?$stream_output_adapter@D@__crt_stdio_output@@@2@@__crt_stdio_output@@AEAA_NXZ 00000001800b0580 f i libucrtd:output.obj
 0001:000af9e0       ?type_case_a@?$output_processor@DV?$stream_output_adapter@D@__crt_stdio_output@@V?$standard_base@DV?$stream_output_adapter@D@__crt_stdio_output@@@2@@__crt_stdio_output@@AEAA_NXZ 00000001800b09e0 f i libucrtd:output.obj
 0001:000afe40       ?type_case_a@?$output_processor@DV?$string_output_adapter@D@__crt_stdio_output@@V?$format_validation_base@DV?$string_output_adapter@D@__crt_stdio_output@@@2@@__crt_stdio_output@@AEAA_NXZ 00000001800b0e40 f i libucrtd:output.obj
 0001:000b02a0       ?type_case_a@?$output_processor@DV?$string_output_adapter@D@__crt_stdio_output@@V?$positional_parameter_base@DV?$string_output_adapter@D@__crt_stdio_output@@@2@@__crt_stdio_output@@AEAA_NXZ 00000001800b12a0 f i libucrtd:output.obj
 0001:000b0700       ?type_case_a@?$output_processor@DV?$string_output_adapter@D@__crt_stdio_output@@V?$standard_base@DV?$string_output_adapter@D@__crt_stdio_output@@@2@@__crt_stdio_output@@AEAA_NXZ 00000001800b1700 f i libucrtd:output.obj
 0001:000b0b60       ?type_case_a@?$output_processor@_WV?$stream_output_adapter@_W@__crt_stdio_output@@V?$format_validation_base@_WV?$stream_output_adapter@_W@__crt_stdio_output@@@2@@__crt_stdio_output@@AEAA_NXZ 00000001800b1b60 f i libucrtd:output.obj
 0001:000b0fd0       ?type_case_a@?$output_processor@_WV?$stream_output_adapter@_W@__crt_stdio_output@@V?$positional_parameter_base@_WV?$stream_output_adapter@_W@__crt_stdio_output@@@2@@__crt_stdio_output@@AEAA_NXZ 00000001800b1fd0 f i libucrtd:output.obj
 0001:000b1440       ?type_case_a@?$output_processor@_WV?$stream_output_adapter@_W@__crt_stdio_output@@V?$standard_base@_WV?$stream_output_adapter@_W@__crt_stdio_output@@@2@@__crt_stdio_output@@AEAA_NXZ 00000001800b2440 f i libucrtd:output.obj
 0001:000b18b0       ?type_case_a@?$output_processor@_WV?$string_output_adapter@_W@__crt_stdio_output@@V?$format_validation_base@_WV?$string_output_adapter@_W@__crt_stdio_output@@@2@@__crt_stdio_output@@AEAA_NXZ 00000001800b28b0 f i libucrtd:output.obj
 0001:000b1d20       ?type_case_a@?$output_processor@_WV?$string_output_adapter@_W@__crt_stdio_output@@V?$positional_parameter_base@_WV?$string_output_adapter@_W@__crt_stdio_output@@@2@@__crt_stdio_output@@AEAA_NXZ 00000001800b2d20 f i libucrtd:output.obj
 0001:000b2190       ?type_case_a@?$output_processor@_WV?$string_output_adapter@_W@__crt_stdio_output@@V?$standard_base@_WV?$string_output_adapter@_W@__crt_stdio_output@@@2@@__crt_stdio_output@@AEAA_NXZ 00000001800b3190 f i libucrtd:output.obj
 0001:000b2600       ?type_case_c@?$output_processor@DV?$stream_output_adapter@D@__crt_stdio_output@@V?$format_validation_base@DV?$stream_output_adapter@D@__crt_stdio_output@@@2@@__crt_stdio_output@@AEAA_NXZ 00000001800b3600 f i libucrtd:output.obj
 0001:000b2620       ?type_case_c@?$output_processor@DV?$stream_output_adapter@D@__crt_stdio_output@@V?$positional_parameter_base@DV?$stream_output_adapter@D@__crt_stdio_output@@@2@@__crt_stdio_output@@AEAA_NXZ 00000001800b3620 f i libucrtd:output.obj
 0001:000b2640       ?type_case_c@?$output_processor@DV?$stream_output_adapter@D@__crt_stdio_output@@V?$standard_base@DV?$stream_output_adapter@D@__crt_stdio_output@@@2@@__crt_stdio_output@@AEAA_NXZ 00000001800b3640 f i libucrtd:output.obj
 0001:000b2660       ?type_case_c@?$output_processor@DV?$string_output_adapter@D@__crt_stdio_output@@V?$format_validation_base@DV?$string_output_adapter@D@__crt_stdio_output@@@2@@__crt_stdio_output@@AEAA_NXZ 00000001800b3660 f i libucrtd:output.obj
 0001:000b2680       ?type_case_c@?$output_processor@DV?$string_output_adapter@D@__crt_stdio_output@@V?$positional_parameter_base@DV?$string_output_adapter@D@__crt_stdio_output@@@2@@__crt_stdio_output@@AEAA_NXZ 00000001800b3680 f i libucrtd:output.obj
 0001:000b26a0       ?type_case_c@?$output_processor@DV?$string_output_adapter@D@__crt_stdio_output@@V?$standard_base@DV?$string_output_adapter@D@__crt_stdio_output@@@2@@__crt_stdio_output@@AEAA_NXZ 00000001800b36a0 f i libucrtd:output.obj
 0001:000b26c0       ?type_case_c@?$output_processor@_WV?$stream_output_adapter@_W@__crt_stdio_output@@V?$format_validation_base@_WV?$stream_output_adapter@_W@__crt_stdio_output@@@2@@__crt_stdio_output@@AEAA_NXZ 00000001800b36c0 f i libucrtd:output.obj
 0001:000b26e0       ?type_case_c@?$output_processor@_WV?$stream_output_adapter@_W@__crt_stdio_output@@V?$positional_parameter_base@_WV?$stream_output_adapter@_W@__crt_stdio_output@@@2@@__crt_stdio_output@@AEAA_NXZ 00000001800b36e0 f i libucrtd:output.obj
 0001:000b2700       ?type_case_c@?$output_processor@_WV?$stream_output_adapter@_W@__crt_stdio_output@@V?$standard_base@_WV?$stream_output_adapter@_W@__crt_stdio_output@@@2@@__crt_stdio_output@@AEAA_NXZ 00000001800b3700 f i libucrtd:output.obj
 0001:000b2720       ?type_case_c@?$output_processor@_WV?$string_output_adapter@_W@__crt_stdio_output@@V?$format_validation_base@_WV?$string_output_adapter@_W@__crt_stdio_output@@@2@@__crt_stdio_output@@AEAA_NXZ 00000001800b3720 f i libucrtd:output.obj
 0001:000b2740       ?type_case_c@?$output_processor@_WV?$string_output_adapter@_W@__crt_stdio_output@@V?$positional_parameter_base@_WV?$string_output_adapter@_W@__crt_stdio_output@@@2@@__crt_stdio_output@@AEAA_NXZ 00000001800b3740 f i libucrtd:output.obj
 0001:000b2760       ?type_case_c@?$output_processor@_WV?$string_output_adapter@_W@__crt_stdio_output@@V?$standard_base@_WV?$string_output_adapter@_W@__crt_stdio_output@@@2@@__crt_stdio_output@@AEAA_NXZ 00000001800b3760 f i libucrtd:output.obj
 0001:000b2780       ?type_case_c_tchar@?$output_processor@DV?$stream_output_adapter@D@__crt_stdio_output@@V?$format_validation_base@DV?$stream_output_adapter@D@__crt_stdio_output@@@2@@__crt_stdio_output@@AEAA_ND@Z 00000001800b3780 f i libucrtd:output.obj
 0001:000b28f0       ?type_case_c_tchar@?$output_processor@DV?$stream_output_adapter@D@__crt_stdio_output@@V?$positional_parameter_base@DV?$stream_output_adapter@D@__crt_stdio_output@@@2@@__crt_stdio_output@@AEAA_ND@Z 00000001800b38f0 f i libucrtd:output.obj
 0001:000b2a60       ?type_case_c_tchar@?$output_processor@DV?$stream_output_adapter@D@__crt_stdio_output@@V?$standard_base@DV?$stream_output_adapter@D@__crt_stdio_output@@@2@@__crt_stdio_output@@AEAA_ND@Z 00000001800b3a60 f i libucrtd:output.obj
 0001:000b2bd0       ?type_case_c_tchar@?$output_processor@DV?$string_output_adapter@D@__crt_stdio_output@@V?$format_validation_base@DV?$string_output_adapter@D@__crt_stdio_output@@@2@@__crt_stdio_output@@AEAA_ND@Z 00000001800b3bd0 f i libucrtd:output.obj
 0001:000b2d40       ?type_case_c_tchar@?$output_processor@DV?$string_output_adapter@D@__crt_stdio_output@@V?$positional_parameter_base@DV?$string_output_adapter@D@__crt_stdio_output@@@2@@__crt_stdio_output@@AEAA_ND@Z 00000001800b3d40 f i libucrtd:output.obj
 0001:000b2eb0       ?type_case_c_tchar@?$output_processor@DV?$string_output_adapter@D@__crt_stdio_output@@V?$standard_base@DV?$string_output_adapter@D@__crt_stdio_output@@@2@@__crt_stdio_output@@AEAA_ND@Z 00000001800b3eb0 f i libucrtd:output.obj
 0001:000b3020       ?type_case_c_tchar@?$output_processor@_WV?$stream_output_adapter@_W@__crt_stdio_output@@V?$format_validation_base@_WV?$stream_output_adapter@_W@__crt_stdio_output@@@2@@__crt_stdio_output@@AEAA_N_W@Z 00000001800b4020 f i libucrtd:output.obj
 0001:000b3180       ?type_case_c_tchar@?$output_processor@_WV?$stream_output_adapter@_W@__crt_stdio_output@@V?$positional_parameter_base@_WV?$stream_output_adapter@_W@__crt_stdio_output@@@2@@__crt_stdio_output@@AEAA_N_W@Z 00000001800b4180 f i libucrtd:output.obj
 0001:000b32e0       ?type_case_c_tchar@?$output_processor@_WV?$stream_output_adapter@_W@__crt_stdio_output@@V?$standard_base@_WV?$stream_output_adapter@_W@__crt_stdio_output@@@2@@__crt_stdio_output@@AEAA_N_W@Z 00000001800b42e0 f i libucrtd:output.obj
 0001:000b3440       ?type_case_c_tchar@?$output_processor@_WV?$string_output_adapter@_W@__crt_stdio_output@@V?$format_validation_base@_WV?$string_output_adapter@_W@__crt_stdio_output@@@2@@__crt_stdio_output@@AEAA_N_W@Z 00000001800b4440 f i libucrtd:output.obj
 0001:000b35a0       ?type_case_c_tchar@?$output_processor@_WV?$string_output_adapter@_W@__crt_stdio_output@@V?$positional_parameter_base@_WV?$string_output_adapter@_W@__crt_stdio_output@@@2@@__crt_stdio_output@@AEAA_N_W@Z 00000001800b45a0 f i libucrtd:output.obj
 0001:000b3700       ?type_case_c_tchar@?$output_processor@_WV?$string_output_adapter@_W@__crt_stdio_output@@V?$standard_base@_WV?$string_output_adapter@_W@__crt_stdio_output@@@2@@__crt_stdio_output@@AEAA_N_W@Z 00000001800b4700 f i libucrtd:output.obj
 0001:000b3860       ?type_case_d@?$output_processor@DV?$stream_output_adapter@D@__crt_stdio_output@@V?$format_validation_base@DV?$stream_output_adapter@D@__crt_stdio_output@@@2@@__crt_stdio_output@@AEAA_NXZ 00000001800b4860 f i libucrtd:output.obj
 0001:000b3890       ?type_case_d@?$output_processor@DV?$stream_output_adapter@D@__crt_stdio_output@@V?$positional_parameter_base@DV?$stream_output_adapter@D@__crt_stdio_output@@@2@@__crt_stdio_output@@AEAA_NXZ 00000001800b4890 f i libucrtd:output.obj
 0001:000b38c0       ?type_case_d@?$output_processor@DV?$stream_output_adapter@D@__crt_stdio_output@@V?$standard_base@DV?$stream_output_adapter@D@__crt_stdio_output@@@2@@__crt_stdio_output@@AEAA_NXZ 00000001800b48c0 f i libucrtd:output.obj
 0001:000b38f0       ?type_case_d@?$output_processor@DV?$string_output_adapter@D@__crt_stdio_output@@V?$format_validation_base@DV?$string_output_adapter@D@__crt_stdio_output@@@2@@__crt_stdio_output@@AEAA_NXZ 00000001800b48f0 f i libucrtd:output.obj
 0001:000b3920       ?type_case_d@?$output_processor@DV?$string_output_adapter@D@__crt_stdio_output@@V?$positional_parameter_base@DV?$string_output_adapter@D@__crt_stdio_output@@@2@@__crt_stdio_output@@AEAA_NXZ 00000001800b4920 f i libucrtd:output.obj
 0001:000b3950       ?type_case_d@?$output_processor@DV?$string_output_adapter@D@__crt_stdio_output@@V?$standard_base@DV?$string_output_adapter@D@__crt_stdio_output@@@2@@__crt_stdio_output@@AEAA_NXZ 00000001800b4950 f i libucrtd:output.obj
 0001:000b3980       ?type_case_d@?$output_processor@_WV?$stream_output_adapter@_W@__crt_stdio_output@@V?$format_validation_base@_WV?$stream_output_adapter@_W@__crt_stdio_output@@@2@@__crt_stdio_output@@AEAA_NXZ 00000001800b4980 f i libucrtd:output.obj
 0001:000b39b0       ?type_case_d@?$output_processor@_WV?$stream_output_adapter@_W@__crt_stdio_output@@V?$positional_parameter_base@_WV?$stream_output_adapter@_W@__crt_stdio_output@@@2@@__crt_stdio_output@@AEAA_NXZ 00000001800b49b0 f i libucrtd:output.obj
 0001:000b39e0       ?type_case_d@?$output_processor@_WV?$stream_output_adapter@_W@__crt_stdio_output@@V?$standard_base@_WV?$stream_output_adapter@_W@__crt_stdio_output@@@2@@__crt_stdio_output@@AEAA_NXZ 00000001800b49e0 f i libucrtd:output.obj
 0001:000b3a10       ?type_case_d@?$output_processor@_WV?$string_output_adapter@_W@__crt_stdio_output@@V?$format_validation_base@_WV?$string_output_adapter@_W@__crt_stdio_output@@@2@@__crt_stdio_output@@AEAA_NXZ 00000001800b4a10 f i libucrtd:output.obj
 0001:000b3a40       ?type_case_d@?$output_processor@_WV?$string_output_adapter@_W@__crt_stdio_output@@V?$positional_parameter_base@_WV?$string_output_adapter@_W@__crt_stdio_output@@@2@@__crt_stdio_output@@AEAA_NXZ 00000001800b4a40 f i libucrtd:output.obj
 0001:000b3a70       ?type_case_d@?$output_processor@_WV?$string_output_adapter@_W@__crt_stdio_output@@V?$standard_base@_WV?$string_output_adapter@_W@__crt_stdio_output@@@2@@__crt_stdio_output@@AEAA_NXZ 00000001800b4a70 f i libucrtd:output.obj
 0001:000b3aa0       ?type_case_n@?$output_processor@DV?$stream_output_adapter@D@__crt_stdio_output@@V?$format_validation_base@DV?$stream_output_adapter@D@__crt_stdio_output@@@2@@__crt_stdio_output@@AEAA_NXZ 00000001800b4aa0 f i libucrtd:output.obj
 0001:000b3d30       ?type_case_n@?$output_processor@DV?$stream_output_adapter@D@__crt_stdio_output@@V?$positional_parameter_base@DV?$stream_output_adapter@D@__crt_stdio_output@@@2@@__crt_stdio_output@@AEAA_NXZ 00000001800b4d30 f i libucrtd:output.obj
 0001:000b3fc0       ?type_case_n@?$output_processor@DV?$stream_output_adapter@D@__crt_stdio_output@@V?$standard_base@DV?$stream_output_adapter@D@__crt_stdio_output@@@2@@__crt_stdio_output@@AEAA_NXZ 00000001800b4fc0 f i libucrtd:output.obj
 0001:000b4250       ?type_case_n@?$output_processor@DV?$string_output_adapter@D@__crt_stdio_output@@V?$format_validation_base@DV?$string_output_adapter@D@__crt_stdio_output@@@2@@__crt_stdio_output@@AEAA_NXZ 00000001800b5250 f i libucrtd:output.obj
 0001:000b44e0       ?type_case_n@?$output_processor@DV?$string_output_adapter@D@__crt_stdio_output@@V?$positional_parameter_base@DV?$string_output_adapter@D@__crt_stdio_output@@@2@@__crt_stdio_output@@AEAA_NXZ 00000001800b54e0 f i libucrtd:output.obj
 0001:000b4770       ?type_case_n@?$output_processor@DV?$string_output_adapter@D@__crt_stdio_output@@V?$standard_base@DV?$string_output_adapter@D@__crt_stdio_output@@@2@@__crt_stdio_output@@AEAA_NXZ 00000001800b5770 f i libucrtd:output.obj
 0001:000b4a00       ?type_case_n@?$output_processor@_WV?$stream_output_adapter@_W@__crt_stdio_output@@V?$format_validation_base@_WV?$stream_output_adapter@_W@__crt_stdio_output@@@2@@__crt_stdio_output@@AEAA_NXZ 00000001800b5a00 f i libucrtd:output.obj
 0001:000b4c90       ?type_case_n@?$output_processor@_WV?$stream_output_adapter@_W@__crt_stdio_output@@V?$positional_parameter_base@_WV?$stream_output_adapter@_W@__crt_stdio_output@@@2@@__crt_stdio_output@@AEAA_NXZ 00000001800b5c90 f i libucrtd:output.obj
 0001:000b4f20       ?type_case_n@?$output_processor@_WV?$stream_output_adapter@_W@__crt_stdio_output@@V?$standard_base@_WV?$stream_output_adapter@_W@__crt_stdio_output@@@2@@__crt_stdio_output@@AEAA_NXZ 00000001800b5f20 f i libucrtd:output.obj
 0001:000b51b0       ?type_case_n@?$output_processor@_WV?$string_output_adapter@_W@__crt_stdio_output@@V?$format_validation_base@_WV?$string_output_adapter@_W@__crt_stdio_output@@@2@@__crt_stdio_output@@AEAA_NXZ 00000001800b61b0 f i libucrtd:output.obj
 0001:000b5440       ?type_case_n@?$output_processor@_WV?$string_output_adapter@_W@__crt_stdio_output@@V?$positional_parameter_base@_WV?$string_output_adapter@_W@__crt_stdio_output@@@2@@__crt_stdio_output@@AEAA_NXZ 00000001800b6440 f i libucrtd:output.obj
 0001:000b56d0       ?type_case_n@?$output_processor@_WV?$string_output_adapter@_W@__crt_stdio_output@@V?$standard_base@_WV?$string_output_adapter@_W@__crt_stdio_output@@@2@@__crt_stdio_output@@AEAA_NXZ 00000001800b66d0 f i libucrtd:output.obj
 0001:000b5960       ?type_case_o@?$output_processor@DV?$stream_output_adapter@D@__crt_stdio_output@@V?$format_validation_base@DV?$stream_output_adapter@D@__crt_stdio_output@@@2@@__crt_stdio_output@@AEAA_NXZ 00000001800b6960 f i libucrtd:output.obj
 0001:000b59a0       ?type_case_o@?$output_processor@DV?$stream_output_adapter@D@__crt_stdio_output@@V?$positional_parameter_base@DV?$stream_output_adapter@D@__crt_stdio_output@@@2@@__crt_stdio_output@@AEAA_NXZ 00000001800b69a0 f i libucrtd:output.obj
 0001:000b59e0       ?type_case_o@?$output_processor@DV?$stream_output_adapter@D@__crt_stdio_output@@V?$standard_base@DV?$stream_output_adapter@D@__crt_stdio_output@@@2@@__crt_stdio_output@@AEAA_NXZ 00000001800b69e0 f i libucrtd:output.obj
 0001:000b5a20       ?type_case_o@?$output_processor@DV?$string_output_adapter@D@__crt_stdio_output@@V?$format_validation_base@DV?$string_output_adapter@D@__crt_stdio_output@@@2@@__crt_stdio_output@@AEAA_NXZ 00000001800b6a20 f i libucrtd:output.obj
 0001:000b5a60       ?type_case_o@?$output_processor@DV?$string_output_adapter@D@__crt_stdio_output@@V?$positional_parameter_base@DV?$string_output_adapter@D@__crt_stdio_output@@@2@@__crt_stdio_output@@AEAA_NXZ 00000001800b6a60 f i libucrtd:output.obj
 0001:000b5aa0       ?type_case_o@?$output_processor@DV?$string_output_adapter@D@__crt_stdio_output@@V?$standard_base@DV?$string_output_adapter@D@__crt_stdio_output@@@2@@__crt_stdio_output@@AEAA_NXZ 00000001800b6aa0 f i libucrtd:output.obj
 0001:000b5ae0       ?type_case_o@?$output_processor@_WV?$stream_output_adapter@_W@__crt_stdio_output@@V?$format_validation_base@_WV?$stream_output_adapter@_W@__crt_stdio_output@@@2@@__crt_stdio_output@@AEAA_NXZ 00000001800b6ae0 f i libucrtd:output.obj
 0001:000b5b20       ?type_case_o@?$output_processor@_WV?$stream_output_adapter@_W@__crt_stdio_output@@V?$positional_parameter_base@_WV?$stream_output_adapter@_W@__crt_stdio_output@@@2@@__crt_stdio_output@@AEAA_NXZ 00000001800b6b20 f i libucrtd:output.obj
 0001:000b5b60       ?type_case_o@?$output_processor@_WV?$stream_output_adapter@_W@__crt_stdio_output@@V?$standard_base@_WV?$stream_output_adapter@_W@__crt_stdio_output@@@2@@__crt_stdio_output@@AEAA_NXZ 00000001800b6b60 f i libucrtd:output.obj
 0001:000b5ba0       ?type_case_o@?$output_processor@_WV?$string_output_adapter@_W@__crt_stdio_output@@V?$format_validation_base@_WV?$string_output_adapter@_W@__crt_stdio_output@@@2@@__crt_stdio_output@@AEAA_NXZ 00000001800b6ba0 f i libucrtd:output.obj
 0001:000b5be0       ?type_case_o@?$output_processor@_WV?$string_output_adapter@_W@__crt_stdio_output@@V?$positional_parameter_base@_WV?$string_output_adapter@_W@__crt_stdio_output@@@2@@__crt_stdio_output@@AEAA_NXZ 00000001800b6be0 f i libucrtd:output.obj
 0001:000b5c20       ?type_case_o@?$output_processor@_WV?$string_output_adapter@_W@__crt_stdio_output@@V?$standard_base@_WV?$string_output_adapter@_W@__crt_stdio_output@@@2@@__crt_stdio_output@@AEAA_NXZ 00000001800b6c20 f i libucrtd:output.obj
 0001:000b5c60       ?type_case_p@?$output_processor@DV?$stream_output_adapter@D@__crt_stdio_output@@V?$format_validation_base@DV?$stream_output_adapter@D@__crt_stdio_output@@@2@@__crt_stdio_output@@AEAA_NXZ 00000001800b6c60 f i libucrtd:output.obj
 0001:000b5ca0       ?type_case_p@?$output_processor@DV?$stream_output_adapter@D@__crt_stdio_output@@V?$positional_parameter_base@DV?$stream_output_adapter@D@__crt_stdio_output@@@2@@__crt_stdio_output@@AEAA_NXZ 00000001800b6ca0 f i libucrtd:output.obj
 0001:000b5ce0       ?type_case_p@?$output_processor@DV?$stream_output_adapter@D@__crt_stdio_output@@V?$standard_base@DV?$stream_output_adapter@D@__crt_stdio_output@@@2@@__crt_stdio_output@@AEAA_NXZ 00000001800b6ce0 f i libucrtd:output.obj
 0001:000b5d20       ?type_case_p@?$output_processor@DV?$string_output_adapter@D@__crt_stdio_output@@V?$format_validation_base@DV?$string_output_adapter@D@__crt_stdio_output@@@2@@__crt_stdio_output@@AEAA_NXZ 00000001800b6d20 f i libucrtd:output.obj
 0001:000b5d60       ?type_case_p@?$output_processor@DV?$string_output_adapter@D@__crt_stdio_output@@V?$positional_parameter_base@DV?$string_output_adapter@D@__crt_stdio_output@@@2@@__crt_stdio_output@@AEAA_NXZ 00000001800b6d60 f i libucrtd:output.obj
 0001:000b5da0       ?type_case_p@?$output_processor@DV?$string_output_adapter@D@__crt_stdio_output@@V?$standard_base@DV?$string_output_adapter@D@__crt_stdio_output@@@2@@__crt_stdio_output@@AEAA_NXZ 00000001800b6da0 f i libucrtd:output.obj
 0001:000b5de0       ?type_case_p@?$output_processor@_WV?$stream_output_adapter@_W@__crt_stdio_output@@V?$format_validation_base@_WV?$stream_output_adapter@_W@__crt_stdio_output@@@2@@__crt_stdio_output@@AEAA_NXZ 00000001800b6de0 f i libucrtd:output.obj
 0001:000b5e20       ?type_case_p@?$output_processor@_WV?$stream_output_adapter@_W@__crt_stdio_output@@V?$positional_parameter_base@_WV?$stream_output_adapter@_W@__crt_stdio_output@@@2@@__crt_stdio_output@@AEAA_NXZ 00000001800b6e20 f i libucrtd:output.obj
 0001:000b5e60       ?type_case_p@?$output_processor@_WV?$stream_output_adapter@_W@__crt_stdio_output@@V?$standard_base@_WV?$stream_output_adapter@_W@__crt_stdio_output@@@2@@__crt_stdio_output@@AEAA_NXZ 00000001800b6e60 f i libucrtd:output.obj
 0001:000b5ea0       ?type_case_p@?$output_processor@_WV?$string_output_adapter@_W@__crt_stdio_output@@V?$format_validation_base@_WV?$string_output_adapter@_W@__crt_stdio_output@@@2@@__crt_stdio_output@@AEAA_NXZ 00000001800b6ea0 f i libucrtd:output.obj
 0001:000b5ee0       ?type_case_p@?$output_processor@_WV?$string_output_adapter@_W@__crt_stdio_output@@V?$positional_parameter_base@_WV?$string_output_adapter@_W@__crt_stdio_output@@@2@@__crt_stdio_output@@AEAA_NXZ 00000001800b6ee0 f i libucrtd:output.obj
 0001:000b5f20       ?type_case_p@?$output_processor@_WV?$string_output_adapter@_W@__crt_stdio_output@@V?$standard_base@_WV?$string_output_adapter@_W@__crt_stdio_output@@@2@@__crt_stdio_output@@AEAA_NXZ 00000001800b6f20 f i libucrtd:output.obj
 0001:000b5f60       ?type_case_s@?$output_processor@DV?$stream_output_adapter@D@__crt_stdio_output@@V?$format_validation_base@DV?$stream_output_adapter@D@__crt_stdio_output@@@2@@__crt_stdio_output@@AEAA_NXZ 00000001800b6f60 f i libucrtd:output.obj
 0001:000b6080       ?type_case_s@?$output_processor@DV?$stream_output_adapter@D@__crt_stdio_output@@V?$positional_parameter_base@DV?$stream_output_adapter@D@__crt_stdio_output@@@2@@__crt_stdio_output@@AEAA_NXZ 00000001800b7080 f i libucrtd:output.obj
 0001:000b61a0       ?type_case_s@?$output_processor@DV?$stream_output_adapter@D@__crt_stdio_output@@V?$standard_base@DV?$stream_output_adapter@D@__crt_stdio_output@@@2@@__crt_stdio_output@@AEAA_NXZ 00000001800b71a0 f i libucrtd:output.obj
 0001:000b62c0       ?type_case_s@?$output_processor@DV?$string_output_adapter@D@__crt_stdio_output@@V?$format_validation_base@DV?$string_output_adapter@D@__crt_stdio_output@@@2@@__crt_stdio_output@@AEAA_NXZ 00000001800b72c0 f i libucrtd:output.obj
 0001:000b63e0       ?type_case_s@?$output_processor@DV?$string_output_adapter@D@__crt_stdio_output@@V?$positional_parameter_base@DV?$string_output_adapter@D@__crt_stdio_output@@@2@@__crt_stdio_output@@AEAA_NXZ 00000001800b73e0 f i libucrtd:output.obj
 0001:000b6500       ?type_case_s@?$output_processor@DV?$string_output_adapter@D@__crt_stdio_output@@V?$standard_base@DV?$string_output_adapter@D@__crt_stdio_output@@@2@@__crt_stdio_output@@AEAA_NXZ 00000001800b7500 f i libucrtd:output.obj
 0001:000b6620       ?type_case_s@?$output_processor@_WV?$stream_output_adapter@_W@__crt_stdio_output@@V?$format_validation_base@_WV?$stream_output_adapter@_W@__crt_stdio_output@@@2@@__crt_stdio_output@@AEAA_NXZ 00000001800b7620 f i libucrtd:output.obj
 0001:000b6740       ?type_case_s@?$output_processor@_WV?$stream_output_adapter@_W@__crt_stdio_output@@V?$positional_parameter_base@_WV?$stream_output_adapter@_W@__crt_stdio_output@@@2@@__crt_stdio_output@@AEAA_NXZ 00000001800b7740 f i libucrtd:output.obj
 0001:000b6860       ?type_case_s@?$output_processor@_WV?$stream_output_adapter@_W@__crt_stdio_output@@V?$standard_base@_WV?$stream_output_adapter@_W@__crt_stdio_output@@@2@@__crt_stdio_output@@AEAA_NXZ 00000001800b7860 f i libucrtd:output.obj
 0001:000b6980       ?type_case_s@?$output_processor@_WV?$string_output_adapter@_W@__crt_stdio_output@@V?$format_validation_base@_WV?$string_output_adapter@_W@__crt_stdio_output@@@2@@__crt_stdio_output@@AEAA_NXZ 00000001800b7980 f i libucrtd:output.obj
 0001:000b6aa0       ?type_case_s@?$output_processor@_WV?$string_output_adapter@_W@__crt_stdio_output@@V?$positional_parameter_base@_WV?$string_output_adapter@_W@__crt_stdio_output@@@2@@__crt_stdio_output@@AEAA_NXZ 00000001800b7aa0 f i libucrtd:output.obj
 0001:000b6bc0       ?type_case_s@?$output_processor@_WV?$string_output_adapter@_W@__crt_stdio_output@@V?$standard_base@_WV?$string_output_adapter@_W@__crt_stdio_output@@@2@@__crt_stdio_output@@AEAA_NXZ 00000001800b7bc0 f i libucrtd:output.obj
 0001:000b6ce0       ?type_case_s_compute_narrow_string_length@?$output_processor@DV?$stream_output_adapter@D@__crt_stdio_output@@V?$format_validation_base@DV?$stream_output_adapter@D@__crt_stdio_output@@@2@@__crt_stdio_output@@AEAAHHD@Z 00000001800b7ce0 f i libucrtd:output.obj
 0001:000b6d10       ?type_case_s_compute_narrow_string_length@?$output_processor@DV?$stream_output_adapter@D@__crt_stdio_output@@V?$positional_parameter_base@DV?$stream_output_adapter@D@__crt_stdio_output@@@2@@__crt_stdio_output@@AEAAHHD@Z 00000001800b7d10 f i libucrtd:output.obj
 0001:000b6d40       ?type_case_s_compute_narrow_string_length@?$output_processor@DV?$stream_output_adapter@D@__crt_stdio_output@@V?$standard_base@DV?$stream_output_adapter@D@__crt_stdio_output@@@2@@__crt_stdio_output@@AEAAHHD@Z 00000001800b7d40 f i libucrtd:output.obj
 0001:000b6d70       ?type_case_s_compute_narrow_string_length@?$output_processor@DV?$string_output_adapter@D@__crt_stdio_output@@V?$format_validation_base@DV?$string_output_adapter@D@__crt_stdio_output@@@2@@__crt_stdio_output@@AEAAHHD@Z 00000001800b7d70 f i libucrtd:output.obj
 0001:000b6da0       ?type_case_s_compute_narrow_string_length@?$output_processor@DV?$string_output_adapter@D@__crt_stdio_output@@V?$positional_parameter_base@DV?$string_output_adapter@D@__crt_stdio_output@@@2@@__crt_stdio_output@@AEAAHHD@Z 00000001800b7da0 f i libucrtd:output.obj
 0001:000b6dd0       ?type_case_s_compute_narrow_string_length@?$output_processor@DV?$string_output_adapter@D@__crt_stdio_output@@V?$standard_base@DV?$string_output_adapter@D@__crt_stdio_output@@@2@@__crt_stdio_output@@AEAAHHD@Z 00000001800b7dd0 f i libucrtd:output.obj
 0001:000b6e00       ?type_case_s_compute_narrow_string_length@?$output_processor@_WV?$stream_output_adapter@_W@__crt_stdio_output@@V?$format_validation_base@_WV?$stream_output_adapter@_W@__crt_stdio_output@@@2@@__crt_stdio_output@@AEAAHH_W@Z 00000001800b7e00 f i libucrtd:output.obj
 0001:000b6ea0       ?type_case_s_compute_narrow_string_length@?$output_processor@_WV?$stream_output_adapter@_W@__crt_stdio_output@@V?$positional_parameter_base@_WV?$stream_output_adapter@_W@__crt_stdio_output@@@2@@__crt_stdio_output@@AEAAHH_W@Z 00000001800b7ea0 f i libucrtd:output.obj
 0001:000b6f40       ?type_case_s_compute_narrow_string_length@?$output_processor@_WV?$stream_output_adapter@_W@__crt_stdio_output@@V?$standard_base@_WV?$stream_output_adapter@_W@__crt_stdio_output@@@2@@__crt_stdio_output@@AEAAHH_W@Z 00000001800b7f40 f i libucrtd:output.obj
 0001:000b6fe0       ?type_case_s_compute_narrow_string_length@?$output_processor@_WV?$string_output_adapter@_W@__crt_stdio_output@@V?$format_validation_base@_WV?$string_output_adapter@_W@__crt_stdio_output@@@2@@__crt_stdio_output@@AEAAHH_W@Z 00000001800b7fe0 f i libucrtd:output.obj
 0001:000b7080       ?type_case_s_compute_narrow_string_length@?$output_processor@_WV?$string_output_adapter@_W@__crt_stdio_output@@V?$positional_parameter_base@_WV?$string_output_adapter@_W@__crt_stdio_output@@@2@@__crt_stdio_output@@AEAAHH_W@Z 00000001800b8080 f i libucrtd:output.obj
 0001:000b7120       ?type_case_s_compute_narrow_string_length@?$output_processor@_WV?$string_output_adapter@_W@__crt_stdio_output@@V?$standard_base@_WV?$string_output_adapter@_W@__crt_stdio_output@@@2@@__crt_stdio_output@@AEAAHH_W@Z 00000001800b8120 f i libucrtd:output.obj
 0001:000b71c0       ?type_case_u@?$output_processor@DV?$stream_output_adapter@D@__crt_stdio_output@@V?$format_validation_base@DV?$stream_output_adapter@D@__crt_stdio_output@@@2@@__crt_stdio_output@@AEAA_NXZ 00000001800b81c0 f i libucrtd:output.obj
 0001:000b71e0       ?type_case_u@?$output_processor@DV?$stream_output_adapter@D@__crt_stdio_output@@V?$positional_parameter_base@DV?$stream_output_adapter@D@__crt_stdio_output@@@2@@__crt_stdio_output@@AEAA_NXZ 00000001800b81e0 f i libucrtd:output.obj
 0001:000b7200       ?type_case_u@?$output_processor@DV?$stream_output_adapter@D@__crt_stdio_output@@V?$standard_base@DV?$stream_output_adapter@D@__crt_stdio_output@@@2@@__crt_stdio_output@@AEAA_NXZ 00000001800b8200 f i libucrtd:output.obj
 0001:000b7220       ?type_case_u@?$output_processor@DV?$string_output_adapter@D@__crt_stdio_output@@V?$format_validation_base@DV?$string_output_adapter@D@__crt_stdio_output@@@2@@__crt_stdio_output@@AEAA_NXZ 00000001800b8220 f i libucrtd:output.obj
 0001:000b7240       ?type_case_u@?$output_processor@DV?$string_output_adapter@D@__crt_stdio_output@@V?$positional_parameter_base@DV?$string_output_adapter@D@__crt_stdio_output@@@2@@__crt_stdio_output@@AEAA_NXZ 00000001800b8240 f i libucrtd:output.obj
 0001:000b7260       ?type_case_u@?$output_processor@DV?$string_output_adapter@D@__crt_stdio_output@@V?$standard_base@DV?$string_output_adapter@D@__crt_stdio_output@@@2@@__crt_stdio_output@@AEAA_NXZ 00000001800b8260 f i libucrtd:output.obj
 0001:000b7280       ?type_case_u@?$output_processor@_WV?$stream_output_adapter@_W@__crt_stdio_output@@V?$format_validation_base@_WV?$stream_output_adapter@_W@__crt_stdio_output@@@2@@__crt_stdio_output@@AEAA_NXZ 00000001800b8280 f i libucrtd:output.obj
 0001:000b72a0       ?type_case_u@?$output_processor@_WV?$stream_output_adapter@_W@__crt_stdio_output@@V?$positional_parameter_base@_WV?$stream_output_adapter@_W@__crt_stdio_output@@@2@@__crt_stdio_output@@AEAA_NXZ 00000001800b82a0 f i libucrtd:output.obj
 0001:000b72c0       ?type_case_u@?$output_processor@_WV?$stream_output_adapter@_W@__crt_stdio_output@@V?$standard_base@_WV?$stream_output_adapter@_W@__crt_stdio_output@@@2@@__crt_stdio_output@@AEAA_NXZ 00000001800b82c0 f i libucrtd:output.obj
 0001:000b72e0       ?type_case_u@?$output_processor@_WV?$string_output_adapter@_W@__crt_stdio_output@@V?$format_validation_base@_WV?$string_output_adapter@_W@__crt_stdio_output@@@2@@__crt_stdio_output@@AEAA_NXZ 00000001800b82e0 f i libucrtd:output.obj
 0001:000b7300       ?type_case_u@?$output_processor@_WV?$string_output_adapter@_W@__crt_stdio_output@@V?$positional_parameter_base@_WV?$string_output_adapter@_W@__crt_stdio_output@@@2@@__crt_stdio_output@@AEAA_NXZ 00000001800b8300 f i libucrtd:output.obj
 0001:000b7320       ?type_case_u@?$output_processor@_WV?$string_output_adapter@_W@__crt_stdio_output@@V?$standard_base@_WV?$string_output_adapter@_W@__crt_stdio_output@@@2@@__crt_stdio_output@@AEAA_NXZ 00000001800b8320 f i libucrtd:output.obj
 0001:000b7340       ?type_case_x@?$output_processor@DV?$stream_output_adapter@D@__crt_stdio_output@@V?$format_validation_base@DV?$stream_output_adapter@D@__crt_stdio_output@@@2@@__crt_stdio_output@@AEAA_NXZ 00000001800b8340 f i libucrtd:output.obj
 0001:000b7360       ?type_case_x@?$output_processor@DV?$stream_output_adapter@D@__crt_stdio_output@@V?$positional_parameter_base@DV?$stream_output_adapter@D@__crt_stdio_output@@@2@@__crt_stdio_output@@AEAA_NXZ 00000001800b8360 f i libucrtd:output.obj
 0001:000b7380       ?type_case_x@?$output_processor@DV?$stream_output_adapter@D@__crt_stdio_output@@V?$standard_base@DV?$stream_output_adapter@D@__crt_stdio_output@@@2@@__crt_stdio_output@@AEAA_NXZ 00000001800b8380 f i libucrtd:output.obj
 0001:000b73a0       ?type_case_x@?$output_processor@DV?$string_output_adapter@D@__crt_stdio_output@@V?$format_validation_base@DV?$string_output_adapter@D@__crt_stdio_output@@@2@@__crt_stdio_output@@AEAA_NXZ 00000001800b83a0 f i libucrtd:output.obj
 0001:000b73c0       ?type_case_x@?$output_processor@DV?$string_output_adapter@D@__crt_stdio_output@@V?$positional_parameter_base@DV?$string_output_adapter@D@__crt_stdio_output@@@2@@__crt_stdio_output@@AEAA_NXZ 00000001800b83c0 f i libucrtd:output.obj
 0001:000b73e0       ?type_case_x@?$output_processor@DV?$string_output_adapter@D@__crt_stdio_output@@V?$standard_base@DV?$string_output_adapter@D@__crt_stdio_output@@@2@@__crt_stdio_output@@AEAA_NXZ 00000001800b83e0 f i libucrtd:output.obj
 0001:000b7400       ?type_case_x@?$output_processor@_WV?$stream_output_adapter@_W@__crt_stdio_output@@V?$format_validation_base@_WV?$stream_output_adapter@_W@__crt_stdio_output@@@2@@__crt_stdio_output@@AEAA_NXZ 00000001800b8400 f i libucrtd:output.obj
 0001:000b7420       ?type_case_x@?$output_processor@_WV?$stream_output_adapter@_W@__crt_stdio_output@@V?$positional_parameter_base@_WV?$stream_output_adapter@_W@__crt_stdio_output@@@2@@__crt_stdio_output@@AEAA_NXZ 00000001800b8420 f i libucrtd:output.obj
 0001:000b7440       ?type_case_x@?$output_processor@_WV?$stream_output_adapter@_W@__crt_stdio_output@@V?$standard_base@_WV?$stream_output_adapter@_W@__crt_stdio_output@@@2@@__crt_stdio_output@@AEAA_NXZ 00000001800b8440 f i libucrtd:output.obj
 0001:000b7460       ?type_case_x@?$output_processor@_WV?$string_output_adapter@_W@__crt_stdio_output@@V?$format_validation_base@_WV?$string_output_adapter@_W@__crt_stdio_output@@@2@@__crt_stdio_output@@AEAA_NXZ 00000001800b8460 f i libucrtd:output.obj
 0001:000b7480       ?type_case_x@?$output_processor@_WV?$string_output_adapter@_W@__crt_stdio_output@@V?$positional_parameter_base@_WV?$string_output_adapter@_W@__crt_stdio_output@@@2@@__crt_stdio_output@@AEAA_NXZ 00000001800b8480 f i libucrtd:output.obj
 0001:000b74a0       ?type_case_x@?$output_processor@_WV?$string_output_adapter@_W@__crt_stdio_output@@V?$standard_base@_WV?$string_output_adapter@_W@__crt_stdio_output@@@2@@__crt_stdio_output@@AEAA_NXZ 00000001800b84a0 f i libucrtd:output.obj
 0001:000b74c0       ?unget@?$c_string_character_source@D@__crt_strtox@@QEAAXD@Z 00000001800b84c0 f i libucrtd:output.obj
 0001:000b75a0       ?unget@?$c_string_character_source@_W@__crt_strtox@@QEAAX_W@Z 00000001800b85a0 f i libucrtd:output.obj
 0001:000b7680       ?unsafe_value@?$cached@H@__crt_cached_ptd_host@@QEAAHXZ 00000001800b8680 f i libucrtd:output.obj
 0001:000b7690       ?unsafe_value@?$cached@K@__crt_cached_ptd_host@@QEAAKXZ 00000001800b8690 f i libucrtd:output.obj
 0001:000b76a0       ?unset_flag@?$output_processor@DV?$stream_output_adapter@D@__crt_stdio_output@@V?$format_validation_base@DV?$stream_output_adapter@D@__crt_stdio_output@@@2@@__crt_stdio_output@@AEAAXI@Z 00000001800b86a0 f i libucrtd:output.obj
 0001:000b76d0       ?unset_flag@?$output_processor@DV?$stream_output_adapter@D@__crt_stdio_output@@V?$positional_parameter_base@DV?$stream_output_adapter@D@__crt_stdio_output@@@2@@__crt_stdio_output@@AEAAXI@Z 00000001800b86d0 f i libucrtd:output.obj
 0001:000b7700       ?unset_flag@?$output_processor@DV?$stream_output_adapter@D@__crt_stdio_output@@V?$standard_base@DV?$stream_output_adapter@D@__crt_stdio_output@@@2@@__crt_stdio_output@@AEAAXI@Z 00000001800b8700 f i libucrtd:output.obj
 0001:000b7730       ?unset_flag@?$output_processor@DV?$string_output_adapter@D@__crt_stdio_output@@V?$format_validation_base@DV?$string_output_adapter@D@__crt_stdio_output@@@2@@__crt_stdio_output@@AEAAXI@Z 00000001800b8730 f i libucrtd:output.obj
 0001:000b7760       ?unset_flag@?$output_processor@DV?$string_output_adapter@D@__crt_stdio_output@@V?$positional_parameter_base@DV?$string_output_adapter@D@__crt_stdio_output@@@2@@__crt_stdio_output@@AEAAXI@Z 00000001800b8760 f i libucrtd:output.obj
 0001:000b7790       ?unset_flag@?$output_processor@DV?$string_output_adapter@D@__crt_stdio_output@@V?$standard_base@DV?$string_output_adapter@D@__crt_stdio_output@@@2@@__crt_stdio_output@@AEAAXI@Z 00000001800b8790 f i libucrtd:output.obj
 0001:000b77c0       ?unset_flag@?$output_processor@_WV?$stream_output_adapter@_W@__crt_stdio_output@@V?$format_validation_base@_WV?$stream_output_adapter@_W@__crt_stdio_output@@@2@@__crt_stdio_output@@AEAAXI@Z 00000001800b87c0 f i libucrtd:output.obj
 0001:000b77f0       ?unset_flag@?$output_processor@_WV?$stream_output_adapter@_W@__crt_stdio_output@@V?$positional_parameter_base@_WV?$stream_output_adapter@_W@__crt_stdio_output@@@2@@__crt_stdio_output@@AEAAXI@Z 00000001800b87f0 f i libucrtd:output.obj
 0001:000b7820       ?unset_flag@?$output_processor@_WV?$stream_output_adapter@_W@__crt_stdio_output@@V?$standard_base@_WV?$stream_output_adapter@_W@__crt_stdio_output@@@2@@__crt_stdio_output@@AEAAXI@Z 00000001800b8820 f i libucrtd:output.obj
 0001:000b7850       ?unset_flag@?$output_processor@_WV?$string_output_adapter@_W@__crt_stdio_output@@V?$format_validation_base@_WV?$string_output_adapter@_W@__crt_stdio_output@@@2@@__crt_stdio_output@@AEAAXI@Z 00000001800b8850 f i libucrtd:output.obj
